   1              	 .cpu cortex-m4
   2              	 .arch armv7e-m
   3              	 .fpu softvfp
   4              	 .eabi_attribute 20,1
   5              	 .eabi_attribute 21,1
   6              	 .eabi_attribute 23,3
   7              	 .eabi_attribute 24,1
   8              	 .eabi_attribute 25,1
   9              	 .eabi_attribute 26,1
  10              	 .eabi_attribute 30,4
  11              	 .eabi_attribute 34,1
  12              	 .eabi_attribute 18,4
  13              	 .file "fips202.c"
  14              	 .text
  15              	.Ltext0:
  16              	 .cfi_sections .debug_frame
  17              	 .file 1 "fips202.c"
  18              	 .section .text.KeccakF1600_StatePermute,"ax",%progbits
  19              	 .align 1
  20              	 .syntax unified
  21              	 .thumb
  22              	 .thumb_func
  24              	KeccakF1600_StatePermute:
  25              	.LVL0:
  26              	.LFB2:
   1:fips202.c     **** /* Based on the public domain implementation in
   2:fips202.c     ****  * crypto_hash/keccakc512/simple/ from http://bench.cr.yp.to/supercop.html
   3:fips202.c     ****  * by Ronny Van Keer
   4:fips202.c     ****  * and the public domain "TweetFips202" implementation
   5:fips202.c     ****  * from https://twitter.com/tweetfips202
   6:fips202.c     ****  * by Gilles Van Assche, Daniel J. Bernstein, and Peter Schwabe */
   7:fips202.c     **** 
   8:fips202.c     **** #include <stddef.h>
   9:fips202.c     **** #include <stdint.h>
  10:fips202.c     **** #include "fips202.h"
  11:fips202.c     **** 
  12:fips202.c     **** #define NROUNDS 24
  13:fips202.c     **** #define ROL(a, offset) ((a << offset) ^ (a >> (64-offset)))
  14:fips202.c     **** 
  15:fips202.c     **** /*************************************************
  16:fips202.c     **** * Name:        load64
  17:fips202.c     **** *
  18:fips202.c     **** * Description: Load 8 bytes into uint64_t in little-endian order
  19:fips202.c     **** *
  20:fips202.c     **** * Arguments:   - const uint8_t *x: pointer to input byte array
  21:fips202.c     **** *
  22:fips202.c     **** * Returns the loaded 64-bit unsigned integer
  23:fips202.c     **** **************************************************/
  24:fips202.c     **** static uint64_t load64(const uint8_t x[8]) {
  25:fips202.c     ****   unsigned int i;
  26:fips202.c     ****   uint64_t r = 0;
  27:fips202.c     **** 
  28:fips202.c     ****   for(i=0;i<8;i++)
  29:fips202.c     ****     r |= (uint64_t)x[i] << 8*i;
  30:fips202.c     **** 
  31:fips202.c     ****   return r;
  32:fips202.c     **** }
  33:fips202.c     **** 
  34:fips202.c     **** /*************************************************
  35:fips202.c     **** * Name:        store64
  36:fips202.c     **** *
  37:fips202.c     **** * Description: Store a 64-bit integer to array of 8 bytes in little-endian order
  38:fips202.c     **** *
  39:fips202.c     **** * Arguments:   - uint8_t *x: pointer to the output byte array (allocated)
  40:fips202.c     **** *              - uint64_t u: input 64-bit unsigned integer
  41:fips202.c     **** **************************************************/
  42:fips202.c     **** static void store64(uint8_t x[8], uint64_t u) {
  43:fips202.c     ****   unsigned int i;
  44:fips202.c     **** 
  45:fips202.c     ****   for(i=0;i<8;i++)
  46:fips202.c     ****     x[i] = u >> 8*i;
  47:fips202.c     **** }
  48:fips202.c     **** 
  49:fips202.c     **** /* Keccak round constants */
  50:fips202.c     **** static const uint64_t KeccakF_RoundConstants[NROUNDS] = {
  51:fips202.c     ****   (uint64_t)0x0000000000000001ULL,
  52:fips202.c     ****   (uint64_t)0x0000000000008082ULL,
  53:fips202.c     ****   (uint64_t)0x800000000000808aULL,
  54:fips202.c     ****   (uint64_t)0x8000000080008000ULL,
  55:fips202.c     ****   (uint64_t)0x000000000000808bULL,
  56:fips202.c     ****   (uint64_t)0x0000000080000001ULL,
  57:fips202.c     ****   (uint64_t)0x8000000080008081ULL,
  58:fips202.c     ****   (uint64_t)0x8000000000008009ULL,
  59:fips202.c     ****   (uint64_t)0x000000000000008aULL,
  60:fips202.c     ****   (uint64_t)0x0000000000000088ULL,
  61:fips202.c     ****   (uint64_t)0x0000000080008009ULL,
  62:fips202.c     ****   (uint64_t)0x000000008000000aULL,
  63:fips202.c     ****   (uint64_t)0x000000008000808bULL,
  64:fips202.c     ****   (uint64_t)0x800000000000008bULL,
  65:fips202.c     ****   (uint64_t)0x8000000000008089ULL,
  66:fips202.c     ****   (uint64_t)0x8000000000008003ULL,
  67:fips202.c     ****   (uint64_t)0x8000000000008002ULL,
  68:fips202.c     ****   (uint64_t)0x8000000000000080ULL,
  69:fips202.c     ****   (uint64_t)0x000000000000800aULL,
  70:fips202.c     ****   (uint64_t)0x800000008000000aULL,
  71:fips202.c     ****   (uint64_t)0x8000000080008081ULL,
  72:fips202.c     ****   (uint64_t)0x8000000000008080ULL,
  73:fips202.c     ****   (uint64_t)0x0000000080000001ULL,
  74:fips202.c     ****   (uint64_t)0x8000000080008008ULL
  75:fips202.c     **** };
  76:fips202.c     **** 
  77:fips202.c     **** /*************************************************
  78:fips202.c     **** * Name:        KeccakF1600_StatePermute
  79:fips202.c     **** *
  80:fips202.c     **** * Description: The Keccak F1600 Permutation
  81:fips202.c     **** *
  82:fips202.c     **** * Arguments:   - uint64_t *state: pointer to input/output Keccak state
  83:fips202.c     **** **************************************************/
  84:fips202.c     **** static void KeccakF1600_StatePermute(uint64_t state[25])
  85:fips202.c     **** {
  27              	 .loc 1 85 1 view-0
  28              	 .cfi_startproc
  29              	 
  30              	 
  86:fips202.c     ****         int round;
  31              	 .loc 1 86 9 view .LVU1
  87:fips202.c     **** 
  88:fips202.c     ****         uint64_t Aba, Abe, Abi, Abo, Abu;
  32              	 .loc 1 88 9 view .LVU2
  89:fips202.c     ****         uint64_t Aga, Age, Agi, Ago, Agu;
  33              	 .loc 1 89 9 view .LVU3
  90:fips202.c     ****         uint64_t Aka, Ake, Aki, Ako, Aku;
  34              	 .loc 1 90 9 view .LVU4
  91:fips202.c     ****         uint64_t Ama, Ame, Ami, Amo, Amu;
  35              	 .loc 1 91 9 view .LVU5
  92:fips202.c     ****         uint64_t Asa, Ase, Asi, Aso, Asu;
  36              	 .loc 1 92 9 view .LVU6
  93:fips202.c     ****         uint64_t BCa, BCe, BCi, BCo, BCu;
  37              	 .loc 1 93 9 view .LVU7
  94:fips202.c     ****         uint64_t Da, De, Di, Do, Du;
  38              	 .loc 1 94 9 view .LVU8
  95:fips202.c     ****         uint64_t Eba, Ebe, Ebi, Ebo, Ebu;
  39              	 .loc 1 95 9 view .LVU9
  96:fips202.c     ****         uint64_t Ega, Ege, Egi, Ego, Egu;
  40              	 .loc 1 96 9 view .LVU10
  97:fips202.c     ****         uint64_t Eka, Eke, Eki, Eko, Eku;
  41              	 .loc 1 97 9 view .LVU11
  98:fips202.c     ****         uint64_t Ema, Eme, Emi, Emo, Emu;
  42              	 .loc 1 98 9 view .LVU12
  99:fips202.c     ****         uint64_t Esa, Ese, Esi, Eso, Esu;
  43              	 .loc 1 99 9 view .LVU13
 100:fips202.c     **** 
 101:fips202.c     ****         //copyFromState(A, state)
 102:fips202.c     ****         Aba = state[ 0];
  44              	 .loc 1 102 9 view .LVU14
  85:fips202.c     ****         int round;
  45              	 .loc 1 85 1 is_stmt 0 view .LVU15
  46 0000 2DE9F04F 	 push {r4,r5,r6,r7,r8,r9,r10,fp,lr}
  47              	.LCFI0:
  48              	 .cfi_def_cfa_offset 36
  49              	 .cfi_offset 4,-36
  50              	 .cfi_offset 5,-32
  51              	 .cfi_offset 6,-28
  52              	 .cfi_offset 7,-24
  53              	 .cfi_offset 8,-20
  54              	 .cfi_offset 9,-16
  55              	 .cfi_offset 10,-12
  56              	 .cfi_offset 11,-8
  57              	 .cfi_offset 14,-4
  58 0004 BDB0     	 sub sp,sp,#244
  59              	.LCFI1:
  60              	 .cfi_def_cfa_offset 280
  61              	 .loc 1 102 13 view .LVU16
  62 0006 0368     	 ldr r3,[r0]
  63 0008 0A93     	 str r3,[sp,#40]
  64 000a 4368     	 ldr r3,[r0,#4]
  65 000c 0B93     	 str r3,[sp,#44]
  66              	.LVL1:
 103:fips202.c     ****         Abe = state[ 1];
  67              	 .loc 1 103 9 is_stmt 1 view .LVU17
  68              	 .loc 1 103 13 is_stmt 0 view .LVU18
  69 000e 8368     	 ldr r3,[r0,#8]
  70              	.LVL2:
  71              	 .loc 1 103 13 view .LVU19
  72 0010 0C93     	 str r3,[sp,#48]
  73 0012 C368     	 ldr r3,[r0,#12]
  74 0014 0D93     	 str r3,[sp,#52]
  75              	.LVL3:
 104:fips202.c     ****         Abi = state[ 2];
  76              	 .loc 1 104 9 is_stmt 1 view .LVU20
  77              	 .loc 1 104 13 is_stmt 0 view .LVU21
  78 0016 0369     	 ldr r3,[r0,#16]
  79              	.LVL4:
  80              	 .loc 1 104 13 view .LVU22
  81 0018 0E93     	 str r3,[sp,#56]
  82 001a 4369     	 ldr r3,[r0,#20]
  83 001c 0F93     	 str r3,[sp,#60]
  84              	.LVL5:
 105:fips202.c     ****         Abo = state[ 3];
  85              	 .loc 1 105 9 is_stmt 1 view .LVU23
  86              	 .loc 1 105 13 is_stmt 0 view .LVU24
  87 001e 8369     	 ldr r3,[r0,#24]
  88              	.LVL6:
  89              	 .loc 1 105 13 view .LVU25
  90 0020 1093     	 str r3,[sp,#64]
  91 0022 C369     	 ldr r3,[r0,#28]
  92 0024 1193     	 str r3,[sp,#68]
  93              	.LVL7:
 106:fips202.c     ****         Abu = state[ 4];
  94              	 .loc 1 106 9 is_stmt 1 view .LVU26
  95              	 .loc 1 106 13 is_stmt 0 view .LVU27
  96 0026 036A     	 ldr r3,[r0,#32]
  97              	.LVL8:
  98              	 .loc 1 106 13 view .LVU28
  99 0028 1293     	 str r3,[sp,#72]
 100 002a 436A     	 ldr r3,[r0,#36]
 101 002c 1393     	 str r3,[sp,#76]
 102              	.LVL9:
 107:fips202.c     ****         Aga = state[ 5];
 103              	 .loc 1 107 9 is_stmt 1 view .LVU29
 104              	 .loc 1 107 13 is_stmt 0 view .LVU30
 105 002e 836A     	 ldr r3,[r0,#40]
 106              	.LVL10:
 107              	 .loc 1 107 13 view .LVU31
 108 0030 1493     	 str r3,[sp,#80]
 109 0032 C36A     	 ldr r3,[r0,#44]
 110 0034 1593     	 str r3,[sp,#84]
 111              	.LVL11:
 108:fips202.c     ****         Age = state[ 6];
 112              	 .loc 1 108 9 is_stmt 1 view .LVU32
 113              	 .loc 1 108 13 is_stmt 0 view .LVU33
 114 0036 036B     	 ldr r3,[r0,#48]
 115              	.LVL12:
 116              	 .loc 1 108 13 view .LVU34
 117 0038 1693     	 str r3,[sp,#88]
 118 003a 436B     	 ldr r3,[r0,#52]
 119 003c 1793     	 str r3,[sp,#92]
 120              	.LVL13:
 109:fips202.c     ****         Agi = state[ 7];
 121              	 .loc 1 109 9 is_stmt 1 view .LVU35
 122              	 .loc 1 109 13 is_stmt 0 view .LVU36
 123 003e 836B     	 ldr r3,[r0,#56]
 124              	.LVL14:
 125              	 .loc 1 109 13 view .LVU37
 126 0040 1893     	 str r3,[sp,#96]
 127 0042 C36B     	 ldr r3,[r0,#60]
 128 0044 1993     	 str r3,[sp,#100]
 129              	.LVL15:
 110:fips202.c     ****         Ago = state[ 8];
 130              	 .loc 1 110 9 is_stmt 1 view .LVU38
 131              	 .loc 1 110 13 is_stmt 0 view .LVU39
 132 0046 036C     	 ldr r3,[r0,#64]
 133              	.LVL16:
 134              	 .loc 1 110 13 view .LVU40
 135 0048 1A93     	 str r3,[sp,#104]
 136 004a 436C     	 ldr r3,[r0,#68]
 137 004c 1B93     	 str r3,[sp,#108]
 138              	.LVL17:
 111:fips202.c     ****         Agu = state[ 9];
 139              	 .loc 1 111 9 is_stmt 1 view .LVU41
 140              	 .loc 1 111 13 is_stmt 0 view .LVU42
 141 004e 836C     	 ldr r3,[r0,#72]
 142              	.LVL18:
 143              	 .loc 1 111 13 view .LVU43
 144 0050 1C93     	 str r3,[sp,#112]
 145 0052 C36C     	 ldr r3,[r0,#76]
 146 0054 1D93     	 str r3,[sp,#116]
 147              	.LVL19:
 112:fips202.c     ****         Aka = state[10];
 148              	 .loc 1 112 9 is_stmt 1 view .LVU44
 149              	 .loc 1 112 13 is_stmt 0 view .LVU45
 150 0056 036D     	 ldr r3,[r0,#80]
 151              	.LVL20:
 152              	 .loc 1 112 13 view .LVU46
 153 0058 1E93     	 str r3,[sp,#120]
 154 005a 436D     	 ldr r3,[r0,#84]
 155 005c 1F93     	 str r3,[sp,#124]
 156              	.LVL21:
 113:fips202.c     ****         Ake = state[11];
 157              	 .loc 1 113 9 is_stmt 1 view .LVU47
 158              	 .loc 1 113 13 is_stmt 0 view .LVU48
 159 005e 836D     	 ldr r3,[r0,#88]
 160              	.LVL22:
 161              	 .loc 1 113 13 view .LVU49
 162 0060 2093     	 str r3,[sp,#128]
 163 0062 C36D     	 ldr r3,[r0,#92]
 164 0064 2193     	 str r3,[sp,#132]
 165              	.LVL23:
 114:fips202.c     ****         Aki = state[12];
 166              	 .loc 1 114 9 is_stmt 1 view .LVU50
 167              	 .loc 1 114 13 is_stmt 0 view .LVU51
 168 0066 036E     	 ldr r3,[r0,#96]
 169              	.LVL24:
 170              	 .loc 1 114 13 view .LVU52
 171 0068 2293     	 str r3,[sp,#136]
 172 006a 436E     	 ldr r3,[r0,#100]
 173 006c 2393     	 str r3,[sp,#140]
 174              	.LVL25:
 115:fips202.c     ****         Ako = state[13];
 175              	 .loc 1 115 9 is_stmt 1 view .LVU53
 176              	 .loc 1 115 13 is_stmt 0 view .LVU54
 177 006e 836E     	 ldr r3,[r0,#104]
 178              	.LVL26:
 179              	 .loc 1 115 13 view .LVU55
 180 0070 2493     	 str r3,[sp,#144]
 181 0072 C36E     	 ldr r3,[r0,#108]
 182 0074 2593     	 str r3,[sp,#148]
 183              	.LVL27:
 116:fips202.c     ****         Aku = state[14];
 184              	 .loc 1 116 9 is_stmt 1 view .LVU56
 185              	 .loc 1 116 13 is_stmt 0 view .LVU57
 186 0076 036F     	 ldr r3,[r0,#112]
 187              	.LVL28:
 188              	 .loc 1 116 13 view .LVU58
 189 0078 2693     	 str r3,[sp,#152]
 190 007a 436F     	 ldr r3,[r0,#116]
 191 007c 2793     	 str r3,[sp,#156]
 192              	.LVL29:
 117:fips202.c     ****         Ama = state[15];
 193              	 .loc 1 117 9 is_stmt 1 view .LVU59
 194              	 .loc 1 117 13 is_stmt 0 view .LVU60
 195 007e 836F     	 ldr r3,[r0,#120]
 196              	.LVL30:
 197              	 .loc 1 117 13 view .LVU61
 198 0080 2893     	 str r3,[sp,#160]
 199 0082 C36F     	 ldr r3,[r0,#124]
 200 0084 2993     	 str r3,[sp,#164]
 201              	.LVL31:
 118:fips202.c     ****         Ame = state[16];
 202              	 .loc 1 118 9 is_stmt 1 view .LVU62
 203              	 .loc 1 118 13 is_stmt 0 view .LVU63
 204 0086 D0F88030 	 ldr r3,[r0,#128]
 205              	.LVL32:
 206              	 .loc 1 118 13 view .LVU64
 207 008a 2A93     	 str r3,[sp,#168]
 208 008c D0F88430 	 ldr r3,[r0,#132]
 209 0090 2B93     	 str r3,[sp,#172]
 210              	.LVL33:
 119:fips202.c     ****         Ami = state[17];
 211              	 .loc 1 119 9 is_stmt 1 view .LVU65
 212              	 .loc 1 119 13 is_stmt 0 view .LVU66
 213 0092 D0F88830 	 ldr r3,[r0,#136]
 214              	.LVL34:
 215              	 .loc 1 119 13 view .LVU67
 216 0096 2C93     	 str r3,[sp,#176]
 217 0098 D0F88C30 	 ldr r3,[r0,#140]
 218 009c 2D93     	 str r3,[sp,#180]
 219              	.LVL35:
 120:fips202.c     ****         Amo = state[18];
 220              	 .loc 1 120 9 is_stmt 1 view .LVU68
 221              	 .loc 1 120 13 is_stmt 0 view .LVU69
 222 009e D0F89030 	 ldr r3,[r0,#144]
 223              	.LVL36:
 224              	 .loc 1 120 13 view .LVU70
 225 00a2 2E93     	 str r3,[sp,#184]
 226 00a4 D0F89430 	 ldr r3,[r0,#148]
 227 00a8 2F93     	 str r3,[sp,#188]
 228              	.LVL37:
 121:fips202.c     ****         Amu = state[19];
 229              	 .loc 1 121 9 is_stmt 1 view .LVU71
 230              	 .loc 1 121 13 is_stmt 0 view .LVU72
 231 00aa D0F89830 	 ldr r3,[r0,#152]
 232              	.LVL38:
 233              	 .loc 1 121 13 view .LVU73
 234 00ae 3093     	 str r3,[sp,#192]
 235 00b0 D0F89C30 	 ldr r3,[r0,#156]
 236 00b4 3193     	 str r3,[sp,#196]
 237              	.LVL39:
 122:fips202.c     ****         Asa = state[20];
 238              	 .loc 1 122 9 is_stmt 1 view .LVU74
 239              	 .loc 1 122 13 is_stmt 0 view .LVU75
 240 00b6 D0F8A030 	 ldr r3,[r0,#160]
 241              	.LVL40:
 242              	 .loc 1 122 13 view .LVU76
 243 00ba 3293     	 str r3,[sp,#200]
 244 00bc D0F8A430 	 ldr r3,[r0,#164]
 245 00c0 3393     	 str r3,[sp,#204]
 246              	.LVL41:
 123:fips202.c     ****         Ase = state[21];
 247              	 .loc 1 123 9 is_stmt 1 view .LVU77
 248              	 .loc 1 123 13 is_stmt 0 view .LVU78
 249 00c2 D0F8A830 	 ldr r3,[r0,#168]
 250              	.LVL42:
 251              	 .loc 1 123 13 view .LVU79
 252 00c6 3493     	 str r3,[sp,#208]
 253 00c8 D0F8AC30 	 ldr r3,[r0,#172]
 254 00cc 3593     	 str r3,[sp,#212]
 255              	.LVL43:
 124:fips202.c     ****         Asi = state[22];
 256              	 .loc 1 124 9 is_stmt 1 view .LVU80
 257              	 .loc 1 124 13 is_stmt 0 view .LVU81
 258 00ce D0F8B030 	 ldr r3,[r0,#176]
 259              	.LVL44:
 260              	 .loc 1 124 13 view .LVU82
 261 00d2 3693     	 str r3,[sp,#216]
 262 00d4 D0F8B430 	 ldr r3,[r0,#180]
 263 00d8 3793     	 str r3,[sp,#220]
 264              	.LVL45:
 125:fips202.c     ****         Aso = state[23];
 265              	 .loc 1 125 9 is_stmt 1 view .LVU83
 266              	 .loc 1 125 13 is_stmt 0 view .LVU84
 267 00da D0F8B830 	 ldr r3,[r0,#184]
 268              	.LVL46:
 269              	 .loc 1 125 13 view .LVU85
 270 00de 3893     	 str r3,[sp,#224]
 271 00e0 D0F8BC30 	 ldr r3,[r0,#188]
 272 00e4 3993     	 str r3,[sp,#228]
 273              	.LVL47:
 126:fips202.c     ****         Asu = state[24];
 274              	 .loc 1 126 9 is_stmt 1 view .LVU86
 275              	 .loc 1 126 13 is_stmt 0 view .LVU87
 276 00e6 D0F8C030 	 ldr r3,[r0,#192]
 277              	.LVL48:
 278              	 .loc 1 126 13 view .LVU88
 279 00ea 034A     	 ldr r2,.L4
 280 00ec 3A93     	 str r3,[sp,#232]
 281 00ee D0F8C430 	 ldr r3,[r0,#196]
 282              	.LVL49:
 127:fips202.c     **** 
 128:fips202.c     ****         for( round = 0; round < NROUNDS; round += 2 )
 283              	 .loc 1 128 9 is_stmt 1 view .LVU89
 284              	 .loc 1 128 31 discriminator 1 view .LVU90
 285 00f2 0092     	 str r2,[sp]
 286 00f4 02E0     	 b .L5
 287              	.L6:
 288 00f6 00BF     	 .align 2
 289              	.L4:
 290 00f8 00000000 	 .word KeccakF_RoundConstants
 291              	.L5:
 292              	.LVL50:
 293              	.L2:
 129:fips202.c     ****         {
 130:fips202.c     ****             //    prepareTheta
 131:fips202.c     ****             BCa = Aba^Aga^Aka^Ama^Asa;
 294              	 .loc 1 131 13 view .LVU91
 295              	 .loc 1 131 22 is_stmt 0 view .LVU92
 296 00fc 0A9A     	 ldr r2,[sp,#40]
 297 00fe 1499     	 ldr r1,[sp,#80]
 298 0100 82EA0106 	 eor r6,r2,r1
 299 0104 1599     	 ldr r1,[sp,#84]
 300 0106 0B9A     	 ldr r2,[sp,#44]
 301 0108 4A40     	 eors r2,r2,r1
 302              	 .loc 1 131 26 view .LVU93
 303 010a 1E99     	 ldr r1,[sp,#120]
 304 010c 4E40     	 eors r6,r6,r1
 305 010e 1F99     	 ldr r1,[sp,#124]
 306 0110 4A40     	 eors r2,r2,r1
 307              	 .loc 1 131 30 view .LVU94
 308 0112 2899     	 ldr r1,[sp,#160]
 309 0114 4E40     	 eors r6,r6,r1
 310 0116 2999     	 ldr r1,[sp,#164]
 311 0118 4A40     	 eors r2,r2,r1
 312              	 .loc 1 131 17 view .LVU95
 313 011a 3299     	 ldr r1,[sp,#200]
 314 011c 4E40     	 eors r6,r6,r1
 315 011e 3399     	 ldr r1,[sp,#204]
 316 0120 4A40     	 eors r2,r2,r1
 317 0122 0892     	 str r2,[sp,#32]
 318              	.LVL51:
 132:fips202.c     ****             BCe = Abe^Age^Ake^Ame^Ase;
 319              	 .loc 1 132 13 is_stmt 1 view .LVU96
 320              	 .loc 1 132 22 is_stmt 0 view .LVU97
 321 0124 1699     	 ldr r1,[sp,#88]
 322 0126 0C9A     	 ldr r2,[sp,#48]
 323              	.LVL52:
 324              	 .loc 1 132 22 view .LVU98
 325 0128 82EA0109 	 eor r9,r2,r1
 326 012c 0D9A     	 ldr r2,[sp,#52]
 327 012e 1799     	 ldr r1,[sp,#92]
 328 0130 82EA0108 	 eor r8,r2,r1
 329              	 .loc 1 132 26 view .LVU99
 330 0134 209A     	 ldr r2,[sp,#128]
 133:fips202.c     ****             BCi = Abi^Agi^Aki^Ami^Asi;
 331              	 .loc 1 133 22 view .LVU100
 332 0136 1899     	 ldr r1,[sp,#96]
 132:fips202.c     ****             BCe = Abe^Age^Ake^Ame^Ase;
 333              	 .loc 1 132 26 view .LVU101
 334 0138 89EA0209 	 eor r9,r9,r2
 335 013c 219A     	 ldr r2,[sp,#132]
 336 013e 88EA0208 	 eor r8,r8,r2
 132:fips202.c     ****             BCe = Abe^Age^Ake^Ame^Ase;
 337              	 .loc 1 132 30 view .LVU102
 338 0142 2A9A     	 ldr r2,[sp,#168]
 339 0144 89EA0209 	 eor r9,r9,r2
 340 0148 2B9A     	 ldr r2,[sp,#172]
 341 014a 88EA0208 	 eor r8,r8,r2
 132:fips202.c     ****             BCe = Abe^Age^Ake^Ame^Ase;
 342              	 .loc 1 132 17 view .LVU103
 343 014e 349A     	 ldr r2,[sp,#208]
 344 0150 89EA0209 	 eor r9,r9,r2
 345 0154 359A     	 ldr r2,[sp,#212]
 346 0156 88EA0208 	 eor r8,r8,r2
 347              	.LVL53:
 348              	 .loc 1 133 13 is_stmt 1 view .LVU104
 349              	 .loc 1 133 22 is_stmt 0 view .LVU105
 350 015a 0E9A     	 ldr r2,[sp,#56]
 351 015c 82EA010C 	 eor ip,r2,r1
 352 0160 0F9A     	 ldr r2,[sp,#60]
 353 0162 1999     	 ldr r1,[sp,#100]
 354 0164 82EA0107 	 eor r7,r2,r1
 355              	 .loc 1 133 26 view .LVU106
 356 0168 229A     	 ldr r2,[sp,#136]
 357 016a 2399     	 ldr r1,[sp,#140]
 358 016c 8CEA020C 	 eor ip,ip,r2
 359 0170 4F40     	 eors r7,r7,r1
 360              	 .loc 1 133 30 view .LVU107
 361 0172 2C9A     	 ldr r2,[sp,#176]
 362 0174 2D99     	 ldr r1,[sp,#180]
 363 0176 8CEA020C 	 eor ip,ip,r2
 364 017a 4F40     	 eors r7,r7,r1
 365              	 .loc 1 133 17 view .LVU108
 366 017c 369A     	 ldr r2,[sp,#216]
 367 017e 3799     	 ldr r1,[sp,#220]
 368 0180 8CEA020C 	 eor ip,ip,r2
 369 0184 4F40     	 eors r7,r7,r1
 370              	.LVL54:
 134:fips202.c     ****             BCo = Abo^Ago^Ako^Amo^Aso;
 371              	 .loc 1 134 13 is_stmt 1 view .LVU109
 372              	 .loc 1 134 22 is_stmt 0 view .LVU110
 373 0186 109A     	 ldr r2,[sp,#64]
 374 0188 1A99     	 ldr r1,[sp,#104]
 375 018a 82EA0105 	 eor r5,r2,r1
 376 018e 119A     	 ldr r2,[sp,#68]
 377 0190 1B99     	 ldr r1,[sp,#108]
 378 0192 82EA0104 	 eor r4,r2,r1
 379              	 .loc 1 134 26 view .LVU111
 380 0196 2499     	 ldr r1,[sp,#144]
 135:fips202.c     ****             BCu = Abu^Agu^Aku^Amu^Asu;
 381              	 .loc 1 135 22 view .LVU112
 382 0198 129A     	 ldr r2,[sp,#72]
 134:fips202.c     ****             BCo = Abo^Ago^Ako^Amo^Aso;
 383              	 .loc 1 134 26 view .LVU113
 384 019a 4D40     	 eors r5,r5,r1
 385 019c 2599     	 ldr r1,[sp,#148]
 386 019e 4C40     	 eors r4,r4,r1
 134:fips202.c     ****             BCo = Abo^Ago^Ako^Amo^Aso;
 387              	 .loc 1 134 30 view .LVU114
 388 01a0 2E99     	 ldr r1,[sp,#184]
 389 01a2 4D40     	 eors r5,r5,r1
 390 01a4 2F99     	 ldr r1,[sp,#188]
 391 01a6 4C40     	 eors r4,r4,r1
 134:fips202.c     ****             BCo = Abo^Ago^Ako^Amo^Aso;
 392              	 .loc 1 134 17 view .LVU115
 393 01a8 3899     	 ldr r1,[sp,#224]
 394 01aa 4D40     	 eors r5,r5,r1
 395 01ac 3999     	 ldr r1,[sp,#228]
 396 01ae 4C40     	 eors r4,r4,r1
 397              	.LVL55:
 398              	 .loc 1 135 13 is_stmt 1 view .LVU116
 399              	 .loc 1 135 22 is_stmt 0 view .LVU117
 400 01b0 1C99     	 ldr r1,[sp,#112]
 401 01b2 82EA010E 	 eor lr,r2,r1
 402 01b6 139A     	 ldr r2,[sp,#76]
 403 01b8 1D99     	 ldr r1,[sp,#116]
 404 01ba 5140     	 eors r1,r1,r2
 405              	 .loc 1 135 26 view .LVU118
 406 01bc 269A     	 ldr r2,[sp,#152]
 407 01be 8EEA020E 	 eor lr,lr,r2
 408 01c2 279A     	 ldr r2,[sp,#156]
 409 01c4 5140     	 eors r1,r1,r2
 410              	 .loc 1 135 30 view .LVU119
 411 01c6 309A     	 ldr r2,[sp,#192]
 412 01c8 8EEA020E 	 eor lr,lr,r2
 413 01cc 319A     	 ldr r2,[sp,#196]
 414 01ce 5140     	 eors r1,r1,r2
 415              	 .loc 1 135 17 view .LVU120
 416 01d0 3A9A     	 ldr r2,[sp,#232]
 136:fips202.c     **** 
 137:fips202.c     ****             //thetaRhoPiChiIotaPrepareTheta(round  , A, E)
 138:fips202.c     ****             Da = BCu^ROL(BCe, 1);
 417              	 .loc 1 138 22 view .LVU121
 418 01d2 4FEA490B 	 lsl fp,r9,#1
 135:fips202.c     ****             BCu = Abu^Agu^Aku^Amu^Asu;
 419              	 .loc 1 135 17 view .LVU122
 420 01d6 8EEA020E 	 eor lr,lr,r2
 421              	 .loc 1 138 22 view .LVU123
 422 01da 4BEAD87B 	 orr fp,fp,r8,lsr#31
 423 01de 4FEA480A 	 lsl r10,r8,#1
 135:fips202.c     ****             BCu = Abu^Agu^Aku^Amu^Asu;
 424              	 .loc 1 135 17 view .LVU124
 425 01e2 5940     	 eors r1,r1,r3
 426              	.LVL56:
 427              	 .loc 1 138 13 is_stmt 1 view .LVU125
 428              	 .loc 1 138 16 is_stmt 0 view .LVU126
 429 01e4 8BEA0E02 	 eor r2,fp,lr
 430              	 .loc 1 138 22 view .LVU127
 431 01e8 4AEAD97A 	 orr r10,r10,r9,lsr#31
 139:fips202.c     ****             De = BCa^ROL(BCi, 1);
 432              	 .loc 1 139 22 view .LVU128
 433 01ec 4FEA4C0B 	 lsl fp,ip,#1
 138:fips202.c     ****             De = BCa^ROL(BCi, 1);
 434              	 .loc 1 138 16 view .LVU129
 435 01f0 0192     	 str r2,[sp,#4]
 436              	 .loc 1 139 22 view .LVU130
 437 01f2 4BEAD77B 	 orr fp,fp,r7,lsr#31
 138:fips202.c     ****             De = BCa^ROL(BCi, 1);
 438              	 .loc 1 138 16 view .LVU131
 439 01f6 8AEA0102 	 eor r2,r10,r1
 440 01fa 0292     	 str r2,[sp,#8]
 441              	.LVL57:
 442              	 .loc 1 139 13 is_stmt 1 view .LVU132
 443              	 .loc 1 139 16 is_stmt 0 view .LVU133
 444 01fc 8BEA0602 	 eor r2,fp,r6
 445              	.LVL58:
 446              	 .loc 1 139 22 view .LVU134
 447 0200 4FEA470A 	 lsl r10,r7,#1
 448              	 .loc 1 139 16 view .LVU135
 449 0204 0392     	 str r2,[sp,#12]
 450 0206 089A     	 ldr r2,[sp,#32]
 451              	 .loc 1 139 22 view .LVU136
 452 0208 4AEADC7A 	 orr r10,r10,ip,lsr#31
 453              	 .loc 1 139 16 view .LVU137
 454 020c 8AEA0202 	 eor r2,r10,r2
 140:fips202.c     ****             Di = BCe^ROL(BCo, 1);
 455              	 .loc 1 140 22 view .LVU138
 456 0210 4FEA440A 	 lsl r10,r4,#1
 457 0214 4AEAD57A 	 orr r10,r10,r5,lsr#31
 139:fips202.c     ****             De = BCa^ROL(BCi, 1);
 458              	 .loc 1 139 16 view .LVU139
 459 0218 0492     	 str r2,[sp,#16]
 460              	.LVL59:
 461              	 .loc 1 140 13 is_stmt 1 view .LVU140
 462              	 .loc 1 140 16 is_stmt 0 view .LVU141
 463 021a 8AEA0802 	 eor r2,r10,r8
 464              	.LVL60:
 141:fips202.c     ****             Do = BCi^ROL(BCu, 1);
 465              	 .loc 1 141 22 view .LVU142
 466 021e 4FEA4E08 	 lsl r8,lr,#1
 467              	.LVL61:
 468              	 .loc 1 141 22 view .LVU143
 469 0222 48EAD178 	 orr r8,r8,r1,lsr#31
 470 0226 4900     	 lsls r1,r1,#1
 471              	.LVL62:
 472              	 .loc 1 141 22 view .LVU144
 473 0228 41EADE71 	 orr r1,r1,lr,lsr#31
 140:fips202.c     ****             Di = BCe^ROL(BCo, 1);
 474              	 .loc 1 140 16 view .LVU145
 475 022c 0592     	 str r2,[sp,#20]
 476              	 .loc 1 141 16 view .LVU146
 477 022e 88EA0C02 	 eor r2,r8,ip
 478 0232 0692     	 str r2,[sp,#24]
 479 0234 81EA0702 	 eor r2,r1,r7
 480 0238 0792     	 str r2,[sp,#28]
 142:fips202.c     ****             Du = BCo^ROL(BCa, 1);
 481              	 .loc 1 142 22 view .LVU147
 482 023a 089A     	 ldr r2,[sp,#32]
 483 023c 7100     	 lsls r1,r6,#1
 484 023e 41EAD271 	 orr r1,r1,r2,lsr#31
 485 0242 5200     	 lsls r2,r2,#1
 486 0244 42EAD672 	 orr r2,r2,r6,lsr#31
 487              	 .loc 1 142 16 view .LVU148
 488 0248 6940     	 eors r1,r1,r5
 489 024a 6240     	 eors r2,r2,r4
 140:fips202.c     ****             Di = BCe^ROL(BCo, 1);
 490              	 .loc 1 140 22 view .LVU149
 491 024c 4FEA450B 	 lsl fp,r5,#1
 492              	 .loc 1 142 16 view .LVU150
 493 0250 0891     	 str r1,[sp,#32]
 494              	.LVL63:
 495              	 .loc 1 142 16 view .LVU151
 496 0252 0992     	 str r2,[sp,#36]
 143:fips202.c     **** 
 144:fips202.c     ****             Aba ^= Da;
 497              	 .loc 1 144 17 view .LVU152
 498 0254 0A99     	 ldr r1,[sp,#40]
 499 0256 019A     	 ldr r2,[sp,#4]
 140:fips202.c     ****             Do = BCi^ROL(BCu, 1);
 500              	 .loc 1 140 22 view .LVU153
 501 0258 4BEAD47B 	 orr fp,fp,r4,lsr#31
 140:fips202.c     ****             Do = BCi^ROL(BCu, 1);
 502              	 .loc 1 140 16 view .LVU154
 503 025c 8BEA090B 	 eor fp,fp,r9
 504              	.LVL64:
 141:fips202.c     ****             Du = BCo^ROL(BCa, 1);
 505              	 .loc 1 141 13 is_stmt 1 view .LVU155
 142:fips202.c     **** 
 506              	 .loc 1 142 13 view .LVU156
 507              	 .loc 1 144 13 view .LVU157
 508              	 .loc 1 144 17 is_stmt 0 view .LVU158
 509 0260 82EA0109 	 eor r9,r2,r1
 510              	.LVL65:
 511              	 .loc 1 144 17 view .LVU159
 512 0264 029A     	 ldr r2,[sp,#8]
 513 0266 0B99     	 ldr r1,[sp,#44]
 145:fips202.c     ****             BCa = Aba;
 146:fips202.c     ****             Age ^= De;
 514              	 .loc 1 146 17 view .LVU160
 515 0268 179C     	 ldr r4,[sp,#92]
 516              	.LVL66:
 147:fips202.c     ****             BCe = ROL(Age, 44);
 148:fips202.c     ****             Aki ^= Di;
 517              	 .loc 1 148 17 view .LVU161
 518 026a 239E     	 ldr r6,[sp,#140]
 519              	.LVL67:
 149:fips202.c     ****             BCi = ROL(Aki, 43);
 150:fips202.c     ****             Amo ^= Do;
 520              	 .loc 1 150 17 view .LVU162
 521 026c 2F9F     	 ldr r7,[sp,#188]
 522              	.LVL68:
 144:fips202.c     ****             BCa = Aba;
 523              	 .loc 1 144 17 view .LVU163
 524 026e 82EA010A 	 eor r10,r2,r1
 525              	.LVL69:
 145:fips202.c     ****             Age ^= De;
 526              	 .loc 1 145 13 is_stmt 1 view .LVU164
 146:fips202.c     ****             BCe = ROL(Age, 44);
 527              	 .loc 1 146 13 view .LVU165
 147:fips202.c     ****             Aki ^= Di;
 528              	 .loc 1 147 13 view .LVU166
 146:fips202.c     ****             BCe = ROL(Age, 44);
 529              	 .loc 1 146 17 is_stmt 0 view .LVU167
 530 0272 039A     	 ldr r2,[sp,#12]
 531 0274 1699     	 ldr r1,[sp,#88]
 532 0276 5140     	 eors r1,r1,r2
 533 0278 049A     	 ldr r2,[sp,#16]
 147:fips202.c     ****             Aki ^= Di;
 534              	 .loc 1 147 17 view .LVU168
 535 027a 0D0D     	 lsrs r5,r1,#20
 536              	.LVL70:
 146:fips202.c     ****             BCe = ROL(Age, 44);
 537              	 .loc 1 146 17 view .LVU169
 538 027c 6240     	 eors r2,r2,r4
 147:fips202.c     ****             Aki ^= Di;
 539              	 .loc 1 147 17 view .LVU170
 540 027e 45EA0235 	 orr r5,r5,r2,lsl#12
 541 0282 120D     	 lsrs r2,r2,#20
 542 0284 42EA0132 	 orr r2,r2,r1,lsl#12
 543              	.LVL71:
 148:fips202.c     ****             BCi = ROL(Aki, 43);
 544              	 .loc 1 148 13 is_stmt 1 view .LVU171
 149:fips202.c     ****             Amo ^= Do;
 545              	 .loc 1 149 13 view .LVU172
 148:fips202.c     ****             BCi = ROL(Aki, 43);
 546              	 .loc 1 148 17 is_stmt 0 view .LVU173
 547 0288 2299     	 ldr r1,[sp,#136]
 548 028a 059C     	 ldr r4,[sp,#20]
 549 028c 8BEA0101 	 eor r1,fp,r1
 550 0290 7440     	 eors r4,r4,r6
 149:fips202.c     ****             Amo ^= Do;
 551              	 .loc 1 149 17 view .LVU174
 552 0292 4FEA5158 	 lsr r8,r1,#21
 553 0296 48EAC428 	 orr r8,r8,r4,lsl#11
 554 029a 640D     	 lsrs r4,r4,#21
 555 029c 44EAC124 	 orr r4,r4,r1,lsl#11
 556              	.LVL72:
 557              	 .loc 1 150 13 is_stmt 1 view .LVU175
 151:fips202.c     ****             BCo = ROL(Amo, 21);
 558              	 .loc 1 151 13 view .LVU176
 150:fips202.c     ****             BCo = ROL(Amo, 21);
 559              	 .loc 1 150 17 is_stmt 0 view .LVU177
 560 02a0 2E9E     	 ldr r6,[sp,#184]
 561 02a2 0699     	 ldr r1,[sp,#24]
 562 02a4 4E40     	 eors r6,r6,r1
 563 02a6 0799     	 ldr r1,[sp,#28]
 564              	 .loc 1 151 17 view .LVU178
 565 02a8 4FEA465E 	 lsl lr,r6,#21
 566              	.LVL73:
 150:fips202.c     ****             BCo = ROL(Amo, 21);
 567              	 .loc 1 150 17 view .LVU179
 568 02ac 7940     	 eors r1,r1,r7
 569              	 .loc 1 151 17 view .LVU180
 570 02ae 4EEAD12E 	 orr lr,lr,r1,lsr#11
 571 02b2 4905     	 lsls r1,r1,#21
 152:fips202.c     ****             Asu ^= Du;
 572              	 .loc 1 152 17 view .LVU181
 573 02b4 3A9F     	 ldr r7,[sp,#232]
 151:fips202.c     ****             BCo = ROL(Amo, 21);
 574              	 .loc 1 151 17 view .LVU182
 575 02b6 41EAD621 	 orr r1,r1,r6,lsr#11
 576              	.LVL74:
 577              	 .loc 1 152 13 is_stmt 1 view .LVU183
 153:fips202.c     ****             BCu = ROL(Asu, 14);
 578              	 .loc 1 153 13 view .LVU184
 152:fips202.c     ****             Asu ^= Du;
 579              	 .loc 1 152 17 is_stmt 0 view .LVU185
 580 02ba 089E     	 ldr r6,[sp,#32]
 581 02bc 7E40     	 eors r6,r6,r7
 582 02be 099F     	 ldr r7,[sp,#36]
 583              	 .loc 1 153 17 view .LVU186
 584 02c0 4FEA863C 	 lsl ip,r6,#14
 152:fips202.c     ****             Asu ^= Du;
 585              	 .loc 1 152 17 view .LVU187
 586 02c4 7B40     	 eors r3,r3,r7
 587              	.LVL75:
 588              	 .loc 1 153 17 view .LVU188
 589 02c6 4CEA934C 	 orr ip,ip,r3,lsr#18
 590 02ca 9B03     	 lsls r3,r3,#14
 591 02cc 43EA9643 	 orr r3,r3,r6,lsr#18
 592              	.LVL76:
 154:fips202.c     ****             Eba =   BCa ^((~BCe)&  BCi );
 593              	 .loc 1 154 13 is_stmt 1 view .LVU189
 155:fips202.c     ****             Eba ^= (uint64_t)KeccakF_RoundConstants[round];
 594              	 .loc 1 155 13 view .LVU190
 595              	 .loc 1 155 17 is_stmt 0 view .LVU191
 596 02d0 009E     	 ldr r6,[sp]
 597 02d2 D6E90076 	 ldrd r7,r6,[r6]
 598 02d6 8AEA0606 	 eor r6,r10,r6
 599 02da 0B96     	 str r6,[sp,#44]
 600 02dc 89EA0707 	 eor r7,r9,r7
 601 02e0 28EA0506 	 bic r6,r8,r5
 602 02e4 7E40     	 eors r6,r6,r7
 603 02e6 0B9F     	 ldr r7,[sp,#44]
 604 02e8 0A96     	 str r6,[sp,#40]
 605 02ea 24EA0206 	 bic r6,r4,r2
 606 02ee 7740     	 eors r7,r7,r6
 156:fips202.c     ****             Ebe =   BCe ^((~BCi)&  BCo );
 607              	 .loc 1 156 33 view .LVU192
 608 02f0 21EA0406 	 bic r6,r1,r4
 609              	 .loc 1 156 17 view .LVU193
 610 02f4 5640     	 eors r6,r6,r2
 611 02f6 2396     	 str r6,[sp,#140]
 612              	.LVL77:
 157:fips202.c     ****             Ebi =   BCi ^((~BCo)&  BCu );
 613              	 .loc 1 157 33 view .LVU194
 614 02f8 23EA0106 	 bic r6,r3,r1
 615              	 .loc 1 157 17 view .LVU195
 616 02fc 7440     	 eors r4,r4,r6
 617              	.LVL78:
 158:fips202.c     ****             Ebo =   BCo ^((~BCu)&  BCa );
 159:fips202.c     ****             Ebu =   BCu ^((~BCa)&  BCe );
 618              	 .loc 1 159 33 view .LVU196
 619 02fe 22EA0A02 	 bic r2,r2,r10
 620              	.LVL79:
 155:fips202.c     ****             Ebe =   BCe ^((~BCi)&  BCo );
 621              	 .loc 1 155 17 view .LVU197
 622 0302 0B97     	 str r7,[sp,#44]
 623              	.LVL80:
 156:fips202.c     ****             Ebi =   BCi ^((~BCo)&  BCu );
 624              	 .loc 1 156 13 is_stmt 1 view .LVU198
 157:fips202.c     ****             Ebo =   BCo ^((~BCu)&  BCa );
 625              	 .loc 1 157 13 view .LVU199
 156:fips202.c     ****             Ebi =   BCi ^((~BCo)&  BCu );
 626              	 .loc 1 156 33 is_stmt 0 view .LVU200
 627 0304 2EEA0807 	 bic r7,lr,r8
 628              	.LVL81:
 156:fips202.c     ****             Ebi =   BCi ^((~BCo)&  BCu );
 629              	 .loc 1 156 17 view .LVU201
 630 0308 6F40     	 eors r7,r7,r5
 157:fips202.c     ****             Ebo =   BCo ^((~BCu)&  BCa );
 631              	 .loc 1 157 17 view .LVU202
 632 030a 3B94     	 str r4,[sp,#236]
 633              	.LVL82:
 158:fips202.c     ****             Ebu =   BCu ^((~BCa)&  BCe );
 634              	 .loc 1 158 13 is_stmt 1 view .LVU203
 158:fips202.c     ****             Ebu =   BCu ^((~BCa)&  BCe );
 635              	 .loc 1 158 33 is_stmt 0 view .LVU204
 636 030c 2AEA0304 	 bic r4,r10,r3
 637              	.LVL83:
 638              	 .loc 1 159 17 view .LVU205
 639 0310 5340     	 eors r3,r3,r2
 640              	.LVL84:
 158:fips202.c     ****             Ebu =   BCu ^((~BCa)&  BCe );
 641              	 .loc 1 158 33 view .LVU206
 642 0312 29EA0C06 	 bic r6,r9,ip
 158:fips202.c     ****             Ebu =   BCu ^((~BCa)&  BCe );
 643              	 .loc 1 158 17 view .LVU207
 644 0316 6140     	 eors r1,r1,r4
 645              	.LVL85:
 646              	 .loc 1 159 33 view .LVU208
 647 0318 25EA0905 	 bic r5,r5,r9
 648              	.LVL86:
 160:fips202.c     **** 
 161:fips202.c     ****             Abo ^= Do;
 649              	 .loc 1 161 17 view .LVU209
 650 031c 109A     	 ldr r2,[sp,#64]
 156:fips202.c     ****             Ebi =   BCi ^((~BCo)&  BCu );
 651              	 .loc 1 156 17 view .LVU210
 652 031e 2297     	 str r7,[sp,#136]
 653              	.LVL87:
 159:fips202.c     **** 
 654              	 .loc 1 159 17 view .LVU211
 655 0320 2F93     	 str r3,[sp,#188]
 656              	.LVL88:
 157:fips202.c     ****             Ebo =   BCo ^((~BCu)&  BCa );
 657              	 .loc 1 157 33 view .LVU212
 658 0322 2CEA0E07 	 bic r7,ip,lr
 659              	 .loc 1 161 17 view .LVU213
 660 0326 069B     	 ldr r3,[sp,#24]
 158:fips202.c     ****             Ebu =   BCu ^((~BCa)&  BCe );
 661              	 .loc 1 158 17 view .LVU214
 662 0328 1791     	 str r1,[sp,#92]
 663              	.LVL89:
 159:fips202.c     **** 
 664              	 .loc 1 159 13 is_stmt 1 view .LVU215
 665              	 .loc 1 161 13 view .LVU216
 162:fips202.c     ****             BCa = ROL(Abo, 28);
 666              	 .loc 1 162 13 view .LVU217
 157:fips202.c     ****             Ebo =   BCo ^((~BCu)&  BCa );
 667              	 .loc 1 157 17 is_stmt 0 view .LVU218
 668 032a 87EA0807 	 eor r7,r7,r8
 159:fips202.c     **** 
 669              	 .loc 1 159 17 view .LVU219
 670 032e 85EA0C01 	 eor r1,r5,ip
 671              	.LVL90:
 158:fips202.c     ****             Ebu =   BCu ^((~BCa)&  BCe );
 672              	 .loc 1 158 17 view .LVU220
 673 0332 86EA0E06 	 eor r6,r6,lr
 161:fips202.c     ****             BCa = ROL(Abo, 28);
 674              	 .loc 1 161 17 view .LVU221
 675 0336 5340     	 eors r3,r3,r2
 157:fips202.c     ****             Ebo =   BCo ^((~BCu)&  BCa );
 676              	 .loc 1 157 17 view .LVU222
 677 0338 3A97     	 str r7,[sp,#232]
 678              	.LVL91:
 158:fips202.c     ****             Ebu =   BCu ^((~BCa)&  BCe );
 679              	 .loc 1 158 17 view .LVU223
 680 033a 1696     	 str r6,[sp,#88]
 681              	.LVL92:
 159:fips202.c     **** 
 682              	 .loc 1 159 17 view .LVU224
 683 033c 2E91     	 str r1,[sp,#184]
 684              	.LVL93:
 161:fips202.c     ****             BCa = ROL(Abo, 28);
 685              	 .loc 1 161 17 view .LVU225
 686 033e 079A     	 ldr r2,[sp,#28]
 687 0340 1199     	 ldr r1,[sp,#68]
 163:fips202.c     ****             Agu ^= Du;
 688              	 .loc 1 163 17 view .LVU226
 689 0342 1D9C     	 ldr r4,[sp,#116]
 164:fips202.c     ****             BCe = ROL(Agu, 20);
 165:fips202.c     ****             Aka ^= Da;
 690              	 .loc 1 165 17 view .LVU227
 691 0344 1F9D     	 ldr r5,[sp,#124]
 166:fips202.c     ****             BCi = ROL(Aka,  3);
 167:fips202.c     ****             Ame ^= De;
 692              	 .loc 1 167 17 view .LVU228
 693 0346 2B9F     	 ldr r7,[sp,#172]
 161:fips202.c     ****             BCa = ROL(Abo, 28);
 694              	 .loc 1 161 17 view .LVU229
 695 0348 5140     	 eors r1,r1,r2
 162:fips202.c     ****             Agu ^= Du;
 696              	 .loc 1 162 17 view .LVU230
 697 034a 4FEA037C 	 lsl ip,r3,#28
 162:fips202.c     ****             Agu ^= Du;
 698              	 .loc 1 162 17 view .LVU231
 699 034e 4CEA111C 	 orr ip,ip,r1,lsr#4
 700 0352 0907     	 lsls r1,r1,#28
 701 0354 41EA1311 	 orr r1,r1,r3,lsr#4
 702              	.LVL94:
 163:fips202.c     ****             BCe = ROL(Agu, 20);
 703              	 .loc 1 163 13 is_stmt 1 view .LVU232
 164:fips202.c     ****             Aka ^= Da;
 704              	 .loc 1 164 13 view .LVU233
 163:fips202.c     ****             BCe = ROL(Agu, 20);
 705              	 .loc 1 163 17 is_stmt 0 view .LVU234
 706 0358 1C9A     	 ldr r2,[sp,#112]
 707 035a 089B     	 ldr r3,[sp,#32]
 708 035c 5A40     	 eors r2,r2,r3
 709 035e 099B     	 ldr r3,[sp,#36]
 164:fips202.c     ****             Aka ^= Da;
 710              	 .loc 1 164 17 view .LVU235
 711 0360 1605     	 lsls r6,r2,#20
 163:fips202.c     ****             BCe = ROL(Agu, 20);
 712              	 .loc 1 163 17 view .LVU236
 713 0362 6340     	 eors r3,r3,r4
 164:fips202.c     ****             Aka ^= Da;
 714              	 .loc 1 164 17 view .LVU237
 715 0364 46EA1336 	 orr r6,r6,r3,lsr#12
 716 0368 1B05     	 lsls r3,r3,#20
 165:fips202.c     ****             BCi = ROL(Aka,  3);
 717              	 .loc 1 165 17 view .LVU238
 718 036a 1E9C     	 ldr r4,[sp,#120]
 164:fips202.c     ****             Aka ^= Da;
 719              	 .loc 1 164 17 view .LVU239
 720 036c 43EA1233 	 orr r3,r3,r2,lsr#12
 721              	.LVL95:
 165:fips202.c     ****             BCi = ROL(Aka,  3);
 722              	 .loc 1 165 13 is_stmt 1 view .LVU240
 166:fips202.c     ****             Ame ^= De;
 723              	 .loc 1 166 13 view .LVU241
 165:fips202.c     ****             BCi = ROL(Aka,  3);
 724              	 .loc 1 165 17 is_stmt 0 view .LVU242
 725 0370 019A     	 ldr r2,[sp,#4]
 726 0372 6240     	 eors r2,r2,r4
 727 0374 029C     	 ldr r4,[sp,#8]
 166:fips202.c     ****             Ame ^= De;
 728              	 .loc 1 166 17 view .LVU243
 729 0376 4FEAC208 	 lsl r8,r2,#3
 165:fips202.c     ****             BCi = ROL(Aka,  3);
 730              	 .loc 1 165 17 view .LVU244
 731 037a 6540     	 eors r5,r5,r4
 166:fips202.c     ****             Ame ^= De;
 732              	 .loc 1 166 17 view .LVU245
 733 037c 48EA5578 	 orr r8,r8,r5,lsr#29
 734 0380 ED00     	 lsls r5,r5,#3
 735              	 .loc 1 167 17 view .LVU246
 736 0382 2A9C     	 ldr r4,[sp,#168]
 166:fips202.c     ****             Ame ^= De;
 737              	 .loc 1 166 17 view .LVU247
 738 0384 45EA5275 	 orr r5,r5,r2,lsr#29
 739              	.LVL96:
 740              	 .loc 1 167 13 is_stmt 1 view .LVU248
 168:fips202.c     ****             BCo = ROL(Ame, 45);
 741              	 .loc 1 168 13 view .LVU249
 167:fips202.c     ****             BCo = ROL(Ame, 45);
 742              	 .loc 1 167 17 is_stmt 0 view .LVU250
 743 0388 039A     	 ldr r2,[sp,#12]
 744 038a 6240     	 eors r2,r2,r4
 745 038c 049C     	 ldr r4,[sp,#16]
 746              	 .loc 1 168 17 view .LVU251
 747 038e 4FEAD24E 	 lsr lr,r2,#19
 167:fips202.c     ****             BCo = ROL(Ame, 45);
 748              	 .loc 1 167 17 view .LVU252
 749 0392 7C40     	 eors r4,r4,r7
 750              	 .loc 1 168 17 view .LVU253
 751 0394 4EEA443E 	 orr lr,lr,r4,lsl#13
 752 0398 E40C     	 lsrs r4,r4,#19
 753 039a 44EA4234 	 orr r4,r4,r2,lsl#13
 754              	.LVL97:
 169:fips202.c     ****             Asi ^= Di;
 755              	 .loc 1 169 13 is_stmt 1 view .LVU254
 170:fips202.c     ****             BCu = ROL(Asi, 61);
 756              	 .loc 1 170 13 view .LVU255
 169:fips202.c     ****             Asi ^= Di;
 757              	 .loc 1 169 17 is_stmt 0 view .LVU256
 758 039e 369A     	 ldr r2,[sp,#216]
 759 03a0 379F     	 ldr r7,[sp,#220]
 760 03a2 8BEA0209 	 eor r9,fp,r2
 761              	.LVL98:
 169:fips202.c     ****             Asi ^= Di;
 762              	 .loc 1 169 17 view .LVU257
 763 03a6 059A     	 ldr r2,[sp,#20]
 764 03a8 7A40     	 eors r2,r2,r7
 765              	 .loc 1 170 17 view .LVU258
 766 03aa 4FEAD907 	 lsr r7,r9,#3
 767 03ae 47EA4277 	 orr r7,r7,r2,lsl#29
 768 03b2 D208     	 lsrs r2,r2,#3
 769 03b4 42EA4972 	 orr r2,r2,r9,lsl#29
 770              	.LVL99:
 171:fips202.c     ****             Ega =   BCa ^((~BCe)&  BCi );
 771              	 .loc 1 171 13 is_stmt 1 view .LVU259
 772              	 .loc 1 171 33 is_stmt 0 view .LVU260
 773 03b8 25EA0309 	 bic r9,r5,r3
 774              	 .loc 1 171 17 view .LVU261
 775 03bc 89EA0109 	 eor r9,r9,r1
 776 03c0 CDF8AC90 	 str r9,[sp,#172]
 777              	.LVL100:
 172:fips202.c     ****             Ege =   BCe ^((~BCi)&  BCo );
 778              	 .loc 1 172 13 is_stmt 1 view .LVU262
 779              	 .loc 1 172 33 is_stmt 0 view .LVU263
 780 03c4 24EA0509 	 bic r9,r4,r5
 781              	.LVL101:
 171:fips202.c     ****             Ega =   BCa ^((~BCe)&  BCi );
 782              	 .loc 1 171 33 view .LVU264
 783 03c8 28EA060A 	 bic r10,r8,r6
 784              	 .loc 1 172 17 view .LVU265
 785 03cc 89EA0309 	 eor r9,r9,r3
 171:fips202.c     ****             Ega =   BCa ^((~BCe)&  BCi );
 786              	 .loc 1 171 17 view .LVU266
 787 03d0 8AEA0C0A 	 eor r10,r10,ip
 788              	 .loc 1 172 17 view .LVU267
 789 03d4 CDF84490 	 str r9,[sp,#68]
 790              	.LVL102:
 173:fips202.c     ****             Egi =   BCi ^((~BCo)&  BCu );
 791              	 .loc 1 173 13 is_stmt 1 view .LVU268
 174:fips202.c     ****             Ego =   BCo ^((~BCu)&  BCa );
 175:fips202.c     ****             Egu =   BCu ^((~BCa)&  BCe );
 792              	 .loc 1 175 33 is_stmt 0 view .LVU269
 793 03d8 23EA0103 	 bic r3,r3,r1
 794              	.LVL103:
 173:fips202.c     ****             Egi =   BCi ^((~BCo)&  BCu );
 795              	 .loc 1 173 33 view .LVU270
 796 03dc 22EA0409 	 bic r9,r2,r4
 797              	.LVL104:
 173:fips202.c     ****             Egi =   BCi ^((~BCo)&  BCu );
 798              	 .loc 1 173 17 view .LVU271
 799 03e0 89EA0505 	 eor r5,r9,r5
 800              	.LVL105:
 801              	 .loc 1 175 17 view .LVU272
 802 03e4 5340     	 eors r3,r3,r2
 171:fips202.c     ****             Ege =   BCe ^((~BCi)&  BCo );
 803              	 .loc 1 171 17 view .LVU273
 804 03e6 CDF8A8A0 	 str r10,[sp,#168]
 805              	.LVL106:
 172:fips202.c     ****             Egi =   BCi ^((~BCo)&  BCu );
 806              	 .loc 1 172 33 view .LVU274
 807 03ea 2EEA080A 	 bic r10,lr,r8
 172:fips202.c     ****             Egi =   BCi ^((~BCo)&  BCu );
 808              	 .loc 1 172 17 view .LVU275
 809 03ee 8AEA060A 	 eor r10,r10,r6
 173:fips202.c     ****             Ego =   BCo ^((~BCu)&  BCa );
 810              	 .loc 1 173 17 view .LVU276
 811 03f2 1F95     	 str r5,[sp,#124]
 812              	.LVL107:
 174:fips202.c     ****             Egu =   BCu ^((~BCa)&  BCe );
 813              	 .loc 1 174 13 is_stmt 1 view .LVU277
 814              	 .loc 1 175 33 is_stmt 0 view .LVU278
 815 03f4 26EA0C06 	 bic r6,r6,ip
 816              	.LVL108:
 174:fips202.c     ****             Egu =   BCu ^((~BCa)&  BCe );
 817              	 .loc 1 174 33 view .LVU279
 818 03f8 21EA0205 	 bic r5,r1,r2
 819              	.LVL109:
 820              	 .loc 1 175 17 view .LVU280
 821 03fc 1D93     	 str r3,[sp,#116]
 822              	.LVL110:
 176:fips202.c     **** 
 177:fips202.c     ****             Abe ^= De;
 823              	 .loc 1 177 17 view .LVU281
 824 03fe 0C9A     	 ldr r2,[sp,#48]
 825              	.LVL111:
 826              	 .loc 1 177 17 view .LVU282
 827 0400 039B     	 ldr r3,[sp,#12]
 172:fips202.c     ****             Egi =   BCi ^((~BCo)&  BCu );
 828              	 .loc 1 172 17 view .LVU283
 829 0402 CDF840A0 	 str r10,[sp,#64]
 830              	.LVL112:
 175:fips202.c     **** 
 831              	 .loc 1 175 17 view .LVU284
 832 0406 86EA0701 	 eor r1,r6,r7
 833              	.LVL113:
 173:fips202.c     ****             Ego =   BCo ^((~BCu)&  BCa );
 834              	 .loc 1 173 33 view .LVU285
 835 040a 27EA0E0A 	 bic r10,r7,lr
 836              	 .loc 1 177 17 view .LVU286
 837 040e 5340     	 eors r3,r3,r2
 175:fips202.c     **** 
 838              	 .loc 1 175 17 view .LVU287
 839 0410 1C91     	 str r1,[sp,#112]
 840              	 .loc 1 177 17 view .LVU288
 841 0412 049A     	 ldr r2,[sp,#16]
 842 0414 0D99     	 ldr r1,[sp,#52]
 173:fips202.c     ****             Ego =   BCo ^((~BCu)&  BCa );
 843              	 .loc 1 173 17 view .LVU289
 844 0416 8AEA0808 	 eor r8,r10,r8
 845              	 .loc 1 177 17 view .LVU290
 846 041a 5140     	 eors r1,r1,r2
 173:fips202.c     ****             Ego =   BCo ^((~BCu)&  BCa );
 847              	 .loc 1 173 17 view .LVU291
 848 041c CDF87880 	 str r8,[sp,#120]
 849              	.LVL114:
 174:fips202.c     ****             Egu =   BCu ^((~BCa)&  BCe );
 850              	 .loc 1 174 33 view .LVU292
 851 0420 2CEA0708 	 bic r8,ip,r7
 178:fips202.c     ****             BCa = ROL(Abe,  1);
 852              	 .loc 1 178 17 view .LVU293
 853 0424 4FEA430C 	 lsl ip,r3,#1
 854              	 .loc 1 178 17 view .LVU294
 855 0428 4CEAD17C 	 orr ip,ip,r1,lsr#31
 856 042c 4900     	 lsls r1,r1,#1
 857 042e 41EAD371 	 orr r1,r1,r3,lsr#31
 179:fips202.c     ****             Agi ^= Di;
 858              	 .loc 1 179 17 view .LVU295
 859 0432 189B     	 ldr r3,[sp,#96]
 174:fips202.c     ****             Egu =   BCu ^((~BCa)&  BCe );
 860              	 .loc 1 174 17 view .LVU296
 861 0434 88EA0E0E 	 eor lr,r8,lr
 862              	.LVL115:
 174:fips202.c     ****             Egu =   BCu ^((~BCa)&  BCe );
 863              	 .loc 1 174 17 view .LVU297
 864 0438 6C40     	 eors r4,r4,r5
 865              	 .loc 1 179 17 view .LVU298
 866 043a 8BEA0302 	 eor r2,fp,r3
 174:fips202.c     ****             Egu =   BCu ^((~BCa)&  BCe );
 867              	 .loc 1 174 17 view .LVU299
 868 043e CDF8D8E0 	 str lr,[sp,#216]
 869              	.LVL116:
 174:fips202.c     ****             Egu =   BCu ^((~BCa)&  BCe );
 870              	 .loc 1 174 17 view .LVU300
 871 0442 3794     	 str r4,[sp,#220]
 872              	.LVL117:
 175:fips202.c     **** 
 873              	 .loc 1 175 13 is_stmt 1 view .LVU301
 177:fips202.c     ****             BCa = ROL(Abe,  1);
 874              	 .loc 1 177 13 view .LVU302
 178:fips202.c     ****             Agi ^= Di;
 875              	 .loc 1 178 13 view .LVU303
 876              	 .loc 1 179 13 view .LVU304
 180:fips202.c     ****             BCe = ROL(Agi,  6);
 877              	 .loc 1 180 13 view .LVU305
 179:fips202.c     ****             BCe = ROL(Agi,  6);
 878              	 .loc 1 179 17 is_stmt 0 view .LVU306
 879 0444 059B     	 ldr r3,[sp,#20]
 880 0446 199C     	 ldr r4,[sp,#100]
 881              	.LVL118:
 181:fips202.c     ****             Ako ^= Do;
 882              	 .loc 1 181 17 view .LVU307
 883 0448 259D     	 ldr r5,[sp,#148]
 182:fips202.c     ****             BCi = ROL(Ako, 25);
 183:fips202.c     ****             Amu ^= Du;
 884              	 .loc 1 183 17 view .LVU308
 885 044a 319F     	 ldr r7,[sp,#196]
 179:fips202.c     ****             BCe = ROL(Agi,  6);
 886              	 .loc 1 179 17 view .LVU309
 887 044c 6340     	 eors r3,r3,r4
 180:fips202.c     ****             Ako ^= Do;
 888              	 .loc 1 180 17 view .LVU310
 889 044e 9601     	 lsls r6,r2,#6
 890 0450 46EA9366 	 orr r6,r6,r3,lsr#26
 891 0454 9B01     	 lsls r3,r3,#6
 181:fips202.c     ****             BCi = ROL(Ako, 25);
 892              	 .loc 1 181 17 view .LVU311
 893 0456 249C     	 ldr r4,[sp,#144]
 180:fips202.c     ****             Ako ^= Do;
 894              	 .loc 1 180 17 view .LVU312
 895 0458 43EA9263 	 orr r3,r3,r2,lsr#26
 896              	.LVL119:
 181:fips202.c     ****             BCi = ROL(Ako, 25);
 897              	 .loc 1 181 13 is_stmt 1 view .LVU313
 182:fips202.c     ****             Amu ^= Du;
 898              	 .loc 1 182 13 view .LVU314
 181:fips202.c     ****             BCi = ROL(Ako, 25);
 899              	 .loc 1 181 17 is_stmt 0 view .LVU315
 900 045c 069A     	 ldr r2,[sp,#24]
 901 045e 6240     	 eors r2,r2,r4
 902 0460 079C     	 ldr r4,[sp,#28]
 182:fips202.c     ****             Amu ^= Du;
 903              	 .loc 1 182 17 view .LVU316
 904 0462 4FEA4268 	 lsl r8,r2,#25
 181:fips202.c     ****             BCi = ROL(Ako, 25);
 905              	 .loc 1 181 17 view .LVU317
 906 0466 6540     	 eors r5,r5,r4
 182:fips202.c     ****             Amu ^= Du;
 907              	 .loc 1 182 17 view .LVU318
 908 0468 48EAD518 	 orr r8,r8,r5,lsr#7
 909 046c 6D06     	 lsls r5,r5,#25
 910              	 .loc 1 183 17 view .LVU319
 911 046e 309C     	 ldr r4,[sp,#192]
 182:fips202.c     ****             Amu ^= Du;
 912              	 .loc 1 182 17 view .LVU320
 913 0470 45EAD215 	 orr r5,r5,r2,lsr#7
 914              	.LVL120:
 915              	 .loc 1 183 13 is_stmt 1 view .LVU321
 184:fips202.c     ****             BCo = ROL(Amu,  8);
 916              	 .loc 1 184 13 view .LVU322
 183:fips202.c     ****             BCo = ROL(Amu,  8);
 917              	 .loc 1 183 17 is_stmt 0 view .LVU323
 918 0474 089A     	 ldr r2,[sp,#32]
 919 0476 6240     	 eors r2,r2,r4
 920 0478 099C     	 ldr r4,[sp,#36]
 921              	 .loc 1 184 17 view .LVU324
 922 047a 4FEA022E 	 lsl lr,r2,#8
 923              	.LVL121:
 183:fips202.c     ****             BCo = ROL(Amu,  8);
 924              	 .loc 1 183 17 view .LVU325
 925 047e 7C40     	 eors r4,r4,r7
 926              	 .loc 1 184 17 view .LVU326
 927 0480 4EEA146E 	 orr lr,lr,r4,lsr#24
 928 0484 2402     	 lsls r4,r4,#8
 185:fips202.c     ****             Asa ^= Da;
 929              	 .loc 1 185 17 view .LVU327
 930 0486 329F     	 ldr r7,[sp,#200]
 184:fips202.c     ****             BCo = ROL(Amu,  8);
 931              	 .loc 1 184 17 view .LVU328
 932 0488 44EA1264 	 orr r4,r4,r2,lsr#24
 933              	.LVL122:
 934              	 .loc 1 185 13 is_stmt 1 view .LVU329
 186:fips202.c     ****             BCu = ROL(Asa, 18);
 935              	 .loc 1 186 13 view .LVU330
 185:fips202.c     ****             Asa ^= Da;
 936              	 .loc 1 185 17 is_stmt 0 view .LVU331
 937 048c 019A     	 ldr r2,[sp,#4]
 938 048e 82EA0709 	 eor r9,r2,r7
 939 0492 339F     	 ldr r7,[sp,#204]
 940 0494 029A     	 ldr r2,[sp,#8]
 941 0496 7A40     	 eors r2,r2,r7
 942              	 .loc 1 186 17 view .LVU332
 943 0498 4FEA8947 	 lsl r7,r9,#18
 944 049c 47EA9237 	 orr r7,r7,r2,lsr#14
 945 04a0 9204     	 lsls r2,r2,#18
 946 04a2 42EA9932 	 orr r2,r2,r9,lsr#14
 947              	.LVL123:
 187:fips202.c     ****             Eka =   BCa ^((~BCe)&  BCi );
 948              	 .loc 1 187 13 is_stmt 1 view .LVU333
 949              	 .loc 1 187 33 is_stmt 0 view .LVU334
 950 04a6 25EA0309 	 bic r9,r5,r3
 951              	 .loc 1 187 17 view .LVU335
 952 04aa 89EA0109 	 eor r9,r9,r1
 953 04ae CDF86490 	 str r9,[sp,#100]
 954              	.LVL124:
 188:fips202.c     ****             Eke =   BCe ^((~BCi)&  BCo );
 955              	 .loc 1 188 13 is_stmt 1 view .LVU336
 956              	 .loc 1 188 33 is_stmt 0 view .LVU337
 957 04b2 24EA0509 	 bic r9,r4,r5
 958              	.LVL125:
 187:fips202.c     ****             Eka =   BCa ^((~BCe)&  BCi );
 959              	 .loc 1 187 33 view .LVU338
 960 04b6 28EA060A 	 bic r10,r8,r6
 961              	 .loc 1 188 17 view .LVU339
 962 04ba 89EA0309 	 eor r9,r9,r3
 187:fips202.c     ****             Eka =   BCa ^((~BCe)&  BCi );
 963              	 .loc 1 187 17 view .LVU340
 964 04be 8AEA0C0A 	 eor r10,r10,ip
 965              	 .loc 1 188 17 view .LVU341
 966 04c2 CDF8C490 	 str r9,[sp,#196]
 967              	.LVL126:
 189:fips202.c     ****             Eki =   BCi ^((~BCo)&  BCu );
 968              	 .loc 1 189 13 is_stmt 1 view .LVU342
 190:fips202.c     ****             Eko =   BCo ^((~BCu)&  BCa );
 191:fips202.c     ****             Eku =   BCu ^((~BCa)&  BCe );
 969              	 .loc 1 191 33 is_stmt 0 view .LVU343
 970 04c6 23EA0103 	 bic r3,r3,r1
 971              	.LVL127:
 189:fips202.c     ****             Eki =   BCi ^((~BCo)&  BCu );
 972              	 .loc 1 189 33 view .LVU344
 973 04ca 22EA0409 	 bic r9,r2,r4
 974              	.LVL128:
 189:fips202.c     ****             Eki =   BCi ^((~BCo)&  BCu );
 975              	 .loc 1 189 17 view .LVU345
 976 04ce 89EA0505 	 eor r5,r9,r5
 977              	.LVL129:
 978              	 .loc 1 191 17 view .LVU346
 979 04d2 5340     	 eors r3,r3,r2
 187:fips202.c     ****             Eke =   BCe ^((~BCi)&  BCo );
 980              	 .loc 1 187 17 view .LVU347
 981 04d4 CDF860A0 	 str r10,[sp,#96]
 982              	.LVL130:
 188:fips202.c     ****             Eki =   BCi ^((~BCo)&  BCu );
 983              	 .loc 1 188 33 view .LVU348
 984 04d8 2EEA080A 	 bic r10,lr,r8
 188:fips202.c     ****             Eki =   BCi ^((~BCo)&  BCu );
 985              	 .loc 1 188 17 view .LVU349
 986 04dc 8AEA060A 	 eor r10,r10,r6
 189:fips202.c     ****             Eko =   BCo ^((~BCu)&  BCa );
 987              	 .loc 1 189 17 view .LVU350
 988 04e0 0D95     	 str r5,[sp,#52]
 989              	.LVL131:
 190:fips202.c     ****             Eku =   BCu ^((~BCa)&  BCe );
 990              	 .loc 1 190 13 is_stmt 1 view .LVU351
 991              	 .loc 1 191 33 is_stmt 0 view .LVU352
 992 04e2 26EA0C06 	 bic r6,r6,ip
 190:fips202.c     ****             Eku =   BCu ^((~BCa)&  BCe );
 993              	 .loc 1 190 33 view .LVU353
 994 04e6 21EA0205 	 bic r5,r1,r2
 995              	.LVL132:
 996              	 .loc 1 191 17 view .LVU354
 997 04ea 3393     	 str r3,[sp,#204]
 998              	.LVL133:
 192:fips202.c     **** 
 193:fips202.c     ****             Abu ^= Du;
 999              	 .loc 1 193 17 view .LVU355
 1000 04ec 129A     	 ldr r2,[sp,#72]
 1001              	.LVL134:
 1002              	 .loc 1 193 17 view .LVU356
 1003 04ee 089B     	 ldr r3,[sp,#32]
 188:fips202.c     ****             Eki =   BCi ^((~BCo)&  BCu );
 1004              	 .loc 1 188 17 view .LVU357
 1005 04f0 CDF8C0A0 	 str r10,[sp,#192]
 1006              	.LVL135:
 191:fips202.c     **** 
 1007              	 .loc 1 191 17 view .LVU358
 1008 04f4 86EA0701 	 eor r1,r6,r7
 1009              	.LVL136:
 189:fips202.c     ****             Eko =   BCo ^((~BCu)&  BCa );
 1010              	 .loc 1 189 33 view .LVU359
 1011 04f8 27EA0E0A 	 bic r10,r7,lr
 1012              	 .loc 1 193 17 view .LVU360
 1013 04fc 5340     	 eors r3,r3,r2
 191:fips202.c     **** 
 1014              	 .loc 1 191 17 view .LVU361
 1015 04fe 3291     	 str r1,[sp,#200]
 1016              	 .loc 1 193 17 view .LVU362
 1017 0500 099A     	 ldr r2,[sp,#36]
 1018 0502 1399     	 ldr r1,[sp,#76]
 189:fips202.c     ****             Eko =   BCo ^((~BCu)&  BCa );
 1019              	 .loc 1 189 17 view .LVU363
 1020 0504 8AEA0808 	 eor r8,r10,r8
 1021              	.LVL137:
 1022              	 .loc 1 193 17 view .LVU364
 1023 0508 5140     	 eors r1,r1,r2
 189:fips202.c     ****             Eko =   BCo ^((~BCu)&  BCa );
 1024              	 .loc 1 189 17 view .LVU365
 1025 050a CDF83080 	 str r8,[sp,#48]
 1026              	.LVL138:
 190:fips202.c     ****             Eku =   BCu ^((~BCa)&  BCe );
 1027              	 .loc 1 190 33 view .LVU366
 1028 050e 2CEA0708 	 bic r8,ip,r7
 194:fips202.c     ****             BCa = ROL(Abu, 27);
 1029              	 .loc 1 194 17 view .LVU367
 1030 0512 4FEAC36C 	 lsl ip,r3,#27
 1031              	 .loc 1 194 17 view .LVU368
 1032 0516 4CEA511C 	 orr ip,ip,r1,lsr#5
 1033 051a C906     	 lsls r1,r1,#27
 1034 051c 41EA5311 	 orr r1,r1,r3,lsr#5
 195:fips202.c     ****             Aga ^= Da;
 1035              	 .loc 1 195 17 view .LVU369
 1036 0520 149A     	 ldr r2,[sp,#80]
 1037 0522 019B     	 ldr r3,[sp,#4]
 190:fips202.c     ****             Eku =   BCu ^((~BCa)&  BCe );
 1038              	 .loc 1 190 17 view .LVU370
 1039 0524 6C40     	 eors r4,r4,r5
 1040              	.LVL139:
 1041              	 .loc 1 195 17 view .LVU371
 1042 0526 5A40     	 eors r2,r2,r3
 190:fips202.c     ****             Eku =   BCu ^((~BCa)&  BCe );
 1043              	 .loc 1 190 17 view .LVU372
 1044 0528 2594     	 str r4,[sp,#148]
 1045              	.LVL140:
 191:fips202.c     **** 
 1046              	 .loc 1 191 13 is_stmt 1 view .LVU373
 193:fips202.c     ****             BCa = ROL(Abu, 27);
 1047              	 .loc 1 193 13 view .LVU374
 194:fips202.c     ****             Aga ^= Da;
 1048              	 .loc 1 194 13 view .LVU375
 1049              	 .loc 1 195 13 view .LVU376
 196:fips202.c     ****             BCe = ROL(Aga, 36);
 1050              	 .loc 1 196 13 view .LVU377
 195:fips202.c     ****             BCe = ROL(Aga, 36);
 1051              	 .loc 1 195 17 is_stmt 0 view .LVU378
 1052 052a 029B     	 ldr r3,[sp,#8]
 1053 052c 159C     	 ldr r4,[sp,#84]
 1054              	.LVL141:
 1055              	 .loc 1 196 17 view .LVU379
 1056 052e 160F     	 lsrs r6,r2,#28
 195:fips202.c     ****             BCe = ROL(Aga, 36);
 1057              	 .loc 1 195 17 view .LVU380
 1058 0530 6340     	 eors r3,r3,r4
 1059              	 .loc 1 196 17 view .LVU381
 1060 0532 46EA0316 	 orr r6,r6,r3,lsl#4
 190:fips202.c     ****             Eku =   BCu ^((~BCa)&  BCe );
 1061              	 .loc 1 190 17 view .LVU382
 1062 0536 88EA0E0E 	 eor lr,r8,lr
 1063              	 .loc 1 196 17 view .LVU383
 1064 053a 1B0F     	 lsrs r3,r3,#28
 1065 053c 43EA0213 	 orr r3,r3,r2,lsl#4
 1066              	.LVL142:
 197:fips202.c     ****             Ake ^= De;
 1067              	 .loc 1 197 13 is_stmt 1 view .LVU384
 198:fips202.c     ****             BCi = ROL(Ake, 10);
 1068              	 .loc 1 198 13 view .LVU385
 190:fips202.c     ****             Eku =   BCu ^((~BCa)&  BCe );
 1069              	 .loc 1 190 17 is_stmt 0 view .LVU386
 1070 0540 CDF890E0 	 str lr,[sp,#144]
 1071              	.LVL143:
 197:fips202.c     ****             Ake ^= De;
 1072              	 .loc 1 197 17 view .LVU387
 1073 0544 039A     	 ldr r2,[sp,#12]
 1074 0546 209C     	 ldr r4,[sp,#128]
 1075 0548 219D     	 ldr r5,[sp,#132]
 199:fips202.c     ****             Ami ^= Di;
 1076              	 .loc 1 199 17 view .LVU388
 1077 054a 2D9F     	 ldr r7,[sp,#180]
 197:fips202.c     ****             Ake ^= De;
 1078              	 .loc 1 197 17 view .LVU389
 1079 054c 6240     	 eors r2,r2,r4
 1080 054e 049C     	 ldr r4,[sp,#16]
 198:fips202.c     ****             BCi = ROL(Ake, 10);
 1081              	 .loc 1 198 17 view .LVU390
 1082 0550 4FEA8228 	 lsl r8,r2,#10
 197:fips202.c     ****             Ake ^= De;
 1083              	 .loc 1 197 17 view .LVU391
 1084 0554 6540     	 eors r5,r5,r4
 198:fips202.c     ****             BCi = ROL(Ake, 10);
 1085              	 .loc 1 198 17 view .LVU392
 1086 0556 48EA9558 	 orr r8,r8,r5,lsr#22
 1087 055a AD02     	 lsls r5,r5,#10
 1088 055c 45EA9255 	 orr r5,r5,r2,lsr#22
 1089              	.LVL144:
 1090              	 .loc 1 199 13 is_stmt 1 view .LVU393
 200:fips202.c     ****             BCo = ROL(Ami, 15);
 1091              	 .loc 1 200 13 view .LVU394
 199:fips202.c     ****             Ami ^= Di;
 1092              	 .loc 1 199 17 is_stmt 0 view .LVU395
 1093 0560 2C9A     	 ldr r2,[sp,#176]
 1094 0562 059C     	 ldr r4,[sp,#20]
 1095 0564 8BEA0202 	 eor r2,fp,r2
 1096 0568 7C40     	 eors r4,r4,r7
 1097              	 .loc 1 200 17 view .LVU396
 1098 056a 4FEAC23E 	 lsl lr,r2,#15
 1099 056e 4EEA544E 	 orr lr,lr,r4,lsr#17
 1100 0572 E403     	 lsls r4,r4,#15
 201:fips202.c     ****             Aso ^= Do;
 1101              	 .loc 1 201 17 view .LVU397
 1102 0574 389F     	 ldr r7,[sp,#224]
 200:fips202.c     ****             BCo = ROL(Ami, 15);
 1103              	 .loc 1 200 17 view .LVU398
 1104 0576 44EA5244 	 orr r4,r4,r2,lsr#17
 1105              	.LVL145:
 1106              	 .loc 1 201 13 is_stmt 1 view .LVU399
 202:fips202.c     ****             BCu = ROL(Aso, 56);
 1107              	 .loc 1 202 13 view .LVU400
 201:fips202.c     ****             Aso ^= Do;
 1108              	 .loc 1 201 17 is_stmt 0 view .LVU401
 1109 057a 069A     	 ldr r2,[sp,#24]
 1110 057c 82EA0709 	 eor r9,r2,r7
 1111 0580 399F     	 ldr r7,[sp,#228]
 1112 0582 079A     	 ldr r2,[sp,#28]
 1113 0584 7A40     	 eors r2,r2,r7
 1114              	 .loc 1 202 17 view .LVU402
 1115 0586 4FEA1927 	 lsr r7,r9,#8
 1116 058a 47EA0267 	 orr r7,r7,r2,lsl#24
 1117 058e 120A     	 lsrs r2,r2,#8
 1118 0590 42EA0962 	 orr r2,r2,r9,lsl#24
 1119              	.LVL146:
 203:fips202.c     ****             Ema =   BCa ^((~BCe)&  BCi );
 1120              	 .loc 1 203 13 is_stmt 1 view .LVU403
 1121              	 .loc 1 203 33 is_stmt 0 view .LVU404
 1122 0594 25EA0309 	 bic r9,r5,r3
 1123              	 .loc 1 203 17 view .LVU405
 1124 0598 89EA0109 	 eor r9,r9,r1
 1125              	 .loc 1 203 33 view .LVU406
 1126 059c 28EA060A 	 bic r10,r8,r6
 1127              	 .loc 1 203 17 view .LVU407
 1128 05a0 CDF8E490 	 str r9,[sp,#228]
 1129              	.LVL147:
 204:fips202.c     ****             Eme =   BCe ^((~BCi)&  BCo );
 1130              	 .loc 1 204 13 is_stmt 1 view .LVU408
 1131              	 .loc 1 204 33 is_stmt 0 view .LVU409
 1132 05a4 24EA0509 	 bic r9,r4,r5
 1133              	.LVL148:
 203:fips202.c     ****             Ema =   BCa ^((~BCe)&  BCi );
 1134              	 .loc 1 203 17 view .LVU410
 1135 05a8 8AEA0C0A 	 eor r10,r10,ip
 1136              	 .loc 1 204 17 view .LVU411
 1137 05ac 89EA0309 	 eor r9,r9,r3
 203:fips202.c     ****             Ema =   BCa ^((~BCe)&  BCi );
 1138              	 .loc 1 203 17 view .LVU412
 1139 05b0 CDF8E0A0 	 str r10,[sp,#224]
 1140              	.LVL149:
 1141              	 .loc 1 204 17 view .LVU413
 1142 05b4 CDF85490 	 str r9,[sp,#84]
 1143              	.LVL150:
 205:fips202.c     ****             Emi =   BCi ^((~BCo)&  BCu );
 1144              	 .loc 1 205 13 is_stmt 1 view .LVU414
 204:fips202.c     ****             Eme =   BCe ^((~BCi)&  BCo );
 1145              	 .loc 1 204 33 is_stmt 0 view .LVU415
 1146 05b8 2EEA080A 	 bic r10,lr,r8
 1147              	 .loc 1 205 33 view .LVU416
 1148 05bc 22EA0409 	 bic r9,r2,r4
 1149              	.LVL151:
 206:fips202.c     ****             Emo =   BCo ^((~BCu)&  BCa );
 207:fips202.c     ****             Emu =   BCu ^((~BCa)&  BCe );
 1150              	 .loc 1 207 33 view .LVU417
 1151 05c0 23EA0103 	 bic r3,r3,r1
 1152              	.LVL152:
 204:fips202.c     ****             Emi =   BCi ^((~BCo)&  BCu );
 1153              	 .loc 1 204 17 view .LVU418
 1154 05c4 8AEA060A 	 eor r10,r10,r6
 205:fips202.c     ****             Emi =   BCi ^((~BCo)&  BCu );
 1155              	 .loc 1 205 17 view .LVU419
 1156 05c8 89EA0505 	 eor r5,r9,r5
 1157              	.LVL153:
 1158              	 .loc 1 207 33 view .LVU420
 1159 05cc 26EA0C06 	 bic r6,r6,ip
 1160              	 .loc 1 207 17 view .LVU421
 1161 05d0 5340     	 eors r3,r3,r2
 205:fips202.c     ****             Emi =   BCi ^((~BCo)&  BCu );
 1162              	 .loc 1 205 17 view .LVU422
 1163 05d2 2D95     	 str r5,[sp,#180]
 1164              	.LVL154:
 206:fips202.c     ****             Emo =   BCo ^((~BCu)&  BCa );
 1165              	 .loc 1 206 13 is_stmt 1 view .LVU423
 1166              	 .loc 1 207 17 is_stmt 0 view .LVU424
 1167 05d4 2193     	 str r3,[sp,#132]
 1168              	.LVL155:
 206:fips202.c     ****             Emo =   BCo ^((~BCu)&  BCa );
 1169              	 .loc 1 206 33 view .LVU425
 1170 05d6 21EA0205 	 bic r5,r1,r2
 1171              	.LVL156:
 208:fips202.c     **** 
 209:fips202.c     ****             Abi ^= Di;
 1172              	 .loc 1 209 17 view .LVU426
 1173 05da 0E9B     	 ldr r3,[sp,#56]
 1174 05dc 059A     	 ldr r2,[sp,#20]
 1175              	.LVL157:
 204:fips202.c     ****             Emi =   BCi ^((~BCo)&  BCu );
 1176              	 .loc 1 204 17 view .LVU427
 1177 05de CDF850A0 	 str r10,[sp,#80]
 1178              	.LVL158:
 207:fips202.c     **** 
 1179              	 .loc 1 207 17 view .LVU428
 1180 05e2 86EA0701 	 eor r1,r6,r7
 1181              	.LVL159:
 207:fips202.c     **** 
 1182              	 .loc 1 207 17 view .LVU429
 1183 05e6 2091     	 str r1,[sp,#128]
 1184              	 .loc 1 209 17 view .LVU430
 1185 05e8 0F99     	 ldr r1,[sp,#60]
 210:fips202.c     ****             BCa = ROL(Abi, 62);
 211:fips202.c     ****             Ago ^= Do;
 212:fips202.c     ****             BCe = ROL(Ago, 55);
 213:fips202.c     ****             Aku ^= Du;
 1186              	 .loc 1 213 17 view .LVU431
 1187 05ea 269E     	 ldr r6,[sp,#152]
 209:fips202.c     ****             BCa = ROL(Abi, 62);
 1188              	 .loc 1 209 17 view .LVU432
 1189 05ec 8BEA0303 	 eor r3,fp,r3
 206:fips202.c     ****             Emu =   BCu ^((~BCa)&  BCe );
 1190              	 .loc 1 206 17 view .LVU433
 1191 05f0 6C40     	 eors r4,r4,r5
 1192              	.LVL160:
 206:fips202.c     ****             Emu =   BCu ^((~BCa)&  BCe );
 1193              	 .loc 1 206 17 view .LVU434
 1194 05f2 1394     	 str r4,[sp,#76]
 1195              	.LVL161:
 207:fips202.c     **** 
 1196              	 .loc 1 207 13 is_stmt 1 view .LVU435
 209:fips202.c     ****             BCa = ROL(Abi, 62);
 1197              	 .loc 1 209 13 view .LVU436
 210:fips202.c     ****             Ago ^= Do;
 1198              	 .loc 1 210 13 view .LVU437
 210:fips202.c     ****             Ago ^= Do;
 1199              	 .loc 1 210 17 is_stmt 0 view .LVU438
 1200 05f4 9D08     	 lsrs r5,r3,#2
 209:fips202.c     ****             BCa = ROL(Abi, 62);
 1201              	 .loc 1 209 17 view .LVU439
 1202 05f6 82EA0104 	 eor r4,r2,r1
 1203              	.LVL162:
 210:fips202.c     ****             Ago ^= Do;
 1204              	 .loc 1 210 17 view .LVU440
 1205 05fa 45EA8475 	 orr r5,r5,r4,lsl#30
 1206 05fe A408     	 lsrs r4,r4,#2
 1207 0600 44EA8374 	 orr r4,r4,r3,lsl#30
 1208              	.LVL163:
 211:fips202.c     ****             BCe = ROL(Ago, 55);
 1209              	 .loc 1 211 13 is_stmt 1 view .LVU441
 212:fips202.c     ****             Aku ^= Du;
 1210              	 .loc 1 212 13 view .LVU442
 211:fips202.c     ****             BCe = ROL(Ago, 55);
 1211              	 .loc 1 211 17 is_stmt 0 view .LVU443
 1212 0604 1A9A     	 ldr r2,[sp,#104]
 1213 0606 069B     	 ldr r3,[sp,#24]
 1214 0608 83EA0201 	 eor r1,r3,r2
 1215 060c 1B9A     	 ldr r2,[sp,#108]
 1216 060e 079B     	 ldr r3,[sp,#28]
 1217 0610 5340     	 eors r3,r3,r2
 212:fips202.c     ****             Aku ^= Du;
 1218              	 .loc 1 212 17 view .LVU444
 1219 0612 4A0A     	 lsrs r2,r1,#9
 1220 0614 42EAC352 	 orr r2,r2,r3,lsl#23
 1221 0618 5B0A     	 lsrs r3,r3,#9
 205:fips202.c     ****             Emo =   BCo ^((~BCu)&  BCa );
 1222              	 .loc 1 205 33 view .LVU445
 1223 061a 27EA0E0A 	 bic r10,r7,lr
 212:fips202.c     ****             Aku ^= Du;
 1224              	 .loc 1 212 17 view .LVU446
 1225 061e 43EAC153 	 orr r3,r3,r1,lsl#23
 1226              	.LVL164:
 1227              	 .loc 1 213 13 is_stmt 1 view .LVU447
 214:fips202.c     ****             BCi = ROL(Aku, 39);
 1228              	 .loc 1 214 13 view .LVU448
 213:fips202.c     ****             BCi = ROL(Aku, 39);
 1229              	 .loc 1 213 17 is_stmt 0 view .LVU449
 1230 0622 0899     	 ldr r1,[sp,#32]
 205:fips202.c     ****             Emo =   BCo ^((~BCu)&  BCa );
 1231              	 .loc 1 205 17 view .LVU450
 1232 0624 8AEA0808 	 eor r8,r10,r8
 213:fips202.c     ****             BCi = ROL(Aku, 39);
 1233              	 .loc 1 213 17 view .LVU451
 1234 0628 7140     	 eors r1,r1,r6
 205:fips202.c     ****             Emo =   BCo ^((~BCu)&  BCa );
 1235              	 .loc 1 205 17 view .LVU452
 1236 062a CDF8B080 	 str r8,[sp,#176]
 1237              	.LVL165:
 213:fips202.c     ****             BCi = ROL(Aku, 39);
 1238              	 .loc 1 213 17 view .LVU453
 1239 062e 099E     	 ldr r6,[sp,#36]
 206:fips202.c     ****             Emu =   BCu ^((~BCa)&  BCe );
 1240              	 .loc 1 206 33 view .LVU454
 1241 0630 2CEA0708 	 bic r8,ip,r7
 213:fips202.c     ****             BCi = ROL(Aku, 39);
 1242              	 .loc 1 213 17 view .LVU455
 1243 0634 279F     	 ldr r7,[sp,#156]
 1244              	 .loc 1 214 17 view .LVU456
 1245 0636 4FEA516C 	 lsr ip,r1,#25
 213:fips202.c     ****             BCi = ROL(Aku, 39);
 1246              	 .loc 1 213 17 view .LVU457
 1247 063a 7740     	 eors r7,r7,r6
 1248              	 .loc 1 214 17 view .LVU458
 1249 063c 4CEAC71C 	 orr ip,ip,r7,lsl#7
 206:fips202.c     ****             Emu =   BCu ^((~BCa)&  BCe );
 1250              	 .loc 1 206 17 view .LVU459
 1251 0640 88EA0E0E 	 eor lr,r8,lr
 1252              	 .loc 1 214 17 view .LVU460
 1253 0644 7F0E     	 lsrs r7,r7,#25
 1254 0646 47EAC117 	 orr r7,r7,r1,lsl#7
 1255              	.LVL166:
 215:fips202.c     ****             Ama ^= Da;
 1256              	 .loc 1 215 13 is_stmt 1 view .LVU461
 216:fips202.c     ****             BCo = ROL(Ama, 41);
 1257              	 .loc 1 216 13 view .LVU462
 206:fips202.c     ****             Emu =   BCu ^((~BCa)&  BCe );
 1258              	 .loc 1 206 17 is_stmt 0 view .LVU463
 1259 064a CDF848E0 	 str lr,[sp,#72]
 1260              	.LVL167:
 215:fips202.c     ****             Ama ^= Da;
 1261              	 .loc 1 215 17 view .LVU464
 1262 064e 0199     	 ldr r1,[sp,#4]
 1263 0650 289E     	 ldr r6,[sp,#160]
 1264 0652 DDF8A4E0 	 ldr lr,[sp,#164]
 1265 0656 7140     	 eors r1,r1,r6
 1266 0658 029E     	 ldr r6,[sp,#8]
 1267              	 .loc 1 216 17 view .LVU465
 1268 065a 4FEAD158 	 lsr r8,r1,#23
 215:fips202.c     ****             Ama ^= Da;
 1269              	 .loc 1 215 17 view .LVU466
 1270 065e 86EA0E06 	 eor r6,r6,lr
 1271              	 .loc 1 216 17 view .LVU467
 1272 0662 48EA4628 	 orr r8,r8,r6,lsl#9
 1273 0666 F60D     	 lsrs r6,r6,#23
 217:fips202.c     ****             Ase ^= De;
 1274              	 .loc 1 217 17 view .LVU468
 1275 0668 DDF8D0E0 	 ldr lr,[sp,#208]
 216:fips202.c     ****             BCo = ROL(Ama, 41);
 1276              	 .loc 1 216 17 view .LVU469
 1277 066c 46EA4126 	 orr r6,r6,r1,lsl#9
 1278              	.LVL168:
 1279              	 .loc 1 217 13 is_stmt 1 view .LVU470
 218:fips202.c     ****             BCu = ROL(Ase,  2);
 1280              	 .loc 1 218 13 view .LVU471
 217:fips202.c     ****             Ase ^= De;
 1281              	 .loc 1 217 17 is_stmt 0 view .LVU472
 1282 0670 0399     	 ldr r1,[sp,#12]
 1283 0672 81EA0E09 	 eor r9,r1,lr
 1284 0676 DDF8D4E0 	 ldr lr,[sp,#212]
 1285 067a 0499     	 ldr r1,[sp,#16]
 1286 067c 81EA0E01 	 eor r1,r1,lr
 1287              	 .loc 1 218 17 view .LVU473
 1288 0680 4FEA890E 	 lsl lr,r9,#2
 1289 0684 4EEA917E 	 orr lr,lr,r1,lsr#30
 1290 0688 8900     	 lsls r1,r1,#2
 1291 068a 41EA9971 	 orr r1,r1,r9,lsr#30
 1292              	.LVL169:
 219:fips202.c     ****             Esa =   BCa ^((~BCe)&  BCi );
 1293              	 .loc 1 219 13 is_stmt 1 view .LVU474
 1294              	 .loc 1 219 33 is_stmt 0 view .LVU475
 1295 068e 27EA0309 	 bic r9,r7,r3
 1296 0692 2CEA020A 	 bic r10,ip,r2
 1297              	 .loc 1 219 17 view .LVU476
 1298 0696 89EA0409 	 eor r9,r9,r4
 1299 069a 8AEA050A 	 eor r10,r10,r5
 1300 069e CDF89C90 	 str r9,[sp,#156]
 1301              	.LVL170:
 220:fips202.c     ****             Ese =   BCe ^((~BCi)&  BCo );
 1302              	 .loc 1 220 13 is_stmt 1 view .LVU477
 1303              	 .loc 1 220 33 is_stmt 0 view .LVU478
 1304 06a2 26EA0709 	 bic r9,r6,r7
 1305              	.LVL171:
 219:fips202.c     ****             Esa =   BCa ^((~BCe)&  BCi );
 1306              	 .loc 1 219 17 view .LVU479
 1307 06a6 CDF898A0 	 str r10,[sp,#152]
 1308              	.LVL172:
 1309              	 .loc 1 220 17 view .LVU480
 1310 06aa 89EA0309 	 eor r9,r9,r3
 1311              	 .loc 1 220 33 view .LVU481
 1312 06ae 28EA0C0A 	 bic r10,r8,ip
 1313              	 .loc 1 220 17 view .LVU482
 1314 06b2 8AEA020A 	 eor r10,r10,r2
 1315 06b6 CDF8D490 	 str r9,[sp,#212]
 1316              	.LVL173:
 221:fips202.c     ****             Esi =   BCi ^((~BCo)&  BCu );
 1317              	 .loc 1 221 13 is_stmt 1 view .LVU483
 222:fips202.c     ****             Eso =   BCo ^((~BCu)&  BCa );
 223:fips202.c     ****             Esu =   BCu ^((~BCa)&  BCe );
 1318              	 .loc 1 223 33 is_stmt 0 view .LVU484
 1319 06ba 22EA0502 	 bic r2,r2,r5
 1320              	.LVL174:
 221:fips202.c     ****             Esi =   BCi ^((~BCo)&  BCu );
 1321              	 .loc 1 221 33 view .LVU485
 1322 06be 21EA0609 	 bic r9,r1,r6
 1323              	.LVL175:
 1324              	 .loc 1 223 33 view .LVU486
 1325 06c2 23EA0403 	 bic r3,r3,r4
 1326              	.LVL176:
 221:fips202.c     ****             Esi =   BCi ^((~BCo)&  BCu );
 1327              	 .loc 1 221 17 view .LVU487
 1328 06c6 89EA0707 	 eor r7,r9,r7
 1329              	.LVL177:
 1330              	 .loc 1 223 17 view .LVU488
 1331 06ca 82EA0E02 	 eor r2,r2,lr
 1332 06ce 4B40     	 eors r3,r3,r1
 221:fips202.c     ****             Esi =   BCi ^((~BCo)&  BCu );
 1333              	 .loc 1 221 17 view .LVU489
 1334 06d0 1B97     	 str r7,[sp,#108]
 1335              	.LVL178:
 222:fips202.c     ****             Eso =   BCo ^((~BCu)&  BCa );
 1336              	 .loc 1 222 13 is_stmt 1 view .LVU490
 1337              	 .loc 1 223 17 is_stmt 0 view .LVU491
 1338 06d2 0E92     	 str r2,[sp,#56]
 1339              	.LVL179:
 222:fips202.c     ****             Eso =   BCo ^((~BCu)&  BCa );
 1340              	 .loc 1 222 33 view .LVU492
 1341 06d4 24EA0107 	 bic r7,r4,r1
 1342              	.LVL180:
 224:fips202.c     **** 
 225:fips202.c     ****             //    prepareTheta
 226:fips202.c     ****             BCa = Eba^Ega^Eka^Ema^Esa;
 1343              	 .loc 1 226 17 view .LVU493
 1344 06d8 2A9A     	 ldr r2,[sp,#168]
 223:fips202.c     **** 
 1345              	 .loc 1 223 17 view .LVU494
 1346 06da 0F93     	 str r3,[sp,#60]
 1347              	 .loc 1 226 17 view .LVU495
 1348 06dc 0A9B     	 ldr r3,[sp,#40]
 1349 06de 1899     	 ldr r1,[sp,#96]
 1350              	.LVL181:
 220:fips202.c     ****             Esi =   BCi ^((~BCo)&  BCu );
 1351              	 .loc 1 220 17 view .LVU496
 1352 06e0 CDF8D0A0 	 str r10,[sp,#208]
 1353              	.LVL182:
 222:fips202.c     ****             Esu =   BCu ^((~BCa)&  BCe );
 1354              	 .loc 1 222 17 view .LVU497
 1355 06e4 7E40     	 eors r6,r6,r7
 1356              	.LVL183:
 222:fips202.c     ****             Esu =   BCu ^((~BCa)&  BCe );
 1357              	 .loc 1 222 17 view .LVU498
 1358 06e6 2996     	 str r6,[sp,#164]
 1359              	.LVL184:
 223:fips202.c     **** 
 1360              	 .loc 1 223 13 is_stmt 1 view .LVU499
 1361              	 .loc 1 226 13 view .LVU500
 1362              	 .loc 1 226 17 is_stmt 0 view .LVU501
 1363 06e8 83EA0206 	 eor r6,r3,r2
 1364              	.LVL185:
 1365              	 .loc 1 226 17 view .LVU502
 1366 06ec 2B9A     	 ldr r2,[sp,#172]
 1367 06ee 0B9B     	 ldr r3,[sp,#44]
 1368 06f0 4E40     	 eors r6,r6,r1
 1369 06f2 1999     	 ldr r1,[sp,#100]
 1370 06f4 5340     	 eors r3,r3,r2
 1371 06f6 4B40     	 eors r3,r3,r1
 1372 06f8 3899     	 ldr r1,[sp,#224]
 227:fips202.c     ****             BCe = Ebe^Ege^Eke^Eme^Ese;
 1373              	 .loc 1 227 22 view .LVU503
 1374 06fa 229A     	 ldr r2,[sp,#136]
 226:fips202.c     ****             BCe = Ebe^Ege^Eke^Eme^Ese;
 1375              	 .loc 1 226 17 view .LVU504
 1376 06fc 4E40     	 eors r6,r6,r1
 1377 06fe 3999     	 ldr r1,[sp,#228]
 1378 0700 4B40     	 eors r3,r3,r1
 1379 0702 2699     	 ldr r1,[sp,#152]
 1380 0704 4E40     	 eors r6,r6,r1
 1381 0706 2799     	 ldr r1,[sp,#156]
 221:fips202.c     ****             Eso =   BCo ^((~BCu)&  BCa );
 1382              	 .loc 1 221 33 view .LVU505
 1383 0708 2EEA080A 	 bic r10,lr,r8
 226:fips202.c     ****             BCe = Ebe^Ege^Eke^Eme^Ese;
 1384              	 .loc 1 226 17 view .LVU506
 1385 070c 4B40     	 eors r3,r3,r1
 1386              	.LVL186:
 1387              	 .loc 1 227 13 is_stmt 1 view .LVU507
 1388              	 .loc 1 227 22 is_stmt 0 view .LVU508
 1389 070e 1099     	 ldr r1,[sp,#64]
 221:fips202.c     ****             Eso =   BCo ^((~BCu)&  BCa );
 1390              	 .loc 1 221 17 view .LVU509
 1391 0710 8AEA0C0C 	 eor ip,r10,ip
 1392              	 .loc 1 227 22 view .LVU510
 1393 0714 82EA0109 	 eor r9,r2,r1
 221:fips202.c     ****             Eso =   BCo ^((~BCu)&  BCa );
 1394              	 .loc 1 221 17 view .LVU511
 1395 0718 CDF868C0 	 str ip,[sp,#104]
 1396              	.LVL187:
 1397              	 .loc 1 227 22 view .LVU512
 1398 071c 1199     	 ldr r1,[sp,#68]
 1399 071e 239A     	 ldr r2,[sp,#140]
 222:fips202.c     ****             Esu =   BCu ^((~BCa)&  BCe );
 1400              	 .loc 1 222 33 view .LVU513
 1401 0720 25EA0E0C 	 bic ip,r5,lr
 222:fips202.c     ****             Esu =   BCu ^((~BCa)&  BCe );
 1402              	 .loc 1 222 17 view .LVU514
 1403 0724 8CEA080C 	 eor ip,ip,r8
 1404 0728 CDF8A0C0 	 str ip,[sp,#160]
 1405              	.LVL188:
 1406              	 .loc 1 227 22 view .LVU515
 1407 072c 82EA0108 	 eor r8,r2,r1
 1408              	 .loc 1 227 26 view .LVU516
 1409 0730 309A     	 ldr r2,[sp,#192]
 228:fips202.c     ****             BCi = Ebi^Egi^Eki^Emi^Esi;
 1410              	 .loc 1 228 22 view .LVU517
 1411 0732 1E99     	 ldr r1,[sp,#120]
 227:fips202.c     ****             BCi = Ebi^Egi^Eki^Emi^Esi;
 1412              	 .loc 1 227 26 view .LVU518
 1413 0734 89EA0209 	 eor r9,r9,r2
 1414 0738 319A     	 ldr r2,[sp,#196]
 1415 073a 88EA0208 	 eor r8,r8,r2
 227:fips202.c     ****             BCi = Ebi^Egi^Eki^Emi^Esi;
 1416              	 .loc 1 227 30 view .LVU519
 1417 073e 149A     	 ldr r2,[sp,#80]
 1418 0740 89EA0209 	 eor r9,r9,r2
 1419 0744 159A     	 ldr r2,[sp,#84]
 1420 0746 88EA0208 	 eor r8,r8,r2
 227:fips202.c     ****             BCi = Ebi^Egi^Eki^Emi^Esi;
 1421              	 .loc 1 227 17 view .LVU520
 1422 074a 349A     	 ldr r2,[sp,#208]
 1423 074c 89EA0209 	 eor r9,r9,r2
 1424 0750 359A     	 ldr r2,[sp,#212]
 1425 0752 88EA0208 	 eor r8,r8,r2
 1426              	.LVL189:
 1427              	 .loc 1 228 13 is_stmt 1 view .LVU521
 1428              	 .loc 1 228 22 is_stmt 0 view .LVU522
 1429 0756 3A9A     	 ldr r2,[sp,#232]
 1430 0758 82EA010C 	 eor ip,r2,r1
 1431 075c 3B9A     	 ldr r2,[sp,#236]
 1432 075e 1F99     	 ldr r1,[sp,#124]
 1433 0760 82EA0107 	 eor r7,r2,r1
 1434              	 .loc 1 228 26 view .LVU523
 1435 0764 0C9A     	 ldr r2,[sp,#48]
 1436 0766 0D99     	 ldr r1,[sp,#52]
 1437 0768 8CEA020C 	 eor ip,ip,r2
 1438 076c 4F40     	 eors r7,r7,r1
 1439              	 .loc 1 228 30 view .LVU524
 1440 076e 2C9A     	 ldr r2,[sp,#176]
 1441 0770 2D99     	 ldr r1,[sp,#180]
 1442 0772 8CEA020C 	 eor ip,ip,r2
 1443 0776 4F40     	 eors r7,r7,r1
 1444              	 .loc 1 228 17 view .LVU525
 1445 0778 1A9A     	 ldr r2,[sp,#104]
 1446 077a 1B99     	 ldr r1,[sp,#108]
 1447 077c 8CEA020C 	 eor ip,ip,r2
 1448 0780 4F40     	 eors r7,r7,r1
 1449              	.LVL190:
 229:fips202.c     ****             BCo = Ebo^Ego^Eko^Emo^Eso;
 1450              	 .loc 1 229 13 is_stmt 1 view .LVU526
 1451              	 .loc 1 229 22 is_stmt 0 view .LVU527
 1452 0782 169A     	 ldr r2,[sp,#88]
 1453 0784 3699     	 ldr r1,[sp,#216]
 1454 0786 82EA0105 	 eor r5,r2,r1
 1455 078a 179A     	 ldr r2,[sp,#92]
 1456 078c 3799     	 ldr r1,[sp,#220]
 1457 078e 82EA0104 	 eor r4,r2,r1
 1458              	 .loc 1 229 26 view .LVU528
 1459 0792 2499     	 ldr r1,[sp,#144]
 230:fips202.c     ****             BCu = Ebu^Egu^Eku^Emu^Esu;
 1460              	 .loc 1 230 26 view .LVU529
 1461 0794 1C9A     	 ldr r2,[sp,#112]
 229:fips202.c     ****             BCo = Ebo^Ego^Eko^Emo^Eso;
 1462              	 .loc 1 229 26 view .LVU530
 1463 0796 4D40     	 eors r5,r5,r1
 1464 0798 2599     	 ldr r1,[sp,#148]
 1465 079a 4C40     	 eors r4,r4,r1
 229:fips202.c     ****             BCo = Ebo^Ego^Eko^Emo^Eso;
 1466              	 .loc 1 229 30 view .LVU531
 1467 079c 1299     	 ldr r1,[sp,#72]
 1468 079e 4D40     	 eors r5,r5,r1
 1469 07a0 1399     	 ldr r1,[sp,#76]
 1470 07a2 4C40     	 eors r4,r4,r1
 229:fips202.c     ****             BCo = Ebo^Ego^Eko^Emo^Eso;
 1471              	 .loc 1 229 17 view .LVU532
 1472 07a4 2899     	 ldr r1,[sp,#160]
 1473 07a6 4D40     	 eors r5,r5,r1
 1474 07a8 2999     	 ldr r1,[sp,#164]
 1475 07aa 4C40     	 eors r4,r4,r1
 1476              	.LVL191:
 1477              	 .loc 1 230 13 is_stmt 1 view .LVU533
 1478              	 .loc 1 230 26 is_stmt 0 view .LVU534
 1479 07ac 3299     	 ldr r1,[sp,#200]
 1480 07ae 82EA010E 	 eor lr,r2,r1
 1481              	 .loc 1 230 26 view .LVU535
 1482 07b2 1D9A     	 ldr r2,[sp,#116]
 1483 07b4 3399     	 ldr r1,[sp,#204]
 1484 07b6 5140     	 eors r1,r1,r2
 1485 07b8 2E9A     	 ldr r2,[sp,#184]
 1486 07ba 8EEA020E 	 eor lr,lr,r2
 1487 07be 2F9A     	 ldr r2,[sp,#188]
 1488 07c0 5140     	 eors r1,r1,r2
 1489              	 .loc 1 230 30 view .LVU536
 1490 07c2 209A     	 ldr r2,[sp,#128]
 1491 07c4 8EEA020E 	 eor lr,lr,r2
 1492 07c8 219A     	 ldr r2,[sp,#132]
 1493 07ca 5140     	 eors r1,r1,r2
 1494              	 .loc 1 230 17 view .LVU537
 1495 07cc 0E9A     	 ldr r2,[sp,#56]
 231:fips202.c     **** 
 232:fips202.c     ****             //thetaRhoPiChiIotaPrepareTheta(round+1, E, A)
 233:fips202.c     ****             Da = BCu^ROL(BCe, 1);
 1496              	 .loc 1 233 22 view .LVU538
 1497 07ce 4FEA490B 	 lsl fp,r9,#1
 1498              	.LVL192:
 230:fips202.c     ****             BCu = Ebu^Egu^Eku^Emu^Esu;
 1499              	 .loc 1 230 17 view .LVU539
 1500 07d2 8EEA020E 	 eor lr,lr,r2
 1501 07d6 0F9A     	 ldr r2,[sp,#60]
 1502              	 .loc 1 233 22 view .LVU540
 1503 07d8 4BEAD87B 	 orr fp,fp,r8,lsr#31
 1504 07dc 4FEA480A 	 lsl r10,r8,#1
 230:fips202.c     ****             BCu = Ebu^Egu^Eku^Emu^Esu;
 1505              	 .loc 1 230 17 view .LVU541
 1506 07e0 5140     	 eors r1,r1,r2
 1507              	.LVL193:
 1508              	 .loc 1 233 13 is_stmt 1 view .LVU542
 1509              	 .loc 1 233 22 is_stmt 0 view .LVU543
 1510 07e2 4AEAD97A 	 orr r10,r10,r9,lsr#31
 1511              	 .loc 1 233 16 view .LVU544
 1512 07e6 8BEA0E02 	 eor r2,fp,lr
 234:fips202.c     ****             De = BCa^ROL(BCi, 1);
 1513              	 .loc 1 234 22 view .LVU545
 1514 07ea 4FEA4C0B 	 lsl fp,ip,#1
 233:fips202.c     ****             De = BCa^ROL(BCi, 1);
 1515              	 .loc 1 233 16 view .LVU546
 1516 07ee 0192     	 str r2,[sp,#4]
 1517              	.LVL194:
 1518              	 .loc 1 234 22 view .LVU547
 1519 07f0 4BEAD77B 	 orr fp,fp,r7,lsr#31
 233:fips202.c     ****             De = BCa^ROL(BCi, 1);
 1520              	 .loc 1 233 16 view .LVU548
 1521 07f4 8AEA0102 	 eor r2,r10,r1
 1522              	 .loc 1 234 22 view .LVU549
 1523 07f8 4FEA470A 	 lsl r10,r7,#1
 233:fips202.c     ****             De = BCa^ROL(BCi, 1);
 1524              	 .loc 1 233 16 view .LVU550
 1525 07fc 0292     	 str r2,[sp,#8]
 1526              	.LVL195:
 1527              	 .loc 1 234 13 is_stmt 1 view .LVU551
 1528              	 .loc 1 234 22 is_stmt 0 view .LVU552
 1529 07fe 4AEADC7A 	 orr r10,r10,ip,lsr#31
 1530              	 .loc 1 234 16 view .LVU553
 1531 0802 8BEA0602 	 eor r2,fp,r6
 1532              	.LVL196:
 1533              	 .loc 1 234 16 view .LVU554
 1534 0806 0392     	 str r2,[sp,#12]
 1535              	.LVL197:
 1536              	 .loc 1 234 16 view .LVU555
 1537 0808 8AEA0302 	 eor r2,r10,r3
 235:fips202.c     ****             Di = BCe^ROL(BCo, 1);
 1538              	 .loc 1 235 22 view .LVU556
 1539 080c 4FEA440A 	 lsl r10,r4,#1
 1540 0810 4AEAD57A 	 orr r10,r10,r5,lsr#31
 234:fips202.c     ****             De = BCa^ROL(BCi, 1);
 1541              	 .loc 1 234 16 view .LVU557
 1542 0814 0492     	 str r2,[sp,#16]
 1543              	.LVL198:
 1544              	 .loc 1 235 13 is_stmt 1 view .LVU558
 1545              	 .loc 1 235 16 is_stmt 0 view .LVU559
 1546 0816 8AEA0802 	 eor r2,r10,r8
 1547              	.LVL199:
 236:fips202.c     ****             Do = BCi^ROL(BCu, 1);
 1548              	 .loc 1 236 22 view .LVU560
 1549 081a 4FEA4E08 	 lsl r8,lr,#1
 1550              	.LVL200:
 1551              	 .loc 1 236 22 view .LVU561
 1552 081e 48EAD178 	 orr r8,r8,r1,lsr#31
 1553 0822 4900     	 lsls r1,r1,#1
 1554              	.LVL201:
 235:fips202.c     ****             Di = BCe^ROL(BCo, 1);
 1555              	 .loc 1 235 16 view .LVU562
 1556 0824 0592     	 str r2,[sp,#20]
 1557              	 .loc 1 236 22 view .LVU563
 1558 0826 41EADE71 	 orr r1,r1,lr,lsr#31
 1559              	 .loc 1 236 16 view .LVU564
 1560 082a 88EA0C02 	 eor r2,r8,ip
 1561 082e 0692     	 str r2,[sp,#24]
 1562              	.LVL202:
 1563              	 .loc 1 236 16 view .LVU565
 1564 0830 81EA0702 	 eor r2,r1,r7
 237:fips202.c     ****             Du = BCo^ROL(BCa, 1);
 1565              	 .loc 1 237 22 view .LVU566
 1566 0834 7100     	 lsls r1,r6,#1
 1567 0836 41EAD371 	 orr r1,r1,r3,lsr#31
 1568 083a 5B00     	 lsls r3,r3,#1
 1569              	.LVL203:
 1570              	 .loc 1 237 22 view .LVU567
 1571 083c 43EAD673 	 orr r3,r3,r6,lsr#31
 236:fips202.c     ****             Do = BCi^ROL(BCu, 1);
 1572              	 .loc 1 236 16 view .LVU568
 1573 0840 0792     	 str r2,[sp,#28]
 1574              	 .loc 1 237 16 view .LVU569
 1575 0842 6340     	 eors r3,r3,r4
 1576 0844 81EA0502 	 eor r2,r1,r5
 1577 0848 0892     	 str r2,[sp,#32]
 1578              	.LVL204:
 1579              	 .loc 1 237 16 view .LVU570
 1580 084a 0993     	 str r3,[sp,#36]
 238:fips202.c     **** 
 239:fips202.c     ****             Eba ^= Da;
 1581              	 .loc 1 239 17 view .LVU571
 1582 084c 019A     	 ldr r2,[sp,#4]
 1583 084e 0A9B     	 ldr r3,[sp,#40]
 240:fips202.c     ****             BCa = Eba;
 241:fips202.c     ****             Ege ^= De;
 242:fips202.c     ****             BCe = ROL(Ege, 44);
 243:fips202.c     ****             Eki ^= Di;
 244:fips202.c     ****             BCi = ROL(Eki, 43);
 245:fips202.c     ****             Emo ^= Do;
 246:fips202.c     ****             BCo = ROL(Emo, 21);
 247:fips202.c     ****             Esu ^= Du;
 1584              	 .loc 1 247 17 view .LVU572
 1585 0850 099F     	 ldr r7,[sp,#36]
 1586              	.LVL205:
 235:fips202.c     ****             Do = BCi^ROL(BCu, 1);
 1587              	 .loc 1 235 22 view .LVU573
 1588 0852 4FEA450B 	 lsl fp,r5,#1
 1589 0856 4BEAD47B 	 orr fp,fp,r4,lsr#31
 235:fips202.c     ****             Do = BCi^ROL(BCu, 1);
 1590              	 .loc 1 235 16 view .LVU574
 1591 085a 8BEA090B 	 eor fp,fp,r9
 1592              	.LVL206:
 236:fips202.c     ****             Du = BCo^ROL(BCa, 1);
 1593              	 .loc 1 236 13 is_stmt 1 view .LVU575
 237:fips202.c     **** 
 1594              	 .loc 1 237 13 view .LVU576
 239:fips202.c     ****             BCa = Eba;
 1595              	 .loc 1 239 13 view .LVU577
 239:fips202.c     ****             BCa = Eba;
 1596              	 .loc 1 239 17 is_stmt 0 view .LVU578
 1597 085e 83EA0209 	 eor r9,r3,r2
 1598              	.LVL207:
 239:fips202.c     ****             BCa = Eba;
 1599              	 .loc 1 239 17 view .LVU579
 1600 0862 0B9B     	 ldr r3,[sp,#44]
 1601 0864 029A     	 ldr r2,[sp,#8]
 243:fips202.c     ****             BCi = ROL(Eki, 43);
 1602              	 .loc 1 243 17 view .LVU580
 1603 0866 059C     	 ldr r4,[sp,#20]
 1604              	.LVL208:
 239:fips202.c     ****             BCa = Eba;
 1605              	 .loc 1 239 17 view .LVU581
 1606 0868 83EA020A 	 eor r10,r3,r2
 1607              	.LVL209:
 240:fips202.c     ****             Ege ^= De;
 1608              	 .loc 1 240 13 is_stmt 1 view .LVU582
 241:fips202.c     ****             BCe = ROL(Ege, 44);
 1609              	 .loc 1 241 13 view .LVU583
 242:fips202.c     ****             Eki ^= Di;
 1610              	 .loc 1 242 13 view .LVU584
 241:fips202.c     ****             BCe = ROL(Ege, 44);
 1611              	 .loc 1 241 17 is_stmt 0 view .LVU585
 1612 086c 109B     	 ldr r3,[sp,#64]
 1613 086e 039A     	 ldr r2,[sp,#12]
 1614 0870 83EA0201 	 eor r1,r3,r2
 1615 0874 049A     	 ldr r2,[sp,#16]
 1616 0876 119B     	 ldr r3,[sp,#68]
 242:fips202.c     ****             Eki ^= Di;
 1617              	 .loc 1 242 17 view .LVU586
 1618 0878 0D0D     	 lsrs r5,r1,#20
 1619              	.LVL210:
 241:fips202.c     ****             BCe = ROL(Ege, 44);
 1620              	 .loc 1 241 17 view .LVU587
 1621 087a 5340     	 eors r3,r3,r2
 243:fips202.c     ****             BCi = ROL(Eki, 43);
 1622              	 .loc 1 243 17 view .LVU588
 1623 087c 0C9A     	 ldr r2,[sp,#48]
 242:fips202.c     ****             Eki ^= Di;
 1624              	 .loc 1 242 17 view .LVU589
 1625 087e 45EA0335 	 orr r5,r5,r3,lsl#12
 1626 0882 1B0D     	 lsrs r3,r3,#20
 1627 0884 43EA0133 	 orr r3,r3,r1,lsl#12
 1628              	.LVL211:
 243:fips202.c     ****             BCi = ROL(Eki, 43);
 1629              	 .loc 1 243 13 is_stmt 1 view .LVU590
 244:fips202.c     ****             Emo ^= Do;
 1630              	 .loc 1 244 13 view .LVU591
 243:fips202.c     ****             BCi = ROL(Eki, 43);
 1631              	 .loc 1 243 17 is_stmt 0 view .LVU592
 1632 0888 82EA0B01 	 eor r1,r2,fp
 1633 088c 0D9A     	 ldr r2,[sp,#52]
 1634              	.LVL212:
 244:fips202.c     ****             Emo ^= Do;
 1635              	 .loc 1 244 17 view .LVU593
 1636 088e 4FEA5158 	 lsr r8,r1,#21
 243:fips202.c     ****             BCi = ROL(Eki, 43);
 1637              	 .loc 1 243 17 view .LVU594
 1638 0892 5440     	 eors r4,r4,r2
 244:fips202.c     ****             Emo ^= Do;
 1639              	 .loc 1 244 17 view .LVU595
 1640 0894 48EAC428 	 orr r8,r8,r4,lsl#11
 1641 0898 640D     	 lsrs r4,r4,#21
 1642 089a 44EAC124 	 orr r4,r4,r1,lsl#11
 1643              	.LVL213:
 245:fips202.c     ****             BCo = ROL(Emo, 21);
 1644              	 .loc 1 245 13 is_stmt 1 view .LVU596
 246:fips202.c     ****             Esu ^= Du;
 1645              	 .loc 1 246 13 view .LVU597
 245:fips202.c     ****             BCo = ROL(Emo, 21);
 1646              	 .loc 1 245 17 is_stmt 0 view .LVU598
 1647 089e 129A     	 ldr r2,[sp,#72]
 1648 08a0 0699     	 ldr r1,[sp,#24]
 1649 08a2 82EA0106 	 eor r6,r2,r1
 1650 08a6 139A     	 ldr r2,[sp,#76]
 1651 08a8 0799     	 ldr r1,[sp,#28]
 246:fips202.c     ****             Esu ^= Du;
 1652              	 .loc 1 246 17 view .LVU599
 1653 08aa 4FEA465E 	 lsl lr,r6,#21
 1654              	.LVL214:
 245:fips202.c     ****             BCo = ROL(Emo, 21);
 1655              	 .loc 1 245 17 view .LVU600
 1656 08ae 5140     	 eors r1,r1,r2
 246:fips202.c     ****             Esu ^= Du;
 1657              	 .loc 1 246 17 view .LVU601
 1658 08b0 4EEAD12E 	 orr lr,lr,r1,lsr#11
 1659 08b4 4905     	 lsls r1,r1,#21
 1660 08b6 41EAD621 	 orr r1,r1,r6,lsr#11
 1661              	.LVL215:
 1662              	 .loc 1 247 13 is_stmt 1 view .LVU602
 248:fips202.c     ****             BCu = ROL(Esu, 14);
 1663              	 .loc 1 248 13 view .LVU603
 247:fips202.c     ****             BCu = ROL(Esu, 14);
 1664              	 .loc 1 247 17 is_stmt 0 view .LVU604
 1665 08ba 089A     	 ldr r2,[sp,#32]
 1666 08bc 0E9E     	 ldr r6,[sp,#56]
 1667 08be 5640     	 eors r6,r6,r2
 1668 08c0 0F9A     	 ldr r2,[sp,#60]
 1669              	 .loc 1 248 17 view .LVU605
 1670 08c2 4FEA863C 	 lsl ip,r6,#14
 247:fips202.c     ****             BCu = ROL(Esu, 14);
 1671              	 .loc 1 247 17 view .LVU606
 1672 08c6 7A40     	 eors r2,r2,r7
 1673              	 .loc 1 248 17 view .LVU607
 1674 08c8 4CEA924C 	 orr ip,ip,r2,lsr#18
 1675 08cc 9203     	 lsls r2,r2,#14
 1676 08ce 42EA9642 	 orr r2,r2,r6,lsr#18
 1677              	.LVL216:
 249:fips202.c     ****             Aba =   BCa ^((~BCe)&  BCi );
 1678              	 .loc 1 249 13 is_stmt 1 view .LVU608
 250:fips202.c     ****             Aba ^= (uint64_t)KeccakF_RoundConstants[round+1];
 1679              	 .loc 1 250 13 view .LVU609
 1680              	 .loc 1 250 17 is_stmt 0 view .LVU610
 1681 08d2 009E     	 ldr r6,[sp]
 1682 08d4 D6E90276 	 ldrd r7,r6,[r6,#8]
 1683              	.LVL217:
 1684              	 .loc 1 250 17 view .LVU611
 1685 08d8 8AEA0606 	 eor r6,r10,r6
 1686 08dc 0B96     	 str r6,[sp,#44]
 1687 08de 89EA0707 	 eor r7,r9,r7
 1688 08e2 28EA0506 	 bic r6,r8,r5
 1689 08e6 7E40     	 eors r6,r6,r7
 1690 08e8 0B9F     	 ldr r7,[sp,#44]
 1691 08ea 0A96     	 str r6,[sp,#40]
 1692 08ec 24EA0306 	 bic r6,r4,r3
 1693 08f0 7740     	 eors r7,r7,r6
 251:fips202.c     ****             Abe =   BCe ^((~BCi)&  BCo );
 1694              	 .loc 1 251 33 view .LVU612
 1695 08f2 21EA0406 	 bic r6,r1,r4
 1696              	 .loc 1 251 17 view .LVU613
 1697 08f6 5E40     	 eors r6,r6,r3
 1698 08f8 0D96     	 str r6,[sp,#52]
 1699              	.LVL218:
 252:fips202.c     ****             Abi =   BCi ^((~BCo)&  BCu );
 1700              	 .loc 1 252 33 view .LVU614
 1701 08fa 22EA0106 	 bic r6,r2,r1
 1702              	 .loc 1 252 17 view .LVU615
 1703 08fe 7440     	 eors r4,r4,r6
 1704              	.LVL219:
 253:fips202.c     ****             Abo =   BCo ^((~BCu)&  BCa );
 254:fips202.c     ****             Abu =   BCu ^((~BCa)&  BCe );
 1705              	 .loc 1 254 33 view .LVU616
 1706 0900 23EA0A03 	 bic r3,r3,r10
 1707              	.LVL220:
 1708              	 .loc 1 254 17 view .LVU617
 1709 0904 5340     	 eors r3,r3,r2
 250:fips202.c     ****             Abe =   BCe ^((~BCi)&  BCo );
 1710              	 .loc 1 250 17 view .LVU618
 1711 0906 0B97     	 str r7,[sp,#44]
 1712              	.LVL221:
 251:fips202.c     ****             Abi =   BCi ^((~BCo)&  BCu );
 1713              	 .loc 1 251 13 is_stmt 1 view .LVU619
 252:fips202.c     ****             Abo =   BCo ^((~BCu)&  BCa );
 1714              	 .loc 1 252 13 view .LVU620
 252:fips202.c     ****             Abo =   BCo ^((~BCu)&  BCa );
 1715              	 .loc 1 252 17 is_stmt 0 view .LVU621
 1716 0908 0F94     	 str r4,[sp,#60]
 1717              	.LVL222:
 253:fips202.c     ****             Abu =   BCu ^((~BCa)&  BCe );
 1718              	 .loc 1 253 13 is_stmt 1 view .LVU622
 251:fips202.c     ****             Abi =   BCi ^((~BCo)&  BCu );
 1719              	 .loc 1 251 33 is_stmt 0 view .LVU623
 1720 090a 2EEA0807 	 bic r7,lr,r8
 1721              	.LVL223:
 253:fips202.c     ****             Abu =   BCu ^((~BCa)&  BCe );
 1722              	 .loc 1 253 33 view .LVU624
 1723 090e 2AEA0204 	 bic r4,r10,r2
 1724              	.LVL224:
 251:fips202.c     ****             Abi =   BCi ^((~BCo)&  BCu );
 1725              	 .loc 1 251 17 view .LVU625
 1726 0912 6F40     	 eors r7,r7,r5
 255:fips202.c     **** 
 256:fips202.c     ****             Ebo ^= Do;
 1727              	 .loc 1 256 17 view .LVU626
 1728 0914 069A     	 ldr r2,[sp,#24]
 1729              	.LVL225:
 254:fips202.c     **** 
 1730              	 .loc 1 254 17 view .LVU627
 1731 0916 1393     	 str r3,[sp,#76]
 1732              	.LVL226:
 253:fips202.c     ****             Abu =   BCu ^((~BCa)&  BCe );
 1733              	 .loc 1 253 17 view .LVU628
 1734 0918 6140     	 eors r1,r1,r4
 1735              	.LVL227:
 254:fips202.c     **** 
 1736              	 .loc 1 254 33 view .LVU629
 1737 091a 25EA0905 	 bic r5,r5,r9
 1738              	.LVL228:
 1739              	 .loc 1 256 17 view .LVU630
 1740 091e 169B     	 ldr r3,[sp,#88]
 253:fips202.c     ****             Abu =   BCu ^((~BCa)&  BCe );
 1741              	 .loc 1 253 17 view .LVU631
 1742 0920 1191     	 str r1,[sp,#68]
 1743              	.LVL229:
 254:fips202.c     **** 
 1744              	 .loc 1 254 13 is_stmt 1 view .LVU632
 1745              	 .loc 1 256 13 view .LVU633
 257:fips202.c     ****             BCa = ROL(Ebo, 28);
 1746              	 .loc 1 257 13 view .LVU634
 254:fips202.c     **** 
 1747              	 .loc 1 254 17 is_stmt 0 view .LVU635
 1748 0922 85EA0C01 	 eor r1,r5,ip
 1749              	.LVL230:
 256:fips202.c     ****             BCa = ROL(Ebo, 28);
 1750              	 .loc 1 256 17 view .LVU636
 1751 0926 5340     	 eors r3,r3,r2
 254:fips202.c     **** 
 1752              	 .loc 1 254 17 view .LVU637
 1753 0928 1291     	 str r1,[sp,#72]
 1754              	.LVL231:
 256:fips202.c     ****             BCa = ROL(Ebo, 28);
 1755              	 .loc 1 256 17 view .LVU638
 1756 092a 179A     	 ldr r2,[sp,#92]
 1757 092c 0799     	 ldr r1,[sp,#28]
 251:fips202.c     ****             Abi =   BCi ^((~BCo)&  BCu );
 1758              	 .loc 1 251 17 view .LVU639
 1759 092e 0C97     	 str r7,[sp,#48]
 1760              	.LVL232:
 253:fips202.c     ****             Abu =   BCu ^((~BCa)&  BCe );
 1761              	 .loc 1 253 33 view .LVU640
 1762 0930 29EA0C06 	 bic r6,r9,ip
 252:fips202.c     ****             Abo =   BCo ^((~BCu)&  BCa );
 1763              	 .loc 1 252 33 view .LVU641
 1764 0934 2CEA0E07 	 bic r7,ip,lr
 256:fips202.c     ****             BCa = ROL(Ebo, 28);
 1765              	 .loc 1 256 17 view .LVU642
 1766 0938 5140     	 eors r1,r1,r2
 1767              	 .loc 1 257 17 view .LVU643
 1768 093a 4FEA037C 	 lsl ip,r3,#28
 1769              	 .loc 1 257 17 view .LVU644
 1770 093e 4CEA111C 	 orr ip,ip,r1,lsr#4
 1771 0942 0907     	 lsls r1,r1,#28
 1772 0944 41EA1311 	 orr r1,r1,r3,lsr#4
 1773              	.LVL233:
 258:fips202.c     ****             Egu ^= Du;
 1774              	 .loc 1 258 13 is_stmt 1 view .LVU645
 259:fips202.c     ****             BCe = ROL(Egu, 20);
 1775              	 .loc 1 259 13 view .LVU646
 258:fips202.c     ****             Egu ^= Du;
 1776              	 .loc 1 258 17 is_stmt 0 view .LVU647
 1777 0948 089A     	 ldr r2,[sp,#32]
 1778 094a 1C9B     	 ldr r3,[sp,#112]
 1779 094c 099C     	 ldr r4,[sp,#36]
 260:fips202.c     ****             Eka ^= Da;
 1780              	 .loc 1 260 17 view .LVU648
 1781 094e 029D     	 ldr r5,[sp,#8]
 258:fips202.c     ****             Egu ^= Du;
 1782              	 .loc 1 258 17 view .LVU649
 1783 0950 5A40     	 eors r2,r2,r3
 1784 0952 1D9B     	 ldr r3,[sp,#116]
 253:fips202.c     ****             Abu =   BCu ^((~BCa)&  BCe );
 1785              	 .loc 1 253 17 view .LVU650
 1786 0954 86EA0E06 	 eor r6,r6,lr
 258:fips202.c     ****             BCe = ROL(Egu, 20);
 1787              	 .loc 1 258 17 view .LVU651
 1788 0958 6340     	 eors r3,r3,r4
 253:fips202.c     ****             Abu =   BCu ^((~BCa)&  BCe );
 1789              	 .loc 1 253 17 view .LVU652
 1790 095a 1096     	 str r6,[sp,#64]
 1791              	.LVL234:
 259:fips202.c     ****             Eka ^= Da;
 1792              	 .loc 1 259 17 view .LVU653
 1793 095c 1605     	 lsls r6,r2,#20
 1794 095e 46EA1336 	 orr r6,r6,r3,lsr#12
 1795 0962 1B05     	 lsls r3,r3,#20
 1796 0964 43EA1233 	 orr r3,r3,r2,lsr#12
 1797              	.LVL235:
 1798              	 .loc 1 260 13 is_stmt 1 view .LVU654
 261:fips202.c     ****             BCi = ROL(Eka, 3);
 1799              	 .loc 1 261 13 view .LVU655
 260:fips202.c     ****             BCi = ROL(Eka, 3);
 1800              	 .loc 1 260 17 is_stmt 0 view .LVU656
 1801 0968 019C     	 ldr r4,[sp,#4]
 1802 096a 189A     	 ldr r2,[sp,#96]
 1803 096c 6240     	 eors r2,r2,r4
 1804 096e 199C     	 ldr r4,[sp,#100]
 252:fips202.c     ****             Abo =   BCo ^((~BCu)&  BCa );
 1805              	 .loc 1 252 17 view .LVU657
 1806 0970 87EA0807 	 eor r7,r7,r8
 260:fips202.c     ****             BCi = ROL(Eka, 3);
 1807              	 .loc 1 260 17 view .LVU658
 1808 0974 6540     	 eors r5,r5,r4
 1809              	 .loc 1 261 17 view .LVU659
 1810 0976 4FEAC208 	 lsl r8,r2,#3
 1811              	 .loc 1 261 17 view .LVU660
 1812 097a 48EA5578 	 orr r8,r8,r5,lsr#29
 1813 097e ED00     	 lsls r5,r5,#3
 1814 0980 45EA5275 	 orr r5,r5,r2,lsr#29
 1815              	.LVL236:
 262:fips202.c     ****             Eme ^= De;
 1816              	 .loc 1 262 13 is_stmt 1 view .LVU661
 263:fips202.c     ****             BCo = ROL(Eme, 45);
 1817              	 .loc 1 263 13 view .LVU662
 262:fips202.c     ****             Eme ^= De;
 1818              	 .loc 1 262 17 is_stmt 0 view .LVU663
 1819 0984 039C     	 ldr r4,[sp,#12]
 1820 0986 149A     	 ldr r2,[sp,#80]
 252:fips202.c     ****             Abo =   BCo ^((~BCu)&  BCa );
 1821              	 .loc 1 252 17 view .LVU664
 1822 0988 0E97     	 str r7,[sp,#56]
 1823              	.LVL237:
 262:fips202.c     ****             Eme ^= De;
 1824              	 .loc 1 262 17 view .LVU665
 1825 098a 6240     	 eors r2,r2,r4
 1826 098c 049F     	 ldr r7,[sp,#16]
 1827 098e 159C     	 ldr r4,[sp,#84]
 1828              	 .loc 1 263 17 view .LVU666
 1829 0990 4FEAD24E 	 lsr lr,r2,#19
 262:fips202.c     ****             Eme ^= De;
 1830              	 .loc 1 262 17 view .LVU667
 1831 0994 7C40     	 eors r4,r4,r7
 1832              	 .loc 1 263 17 view .LVU668
 1833 0996 4EEA443E 	 orr lr,lr,r4,lsl#13
 1834 099a E40C     	 lsrs r4,r4,#19
 1835 099c 44EA4234 	 orr r4,r4,r2,lsl#13
 1836              	.LVL238:
 264:fips202.c     ****             Esi ^= Di;
 1837              	 .loc 1 264 13 is_stmt 1 view .LVU669
 265:fips202.c     ****             BCu = ROL(Esi, 61);
 1838              	 .loc 1 265 13 view .LVU670
 264:fips202.c     ****             Esi ^= Di;
 1839              	 .loc 1 264 17 is_stmt 0 view .LVU671
 1840 09a0 1A9A     	 ldr r2,[sp,#104]
 1841 09a2 82EA0B09 	 eor r9,r2,fp
 1842              	.LVL239:
 264:fips202.c     ****             Esi ^= Di;
 1843              	 .loc 1 264 17 view .LVU672
 1844 09a6 1B9A     	 ldr r2,[sp,#108]
 1845 09a8 059F     	 ldr r7,[sp,#20]
 1846 09aa 7A40     	 eors r2,r2,r7
 1847              	 .loc 1 265 17 view .LVU673
 1848 09ac 4FEAD907 	 lsr r7,r9,#3
 1849 09b0 47EA4277 	 orr r7,r7,r2,lsl#29
 1850 09b4 D208     	 lsrs r2,r2,#3
 1851 09b6 42EA4972 	 orr r2,r2,r9,lsl#29
 1852              	.LVL240:
 266:fips202.c     ****             Aga =   BCa ^((~BCe)&  BCi );
 1853              	 .loc 1 266 13 is_stmt 1 view .LVU674
 1854              	 .loc 1 266 33 is_stmt 0 view .LVU675
 1855 09ba 25EA0309 	 bic r9,r5,r3
 1856              	 .loc 1 266 17 view .LVU676
 1857 09be 89EA0109 	 eor r9,r9,r1
 1858 09c2 CDF85490 	 str r9,[sp,#84]
 1859              	.LVL241:
 267:fips202.c     ****             Age =   BCe ^((~BCi)&  BCo );
 1860              	 .loc 1 267 13 is_stmt 1 view .LVU677
 1861              	 .loc 1 267 33 is_stmt 0 view .LVU678
 1862 09c6 24EA0509 	 bic r9,r4,r5
 1863              	.LVL242:
 266:fips202.c     ****             Aga =   BCa ^((~BCe)&  BCi );
 1864              	 .loc 1 266 33 view .LVU679
 1865 09ca 28EA060A 	 bic r10,r8,r6
 1866              	 .loc 1 267 17 view .LVU680
 1867 09ce 89EA0309 	 eor r9,r9,r3
 266:fips202.c     ****             Aga =   BCa ^((~BCe)&  BCi );
 1868              	 .loc 1 266 17 view .LVU681
 1869 09d2 8AEA0C0A 	 eor r10,r10,ip
 1870              	 .loc 1 267 17 view .LVU682
 1871 09d6 CDF85C90 	 str r9,[sp,#92]
 1872              	.LVL243:
 268:fips202.c     ****             Agi =   BCi ^((~BCo)&  BCu );
 1873              	 .loc 1 268 13 is_stmt 1 view .LVU683
 269:fips202.c     ****             Ago =   BCo ^((~BCu)&  BCa );
 270:fips202.c     ****             Agu =   BCu ^((~BCa)&  BCe );
 1874              	 .loc 1 270 33 is_stmt 0 view .LVU684
 1875 09da 23EA0103 	 bic r3,r3,r1
 1876              	.LVL244:
 268:fips202.c     ****             Agi =   BCi ^((~BCo)&  BCu );
 1877              	 .loc 1 268 33 view .LVU685
 1878 09de 22EA0409 	 bic r9,r2,r4
 1879              	.LVL245:
 268:fips202.c     ****             Agi =   BCi ^((~BCo)&  BCu );
 1880              	 .loc 1 268 17 view .LVU686
 1881 09e2 89EA0505 	 eor r5,r9,r5
 1882              	.LVL246:
 1883              	 .loc 1 270 17 view .LVU687
 1884 09e6 5340     	 eors r3,r3,r2
 266:fips202.c     ****             Age =   BCe ^((~BCi)&  BCo );
 1885              	 .loc 1 266 17 view .LVU688
 1886 09e8 CDF850A0 	 str r10,[sp,#80]
 1887              	.LVL247:
 267:fips202.c     ****             Agi =   BCi ^((~BCo)&  BCu );
 1888              	 .loc 1 267 33 view .LVU689
 1889 09ec 2EEA080A 	 bic r10,lr,r8
 267:fips202.c     ****             Agi =   BCi ^((~BCo)&  BCu );
 1890              	 .loc 1 267 17 view .LVU690
 1891 09f0 8AEA060A 	 eor r10,r10,r6
 268:fips202.c     ****             Ago =   BCo ^((~BCu)&  BCa );
 1892              	 .loc 1 268 17 view .LVU691
 1893 09f4 1995     	 str r5,[sp,#100]
 1894              	.LVL248:
 269:fips202.c     ****             Agu =   BCu ^((~BCa)&  BCe );
 1895              	 .loc 1 269 13 is_stmt 1 view .LVU692
 1896              	 .loc 1 270 33 is_stmt 0 view .LVU693
 1897 09f6 26EA0C06 	 bic r6,r6,ip
 1898              	.LVL249:
 269:fips202.c     ****             Agu =   BCu ^((~BCa)&  BCe );
 1899              	 .loc 1 269 33 view .LVU694
 1900 09fa 21EA0205 	 bic r5,r1,r2
 1901              	.LVL250:
 1902              	 .loc 1 270 17 view .LVU695
 1903 09fe 1D93     	 str r3,[sp,#116]
 1904              	.LVL251:
 271:fips202.c     **** 
 272:fips202.c     ****             Ebe ^= De;
 1905              	 .loc 1 272 17 view .LVU696
 1906 0a00 039A     	 ldr r2,[sp,#12]
 1907              	.LVL252:
 1908              	 .loc 1 272 17 view .LVU697
 1909 0a02 229B     	 ldr r3,[sp,#136]
 267:fips202.c     ****             Agi =   BCi ^((~BCo)&  BCu );
 1910              	 .loc 1 267 17 view .LVU698
 1911 0a04 CDF858A0 	 str r10,[sp,#88]
 1912              	.LVL253:
 270:fips202.c     **** 
 1913              	 .loc 1 270 17 view .LVU699
 1914 0a08 86EA0701 	 eor r1,r6,r7
 1915              	.LVL254:
 268:fips202.c     ****             Ago =   BCo ^((~BCu)&  BCa );
 1916              	 .loc 1 268 33 view .LVU700
 1917 0a0c 27EA0E0A 	 bic r10,r7,lr
 1918              	 .loc 1 272 17 view .LVU701
 1919 0a10 5340     	 eors r3,r3,r2
 270:fips202.c     **** 
 1920              	 .loc 1 270 17 view .LVU702
 1921 0a12 1C91     	 str r1,[sp,#112]
 1922              	 .loc 1 272 17 view .LVU703
 1923 0a14 239A     	 ldr r2,[sp,#140]
 1924 0a16 0499     	 ldr r1,[sp,#16]
 268:fips202.c     ****             Ago =   BCo ^((~BCu)&  BCa );
 1925              	 .loc 1 268 17 view .LVU704
 1926 0a18 8AEA0808 	 eor r8,r10,r8
 1927              	 .loc 1 272 17 view .LVU705
 1928 0a1c 5140     	 eors r1,r1,r2
 268:fips202.c     ****             Ago =   BCo ^((~BCu)&  BCa );
 1929              	 .loc 1 268 17 view .LVU706
 1930 0a1e CDF86080 	 str r8,[sp,#96]
 1931              	.LVL255:
 269:fips202.c     ****             Agu =   BCu ^((~BCa)&  BCe );
 1932              	 .loc 1 269 33 view .LVU707
 1933 0a22 2CEA0708 	 bic r8,ip,r7
 273:fips202.c     ****             BCa = ROL(Ebe, 1);
 1934              	 .loc 1 273 17 view .LVU708
 1935 0a26 4FEA430C 	 lsl ip,r3,#1
 1936              	 .loc 1 273 17 view .LVU709
 1937 0a2a 4CEAD17C 	 orr ip,ip,r1,lsr#31
 1938 0a2e 4900     	 lsls r1,r1,#1
 1939 0a30 41EAD371 	 orr r1,r1,r3,lsr#31
 274:fips202.c     ****             Egi ^= Di;
 1940              	 .loc 1 274 17 view .LVU710
 1941 0a34 1E9B     	 ldr r3,[sp,#120]
 275:fips202.c     ****             BCe = ROL(Egi, 6);
 276:fips202.c     ****             Eko ^= Do;
 277:fips202.c     ****             BCi = ROL(Eko, 25);
 278:fips202.c     ****             Emu ^= Du;
 1942              	 .loc 1 278 17 view .LVU711
 1943 0a36 099F     	 ldr r7,[sp,#36]
 1944              	.LVL256:
 269:fips202.c     ****             Agu =   BCu ^((~BCa)&  BCe );
 1945              	 .loc 1 269 17 view .LVU712
 1946 0a38 6C40     	 eors r4,r4,r5
 1947              	.LVL257:
 274:fips202.c     ****             Egi ^= Di;
 1948              	 .loc 1 274 17 view .LVU713
 1949 0a3a 83EA0B02 	 eor r2,r3,fp
 269:fips202.c     ****             Agu =   BCu ^((~BCa)&  BCe );
 1950              	 .loc 1 269 17 view .LVU714
 1951 0a3e 1B94     	 str r4,[sp,#108]
 1952              	.LVL258:
 270:fips202.c     **** 
 1953              	 .loc 1 270 13 is_stmt 1 view .LVU715
 272:fips202.c     ****             BCa = ROL(Ebe, 1);
 1954              	 .loc 1 272 13 view .LVU716
 273:fips202.c     ****             Egi ^= Di;
 1955              	 .loc 1 273 13 view .LVU717
 274:fips202.c     ****             BCe = ROL(Egi, 6);
 1956              	 .loc 1 274 13 view .LVU718
 275:fips202.c     ****             Eko ^= Do;
 1957              	 .loc 1 275 13 view .LVU719
 274:fips202.c     ****             BCe = ROL(Egi, 6);
 1958              	 .loc 1 274 17 is_stmt 0 view .LVU720
 1959 0a40 1F9B     	 ldr r3,[sp,#124]
 1960              	.LVL259:
 274:fips202.c     ****             BCe = ROL(Egi, 6);
 1961              	 .loc 1 274 17 view .LVU721
 1962 0a42 059C     	 ldr r4,[sp,#20]
 1963              	.LVL260:
 276:fips202.c     ****             BCi = ROL(Eko, 25);
 1964              	 .loc 1 276 17 view .LVU722
 1965 0a44 079D     	 ldr r5,[sp,#28]
 274:fips202.c     ****             BCe = ROL(Egi, 6);
 1966              	 .loc 1 274 17 view .LVU723
 1967 0a46 6340     	 eors r3,r3,r4
 275:fips202.c     ****             Eko ^= Do;
 1968              	 .loc 1 275 17 view .LVU724
 1969 0a48 9601     	 lsls r6,r2,#6
 1970 0a4a 46EA9366 	 orr r6,r6,r3,lsr#26
 1971 0a4e 9B01     	 lsls r3,r3,#6
 1972 0a50 43EA9263 	 orr r3,r3,r2,lsr#26
 1973              	.LVL261:
 276:fips202.c     ****             BCi = ROL(Eko, 25);
 1974              	 .loc 1 276 13 is_stmt 1 view .LVU725
 277:fips202.c     ****             Emu ^= Du;
 1975              	 .loc 1 277 13 view .LVU726
 276:fips202.c     ****             BCi = ROL(Eko, 25);
 1976              	 .loc 1 276 17 is_stmt 0 view .LVU727
 1977 0a54 069C     	 ldr r4,[sp,#24]
 1978 0a56 249A     	 ldr r2,[sp,#144]
 1979 0a58 6240     	 eors r2,r2,r4
 1980 0a5a 259C     	 ldr r4,[sp,#148]
 269:fips202.c     ****             Agu =   BCu ^((~BCa)&  BCe );
 1981              	 .loc 1 269 17 view .LVU728
 1982 0a5c 88EA0E0E 	 eor lr,r8,lr
 276:fips202.c     ****             BCi = ROL(Eko, 25);
 1983              	 .loc 1 276 17 view .LVU729
 1984 0a60 6540     	 eors r5,r5,r4
 277:fips202.c     ****             Emu ^= Du;
 1985              	 .loc 1 277 17 view .LVU730
 1986 0a62 4FEA4268 	 lsl r8,r2,#25
 1987 0a66 48EAD518 	 orr r8,r8,r5,lsr#7
 1988 0a6a 6D06     	 lsls r5,r5,#25
 1989 0a6c 45EAD215 	 orr r5,r5,r2,lsr#7
 1990              	.LVL262:
 1991              	 .loc 1 278 13 is_stmt 1 view .LVU731
 279:fips202.c     ****             BCo = ROL(Emu, 8);
 1992              	 .loc 1 279 13 view .LVU732
 278:fips202.c     ****             BCo = ROL(Emu, 8);
 1993              	 .loc 1 278 17 is_stmt 0 view .LVU733
 1994 0a70 089C     	 ldr r4,[sp,#32]
 1995 0a72 209A     	 ldr r2,[sp,#128]
 269:fips202.c     ****             Agu =   BCu ^((~BCa)&  BCe );
 1996              	 .loc 1 269 17 view .LVU734
 1997 0a74 CDF868E0 	 str lr,[sp,#104]
 1998              	.LVL263:
 278:fips202.c     ****             BCo = ROL(Emu, 8);
 1999              	 .loc 1 278 17 view .LVU735
 2000 0a78 6240     	 eors r2,r2,r4
 2001 0a7a 219C     	 ldr r4,[sp,#132]
 2002              	 .loc 1 279 17 view .LVU736
 2003 0a7c 4FEA022E 	 lsl lr,r2,#8
 278:fips202.c     ****             BCo = ROL(Emu, 8);
 2004              	 .loc 1 278 17 view .LVU737
 2005 0a80 7C40     	 eors r4,r4,r7
 2006              	 .loc 1 279 17 view .LVU738
 2007 0a82 4EEA146E 	 orr lr,lr,r4,lsr#24
 2008 0a86 2402     	 lsls r4,r4,#8
 2009 0a88 44EA1264 	 orr r4,r4,r2,lsr#24
 2010              	.LVL264:
 280:fips202.c     ****             Esa ^= Da;
 2011              	 .loc 1 280 13 is_stmt 1 view .LVU739
 281:fips202.c     ****             BCu = ROL(Esa, 18);
 2012              	 .loc 1 281 13 view .LVU740
 280:fips202.c     ****             Esa ^= Da;
 2013              	 .loc 1 280 17 is_stmt 0 view .LVU741
 2014 0a8c 019F     	 ldr r7,[sp,#4]
 2015 0a8e 269A     	 ldr r2,[sp,#152]
 2016 0a90 82EA0709 	 eor r9,r2,r7
 2017 0a94 029F     	 ldr r7,[sp,#8]
 2018 0a96 279A     	 ldr r2,[sp,#156]
 2019 0a98 7A40     	 eors r2,r2,r7
 2020              	 .loc 1 281 17 view .LVU742
 2021 0a9a 4FEA8947 	 lsl r7,r9,#18
 2022 0a9e 47EA9237 	 orr r7,r7,r2,lsr#14
 2023 0aa2 9204     	 lsls r2,r2,#18
 2024 0aa4 42EA9932 	 orr r2,r2,r9,lsr#14
 2025              	.LVL265:
 282:fips202.c     ****             Aka =   BCa ^((~BCe)&  BCi );
 2026              	 .loc 1 282 13 is_stmt 1 view .LVU743
 2027              	 .loc 1 282 33 is_stmt 0 view .LVU744
 2028 0aa8 28EA060A 	 bic r10,r8,r6
 2029 0aac 25EA0309 	 bic r9,r5,r3
 2030              	 .loc 1 282 17 view .LVU745
 2031 0ab0 8AEA0C0A 	 eor r10,r10,ip
 2032 0ab4 89EA0109 	 eor r9,r9,r1
 2033 0ab8 CDF878A0 	 str r10,[sp,#120]
 2034              	.LVL266:
 2035              	 .loc 1 282 17 view .LVU746
 2036 0abc CDF87C90 	 str r9,[sp,#124]
 2037              	.LVL267:
 283:fips202.c     ****             Ake =   BCe ^((~BCi)&  BCo );
 2038              	 .loc 1 283 13 is_stmt 1 view .LVU747
 2039              	 .loc 1 283 33 is_stmt 0 view .LVU748
 2040 0ac0 24EA0509 	 bic r9,r4,r5
 2041              	.LVL268:
 2042              	 .loc 1 283 17 view .LVU749
 2043 0ac4 89EA0309 	 eor r9,r9,r3
 2044 0ac8 CDF88490 	 str r9,[sp,#132]
 2045              	.LVL269:
 284:fips202.c     ****             Aki =   BCi ^((~BCo)&  BCu );
 2046              	 .loc 1 284 13 is_stmt 1 view .LVU750
 285:fips202.c     ****             Ako =   BCo ^((~BCu)&  BCa );
 286:fips202.c     ****             Aku =   BCu ^((~BCa)&  BCe );
 2047              	 .loc 1 286 33 is_stmt 0 view .LVU751
 2048 0acc 23EA0103 	 bic r3,r3,r1
 2049              	.LVL270:
 284:fips202.c     ****             Aki =   BCi ^((~BCo)&  BCu );
 2050              	 .loc 1 284 33 view .LVU752
 2051 0ad0 22EA0409 	 bic r9,r2,r4
 2052              	.LVL271:
 283:fips202.c     ****             Aki =   BCi ^((~BCo)&  BCu );
 2053              	 .loc 1 283 33 view .LVU753
 2054 0ad4 2EEA080A 	 bic r10,lr,r8
 2055              	.LVL272:
 284:fips202.c     ****             Aki =   BCi ^((~BCo)&  BCu );
 2056              	 .loc 1 284 17 view .LVU754
 2057 0ad8 89EA0505 	 eor r5,r9,r5
 2058              	.LVL273:
 2059              	 .loc 1 286 17 view .LVU755
 2060 0adc 5340     	 eors r3,r3,r2
 283:fips202.c     ****             Aki =   BCi ^((~BCo)&  BCu );
 2061              	 .loc 1 283 17 view .LVU756
 2062 0ade 8AEA060A 	 eor r10,r10,r6
 284:fips202.c     ****             Aki =   BCi ^((~BCo)&  BCu );
 2063              	 .loc 1 284 17 view .LVU757
 2064 0ae2 2395     	 str r5,[sp,#140]
 2065              	.LVL274:
 285:fips202.c     ****             Ako =   BCo ^((~BCu)&  BCa );
 2066              	 .loc 1 285 13 is_stmt 1 view .LVU758
 2067              	 .loc 1 286 33 is_stmt 0 view .LVU759
 2068 0ae4 26EA0C06 	 bic r6,r6,ip
 285:fips202.c     ****             Ako =   BCo ^((~BCu)&  BCa );
 2069              	 .loc 1 285 33 view .LVU760
 2070 0ae8 21EA0205 	 bic r5,r1,r2
 2071              	.LVL275:
 2072              	 .loc 1 286 17 view .LVU761
 2073 0aec 2793     	 str r3,[sp,#156]
 2074              	.LVL276:
 287:fips202.c     **** 
 288:fips202.c     ****             Ebu ^= Du;
 2075              	 .loc 1 288 17 view .LVU762
 2076 0aee 089A     	 ldr r2,[sp,#32]
 2077              	.LVL277:
 2078              	 .loc 1 288 17 view .LVU763
 2079 0af0 2E9B     	 ldr r3,[sp,#184]
 283:fips202.c     ****             Aki =   BCi ^((~BCo)&  BCu );
 2080              	 .loc 1 283 17 view .LVU764
 2081 0af2 CDF880A0 	 str r10,[sp,#128]
 2082              	.LVL278:
 286:fips202.c     **** 
 2083              	 .loc 1 286 17 view .LVU765
 2084 0af6 86EA0701 	 eor r1,r6,r7
 2085              	.LVL279:
 284:fips202.c     ****             Ako =   BCo ^((~BCu)&  BCa );
 2086              	 .loc 1 284 33 view .LVU766
 2087 0afa 27EA0E0A 	 bic r10,r7,lr
 2088              	 .loc 1 288 17 view .LVU767
 2089 0afe 5340     	 eors r3,r3,r2
 286:fips202.c     **** 
 2090              	 .loc 1 286 17 view .LVU768
 2091 0b00 2691     	 str r1,[sp,#152]
 2092              	 .loc 1 288 17 view .LVU769
 2093 0b02 2F9A     	 ldr r2,[sp,#188]
 2094 0b04 0999     	 ldr r1,[sp,#36]
 284:fips202.c     ****             Ako =   BCo ^((~BCu)&  BCa );
 2095              	 .loc 1 284 17 view .LVU770
 2096 0b06 8AEA0808 	 eor r8,r10,r8
 2097              	.LVL280:
 2098              	 .loc 1 288 17 view .LVU771
 2099 0b0a 5140     	 eors r1,r1,r2
 284:fips202.c     ****             Ako =   BCo ^((~BCu)&  BCa );
 2100              	 .loc 1 284 17 view .LVU772
 2101 0b0c CDF88880 	 str r8,[sp,#136]
 2102              	.LVL281:
 285:fips202.c     ****             Aku =   BCu ^((~BCa)&  BCe );
 2103              	 .loc 1 285 33 view .LVU773
 2104 0b10 2CEA0708 	 bic r8,ip,r7
 289:fips202.c     ****             BCa = ROL(Ebu, 27);
 2105              	 .loc 1 289 17 view .LVU774
 2106 0b14 4FEAC36C 	 lsl ip,r3,#27
 2107              	 .loc 1 289 17 view .LVU775
 2108 0b18 4CEA511C 	 orr ip,ip,r1,lsr#5
 2109 0b1c C906     	 lsls r1,r1,#27
 2110 0b1e 41EA5311 	 orr r1,r1,r3,lsr#5
 290:fips202.c     ****             Ega ^= Da;
 2111              	 .loc 1 290 17 view .LVU776
 2112 0b22 019A     	 ldr r2,[sp,#4]
 2113 0b24 2A9B     	 ldr r3,[sp,#168]
 291:fips202.c     ****             BCe = ROL(Ega, 36);
 292:fips202.c     ****             Eke ^= De;
 293:fips202.c     ****             BCi = ROL(Eke, 10);
 294:fips202.c     ****             Emi ^= Di;
 2114              	 .loc 1 294 17 view .LVU777
 2115 0b26 059F     	 ldr r7,[sp,#20]
 285:fips202.c     ****             Aku =   BCu ^((~BCa)&  BCe );
 2116              	 .loc 1 285 17 view .LVU778
 2117 0b28 6C40     	 eors r4,r4,r5
 2118              	.LVL282:
 290:fips202.c     ****             Ega ^= Da;
 2119              	 .loc 1 290 17 view .LVU779
 2120 0b2a 5A40     	 eors r2,r2,r3
 285:fips202.c     ****             Aku =   BCu ^((~BCa)&  BCe );
 2121              	 .loc 1 285 17 view .LVU780
 2122 0b2c 2594     	 str r4,[sp,#148]
 2123              	.LVL283:
 286:fips202.c     **** 
 2124              	 .loc 1 286 13 is_stmt 1 view .LVU781
 288:fips202.c     ****             BCa = ROL(Ebu, 27);
 2125              	 .loc 1 288 13 view .LVU782
 289:fips202.c     ****             Ega ^= Da;
 2126              	 .loc 1 289 13 view .LVU783
 290:fips202.c     ****             BCe = ROL(Ega, 36);
 2127              	 .loc 1 290 13 view .LVU784
 291:fips202.c     ****             Eke ^= De;
 2128              	 .loc 1 291 13 view .LVU785
 290:fips202.c     ****             BCe = ROL(Ega, 36);
 2129              	 .loc 1 290 17 is_stmt 0 view .LVU786
 2130 0b2e 2B9B     	 ldr r3,[sp,#172]
 2131              	.LVL284:
 290:fips202.c     ****             BCe = ROL(Ega, 36);
 2132              	 .loc 1 290 17 view .LVU787
 2133 0b30 029C     	 ldr r4,[sp,#8]
 2134              	.LVL285:
 292:fips202.c     ****             BCi = ROL(Eke, 10);
 2135              	 .loc 1 292 17 view .LVU788
 2136 0b32 049D     	 ldr r5,[sp,#16]
 290:fips202.c     ****             BCe = ROL(Ega, 36);
 2137              	 .loc 1 290 17 view .LVU789
 2138 0b34 6340     	 eors r3,r3,r4
 291:fips202.c     ****             Eke ^= De;
 2139              	 .loc 1 291 17 view .LVU790
 2140 0b36 160F     	 lsrs r6,r2,#28
 2141 0b38 46EA0316 	 orr r6,r6,r3,lsl#4
 2142 0b3c 1B0F     	 lsrs r3,r3,#28
 2143 0b3e 43EA0213 	 orr r3,r3,r2,lsl#4
 2144              	.LVL286:
 292:fips202.c     ****             BCi = ROL(Eke, 10);
 2145              	 .loc 1 292 13 is_stmt 1 view .LVU791
 293:fips202.c     ****             Emi ^= Di;
 2146              	 .loc 1 293 13 view .LVU792
 292:fips202.c     ****             BCi = ROL(Eke, 10);
 2147              	 .loc 1 292 17 is_stmt 0 view .LVU793
 2148 0b42 039C     	 ldr r4,[sp,#12]
 2149 0b44 309A     	 ldr r2,[sp,#192]
 2150 0b46 6240     	 eors r2,r2,r4
 2151 0b48 319C     	 ldr r4,[sp,#196]
 285:fips202.c     ****             Aku =   BCu ^((~BCa)&  BCe );
 2152              	 .loc 1 285 17 view .LVU794
 2153 0b4a 88EA0E0E 	 eor lr,r8,lr
 292:fips202.c     ****             BCi = ROL(Eke, 10);
 2154              	 .loc 1 292 17 view .LVU795
 2155 0b4e 6540     	 eors r5,r5,r4
 293:fips202.c     ****             Emi ^= Di;
 2156              	 .loc 1 293 17 view .LVU796
 2157 0b50 4FEA8228 	 lsl r8,r2,#10
 2158 0b54 48EA9558 	 orr r8,r8,r5,lsr#22
 2159 0b58 AD02     	 lsls r5,r5,#10
 2160 0b5a 45EA9255 	 orr r5,r5,r2,lsr#22
 2161              	.LVL287:
 2162              	 .loc 1 294 13 is_stmt 1 view .LVU797
 295:fips202.c     ****             BCo = ROL(Emi, 15);
 2163              	 .loc 1 295 13 view .LVU798
 294:fips202.c     ****             BCo = ROL(Emi, 15);
 2164              	 .loc 1 294 17 is_stmt 0 view .LVU799
 2165 0b5e 2C9A     	 ldr r2,[sp,#176]
 2166 0b60 2D9C     	 ldr r4,[sp,#180]
 285:fips202.c     ****             Aku =   BCu ^((~BCa)&  BCe );
 2167              	 .loc 1 285 17 view .LVU800
 2168 0b62 CDF890E0 	 str lr,[sp,#144]
 2169              	.LVL288:
 294:fips202.c     ****             BCo = ROL(Emi, 15);
 2170              	 .loc 1 294 17 view .LVU801
 2171 0b66 82EA0B02 	 eor r2,r2,fp
 2172 0b6a 7C40     	 eors r4,r4,r7
 2173              	 .loc 1 295 17 view .LVU802
 2174 0b6c 4FEAC23E 	 lsl lr,r2,#15
 2175 0b70 4EEA544E 	 orr lr,lr,r4,lsr#17
 2176 0b74 E403     	 lsls r4,r4,#15
 2177 0b76 44EA5244 	 orr r4,r4,r2,lsr#17
 2178              	.LVL289:
 296:fips202.c     ****             Eso ^= Do;
 2179              	 .loc 1 296 13 is_stmt 1 view .LVU803
 297:fips202.c     ****             BCu = ROL(Eso, 56);
 2180              	 .loc 1 297 13 view .LVU804
 296:fips202.c     ****             Eso ^= Do;
 2181              	 .loc 1 296 17 is_stmt 0 view .LVU805
 2182 0b7a 069F     	 ldr r7,[sp,#24]
 2183 0b7c 289A     	 ldr r2,[sp,#160]
 2184 0b7e 82EA0709 	 eor r9,r2,r7
 2185 0b82 299A     	 ldr r2,[sp,#164]
 2186 0b84 079F     	 ldr r7,[sp,#28]
 2187 0b86 7A40     	 eors r2,r2,r7
 2188              	 .loc 1 297 17 view .LVU806
 2189 0b88 4FEA1927 	 lsr r7,r9,#8
 2190 0b8c 47EA0267 	 orr r7,r7,r2,lsl#24
 2191 0b90 120A     	 lsrs r2,r2,#8
 2192 0b92 42EA0962 	 orr r2,r2,r9,lsl#24
 2193              	.LVL290:
 298:fips202.c     ****             Ama =   BCa ^((~BCe)&  BCi );
 2194              	 .loc 1 298 13 is_stmt 1 view .LVU807
 2195              	 .loc 1 298 33 is_stmt 0 view .LVU808
 2196 0b96 28EA060A 	 bic r10,r8,r6
 2197 0b9a 25EA0309 	 bic r9,r5,r3
 2198              	 .loc 1 298 17 view .LVU809
 2199 0b9e 8AEA0C0A 	 eor r10,r10,ip
 2200 0ba2 89EA0109 	 eor r9,r9,r1
 2201 0ba6 CDF8A0A0 	 str r10,[sp,#160]
 2202              	.LVL291:
 2203              	 .loc 1 298 17 view .LVU810
 2204 0baa CDF8A490 	 str r9,[sp,#164]
 2205              	.LVL292:
 299:fips202.c     ****             Ame =   BCe ^((~BCi)&  BCo );
 2206              	 .loc 1 299 13 is_stmt 1 view .LVU811
 2207              	 .loc 1 299 33 is_stmt 0 view .LVU812
 2208 0bae 2EEA080A 	 bic r10,lr,r8
 2209              	.LVL293:
 2210              	 .loc 1 299 33 view .LVU813
 2211 0bb2 24EA0509 	 bic r9,r4,r5
 2212              	.LVL294:
 2213              	 .loc 1 299 17 view .LVU814
 2214 0bb6 8AEA060A 	 eor r10,r10,r6
 2215 0bba 89EA0309 	 eor r9,r9,r3
 2216 0bbe CDF8A8A0 	 str r10,[sp,#168]
 2217              	.LVL295:
 2218              	 .loc 1 299 17 view .LVU815
 2219 0bc2 CDF8AC90 	 str r9,[sp,#172]
 2220              	.LVL296:
 300:fips202.c     ****             Ami =   BCi ^((~BCo)&  BCu );
 2221              	 .loc 1 300 13 is_stmt 1 view .LVU816
 2222              	 .loc 1 300 33 is_stmt 0 view .LVU817
 2223 0bc6 27EA0E0A 	 bic r10,r7,lr
 2224              	.LVL297:
 2225              	 .loc 1 300 33 view .LVU818
 2226 0bca 22EA0409 	 bic r9,r2,r4
 2227              	.LVL298:
 301:fips202.c     ****             Amo =   BCo ^((~BCu)&  BCa );
 302:fips202.c     ****             Amu =   BCu ^((~BCa)&  BCe );
 2228              	 .loc 1 302 33 view .LVU819
 2229 0bce 23EA0103 	 bic r3,r3,r1
 2230              	.LVL299:
 300:fips202.c     ****             Ami =   BCi ^((~BCo)&  BCu );
 2231              	 .loc 1 300 17 view .LVU820
 2232 0bd2 8AEA0808 	 eor r8,r10,r8
 2233              	.LVL300:
 300:fips202.c     ****             Ami =   BCi ^((~BCo)&  BCu );
 2234              	 .loc 1 300 17 view .LVU821
 2235 0bd6 89EA0505 	 eor r5,r9,r5
 2236              	.LVL301:
 2237              	 .loc 1 302 33 view .LVU822
 2238 0bda 26EA0C06 	 bic r6,r6,ip
 2239              	 .loc 1 302 17 view .LVU823
 2240 0bde 5340     	 eors r3,r3,r2
 300:fips202.c     ****             Ami =   BCi ^((~BCo)&  BCu );
 2241              	 .loc 1 300 17 view .LVU824
 2242 0be0 CDF8B080 	 str r8,[sp,#176]
 2243              	.LVL302:
 300:fips202.c     ****             Ami =   BCi ^((~BCo)&  BCu );
 2244              	 .loc 1 300 17 view .LVU825
 2245 0be4 2D95     	 str r5,[sp,#180]
 2246              	.LVL303:
 301:fips202.c     ****             Amo =   BCo ^((~BCu)&  BCa );
 2247              	 .loc 1 301 13 is_stmt 1 view .LVU826
 301:fips202.c     ****             Amo =   BCo ^((~BCu)&  BCa );
 2248              	 .loc 1 301 33 is_stmt 0 view .LVU827
 2249 0be6 21EA0205 	 bic r5,r1,r2
 2250              	.LVL304:
 2251              	 .loc 1 302 17 view .LVU828
 2252 0bea 3193     	 str r3,[sp,#196]
 2253              	.LVL305:
 2254              	 .loc 1 302 17 view .LVU829
 2255 0bec 86EA0701 	 eor r1,r6,r7
 2256              	.LVL306:
 303:fips202.c     **** 
 304:fips202.c     ****             Ebi ^= Di;
 2257              	 .loc 1 304 17 view .LVU830
 2258 0bf0 3A9B     	 ldr r3,[sp,#232]
 2259 0bf2 3B9A     	 ldr r2,[sp,#236]
 2260              	.LVL307:
 302:fips202.c     **** 
 2261              	 .loc 1 302 17 view .LVU831
 2262 0bf4 3091     	 str r1,[sp,#192]
 2263              	 .loc 1 304 17 view .LVU832
 2264 0bf6 0599     	 ldr r1,[sp,#20]
 2265 0bf8 83EA0B03 	 eor r3,r3,fp
 301:fips202.c     ****             Amo =   BCo ^((~BCu)&  BCa );
 2266              	 .loc 1 301 33 view .LVU833
 2267 0bfc 2CEA0708 	 bic r8,ip,r7
 2268              	.LVL308:
 2269              	 .loc 1 304 17 view .LVU834
 2270 0c00 5140     	 eors r1,r1,r2
 305:fips202.c     ****             BCa = ROL(Ebi, 62);
 2271              	 .loc 1 305 17 view .LVU835
 2272 0c02 4FEA930C 	 lsr ip,r3,#2
 2273              	.LVL309:
 2274              	 .loc 1 305 17 view .LVU836
 2275 0c06 4CEA817C 	 orr ip,ip,r1,lsl#30
 2276 0c0a 8908     	 lsrs r1,r1,#2
 2277 0c0c 41EA8371 	 orr r1,r1,r3,lsl#30
 306:fips202.c     ****             Ego ^= Do;
 2278              	 .loc 1 306 17 view .LVU837
 2279 0c10 069A     	 ldr r2,[sp,#24]
 2280 0c12 369B     	 ldr r3,[sp,#216]
 307:fips202.c     ****             BCe = ROL(Ego, 55);
 308:fips202.c     ****             Eku ^= Du;
 309:fips202.c     ****             BCi = ROL(Eku, 39);
 310:fips202.c     ****             Ema ^= Da;
 2281              	 .loc 1 310 17 view .LVU838
 2282 0c14 029F     	 ldr r7,[sp,#8]
 301:fips202.c     ****             Amu =   BCu ^((~BCa)&  BCe );
 2283              	 .loc 1 301 17 view .LVU839
 2284 0c16 6C40     	 eors r4,r4,r5
 2285              	.LVL310:
 306:fips202.c     ****             Ego ^= Do;
 2286              	 .loc 1 306 17 view .LVU840
 2287 0c18 5A40     	 eors r2,r2,r3
 301:fips202.c     ****             Amu =   BCu ^((~BCa)&  BCe );
 2288              	 .loc 1 301 17 view .LVU841
 2289 0c1a 2F94     	 str r4,[sp,#188]
 2290              	.LVL311:
 302:fips202.c     **** 
 2291              	 .loc 1 302 13 is_stmt 1 view .LVU842
 304:fips202.c     ****             BCa = ROL(Ebi, 62);
 2292              	 .loc 1 304 13 view .LVU843
 305:fips202.c     ****             Ego ^= Do;
 2293              	 .loc 1 305 13 view .LVU844
 306:fips202.c     ****             BCe = ROL(Ego, 55);
 2294              	 .loc 1 306 13 view .LVU845
 307:fips202.c     ****             Eku ^= Du;
 2295              	 .loc 1 307 13 view .LVU846
 306:fips202.c     ****             BCe = ROL(Ego, 55);
 2296              	 .loc 1 306 17 is_stmt 0 view .LVU847
 2297 0c1c 379B     	 ldr r3,[sp,#220]
 2298 0c1e 079C     	 ldr r4,[sp,#28]
 2299              	.LVL312:
 308:fips202.c     ****             BCi = ROL(Eku, 39);
 2300              	 .loc 1 308 17 view .LVU848
 2301 0c20 099D     	 ldr r5,[sp,#36]
 306:fips202.c     ****             BCe = ROL(Ego, 55);
 2302              	 .loc 1 306 17 view .LVU849
 2303 0c22 6340     	 eors r3,r3,r4
 307:fips202.c     ****             Eku ^= Du;
 2304              	 .loc 1 307 17 view .LVU850
 2305 0c24 560A     	 lsrs r6,r2,#9
 2306 0c26 46EAC356 	 orr r6,r6,r3,lsl#23
 2307 0c2a 5B0A     	 lsrs r3,r3,#9
 2308 0c2c 43EAC253 	 orr r3,r3,r2,lsl#23
 2309              	.LVL313:
 308:fips202.c     ****             BCi = ROL(Eku, 39);
 2310              	 .loc 1 308 13 is_stmt 1 view .LVU851
 309:fips202.c     ****             Ema ^= Da;
 2311              	 .loc 1 309 13 view .LVU852
 308:fips202.c     ****             BCi = ROL(Eku, 39);
 2312              	 .loc 1 308 17 is_stmt 0 view .LVU853
 2313 0c30 089C     	 ldr r4,[sp,#32]
 2314 0c32 329A     	 ldr r2,[sp,#200]
 2315 0c34 6240     	 eors r2,r2,r4
 2316 0c36 339C     	 ldr r4,[sp,#204]
 301:fips202.c     ****             Amu =   BCu ^((~BCa)&  BCe );
 2317              	 .loc 1 301 17 view .LVU854
 2318 0c38 88EA0E0E 	 eor lr,r8,lr
 308:fips202.c     ****             BCi = ROL(Eku, 39);
 2319              	 .loc 1 308 17 view .LVU855
 2320 0c3c 6540     	 eors r5,r5,r4
 309:fips202.c     ****             Ema ^= Da;
 2321              	 .loc 1 309 17 view .LVU856
 2322 0c3e 4FEA5268 	 lsr r8,r2,#25
 2323 0c42 48EAC518 	 orr r8,r8,r5,lsl#7
 2324 0c46 6D0E     	 lsrs r5,r5,#25
 2325 0c48 45EAC215 	 orr r5,r5,r2,lsl#7
 2326              	.LVL314:
 2327              	 .loc 1 310 13 is_stmt 1 view .LVU857
 311:fips202.c     ****             BCo = ROL(Ema, 41);
 2328              	 .loc 1 311 13 view .LVU858
 310:fips202.c     ****             BCo = ROL(Ema, 41);
 2329              	 .loc 1 310 17 is_stmt 0 view .LVU859
 2330 0c4c 019C     	 ldr r4,[sp,#4]
 2331 0c4e 389A     	 ldr r2,[sp,#224]
 301:fips202.c     ****             Amu =   BCu ^((~BCa)&  BCe );
 2332              	 .loc 1 301 17 view .LVU860
 2333 0c50 CDF8B8E0 	 str lr,[sp,#184]
 2334              	.LVL315:
 310:fips202.c     ****             BCo = ROL(Ema, 41);
 2335              	 .loc 1 310 17 view .LVU861
 2336 0c54 6240     	 eors r2,r2,r4
 2337 0c56 399C     	 ldr r4,[sp,#228]
 2338              	 .loc 1 311 17 view .LVU862
 2339 0c58 4FEAD25E 	 lsr lr,r2,#23
 310:fips202.c     ****             BCo = ROL(Ema, 41);
 2340              	 .loc 1 310 17 view .LVU863
 2341 0c5c 7C40     	 eors r4,r4,r7
 2342              	 .loc 1 311 17 view .LVU864
 2343 0c5e 4EEA442E 	 orr lr,lr,r4,lsl#9
 2344 0c62 E40D     	 lsrs r4,r4,#23
 2345 0c64 44EA4224 	 orr r4,r4,r2,lsl#9
 2346              	.LVL316:
 312:fips202.c     ****             Ese ^= De;
 2347              	 .loc 1 312 13 is_stmt 1 view .LVU865
 313:fips202.c     ****             BCu = ROL(Ese, 2);
 2348              	 .loc 1 313 13 view .LVU866
 312:fips202.c     ****             Ese ^= De;
 2349              	 .loc 1 312 17 is_stmt 0 view .LVU867
 2350 0c68 039F     	 ldr r7,[sp,#12]
 2351 0c6a 349A     	 ldr r2,[sp,#208]
 2352 0c6c 82EA0709 	 eor r9,r2,r7
 2353 0c70 359A     	 ldr r2,[sp,#212]
 2354 0c72 049F     	 ldr r7,[sp,#16]
 2355 0c74 7A40     	 eors r2,r2,r7
 2356              	 .loc 1 313 17 view .LVU868
 2357 0c76 4FEA8907 	 lsl r7,r9,#2
 2358 0c7a 47EA9277 	 orr r7,r7,r2,lsr#30
 2359 0c7e 9200     	 lsls r2,r2,#2
 2360 0c80 42EA9972 	 orr r2,r2,r9,lsr#30
 2361              	.LVL317:
 314:fips202.c     ****             Asa =   BCa ^((~BCe)&  BCi );
 2362              	 .loc 1 314 13 is_stmt 1 view .LVU869
 2363              	 .loc 1 314 33 is_stmt 0 view .LVU870
 2364 0c84 28EA060A 	 bic r10,r8,r6
 2365 0c88 25EA0309 	 bic r9,r5,r3
 2366              	 .loc 1 314 17 view .LVU871
 2367 0c8c 89EA0109 	 eor r9,r9,r1
 2368 0c90 8AEA0C0A 	 eor r10,r10,ip
 2369 0c94 CDF8C8A0 	 str r10,[sp,#200]
 2370              	.LVL318:
 2371              	 .loc 1 314 17 view .LVU872
 2372 0c98 CDF8CC90 	 str r9,[sp,#204]
 2373              	.LVL319:
 315:fips202.c     ****             Ase =   BCe ^((~BCi)&  BCo );
 2374              	 .loc 1 315 13 is_stmt 1 view .LVU873
 2375              	 .loc 1 315 33 is_stmt 0 view .LVU874
 2376 0c9c 2EEA080A 	 bic r10,lr,r8
 2377              	.LVL320:
 2378              	 .loc 1 315 33 view .LVU875
 2379 0ca0 24EA0509 	 bic r9,r4,r5
 2380              	.LVL321:
 2381              	 .loc 1 315 17 view .LVU876
 2382 0ca4 8AEA060A 	 eor r10,r10,r6
 2383 0ca8 89EA0309 	 eor r9,r9,r3
 2384 0cac CDF8D0A0 	 str r10,[sp,#208]
 2385              	.LVL322:
 2386              	 .loc 1 315 17 view .LVU877
 2387 0cb0 CDF8D490 	 str r9,[sp,#212]
 2388              	.LVL323:
 316:fips202.c     ****             Asi =   BCi ^((~BCo)&  BCu );
 2389              	 .loc 1 316 13 is_stmt 1 view .LVU878
 2390              	 .loc 1 316 33 is_stmt 0 view .LVU879
 2391 0cb4 27EA0E0A 	 bic r10,r7,lr
 2392              	.LVL324:
 2393              	 .loc 1 316 33 view .LVU880
 2394 0cb8 22EA0409 	 bic r9,r2,r4
 2395              	.LVL325:
 2396              	 .loc 1 316 17 view .LVU881
 2397 0cbc 8AEA0808 	 eor r8,r10,r8
 2398              	.LVL326:
 2399              	 .loc 1 316 17 view .LVU882
 2400 0cc0 89EA0505 	 eor r5,r9,r5
 2401 0cc4 CDF8D880 	 str r8,[sp,#216]
 2402              	.LVL327:
 2403              	 .loc 1 316 17 view .LVU883
 2404 0cc8 3795     	 str r5,[sp,#220]
 2405              	.LVL328:
 317:fips202.c     ****             Aso =   BCo ^((~BCu)&  BCa );
 2406              	 .loc 1 317 13 is_stmt 1 view .LVU884
 2407              	 .loc 1 317 33 is_stmt 0 view .LVU885
 2408 0cca 2CEA0708 	 bic r8,ip,r7
 2409              	.LVL329:
 2410              	 .loc 1 317 33 view .LVU886
 2411 0cce 21EA0205 	 bic r5,r1,r2
 2412              	.LVL330:
 318:fips202.c     ****             Asu =   BCu ^((~BCa)&  BCe );
 2413              	 .loc 1 318 33 view .LVU887
 2414 0cd2 26EA0C06 	 bic r6,r6,ip
 2415              	.LVL331:
 2416              	 .loc 1 318 33 view .LVU888
 2417 0cd6 23EA0103 	 bic r3,r3,r1
 317:fips202.c     ****             Aso =   BCo ^((~BCu)&  BCa );
 2418              	 .loc 1 317 17 view .LVU889
 2419 0cda 88EA0E0E 	 eor lr,r8,lr
 2420              	.LVL332:
 2421              	 .loc 1 318 17 view .LVU890
 2422 0cde 86EA0701 	 eor r1,r6,r7
 2423              	.LVL333:
 317:fips202.c     ****             Aso =   BCo ^((~BCu)&  BCa );
 2424              	 .loc 1 317 17 view .LVU891
 2425 0ce2 6C40     	 eors r4,r4,r5
 2426              	.LVL334:
 2427              	 .loc 1 318 17 view .LVU892
 2428 0ce4 3A91     	 str r1,[sp,#232]
 2429              	.LVL335:
 317:fips202.c     ****             Aso =   BCo ^((~BCu)&  BCa );
 2430              	 .loc 1 317 17 view .LVU893
 2431 0ce6 CDF8E0E0 	 str lr,[sp,#224]
 2432              	.LVL336:
 317:fips202.c     ****             Aso =   BCo ^((~BCu)&  BCa );
 2433              	 .loc 1 317 17 view .LVU894
 2434 0cea 3994     	 str r4,[sp,#228]
 2435              	.LVL337:
 2436              	 .loc 1 318 13 is_stmt 1 view .LVU895
 2437              	 .loc 1 318 17 is_stmt 0 view .LVU896
 2438 0cec 5340     	 eors r3,r3,r2
 2439              	.LVL338:
 128:fips202.c     ****         {
 2440              	 .loc 1 128 48 is_stmt 1 discriminator 3 view .LVU897
 128:fips202.c     ****         {
 2441              	 .loc 1 128 31 discriminator 1 view .LVU898
 2442 0cee 009A     	 ldr r2,[sp]
 2443              	.LVL339:
 128:fips202.c     ****         {
 2444              	 .loc 1 128 31 is_stmt 0 discriminator 1 view .LVU899
 2445 0cf0 1032     	 adds r2,r2,#16
 2446 0cf2 0092     	 str r2,[sp]
 2447 0cf4 0099     	 ldr r1,[sp]
 2448              	.LVL340:
 128:fips202.c     ****         {
 2449              	 .loc 1 128 31 discriminator 1 view .LVU900
 2450 0cf6 3C4A     	 ldr r2,.L7
 2451 0cf8 8A42     	 cmp r2,r1
 2452 0cfa 7FF4FFA9 	 bne .L2
 319:fips202.c     ****         }
 320:fips202.c     **** 
 321:fips202.c     ****         //copyToState(state, A)
 322:fips202.c     ****         state[ 0] = Aba;
 2453              	 .loc 1 322 9 is_stmt 1 view .LVU901
 2454              	 .loc 1 322 19 is_stmt 0 view .LVU902
 2455 0cfe 0A9A     	 ldr r2,[sp,#40]
 2456 0d00 0260     	 str r2,[r0]
 2457 0d02 0B9A     	 ldr r2,[sp,#44]
 2458 0d04 4260     	 str r2,[r0,#4]
 323:fips202.c     ****         state[ 1] = Abe;
 2459              	 .loc 1 323 9 is_stmt 1 view .LVU903
 2460              	 .loc 1 323 19 is_stmt 0 view .LVU904
 2461 0d06 0C9A     	 ldr r2,[sp,#48]
 2462 0d08 8260     	 str r2,[r0,#8]
 2463 0d0a 0D9A     	 ldr r2,[sp,#52]
 2464 0d0c C260     	 str r2,[r0,#12]
 324:fips202.c     ****         state[ 2] = Abi;
 2465              	 .loc 1 324 9 is_stmt 1 view .LVU905
 2466              	 .loc 1 324 19 is_stmt 0 view .LVU906
 2467 0d0e 0E9A     	 ldr r2,[sp,#56]
 2468 0d10 0261     	 str r2,[r0,#16]
 2469 0d12 0F9A     	 ldr r2,[sp,#60]
 2470 0d14 4261     	 str r2,[r0,#20]
 325:fips202.c     ****         state[ 3] = Abo;
 2471              	 .loc 1 325 9 is_stmt 1 view .LVU907
 2472              	 .loc 1 325 19 is_stmt 0 view .LVU908
 2473 0d16 109A     	 ldr r2,[sp,#64]
 2474 0d18 8261     	 str r2,[r0,#24]
 2475 0d1a 119A     	 ldr r2,[sp,#68]
 2476 0d1c C261     	 str r2,[r0,#28]
 326:fips202.c     ****         state[ 4] = Abu;
 2477              	 .loc 1 326 9 is_stmt 1 view .LVU909
 2478              	 .loc 1 326 19 is_stmt 0 view .LVU910
 2479 0d1e 129A     	 ldr r2,[sp,#72]
 2480 0d20 0262     	 str r2,[r0,#32]
 2481 0d22 139A     	 ldr r2,[sp,#76]
 2482 0d24 4262     	 str r2,[r0,#36]
 327:fips202.c     ****         state[ 5] = Aga;
 2483              	 .loc 1 327 9 is_stmt 1 view .LVU911
 2484              	 .loc 1 327 19 is_stmt 0 view .LVU912
 2485 0d26 149A     	 ldr r2,[sp,#80]
 2486 0d28 8262     	 str r2,[r0,#40]
 2487 0d2a 159A     	 ldr r2,[sp,#84]
 2488 0d2c C262     	 str r2,[r0,#44]
 328:fips202.c     ****         state[ 6] = Age;
 2489              	 .loc 1 328 9 is_stmt 1 view .LVU913
 2490              	 .loc 1 328 19 is_stmt 0 view .LVU914
 2491 0d2e 169A     	 ldr r2,[sp,#88]
 2492 0d30 0263     	 str r2,[r0,#48]
 2493 0d32 179A     	 ldr r2,[sp,#92]
 2494 0d34 4263     	 str r2,[r0,#52]
 329:fips202.c     ****         state[ 7] = Agi;
 2495              	 .loc 1 329 9 is_stmt 1 view .LVU915
 2496              	 .loc 1 329 19 is_stmt 0 view .LVU916
 2497 0d36 189A     	 ldr r2,[sp,#96]
 2498 0d38 8263     	 str r2,[r0,#56]
 2499 0d3a 199A     	 ldr r2,[sp,#100]
 2500 0d3c C263     	 str r2,[r0,#60]
 330:fips202.c     ****         state[ 8] = Ago;
 2501              	 .loc 1 330 9 is_stmt 1 view .LVU917
 2502              	 .loc 1 330 19 is_stmt 0 view .LVU918
 2503 0d3e 1A9A     	 ldr r2,[sp,#104]
 2504 0d40 0264     	 str r2,[r0,#64]
 2505 0d42 1B9A     	 ldr r2,[sp,#108]
 2506 0d44 4264     	 str r2,[r0,#68]
 331:fips202.c     ****         state[ 9] = Agu;
 2507              	 .loc 1 331 9 is_stmt 1 view .LVU919
 2508              	 .loc 1 331 19 is_stmt 0 view .LVU920
 2509 0d46 1C9A     	 ldr r2,[sp,#112]
 2510 0d48 8264     	 str r2,[r0,#72]
 2511 0d4a 1D9A     	 ldr r2,[sp,#116]
 2512 0d4c C264     	 str r2,[r0,#76]
 332:fips202.c     ****         state[10] = Aka;
 2513              	 .loc 1 332 9 is_stmt 1 view .LVU921
 2514              	 .loc 1 332 19 is_stmt 0 view .LVU922
 2515 0d4e 1E9A     	 ldr r2,[sp,#120]
 2516 0d50 0265     	 str r2,[r0,#80]
 2517 0d52 1F9A     	 ldr r2,[sp,#124]
 2518 0d54 4265     	 str r2,[r0,#84]
 333:fips202.c     ****         state[11] = Ake;
 2519              	 .loc 1 333 9 is_stmt 1 view .LVU923
 2520              	 .loc 1 333 19 is_stmt 0 view .LVU924
 2521 0d56 209A     	 ldr r2,[sp,#128]
 2522 0d58 8265     	 str r2,[r0,#88]
 2523 0d5a 219A     	 ldr r2,[sp,#132]
 2524 0d5c C265     	 str r2,[r0,#92]
 334:fips202.c     ****         state[12] = Aki;
 2525              	 .loc 1 334 9 is_stmt 1 view .LVU925
 2526              	 .loc 1 334 19 is_stmt 0 view .LVU926
 2527 0d5e 229A     	 ldr r2,[sp,#136]
 2528 0d60 0266     	 str r2,[r0,#96]
 2529 0d62 239A     	 ldr r2,[sp,#140]
 2530 0d64 4266     	 str r2,[r0,#100]
 335:fips202.c     ****         state[13] = Ako;
 2531              	 .loc 1 335 9 is_stmt 1 view .LVU927
 2532              	 .loc 1 335 19 is_stmt 0 view .LVU928
 2533 0d66 249A     	 ldr r2,[sp,#144]
 2534 0d68 8266     	 str r2,[r0,#104]
 2535 0d6a 259A     	 ldr r2,[sp,#148]
 2536 0d6c C266     	 str r2,[r0,#108]
 336:fips202.c     ****         state[14] = Aku;
 2537              	 .loc 1 336 9 is_stmt 1 view .LVU929
 2538              	 .loc 1 336 19 is_stmt 0 view .LVU930
 2539 0d6e 269A     	 ldr r2,[sp,#152]
 2540 0d70 0267     	 str r2,[r0,#112]
 2541 0d72 279A     	 ldr r2,[sp,#156]
 2542 0d74 4267     	 str r2,[r0,#116]
 337:fips202.c     ****         state[15] = Ama;
 2543              	 .loc 1 337 9 is_stmt 1 view .LVU931
 2544              	 .loc 1 337 19 is_stmt 0 view .LVU932
 2545 0d76 289A     	 ldr r2,[sp,#160]
 2546 0d78 8267     	 str r2,[r0,#120]
 2547 0d7a 299A     	 ldr r2,[sp,#164]
 2548 0d7c C267     	 str r2,[r0,#124]
 338:fips202.c     ****         state[16] = Ame;
 2549              	 .loc 1 338 9 is_stmt 1 view .LVU933
 2550              	 .loc 1 338 19 is_stmt 0 view .LVU934
 2551 0d7e 2A9A     	 ldr r2,[sp,#168]
 2552 0d80 C0F88020 	 str r2,[r0,#128]
 2553 0d84 2B9A     	 ldr r2,[sp,#172]
 2554 0d86 C0F88420 	 str r2,[r0,#132]
 339:fips202.c     ****         state[17] = Ami;
 2555              	 .loc 1 339 9 is_stmt 1 view .LVU935
 2556              	 .loc 1 339 19 is_stmt 0 view .LVU936
 2557 0d8a 2C9A     	 ldr r2,[sp,#176]
 2558 0d8c C0F88820 	 str r2,[r0,#136]
 2559 0d90 2D9A     	 ldr r2,[sp,#180]
 2560 0d92 C0F88C20 	 str r2,[r0,#140]
 340:fips202.c     ****         state[18] = Amo;
 2561              	 .loc 1 340 9 is_stmt 1 view .LVU937
 2562              	 .loc 1 340 19 is_stmt 0 view .LVU938
 2563 0d96 2E9A     	 ldr r2,[sp,#184]
 2564 0d98 C0F89020 	 str r2,[r0,#144]
 2565 0d9c 2F9A     	 ldr r2,[sp,#188]
 2566 0d9e C0F89420 	 str r2,[r0,#148]
 341:fips202.c     ****         state[19] = Amu;
 2567              	 .loc 1 341 9 is_stmt 1 view .LVU939
 2568              	 .loc 1 341 19 is_stmt 0 view .LVU940
 2569 0da2 309A     	 ldr r2,[sp,#192]
 2570 0da4 C0F89820 	 str r2,[r0,#152]
 2571 0da8 319A     	 ldr r2,[sp,#196]
 2572 0daa C0F89C20 	 str r2,[r0,#156]
 342:fips202.c     ****         state[20] = Asa;
 2573              	 .loc 1 342 9 is_stmt 1 view .LVU941
 2574              	 .loc 1 342 19 is_stmt 0 view .LVU942
 2575 0dae 329A     	 ldr r2,[sp,#200]
 2576 0db0 C0F8A020 	 str r2,[r0,#160]
 2577 0db4 339A     	 ldr r2,[sp,#204]
 2578 0db6 C0F8A420 	 str r2,[r0,#164]
 343:fips202.c     ****         state[21] = Ase;
 2579              	 .loc 1 343 9 is_stmt 1 view .LVU943
 2580              	 .loc 1 343 19 is_stmt 0 view .LVU944
 2581 0dba 349A     	 ldr r2,[sp,#208]
 2582 0dbc C0F8A820 	 str r2,[r0,#168]
 2583 0dc0 359A     	 ldr r2,[sp,#212]
 2584 0dc2 C0F8AC20 	 str r2,[r0,#172]
 344:fips202.c     ****         state[22] = Asi;
 2585              	 .loc 1 344 9 is_stmt 1 view .LVU945
 2586              	 .loc 1 344 19 is_stmt 0 view .LVU946
 2587 0dc6 369A     	 ldr r2,[sp,#216]
 2588 0dc8 C0F8B020 	 str r2,[r0,#176]
 2589 0dcc 379A     	 ldr r2,[sp,#220]
 2590 0dce C0F8B420 	 str r2,[r0,#180]
 345:fips202.c     ****         state[23] = Aso;
 2591              	 .loc 1 345 9 is_stmt 1 view .LVU947
 346:fips202.c     ****         state[24] = Asu;
 2592              	 .loc 1 346 19 is_stmt 0 view .LVU948
 2593 0dd2 3A9A     	 ldr r2,[sp,#232]
 345:fips202.c     ****         state[23] = Aso;
 2594              	 .loc 1 345 19 view .LVU949
 2595 0dd4 C0F8B8E0 	 str lr,[r0,#184]
 2596 0dd8 C0F8BC40 	 str r4,[r0,#188]
 2597              	 .loc 1 346 9 is_stmt 1 view .LVU950
 2598              	 .loc 1 346 19 is_stmt 0 view .LVU951
 2599 0ddc C0E93023 	 strd r2,r3,[r0,#192]
 347:fips202.c     **** }
 2600              	 .loc 1 347 1 view .LVU952
 2601 0de0 3DB0     	 add sp,sp,#244
 2602              	.LCFI2:
 2603              	 .cfi_def_cfa_offset 36
 2604              	 
 2605 0de2 BDE8F08F 	 pop {r4,r5,r6,r7,r8,r9,r10,fp,pc}
 2606              	.LVL341:
 2607              	.L8:
 2608              	 .loc 1 347 1 view .LVU953
 2609 0de6 00BF     	 .align 2
 2610              	.L7:
 2611 0de8 C0000000 	 .word KeccakF_RoundConstants+192
 2612              	 .cfi_endproc
 2613              	.LFE2:
 2615              	 .section .text.keccak_squeezeblocks,"ax",%progbits
 2616              	 .align 1
 2617              	 .syntax unified
 2618              	 .thumb
 2619              	 .thumb_func
 2621              	keccak_squeezeblocks:
 2622              	.LVL342:
 2623              	.LFB4:
 348:fips202.c     **** 
 349:fips202.c     **** /*************************************************
 350:fips202.c     **** * Name:        keccak_absorb
 351:fips202.c     **** *
 352:fips202.c     **** * Description: Absorb step of Keccak;
 353:fips202.c     **** *              non-incremental, starts by zeroeing the state.
 354:fips202.c     **** *
 355:fips202.c     **** * Arguments:   - uint64_t *s: pointer to (uninitialized) output Keccak state
 356:fips202.c     **** *              - unsigned int r: rate in bytes (e.g., 168 for SHAKE128)
 357:fips202.c     **** *              - const uint8_t *m: pointer to input to be absorbed into s
 358:fips202.c     **** *              - size_t mlen: length of input in bytes
 359:fips202.c     **** *              - uint8_t p: domain-separation byte for different
 360:fips202.c     **** *                           Keccak-derived functions
 361:fips202.c     **** **************************************************/
 362:fips202.c     **** static void keccak_absorb(uint64_t s[25],
 363:fips202.c     ****                           unsigned int r,
 364:fips202.c     ****                           const uint8_t *m,
 365:fips202.c     ****                           size_t mlen,
 366:fips202.c     ****                           uint8_t p)
 367:fips202.c     **** {
 368:fips202.c     ****   size_t i;
 369:fips202.c     ****   uint8_t t[200] = {0};
 370:fips202.c     **** 
 371:fips202.c     ****   /* Zero state */
 372:fips202.c     ****   for(i=0;i<25;i++)
 373:fips202.c     ****     s[i] = 0;
 374:fips202.c     **** 
 375:fips202.c     ****   while(mlen >= r) {
 376:fips202.c     ****     for(i=0;i<r/8;i++)
 377:fips202.c     ****       s[i] ^= load64(m + 8*i);
 378:fips202.c     **** 
 379:fips202.c     ****     KeccakF1600_StatePermute(s);
 380:fips202.c     ****     mlen -= r;
 381:fips202.c     ****     m += r;
 382:fips202.c     ****   }
 383:fips202.c     **** 
 384:fips202.c     ****   for(i=0;i<mlen;i++)
 385:fips202.c     ****     t[i] = m[i];
 386:fips202.c     ****   t[i] = p;
 387:fips202.c     ****   t[r-1] |= 128;
 388:fips202.c     ****   for(i=0;i<r/8;i++)
 389:fips202.c     ****     s[i] ^= load64(t + 8*i);
 390:fips202.c     **** }
 391:fips202.c     **** 
 392:fips202.c     **** /*************************************************
 393:fips202.c     **** * Name:        keccak_squeezeblocks
 394:fips202.c     **** *
 395:fips202.c     **** * Description: Squeeze step of Keccak. Squeezes full blocks of r bytes each.
 396:fips202.c     **** *              Modifies the state. Can be called multiple times to keep
 397:fips202.c     **** *              squeezing, i.e., is incremental.
 398:fips202.c     **** *
 399:fips202.c     **** * Arguments:   - uint8_t *h: pointer to output blocks
 400:fips202.c     **** *              - size_t nblocks: number of blocks to be squeezed (written to h)
 401:fips202.c     **** *              - uint64_t *s: pointer to input/output Keccak state
 402:fips202.c     **** *              - unsigned int r: rate in bytes (e.g., 168 for SHAKE128)
 403:fips202.c     **** **************************************************/
 404:fips202.c     **** static void keccak_squeezeblocks(uint8_t *out,
 405:fips202.c     ****                                  size_t nblocks,
 406:fips202.c     ****                                  uint64_t s[25],
 407:fips202.c     ****                                  unsigned int r)
 408:fips202.c     **** {
 2624              	 .loc 1 408 1 is_stmt 1 view-0
 2625              	 .cfi_startproc
 2626              	 
 2627              	 
 409:fips202.c     ****   unsigned int i;
 2628              	 .loc 1 409 3 view .LVU955
 410:fips202.c     ****   while(nblocks > 0) {
 2629              	 .loc 1 410 3 view .LVU956
 408:fips202.c     ****   unsigned int i;
 2630              	 .loc 1 408 1 is_stmt 0 view .LVU957
 2631 0000 2DE9F84F 	 push {r3,r4,r5,r6,r7,r8,r9,r10,fp,lr}
 2632              	.LCFI3:
 2633              	 .cfi_def_cfa_offset 40
 2634              	 .cfi_offset 3,-40
 2635              	 .cfi_offset 4,-36
 2636              	 .cfi_offset 5,-32
 2637              	 .cfi_offset 6,-28
 2638              	 .cfi_offset 7,-24
 2639              	 .cfi_offset 8,-20
 2640              	 .cfi_offset 9,-16
 2641              	 .cfi_offset 10,-12
 2642              	 .cfi_offset 11,-8
 2643              	 .cfi_offset 14,-4
 408:fips202.c     ****   unsigned int i;
 2644              	 .loc 1 408 1 view .LVU958
 2645 0004 0546     	 mov r5,r0
 2646 0006 0C46     	 mov r4,r1
 2647 0008 9046     	 mov r8,r2
 2648 000a 1E46     	 mov r6,r3
 2649 000c 23F00709 	 bic r9,r3,#7
 2650              	.LVL343:
 2651              	.L10:
 2652              	 .loc 1 410 17 is_stmt 1 view .LVU959
 2653 0010 0CB9     	 cbnz r4,.L13
 411:fips202.c     ****     KeccakF1600_StatePermute(s);
 412:fips202.c     ****     for(i=0;i<r/8;i++)
 413:fips202.c     ****       store64(out + 8*i, s[i]);
 414:fips202.c     ****     out += r;
 415:fips202.c     ****     --nblocks;
 416:fips202.c     ****   }
 417:fips202.c     **** }
 2654              	 .loc 1 417 1 is_stmt 0 view .LVU960
 2655 0012 BDE8F88F 	 pop {r3,r4,r5,r6,r7,r8,r9,r10,fp,pc}
 2656              	.LVL344:
 2657              	.L13:
 411:fips202.c     ****     KeccakF1600_StatePermute(s);
 2658              	 .loc 1 411 5 is_stmt 1 view .LVU961
 2659 0016 124B     	 ldr r3,.L16
 2660 0018 4046     	 mov r0,r8
 2661 001a 9847     	 blx r3
 2662              	.LVL345:
 412:fips202.c     ****       store64(out + 8*i, s[i]);
 2663              	 .loc 1 412 5 view .LVU962
 412:fips202.c     ****       store64(out + 8*i, s[i]);
 2664              	 .loc 1 412 14 discriminator 1 view .LVU963
 2665 001c A8F10800 	 sub r0,r8,#8
 412:fips202.c     ****       store64(out + 8*i, s[i]);
 2666              	 .loc 1 412 16 is_stmt 0 discriminator 1 view .LVU964
 2667 0020 0023     	 movs r3,#0
 2668              	.LVL346:
 2669              	.L12:
 413:fips202.c     ****     out += r;
 2670              	 .loc 1 413 7 is_stmt 1 view .LVU965
 2671 0022 50F808BF 	 ldr fp,[r0,#8]!
 2672 0026 D0F804A0 	 ldr r10,[r0,#4]
 2673              	.LVL347:
 2674              	.LBB4:
 2675              	.LBI4:
  42:fips202.c     ****   unsigned int i;
 2676              	 .loc 1 42 13 view .LVU966
 2677              	.LBB5:
  43:fips202.c     **** 
 2678              	 .loc 1 43 3 view .LVU967
  45:fips202.c     ****     x[i] = u >> 8*i;
 2679              	 .loc 1 45 3 view .LVU968
  45:fips202.c     ****     x[i] = u >> 8*i;
 2680              	 .loc 1 45 12 discriminator 1 view .LVU969
 2681 002a 05EB030E 	 add lr,r5,r3
 2682              	.LVL348:
  45:fips202.c     ****     x[i] = u >> 8*i;
 2683              	 .loc 1 45 12 is_stmt 0 discriminator 1 view .LVU970
 2684              	.LBE5:
 2685              	.LBE4:
 413:fips202.c     ****     out += r;
 2686              	 .loc 1 413 7 view .LVU971
 2687 002e 0022     	 movs r2,#0
 2688              	.LVL349:
 2689              	.L11:
 2690              	.LBB7:
 2691              	.LBB6:
  46:fips202.c     **** }
 2692              	 .loc 1 46 5 is_stmt 1 view .LVU972
  46:fips202.c     **** }
 2693              	 .loc 1 46 14 is_stmt 0 view .LVU973
 2694 0030 C2F1200C 	 rsb ip,r2,#32
 2695 0034 A2F12007 	 sub r7,r2,#32
 2696 0038 2BFA02F1 	 lsr r1,fp,r2
 2697 003c 0AFA0CFC 	 lsl ip,r10,ip
 2698 0040 41EA0C01 	 orr r1,r1,ip
 2699 0044 2AFA07F7 	 lsr r7,r10,r7
  45:fips202.c     ****     x[i] = u >> 8*i;
 2700              	 .loc 1 45 12 discriminator 1 view .LVU974
 2701 0048 0832     	 adds r2,r2,#8
  46:fips202.c     **** }
 2702              	 .loc 1 46 14 view .LVU975
 2703 004a 3943     	 orrs r1,r1,r7
  45:fips202.c     ****     x[i] = u >> 8*i;
 2704              	 .loc 1 45 12 discriminator 1 view .LVU976
 2705 004c 402A     	 cmp r2,#64
  46:fips202.c     **** }
 2706              	 .loc 1 46 10 view .LVU977
 2707 004e 0EF8011B 	 strb r1,[lr],#1
  45:fips202.c     ****     x[i] = u >> 8*i;
 2708              	 .loc 1 45 16 is_stmt 1 discriminator 3 view .LVU978
  45:fips202.c     ****     x[i] = u >> 8*i;
 2709              	 .loc 1 45 12 discriminator 1 view .LVU979
 2710 0052 EDD1     	 bne .L11
 2711              	.LVL350:
  45:fips202.c     ****     x[i] = u >> 8*i;
 2712              	 .loc 1 45 12 is_stmt 0 discriminator 1 view .LVU980
 2713              	.LBE6:
 2714              	.LBE7:
 412:fips202.c     ****       store64(out + 8*i, s[i]);
 2715              	 .loc 1 412 20 is_stmt 1 discriminator 3 view .LVU981
 412:fips202.c     ****       store64(out + 8*i, s[i]);
 2716              	 .loc 1 412 14 discriminator 1 view .LVU982
 2717 0054 0833     	 adds r3,r3,#8
 2718 0056 4B45     	 cmp r3,r9
 2719 0058 E3D1     	 bne .L12
 414:fips202.c     ****     --nblocks;
 2720              	 .loc 1 414 5 view .LVU983
 414:fips202.c     ****     --nblocks;
 2721              	 .loc 1 414 9 is_stmt 0 view .LVU984
 2722 005a 3544     	 add r5,r5,r6
 2723              	.LVL351:
 415:fips202.c     ****   }
 2724              	 .loc 1 415 5 is_stmt 1 view .LVU985
 2725 005c 013C     	 subs r4,r4,#1
 2726              	.LVL352:
 415:fips202.c     ****   }
 2727              	 .loc 1 415 5 is_stmt 0 view .LVU986
 2728 005e D7E7     	 b .L10
 2729              	.L17:
 2730              	 .align 2
 2731              	.L16:
 2732 0060 00000000 	 .word KeccakF1600_StatePermute
 2733              	 .cfi_endproc
 2734              	.LFE4:
 2736              	 .section .text.keccak_absorb,"ax",%progbits
 2737              	 .align 1
 2738              	 .syntax unified
 2739              	 .thumb
 2740              	 .thumb_func
 2742              	keccak_absorb:
 2743              	.LVL353:
 2744              	.LFB3:
 367:fips202.c     ****   size_t i;
 2745              	 .loc 1 367 1 is_stmt 1 view-0
 2746              	 .cfi_startproc
 2747              	 
 2748              	 
 367:fips202.c     ****   size_t i;
 2749              	 .loc 1 367 1 is_stmt 0 view .LVU988
 2750 0000 2DE9F04F 	 push {r4,r5,r6,r7,r8,r9,r10,fp,lr}
 2751              	.LCFI4:
 2752              	 .cfi_def_cfa_offset 36
 2753              	 .cfi_offset 4,-36
 2754              	 .cfi_offset 5,-32
 2755              	 .cfi_offset 6,-28
 2756              	 .cfi_offset 7,-24
 2757              	 .cfi_offset 8,-20
 2758              	 .cfi_offset 9,-16
 2759              	 .cfi_offset 10,-12
 2760              	 .cfi_offset 11,-8
 2761              	 .cfi_offset 14,-4
 2762 0004 B3B0     	 sub sp,sp,#204
 2763              	.LCFI5:
 2764              	 .cfi_def_cfa_offset 240
 369:fips202.c     **** 
 2765              	 .loc 1 369 11 view .LVU989
 2766 0006 DFF80C81 	 ldr r8,.L31
 367:fips202.c     ****   size_t i;
 2767              	 .loc 1 367 1 view .LVU990
 2768 000a 0446     	 mov r4,r0
 2769 000c 0D46     	 mov r5,r1
 368:fips202.c     ****   uint8_t t[200] = {0};
 2770              	 .loc 1 368 3 is_stmt 1 view .LVU991
 369:fips202.c     **** 
 2771              	 .loc 1 369 3 view .LVU992
 367:fips202.c     ****   size_t i;
 2772              	 .loc 1 367 1 is_stmt 0 view .LVU993
 2773 000e 1646     	 mov r6,r2
 369:fips202.c     **** 
 2774              	 .loc 1 369 11 view .LVU994
 2775 0010 0021     	 movs r1,#0
 2776              	.LVL354:
 369:fips202.c     **** 
 2777              	 .loc 1 369 11 view .LVU995
 2778 0012 C822     	 movs r2,#200
 2779              	.LVL355:
 369:fips202.c     **** 
 2780              	 .loc 1 369 11 view .LVU996
 2781 0014 6846     	 mov r0,sp
 2782              	.LVL356:
 367:fips202.c     ****   size_t i;
 2783              	 .loc 1 367 1 view .LVU997
 2784 0016 1F46     	 mov r7,r3
 369:fips202.c     **** 
 2785              	 .loc 1 369 11 view .LVU998
 2786 0018 C047     	 blx r8
 2787              	.LVL357:
 372:fips202.c     ****     s[i] = 0;
 2788              	 .loc 1 372 3 is_stmt 1 view .LVU999
 372:fips202.c     ****     s[i] = 0;
 2789              	 .loc 1 372 12 discriminator 1 view .LVU1000
 373:fips202.c     **** 
 2790              	 .loc 1 373 10 is_stmt 0 view .LVU1001
 2791 001a C822     	 movs r2,#200
 2792 001c 0021     	 movs r1,#0
 2793 001e 2046     	 mov r0,r4
 2794 0020 C047     	 blx r8
 2795              	.LVL358:
 376:fips202.c     ****       s[i] ^= load64(m + 8*i);
 2796              	 .loc 1 376 16 discriminator 1 view .LVU1002
 2797 0022 4FEAD508 	 lsr r8,r5,#3
 2798              	.LVL359:
 2799              	.L19:
 375:fips202.c     ****     for(i=0;i<r/8;i++)
 2800              	 .loc 1 375 14 is_stmt 1 view .LVU1003
 2801 0026 AF42     	 cmp r7,r5
 2802 0028 3FD2     	 bcs .L22
 375:fips202.c     ****     for(i=0;i<r/8;i++)
 2803              	 .loc 1 375 14 is_stmt 0 view .LVU1004
 2804 002a 6846     	 mov r0,sp
 2805 002c F219     	 adds r2,r6,r7
 2806 002e 6B46     	 mov r3,sp
 2807              	.LVL360:
 2808              	.L23:
 384:fips202.c     ****     t[i] = m[i];
 2809              	 .loc 1 384 12 is_stmt 1 discriminator 1 view .LVU1005
 2810 0030 B242     	 cmp r2,r6
 2811 0032 6AD1     	 bne .L24
 386:fips202.c     ****   t[r-1] |= 128;
 2812              	 .loc 1 386 3 view .LVU1006
 386:fips202.c     ****   t[r-1] |= 128;
 2813              	 .loc 1 386 8 is_stmt 0 view .LVU1007
 2814 0034 07F1C803 	 add r3,r7,#200
 2815 0038 0DEB0307 	 add r7,sp,r3
 2816              	.LVL361:
 386:fips202.c     ****   t[r-1] |= 128;
 2817              	 .loc 1 386 8 view .LVU1008
 2818 003c 9DF8F030 	 ldrb r3,[sp,#240]
 2819              	.LVL362:
 386:fips202.c     ****   t[r-1] |= 128;
 2820              	 .loc 1 386 8 view .LVU1009
 2821 0040 07F8C83C 	 strb r3,[r7,#-200]
 387:fips202.c     ****   for(i=0;i<r/8;i++)
 2822              	 .loc 1 387 3 is_stmt 1 view .LVU1010
 387:fips202.c     ****   for(i=0;i<r/8;i++)
 2823              	 .loc 1 387 10 is_stmt 0 view .LVU1011
 2824 0044 05F1C703 	 add r3,r5,#199
 2825 0048 0DEB0305 	 add r5,sp,r3
 2826              	.LVL363:
 387:fips202.c     ****   for(i=0;i<r/8;i++)
 2827              	 .loc 1 387 10 view .LVU1012
 2828 004c 083C     	 subs r4,r4,#8
 2829              	.LVL364:
 387:fips202.c     ****   for(i=0;i<r/8;i++)
 2830              	 .loc 1 387 10 view .LVU1013
 2831 004e 15F8C83C 	 ldrb r3,[r5,#-200]
 2832              	.LVL365:
 387:fips202.c     ****   for(i=0;i<r/8;i++)
 2833              	 .loc 1 387 10 view .LVU1014
 2834 0052 63F07F03 	 orn r3,r3,#127
 2835 0056 05F8C83C 	 strb r3,[r5,#-200]
 388:fips202.c     ****     s[i] ^= load64(t + 8*i);
 2836              	 .loc 1 388 3 is_stmt 1 view .LVU1015
 2837              	.LVL366:
 388:fips202.c     ****     s[i] ^= load64(t + 8*i);
 2838              	 .loc 1 388 12 discriminator 1 view .LVU1016
 388:fips202.c     ****     s[i] ^= load64(t + 8*i);
 2839              	 .loc 1 388 8 is_stmt 0 view .LVU1017
 2840 005a 0025     	 movs r5,#0
 2841              	.LVL367:
 2842              	.L26:
 389:fips202.c     **** }
 2843              	 .loc 1 389 5 is_stmt 1 view .LVU1018
 2844              	.LBB12:
 2845              	.LBI12:
  24:fips202.c     ****   unsigned int i;
 2846              	 .loc 1 24 17 view .LVU1019
 2847              	.LBB13:
  25:fips202.c     ****   uint64_t r = 0;
 2848              	 .loc 1 25 3 view .LVU1020
  26:fips202.c     **** 
 2849              	 .loc 1 26 3 view .LVU1021
  28:fips202.c     ****     r |= (uint64_t)x[i] << 8*i;
 2850              	 .loc 1 28 3 view .LVU1022
  28:fips202.c     ****     r |= (uint64_t)x[i] << 8*i;
 2851              	 .loc 1 28 12 discriminator 1 view .LVU1023
 2852              	.LBE13:
 2853              	.LBE12:
 388:fips202.c     ****     s[i] ^= load64(t + 8*i);
 2854              	 .loc 1 388 8 is_stmt 0 view .LVU1024
 2855 005c 0023     	 movs r3,#0
 2856 005e 8646     	 mov lr,r0
 2857              	.LBB15:
 2858              	.LBB14:
  26:fips202.c     **** 
 2859              	 .loc 1 26 12 view .LVU1025
 2860 0060 1F46     	 mov r7,r3
 2861 0062 1E46     	 mov r6,r3
 2862              	.LVL368:
 2863              	.L25:
  29:fips202.c     **** 
 2864              	 .loc 1 29 5 is_stmt 1 view .LVU1026
  29:fips202.c     **** 
 2865              	 .loc 1 29 21 is_stmt 0 view .LVU1027
 2866 0064 1EF8011B 	 ldrb r1,[lr],#1
  29:fips202.c     **** 
 2867              	 .loc 1 29 25 view .LVU1028
 2868 0068 A3F12002 	 sub r2,r3,#32
 2869 006c C3F1200C 	 rsb ip,r3,#32
 2870 0070 01FA02F2 	 lsl r2,r1,r2
 2871 0074 21FA0CFC 	 lsr ip,r1,ip
 2872 0078 9940     	 lsls r1,r1,r3
  28:fips202.c     ****     r |= (uint64_t)x[i] << 8*i;
 2873              	 .loc 1 28 12 discriminator 1 view .LVU1029
 2874 007a 0833     	 adds r3,r3,#8
  29:fips202.c     **** 
 2875              	 .loc 1 29 25 view .LVU1030
 2876 007c 42EA0C02 	 orr r2,r2,ip
  28:fips202.c     ****     r |= (uint64_t)x[i] << 8*i;
 2877              	 .loc 1 28 12 discriminator 1 view .LVU1031
 2878 0080 402B     	 cmp r3,#64
  29:fips202.c     **** 
 2879              	 .loc 1 29 7 view .LVU1032
 2880 0082 47EA0107 	 orr r7,r7,r1
 2881              	.LVL369:
  29:fips202.c     **** 
 2882              	 .loc 1 29 7 view .LVU1033
 2883 0086 46EA0206 	 orr r6,r6,r2
 2884              	.LVL370:
  28:fips202.c     ****     r |= (uint64_t)x[i] << 8*i;
 2885              	 .loc 1 28 16 is_stmt 1 discriminator 3 view .LVU1034
  28:fips202.c     ****     r |= (uint64_t)x[i] << 8*i;
 2886              	 .loc 1 28 12 discriminator 1 view .LVU1035
 2887 008a EBD1     	 bne .L25
  31:fips202.c     **** }
 2888              	 .loc 1 31 3 view .LVU1036
 2889              	.LVL371:
  31:fips202.c     **** }
 2890              	 .loc 1 31 3 is_stmt 0 view .LVU1037
 2891              	.LBE14:
 2892              	.LBE15:
 389:fips202.c     **** }
 2893              	 .loc 1 389 10 discriminator 1 view .LVU1038
 2894 008c 54F8082F 	 ldr r2,[r4,#8]!
 2895 0090 6368     	 ldr r3,[r4,#4]
 388:fips202.c     ****     s[i] ^= load64(t + 8*i);
 2896              	 .loc 1 388 18 discriminator 3 view .LVU1039
 2897 0092 0135     	 adds r5,r5,#1
 2898              	.LVL372:
 389:fips202.c     **** }
 2899              	 .loc 1 389 10 discriminator 1 view .LVU1040
 2900 0094 7A40     	 eors r2,r2,r7
 2901 0096 7340     	 eors r3,r3,r6
 388:fips202.c     ****     s[i] ^= load64(t + 8*i);
 2902              	 .loc 1 388 12 discriminator 1 view .LVU1041
 2903 0098 4545     	 cmp r5,r8
 389:fips202.c     **** }
 2904              	 .loc 1 389 10 discriminator 1 view .LVU1042
 2905 009a C4E90023 	 strd r2,r3,[r4]
 388:fips202.c     ****     s[i] ^= load64(t + 8*i);
 2906              	 .loc 1 388 18 is_stmt 1 discriminator 3 view .LVU1043
 2907              	.LVL373:
 388:fips202.c     ****     s[i] ^= load64(t + 8*i);
 2908              	 .loc 1 388 12 discriminator 1 view .LVU1044
 2909 009e 00F10800 	 add r0,r0,#8
 2910 00a2 DBD3     	 bcc .L26
 390:fips202.c     **** 
 2911              	 .loc 1 390 1 is_stmt 0 view .LVU1045
 2912 00a4 33B0     	 add sp,sp,#204
 2913              	.LCFI6:
 2914              	 .cfi_remember_state
 2915              	 .cfi_def_cfa_offset 36
 2916              	 
 2917 00a6 BDE8F08F 	 pop {r4,r5,r6,r7,r8,r9,r10,fp,pc}
 2918              	.LVL374:
 2919              	.L22:
 2920              	.LCFI7:
 2921              	 .cfi_restore_state
 390:fips202.c     **** 
 2922              	 .loc 1 390 1 view .LVU1046
 2923 00aa A4F10802 	 sub r2,r4,#8
 376:fips202.c     ****       s[i] ^= load64(m + 8*i);
 2924              	 .loc 1 376 10 view .LVU1047
 2925 00ae 4FF0000C 	 mov ip,#0
 2926              	.L21:
 2927              	.LVL375:
 377:fips202.c     **** 
 2928              	 .loc 1 377 7 is_stmt 1 view .LVU1048
 2929              	.LBB16:
 2930              	.LBI16:
  24:fips202.c     ****   unsigned int i;
 2931              	 .loc 1 24 17 view .LVU1049
 2932              	.LBB17:
  25:fips202.c     ****   uint64_t r = 0;
 2933              	 .loc 1 25 3 view .LVU1050
  26:fips202.c     **** 
 2934              	 .loc 1 26 3 view .LVU1051
  28:fips202.c     ****     r |= (uint64_t)x[i] << 8*i;
 2935              	 .loc 1 28 3 view .LVU1052
  28:fips202.c     ****     r |= (uint64_t)x[i] << 8*i;
 2936              	 .loc 1 28 12 discriminator 1 view .LVU1053
 2937              	.LBE17:
 2938              	.LBE16:
 376:fips202.c     ****       s[i] ^= load64(m + 8*i);
 2939              	 .loc 1 376 10 is_stmt 0 view .LVU1054
 2940 00b2 0023     	 movs r3,#0
 2941 00b4 06EBCC0B 	 add fp,r6,ip,lsl#3
 2942              	.LBB19:
 2943              	.LBB18:
  26:fips202.c     **** 
 2944              	 .loc 1 26 12 view .LVU1055
 2945 00b8 9946     	 mov r9,r3
 2946 00ba 9E46     	 mov lr,r3
 2947              	.LVL376:
 2948              	.L20:
  29:fips202.c     **** 
 2949              	 .loc 1 29 5 is_stmt 1 view .LVU1056
  29:fips202.c     **** 
 2950              	 .loc 1 29 21 is_stmt 0 view .LVU1057
 2951 00bc 1BF8010B 	 ldrb r0,[fp],#1
  29:fips202.c     **** 
 2952              	 .loc 1 29 25 view .LVU1058
 2953 00c0 A3F1200A 	 sub r10,r3,#32
 2954 00c4 C3F12001 	 rsb r1,r3,#32
 2955 00c8 00FA0AFA 	 lsl r10,r0,r10
 2956 00cc 20FA01F1 	 lsr r1,r0,r1
 2957 00d0 9840     	 lsls r0,r0,r3
  28:fips202.c     ****     r |= (uint64_t)x[i] << 8*i;
 2958              	 .loc 1 28 12 discriminator 1 view .LVU1059
 2959 00d2 0833     	 adds r3,r3,#8
  29:fips202.c     **** 
 2960              	 .loc 1 29 25 view .LVU1060
 2961 00d4 4AEA0101 	 orr r1,r10,r1
  28:fips202.c     ****     r |= (uint64_t)x[i] << 8*i;
 2962              	 .loc 1 28 12 discriminator 1 view .LVU1061
 2963 00d8 402B     	 cmp r3,#64
  29:fips202.c     **** 
 2964              	 .loc 1 29 7 view .LVU1062
 2965 00da 40EA0909 	 orr r9,r0,r9
 2966              	.LVL377:
  29:fips202.c     **** 
 2967              	 .loc 1 29 7 view .LVU1063
 2968 00de 41EA0E0E 	 orr lr,r1,lr
 2969              	.LVL378:
  28:fips202.c     ****     r |= (uint64_t)x[i] << 8*i;
 2970              	 .loc 1 28 16 is_stmt 1 discriminator 3 view .LVU1064
  28:fips202.c     ****     r |= (uint64_t)x[i] << 8*i;
 2971              	 .loc 1 28 12 discriminator 1 view .LVU1065
 2972 00e2 EBD1     	 bne .L20
  31:fips202.c     **** }
 2973              	 .loc 1 31 3 view .LVU1066
 2974              	.LVL379:
  31:fips202.c     **** }
 2975              	 .loc 1 31 3 is_stmt 0 view .LVU1067
 2976              	.LBE18:
 2977              	.LBE19:
 377:fips202.c     **** 
 2978              	 .loc 1 377 12 discriminator 1 view .LVU1068
 2979 00e4 52F8081F 	 ldr r1,[r2,#8]!
 2980 00e8 5368     	 ldr r3,[r2,#4]
 376:fips202.c     ****       s[i] ^= load64(m + 8*i);
 2981              	 .loc 1 376 20 discriminator 3 view .LVU1069
 2982 00ea 0CF1010C 	 add ip,ip,#1
 2983              	.LVL380:
 377:fips202.c     **** 
 2984              	 .loc 1 377 12 discriminator 1 view .LVU1070
 2985 00ee 81EA0901 	 eor r1,r1,r9
 2986 00f2 83EA0E03 	 eor r3,r3,lr
 376:fips202.c     ****       s[i] ^= load64(m + 8*i);
 2987              	 .loc 1 376 14 discriminator 1 view .LVU1071
 2988 00f6 C445     	 cmp ip,r8
 377:fips202.c     **** 
 2989              	 .loc 1 377 12 discriminator 1 view .LVU1072
 2990 00f8 C2E90013 	 strd r1,r3,[r2]
 376:fips202.c     ****       s[i] ^= load64(m + 8*i);
 2991              	 .loc 1 376 20 is_stmt 1 discriminator 3 view .LVU1073
 2992              	.LVL381:
 376:fips202.c     ****       s[i] ^= load64(m + 8*i);
 2993              	 .loc 1 376 14 discriminator 1 view .LVU1074
 2994 00fc D9D3     	 bcc .L21
 379:fips202.c     ****     mlen -= r;
 2995              	 .loc 1 379 5 view .LVU1075
 2996 00fe 064B     	 ldr r3,.L31+4
 2997 0100 2046     	 mov r0,r4
 2998 0102 9847     	 blx r3
 2999              	.LVL382:
 380:fips202.c     ****     m += r;
 3000              	 .loc 1 380 5 view .LVU1076
 380:fips202.c     ****     m += r;
 3001              	 .loc 1 380 10 is_stmt 0 view .LVU1077
 3002 0104 7F1B     	 subs r7,r7,r5
 3003              	.LVL383:
 381:fips202.c     ****   }
 3004              	 .loc 1 381 5 is_stmt 1 view .LVU1078
 381:fips202.c     ****   }
 3005              	 .loc 1 381 7 is_stmt 0 view .LVU1079
 3006 0106 2E44     	 add r6,r6,r5
 3007              	.LVL384:
 381:fips202.c     ****   }
 3008              	 .loc 1 381 7 view .LVU1080
 3009 0108 8DE7     	 b .L19
 3010              	.LVL385:
 3011              	.L24:
 385:fips202.c     ****   t[i] = p;
 3012              	 .loc 1 385 5 is_stmt 1 view .LVU1081
 385:fips202.c     ****   t[i] = p;
 3013              	 .loc 1 385 13 is_stmt 0 view .LVU1082
 3014 010a 16F8011B 	 ldrb r1,[r6],#1
 385:fips202.c     ****   t[i] = p;
 3015              	 .loc 1 385 10 view .LVU1083
 3016 010e 03F8011B 	 strb r1,[r3],#1
 384:fips202.c     ****     t[i] = m[i];
 3017              	 .loc 1 384 19 is_stmt 1 discriminator 3 view .LVU1084
 3018 0112 8DE7     	 b .L23
 3019              	.L32:
 3020              	 .align 2
 3021              	.L31:
 3022 0114 00000000 	 .word memset
 3023 0118 00000000 	 .word KeccakF1600_StatePermute
 3024              	 .cfi_endproc
 3025              	.LFE3:
 3027              	 .section .text.crypto_kem_kyber1024_ref_shake128_absorb,"ax",%progbits
 3028              	 .align 1
 3029              	 .global crypto_kem_kyber1024_ref_shake128_absorb
 3030              	 .syntax unified
 3031              	 .thumb
 3032              	 .thumb_func
 3034              	crypto_kem_kyber1024_ref_shake128_absorb:
 3035              	.LVL386:
 3036              	.LFB5:
 418:fips202.c     **** 
 419:fips202.c     **** /*************************************************
 420:fips202.c     **** * Name:        shake128_absorb
 421:fips202.c     **** *
 422:fips202.c     **** * Description: Absorb step of the SHAKE128 XOF.
 423:fips202.c     **** *              non-incremental, starts by zeroeing the state.
 424:fips202.c     **** *
 425:fips202.c     **** * Arguments:   - keccak_state *state: pointer to (uninitialized) output
 426:fips202.c     **** *                                     Keccak state
 427:fips202.c     **** *              - const uint8_t *in:   pointer to input to be absorbed into s
 428:fips202.c     **** *              - size_t inlen:        length of input in bytes
 429:fips202.c     **** **************************************************/
 430:fips202.c     **** void shake128_absorb(keccak_state *state, const uint8_t *in, size_t inlen)
 431:fips202.c     **** {
 3037              	 .loc 1 431 1 view-0
 3038              	 .cfi_startproc
 3039              	 
 3040              	 
 432:fips202.c     ****   keccak_absorb(state->s, SHAKE128_RATE, in, inlen, 0x1F);
 3041              	 .loc 1 432 3 view .LVU1086
 431:fips202.c     ****   keccak_absorb(state->s, SHAKE128_RATE, in, inlen, 0x1F);
 3042              	 .loc 1 431 1 is_stmt 0 view .LVU1087
 3043 0000 13B5     	 push {r0,r1,r4,lr}
 3044              	.LCFI8:
 3045              	 .cfi_def_cfa_offset 16
 3046              	 .cfi_offset 4,-8
 3047              	 .cfi_offset 14,-4
 431:fips202.c     ****   keccak_absorb(state->s, SHAKE128_RATE, in, inlen, 0x1F);
 3048              	 .loc 1 431 1 view .LVU1088
 3049 0002 1346     	 mov r3,r2
 3050              	 .loc 1 432 3 view .LVU1089
 3051 0004 1F22     	 movs r2,#31
 3052              	.LVL387:
 3053              	 .loc 1 432 3 view .LVU1090
 3054 0006 0092     	 str r2,[sp]
 3055 0008 024C     	 ldr r4,.L34
 3056 000a 0A46     	 mov r2,r1
 3057 000c A821     	 movs r1,#168
 3058              	.LVL388:
 3059              	 .loc 1 432 3 view .LVU1091
 3060 000e A047     	 blx r4
 3061              	.LVL389:
 433:fips202.c     **** }
 3062              	 .loc 1 433 1 view .LVU1092
 3063 0010 02B0     	 add sp,sp,#8
 3064              	.LCFI9:
 3065              	 .cfi_def_cfa_offset 8
 3066              	 
 3067 0012 10BD     	 pop {r4,pc}
 3068              	.L35:
 3069              	 .align 2
 3070              	.L34:
 3071 0014 00000000 	 .word keccak_absorb
 3072              	 .cfi_endproc
 3073              	.LFE5:
 3075              	 .section .text.crypto_kem_kyber1024_ref_shake128_squeezeblocks,"ax",%progbits
 3076              	 .align 1
 3077              	 .global crypto_kem_kyber1024_ref_shake128_squeezeblocks
 3078              	 .syntax unified
 3079              	 .thumb
 3080              	 .thumb_func
 3082              	crypto_kem_kyber1024_ref_shake128_squeezeblocks:
 3083              	.LVL390:
 3084              	.LFB6:
 434:fips202.c     **** 
 435:fips202.c     **** /*************************************************
 436:fips202.c     **** * Name:        shake128_squeezeblocks
 437:fips202.c     **** *
 438:fips202.c     **** * Description: Squeeze step of SHAKE128 XOF. Squeezes full blocks of
 439:fips202.c     **** *              SHAKE128_RATE bytes each. Modifies the state. Can be called
 440:fips202.c     **** *              multiple times to keep squeezing, i.e., is incremental.
 441:fips202.c     **** *
 442:fips202.c     **** * Arguments:   - uint8_t *out:    pointer to output blocks
 443:fips202.c     **** *              - size_t nblocks:  number of blocks to be squeezed
 444:fips202.c     **** *                                 (written to output)
 445:fips202.c     **** *              - keccak_state *s: pointer to input/output Keccak state
 446:fips202.c     **** **************************************************/
 447:fips202.c     **** void shake128_squeezeblocks(uint8_t *out, size_t nblocks, keccak_state *state)
 448:fips202.c     **** {
 3085              	 .loc 1 448 1 is_stmt 1 view-0
 3086              	 .cfi_startproc
 3087              	 
 3088              	 
 3089              	 
 449:fips202.c     ****   keccak_squeezeblocks(out, nblocks, state->s, SHAKE128_RATE);
 3090              	 .loc 1 449 3 view .LVU1094
 448:fips202.c     ****   keccak_squeezeblocks(out, nblocks, state->s, SHAKE128_RATE);
 3091              	 .loc 1 448 1 is_stmt 0 view .LVU1095
 3092 0000 10B4     	 push {r4}
 3093              	.LCFI10:
 3094              	 .cfi_def_cfa_offset 4
 3095              	 .cfi_offset 4,-4
 3096              	 .loc 1 449 3 view .LVU1096
 3097 0002 024C     	 ldr r4,.L37
 3098 0004 A823     	 movs r3,#168
 3099 0006 A446     	 mov ip,r4
 450:fips202.c     **** }
 3100              	 .loc 1 450 1 view .LVU1097
 3101 0008 10BC     	 pop {r4}
 3102              	.LCFI11:
 3103              	 .cfi_restore 4
 3104              	 .cfi_def_cfa_offset 0
 449:fips202.c     ****   keccak_squeezeblocks(out, nblocks, state->s, SHAKE128_RATE);
 3105              	 .loc 1 449 3 view .LVU1098
 3106 000a 6047     	 bx ip
 3107              	.LVL391:
 3108              	.L38:
 449:fips202.c     ****   keccak_squeezeblocks(out, nblocks, state->s, SHAKE128_RATE);
 3109              	 .loc 1 449 3 view .LVU1099
 3110              	 .align 2
 3111              	.L37:
 3112 000c 00000000 	 .word keccak_squeezeblocks
 3113              	 .cfi_endproc
 3114              	.LFE6:
 3116              	 .section .text.crypto_kem_kyber1024_ref_shake256_absorb,"ax",%progbits
 3117              	 .align 1
 3118              	 .global crypto_kem_kyber1024_ref_shake256_absorb
 3119              	 .syntax unified
 3120              	 .thumb
 3121              	 .thumb_func
 3123              	crypto_kem_kyber1024_ref_shake256_absorb:
 3124              	.LVL392:
 3125              	.LFB7:
 451:fips202.c     **** 
 452:fips202.c     **** /*************************************************
 453:fips202.c     **** * Name:        shake256_absorb
 454:fips202.c     **** *
 455:fips202.c     **** * Description: Absorb step of the SHAKE256 XOF.
 456:fips202.c     **** *              non-incremental, starts by zeroeing the state.
 457:fips202.c     **** *
 458:fips202.c     **** * Arguments:   - keccak_state *s:   pointer to (uninitialized) output Keccak state
 459:fips202.c     **** *              - const uint8_t *in: pointer to input to be absorbed into s
 460:fips202.c     **** *              - size_t inlen:      length of input in bytes
 461:fips202.c     **** **************************************************/
 462:fips202.c     **** void shake256_absorb(keccak_state *state, const uint8_t *in, size_t inlen)
 463:fips202.c     **** {
 3126              	 .loc 1 463 1 is_stmt 1 view-0
 3127              	 .cfi_startproc
 3128              	 
 3129              	 
 464:fips202.c     ****   keccak_absorb(state->s, SHAKE256_RATE, in, inlen, 0x1F);
 3130              	 .loc 1 464 3 view .LVU1101
 463:fips202.c     ****   keccak_absorb(state->s, SHAKE256_RATE, in, inlen, 0x1F);
 3131              	 .loc 1 463 1 is_stmt 0 view .LVU1102
 3132 0000 13B5     	 push {r0,r1,r4,lr}
 3133              	.LCFI12:
 3134              	 .cfi_def_cfa_offset 16
 3135              	 .cfi_offset 4,-8
 3136              	 .cfi_offset 14,-4
 463:fips202.c     ****   keccak_absorb(state->s, SHAKE256_RATE, in, inlen, 0x1F);
 3137              	 .loc 1 463 1 view .LVU1103
 3138 0002 1346     	 mov r3,r2
 3139              	 .loc 1 464 3 view .LVU1104
 3140 0004 1F22     	 movs r2,#31
 3141              	.LVL393:
 3142              	 .loc 1 464 3 view .LVU1105
 3143 0006 0092     	 str r2,[sp]
 3144 0008 024C     	 ldr r4,.L40
 3145 000a 0A46     	 mov r2,r1
 3146 000c 8821     	 movs r1,#136
 3147              	.LVL394:
 3148              	 .loc 1 464 3 view .LVU1106
 3149 000e A047     	 blx r4
 3150              	.LVL395:
 465:fips202.c     **** }
 3151              	 .loc 1 465 1 view .LVU1107
 3152 0010 02B0     	 add sp,sp,#8
 3153              	.LCFI13:
 3154              	 .cfi_def_cfa_offset 8
 3155              	 
 3156 0012 10BD     	 pop {r4,pc}
 3157              	.L41:
 3158              	 .align 2
 3159              	.L40:
 3160 0014 00000000 	 .word keccak_absorb
 3161              	 .cfi_endproc
 3162              	.LFE7:
 3164              	 .section .text.crypto_kem_kyber1024_ref_shake256_squeezeblocks,"ax",%progbits
 3165              	 .align 1
 3166              	 .global crypto_kem_kyber1024_ref_shake256_squeezeblocks
 3167              	 .syntax unified
 3168              	 .thumb
 3169              	 .thumb_func
 3171              	crypto_kem_kyber1024_ref_shake256_squeezeblocks:
 3172              	.LVL396:
 3173              	.LFB8:
 466:fips202.c     **** 
 467:fips202.c     **** /*************************************************
 468:fips202.c     **** * Name:        shake256_squeezeblocks
 469:fips202.c     **** *
 470:fips202.c     **** * Description: Squeeze step of SHAKE256 XOF. Squeezes full blocks of
 471:fips202.c     **** *              SHAKE256_RATE bytes each. Modifies the state. Can be called
 472:fips202.c     **** *              multiple times to keep squeezing, i.e., is incremental.
 473:fips202.c     **** *
 474:fips202.c     **** * Arguments:   - uint8_t *out:    pointer to output blocks
 475:fips202.c     **** *              - size_t nblocks:  number of blocks to be squeezed
 476:fips202.c     **** *                                 (written to output)
 477:fips202.c     **** *              - keccak_State *s: pointer to input/output Keccak state
 478:fips202.c     **** **************************************************/
 479:fips202.c     **** void shake256_squeezeblocks(uint8_t *out, size_t nblocks, keccak_state *state)
 480:fips202.c     **** {
 3174              	 .loc 1 480 1 is_stmt 1 view-0
 3175              	 .cfi_startproc
 3176              	 
 3177              	 
 3178              	 
 481:fips202.c     ****   keccak_squeezeblocks(out, nblocks, state->s, SHAKE256_RATE);
 3179              	 .loc 1 481 3 view .LVU1109
 480:fips202.c     ****   keccak_squeezeblocks(out, nblocks, state->s, SHAKE256_RATE);
 3180              	 .loc 1 480 1 is_stmt 0 view .LVU1110
 3181 0000 10B4     	 push {r4}
 3182              	.LCFI14:
 3183              	 .cfi_def_cfa_offset 4
 3184              	 .cfi_offset 4,-4
 3185              	 .loc 1 481 3 view .LVU1111
 3186 0002 024C     	 ldr r4,.L43
 3187 0004 8823     	 movs r3,#136
 3188 0006 A446     	 mov ip,r4
 482:fips202.c     **** }
 3189              	 .loc 1 482 1 view .LVU1112
 3190 0008 10BC     	 pop {r4}
 3191              	.LCFI15:
 3192              	 .cfi_restore 4
 3193              	 .cfi_def_cfa_offset 0
 481:fips202.c     ****   keccak_squeezeblocks(out, nblocks, state->s, SHAKE256_RATE);
 3194              	 .loc 1 481 3 view .LVU1113
 3195 000a 6047     	 bx ip
 3196              	.LVL397:
 3197              	.L44:
 481:fips202.c     ****   keccak_squeezeblocks(out, nblocks, state->s, SHAKE256_RATE);
 3198              	 .loc 1 481 3 view .LVU1114
 3199              	 .align 2
 3200              	.L43:
 3201 000c 00000000 	 .word keccak_squeezeblocks
 3202              	 .cfi_endproc
 3203              	.LFE8:
 3205              	 .section .text.crypto_kem_kyber1024_ref_shake128,"ax",%progbits
 3206              	 .align 1
 3207              	 .global crypto_kem_kyber1024_ref_shake128
 3208              	 .syntax unified
 3209              	 .thumb
 3210              	 .thumb_func
 3212              	crypto_kem_kyber1024_ref_shake128:
 3213              	.LVL398:
 3214              	.LFB9:
 483:fips202.c     **** 
 484:fips202.c     **** /*************************************************
 485:fips202.c     **** * Name:        shake128
 486:fips202.c     **** *
 487:fips202.c     **** * Description: SHAKE128 XOF with non-incremental API
 488:fips202.c     **** *
 489:fips202.c     **** * Arguments:   - uint8_t *out:      pointer to output
 490:fips202.c     **** *              - size_t outlen:     requested output length in bytes
 491:fips202.c     **** *              - const uint8_t *in: pointer to input
 492:fips202.c     **** *              - size_t inlen:      length of input in bytes
 493:fips202.c     **** **************************************************/
 494:fips202.c     **** void shake128(uint8_t *out, size_t outlen, const uint8_t *in, size_t inlen)
 495:fips202.c     **** {
 3215              	 .loc 1 495 1 is_stmt 1 view-0
 3216              	 .cfi_startproc
 3217              	 
 3218              	 
 496:fips202.c     ****   unsigned int i;
 3219              	 .loc 1 496 3 view .LVU1116
 497:fips202.c     ****   size_t nblocks = outlen/SHAKE128_RATE;
 3220              	 .loc 1 497 3 view .LVU1117
 495:fips202.c     ****   unsigned int i;
 3221              	 .loc 1 495 1 is_stmt 0 view .LVU1118
 3222 0000 2DE9F041 	 push {r4,r5,r6,r7,r8,lr}
 3223              	.LCFI16:
 3224              	 .cfi_def_cfa_offset 24
 3225              	 .cfi_offset 4,-24
 3226              	 .cfi_offset 5,-20
 3227              	 .cfi_offset 6,-16
 3228              	 .cfi_offset 7,-12
 3229              	 .cfi_offset 8,-8
 3230              	 .cfi_offset 14,-4
 3231              	 .loc 1 497 10 view .LVU1119
 3232 0004 4FF0A808 	 mov r8,#168
 495:fips202.c     ****   unsigned int i;
 3233              	 .loc 1 495 1 view .LVU1120
 3234 0008 DCB0     	 sub sp,sp,#368
 3235              	.LCFI17:
 3236              	 .cfi_def_cfa_offset 392
 495:fips202.c     ****   unsigned int i;
 3237              	 .loc 1 495 1 view .LVU1121
 3238 000a 0C46     	 mov r4,r1
 3239 000c 0646     	 mov r6,r0
 3240 000e 1146     	 mov r1,r2
 3241              	.LVL399:
 498:fips202.c     ****   uint8_t t[SHAKE128_RATE];
 499:fips202.c     ****   keccak_state state;
 500:fips202.c     **** 
 501:fips202.c     ****   shake128_absorb(&state, in, inlen);
 3242              	 .loc 1 501 3 view .LVU1122
 3243 0010 0DEB0800 	 add r0,sp,r8
 3244              	.LVL400:
 3245              	 .loc 1 501 3 view .LVU1123
 3246 0014 1A46     	 mov r2,r3
 3247              	.LVL401:
 3248              	 .loc 1 501 3 view .LVU1124
 3249 0016 0D4B     	 ldr r3,.L50
 3250              	.LVL402:
 497:fips202.c     ****   uint8_t t[SHAKE128_RATE];
 3251              	 .loc 1 497 10 view .LVU1125
 3252 0018 B4FBF8F5 	 udiv r5,r4,r8
 3253              	.LVL403:
 498:fips202.c     ****   uint8_t t[SHAKE128_RATE];
 3254              	 .loc 1 498 3 is_stmt 1 view .LVU1126
 499:fips202.c     **** 
 3255              	 .loc 1 499 3 view .LVU1127
 3256              	 .loc 1 501 3 view .LVU1128
 3257 001c 9847     	 blx r3
 3258              	.LVL404:
 502:fips202.c     ****   shake128_squeezeblocks(out, nblocks, &state);
 3259              	 .loc 1 502 3 view .LVU1129
 3260 001e 0C4F     	 ldr r7,.L50+4
 3261 0020 2946     	 mov r1,r5
 3262 0022 0DEB0802 	 add r2,sp,r8
 3263 0026 3046     	 mov r0,r6
 3264 0028 08FB05F5 	 mul r5,r8,r5
 3265              	.LVL405:
 3266              	 .loc 1 502 3 is_stmt 0 view .LVU1130
 3267 002c B847     	 blx r7
 3268              	.LVL406:
 503:fips202.c     **** 
 504:fips202.c     ****   out += nblocks*SHAKE128_RATE;
 3269              	 .loc 1 504 3 is_stmt 1 view .LVU1131
 505:fips202.c     ****   outlen -= nblocks*SHAKE128_RATE;
 3270              	 .loc 1 505 3 view .LVU1132
 506:fips202.c     **** 
 507:fips202.c     ****   if(outlen) {
 3271              	 .loc 1 507 3 view .LVU1133
 3272              	 .loc 1 507 5 is_stmt 0 view .LVU1134
 3273 002e 641B     	 subs r4,r4,r5
 3274              	.LVL407:
 3275              	 .loc 1 507 5 view .LVU1135
 3276 0030 09D0     	 beq .L45
 508:fips202.c     ****     shake128_squeezeblocks(t, 1, &state);
 3277              	 .loc 1 508 5 is_stmt 1 view .LVU1136
 3278 0032 0DEB0802 	 add r2,sp,r8
 3279 0036 0121     	 movs r1,#1
 3280 0038 6846     	 mov r0,sp
 3281 003a B847     	 blx r7
 3282              	.LVL408:
 509:fips202.c     ****     for(i=0;i<outlen;i++)
 3283              	 .loc 1 509 5 view .LVU1137
 3284              	 .loc 1 509 14 discriminator 1 view .LVU1138
 510:fips202.c     ****       out[i] = t[i];
 3285              	 .loc 1 510 14 is_stmt 0 view .LVU1139
 3286 003c 054B     	 ldr r3,.L50+8
 3287 003e 2246     	 mov r2,r4
 3288 0040 6946     	 mov r1,sp
 3289 0042 7019     	 adds r0,r6,r5
 3290 0044 9847     	 blx r3
 3291              	.LVL409:
 3292              	.L45:
 511:fips202.c     ****   }
 512:fips202.c     **** }
 3293              	 .loc 1 512 1 view .LVU1140
 3294 0046 5CB0     	 add sp,sp,#368
 3295              	.LCFI18:
 3296              	 .cfi_def_cfa_offset 24
 3297              	 
 3298 0048 BDE8F081 	 pop {r4,r5,r6,r7,r8,pc}
 3299              	.LVL410:
 3300              	.L51:
 3301              	 .loc 1 512 1 view .LVU1141
 3302              	 .align 2
 3303              	.L50:
 3304 004c 00000000 	 .word crypto_kem_kyber1024_ref_shake128_absorb
 3305 0050 00000000 	 .word crypto_kem_kyber1024_ref_shake128_squeezeblocks
 3306 0054 00000000 	 .word memcpy
 3307              	 .cfi_endproc
 3308              	.LFE9:
 3310              	 .section .text.crypto_kem_kyber1024_ref_shake256,"ax",%progbits
 3311              	 .align 1
 3312              	 .global crypto_kem_kyber1024_ref_shake256
 3313              	 .syntax unified
 3314              	 .thumb
 3315              	 .thumb_func
 3317              	crypto_kem_kyber1024_ref_shake256:
 3318              	.LVL411:
 3319              	.LFB10:
 513:fips202.c     **** 
 514:fips202.c     **** /*************************************************
 515:fips202.c     **** * Name:        shake256
 516:fips202.c     **** *
 517:fips202.c     **** * Description: SHAKE256 XOF with non-incremental API
 518:fips202.c     **** *
 519:fips202.c     **** * Arguments:   - uint8_t *out:      pointer to output
 520:fips202.c     **** *              - size_t outlen:     requested output length in bytes
 521:fips202.c     **** *              - const uint8_t *in: pointer to input
 522:fips202.c     **** *              - size_t inlen:      length of input in bytes
 523:fips202.c     **** **************************************************/
 524:fips202.c     **** void shake256(uint8_t *out, size_t outlen, const uint8_t *in, size_t inlen)
 525:fips202.c     **** {
 3320              	 .loc 1 525 1 is_stmt 1 view-0
 3321              	 .cfi_startproc
 3322              	 
 3323              	 
 526:fips202.c     ****   unsigned int i;
 3324              	 .loc 1 526 3 view .LVU1143
 527:fips202.c     ****   size_t nblocks = outlen/SHAKE256_RATE;
 3325              	 .loc 1 527 3 view .LVU1144
 525:fips202.c     ****   unsigned int i;
 3326              	 .loc 1 525 1 is_stmt 0 view .LVU1145
 3327 0000 2DE9F041 	 push {r4,r5,r6,r7,r8,lr}
 3328              	.LCFI19:
 3329              	 .cfi_def_cfa_offset 24
 3330              	 .cfi_offset 4,-24
 3331              	 .cfi_offset 5,-20
 3332              	 .cfi_offset 6,-16
 3333              	 .cfi_offset 7,-12
 3334              	 .cfi_offset 8,-8
 3335              	 .cfi_offset 14,-4
 3336              	 .loc 1 527 10 view .LVU1146
 3337 0004 4FF08808 	 mov r8,#136
 525:fips202.c     ****   unsigned int i;
 3338              	 .loc 1 525 1 view .LVU1147
 3339 0008 D4B0     	 sub sp,sp,#336
 3340              	.LCFI20:
 3341              	 .cfi_def_cfa_offset 360
 525:fips202.c     ****   unsigned int i;
 3342              	 .loc 1 525 1 view .LVU1148
 3343 000a 0C46     	 mov r4,r1
 3344 000c 0646     	 mov r6,r0
 3345 000e 1146     	 mov r1,r2
 3346              	.LVL412:
 528:fips202.c     ****   uint8_t t[SHAKE256_RATE];
 529:fips202.c     ****   keccak_state state;
 530:fips202.c     **** 
 531:fips202.c     ****   shake256_absorb(&state, in, inlen);
 3347              	 .loc 1 531 3 view .LVU1149
 3348 0010 0DEB0800 	 add r0,sp,r8
 3349              	.LVL413:
 3350              	 .loc 1 531 3 view .LVU1150
 3351 0014 1A46     	 mov r2,r3
 3352              	.LVL414:
 3353              	 .loc 1 531 3 view .LVU1151
 3354 0016 0D4B     	 ldr r3,.L57
 3355              	.LVL415:
 527:fips202.c     ****   uint8_t t[SHAKE256_RATE];
 3356              	 .loc 1 527 10 view .LVU1152
 3357 0018 B4FBF8F5 	 udiv r5,r4,r8
 3358              	.LVL416:
 528:fips202.c     ****   uint8_t t[SHAKE256_RATE];
 3359              	 .loc 1 528 3 is_stmt 1 view .LVU1153
 529:fips202.c     **** 
 3360              	 .loc 1 529 3 view .LVU1154
 3361              	 .loc 1 531 3 view .LVU1155
 3362 001c 9847     	 blx r3
 3363              	.LVL417:
 532:fips202.c     ****   shake256_squeezeblocks(out, nblocks, &state);
 3364              	 .loc 1 532 3 view .LVU1156
 3365 001e 0C4F     	 ldr r7,.L57+4
 3366 0020 2946     	 mov r1,r5
 3367 0022 0DEB0802 	 add r2,sp,r8
 3368 0026 3046     	 mov r0,r6
 3369 0028 08FB05F5 	 mul r5,r8,r5
 3370              	.LVL418:
 3371              	 .loc 1 532 3 is_stmt 0 view .LVU1157
 3372 002c B847     	 blx r7
 3373              	.LVL419:
 533:fips202.c     **** 
 534:fips202.c     ****   out += nblocks*SHAKE256_RATE;
 3374              	 .loc 1 534 3 is_stmt 1 view .LVU1158
 535:fips202.c     ****   outlen -= nblocks*SHAKE256_RATE;
 3375              	 .loc 1 535 3 view .LVU1159
 536:fips202.c     **** 
 537:fips202.c     ****   if(outlen) {
 3376              	 .loc 1 537 3 view .LVU1160
 3377              	 .loc 1 537 5 is_stmt 0 view .LVU1161
 3378 002e 641B     	 subs r4,r4,r5
 3379              	.LVL420:
 3380              	 .loc 1 537 5 view .LVU1162
 3381 0030 09D0     	 beq .L52
 538:fips202.c     ****     shake256_squeezeblocks(t, 1, &state);
 3382              	 .loc 1 538 5 is_stmt 1 view .LVU1163
 3383 0032 0DEB0802 	 add r2,sp,r8
 3384 0036 0121     	 movs r1,#1
 3385 0038 6846     	 mov r0,sp
 3386 003a B847     	 blx r7
 3387              	.LVL421:
 539:fips202.c     ****     for(i=0;i<outlen;i++)
 3388              	 .loc 1 539 5 view .LVU1164
 3389              	 .loc 1 539 14 discriminator 1 view .LVU1165
 540:fips202.c     ****       out[i] = t[i];
 3390              	 .loc 1 540 14 is_stmt 0 view .LVU1166
 3391 003c 054B     	 ldr r3,.L57+8
 3392 003e 2246     	 mov r2,r4
 3393 0040 6946     	 mov r1,sp
 3394 0042 7019     	 adds r0,r6,r5
 3395 0044 9847     	 blx r3
 3396              	.LVL422:
 3397              	.L52:
 541:fips202.c     ****   }
 542:fips202.c     **** }
 3398              	 .loc 1 542 1 view .LVU1167
 3399 0046 54B0     	 add sp,sp,#336
 3400              	.LCFI21:
 3401              	 .cfi_def_cfa_offset 24
 3402              	 
 3403 0048 BDE8F081 	 pop {r4,r5,r6,r7,r8,pc}
 3404              	.LVL423:
 3405              	.L58:
 3406              	 .loc 1 542 1 view .LVU1168
 3407              	 .align 2
 3408              	.L57:
 3409 004c 00000000 	 .word crypto_kem_kyber1024_ref_shake256_absorb
 3410 0050 00000000 	 .word crypto_kem_kyber1024_ref_shake256_squeezeblocks
 3411 0054 00000000 	 .word memcpy
 3412              	 .cfi_endproc
 3413              	.LFE10:
 3415              	 .section .text.crypto_kem_kyber1024_ref_sha3_256,"ax",%progbits
 3416              	 .align 1
 3417              	 .global crypto_kem_kyber1024_ref_sha3_256
 3418              	 .syntax unified
 3419              	 .thumb
 3420              	 .thumb_func
 3422              	crypto_kem_kyber1024_ref_sha3_256:
 3423              	.LVL424:
 3424              	.LFB11:
 543:fips202.c     **** 
 544:fips202.c     **** /*************************************************
 545:fips202.c     **** * Name:        sha3_256
 546:fips202.c     **** *
 547:fips202.c     **** * Description: SHA3-256 with non-incremental API
 548:fips202.c     **** *
 549:fips202.c     **** * Arguments:   - uint8_t *h:        pointer to output (32 bytes)
 550:fips202.c     **** *              - const uint8_t *in: pointer to input
 551:fips202.c     **** *              - size_t inlen:      length of input in bytes
 552:fips202.c     **** **************************************************/
 553:fips202.c     **** void sha3_256(uint8_t h[32], const uint8_t *in, size_t inlen)
 554:fips202.c     **** {
 3425              	 .loc 1 554 1 is_stmt 1 view-0
 3426              	 .cfi_startproc
 3427              	 
 3428              	 
 555:fips202.c     ****   unsigned int i;
 3429              	 .loc 1 555 3 view .LVU1170
 556:fips202.c     ****   uint64_t s[25];
 3430              	 .loc 1 556 3 view .LVU1171
 557:fips202.c     ****   uint8_t t[SHA3_256_RATE];
 3431              	 .loc 1 557 3 view .LVU1172
 558:fips202.c     **** 
 559:fips202.c     ****   keccak_absorb(s, SHA3_256_RATE, in, inlen, 0x06);
 3432              	 .loc 1 559 3 view .LVU1173
 554:fips202.c     ****   unsigned int i;
 3433              	 .loc 1 554 1 is_stmt 0 view .LVU1174
 3434 0000 30B5     	 push {r4,r5,lr}
 3435              	.LCFI22:
 3436              	 .cfi_def_cfa_offset 12
 3437              	 .cfi_offset 4,-12
 3438              	 .cfi_offset 5,-8
 3439              	 .cfi_offset 14,-4
 3440 0002 D7B0     	 sub sp,sp,#348
 3441              	.LCFI23:
 3442              	 .cfi_def_cfa_offset 360
 554:fips202.c     ****   unsigned int i;
 3443              	 .loc 1 554 1 view .LVU1175
 3444 0004 1346     	 mov r3,r2
 3445              	 .loc 1 559 3 view .LVU1176
 3446 0006 0622     	 movs r2,#6
 3447              	.LVL425:
 3448              	 .loc 1 559 3 view .LVU1177
 3449 0008 0D4D     	 ldr r5,.L62
 3450 000a 0092     	 str r2,[sp]
 554:fips202.c     ****   unsigned int i;
 3451              	 .loc 1 554 1 view .LVU1178
 3452 000c 0446     	 mov r4,r0
 3453              	 .loc 1 559 3 view .LVU1179
 3454 000e 0A46     	 mov r2,r1
 3455 0010 24A8     	 add r0,sp,#144
 3456              	.LVL426:
 3457              	 .loc 1 559 3 view .LVU1180
 3458 0012 8821     	 movs r1,#136
 3459              	.LVL427:
 3460              	 .loc 1 559 3 view .LVU1181
 3461 0014 A847     	 blx r5
 3462              	.LVL428:
 560:fips202.c     ****   keccak_squeezeblocks(t, 1, s, SHA3_256_RATE);
 3463              	 .loc 1 560 3 is_stmt 1 view .LVU1182
 3464 0016 0B4D     	 ldr r5,.L62+4
 3465 0018 8823     	 movs r3,#136
 3466 001a 24AA     	 add r2,sp,#144
 3467 001c 0121     	 movs r1,#1
 3468 001e 02A8     	 add r0,sp,#8
 3469 0020 A847     	 blx r5
 3470              	.LVL429:
 561:fips202.c     **** 
 562:fips202.c     ****   for(i=0;i<32;i++)
 3471              	 .loc 1 562 3 view .LVU1183
 3472              	 .loc 1 562 12 discriminator 1 view .LVU1184
 563:fips202.c     ****     h[i] = t[i];
 3473              	 .loc 1 563 10 is_stmt 0 view .LVU1185
 3474 0022 02AA     	 add r2,sp,#8
 3475 0024 2346     	 mov r3,r4
 3476 0026 0AAD     	 add r5,sp,#40
 3477              	.LVL430:
 3478              	.L60:
 3479              	 .loc 1 563 10 view .LVU1186
 3480 0028 1446     	 mov r4,r2
 3481 002a 03CC     	 ldmia r4!,{r0,r1}
 3482 002c AC42     	 cmp r4,r5
 3483 002e 1860     	 str r0,[r3]
 3484 0030 5960     	 str r1,[r3,#4]
 3485 0032 2246     	 mov r2,r4
 3486 0034 03F10803 	 add r3,r3,#8
 3487 0038 F6D1     	 bne .L60
 564:fips202.c     **** }
 3488              	 .loc 1 564 1 view .LVU1187
 3489 003a 57B0     	 add sp,sp,#348
 3490              	.LCFI24:
 3491              	 .cfi_def_cfa_offset 12
 3492              	 
 3493 003c 30BD     	 pop {r4,r5,pc}
 3494              	.L63:
 3495 003e 00BF     	 .align 2
 3496              	.L62:
 3497 0040 00000000 	 .word keccak_absorb
 3498 0044 00000000 	 .word keccak_squeezeblocks
 3499              	 .cfi_endproc
 3500              	.LFE11:
 3502              	 .section .text.crypto_kem_kyber1024_ref_sha3_512,"ax",%progbits
 3503              	 .align 1
 3504              	 .global crypto_kem_kyber1024_ref_sha3_512
 3505              	 .syntax unified
 3506              	 .thumb
 3507              	 .thumb_func
 3509              	crypto_kem_kyber1024_ref_sha3_512:
 3510              	.LVL431:
 3511              	.LFB12:
 565:fips202.c     **** 
 566:fips202.c     **** /*************************************************
 567:fips202.c     **** * Name:        sha3_512
 568:fips202.c     **** *
 569:fips202.c     **** * Description: SHA3-512 with non-incremental API
 570:fips202.c     **** *
 571:fips202.c     **** * Arguments:   - uint8_t *h:        pointer to output (64 bytes)
 572:fips202.c     **** *              - const uint8_t *in: pointer to input
 573:fips202.c     **** *              - size_t inlen:      length of input in bytes
 574:fips202.c     **** **************************************************/
 575:fips202.c     **** void sha3_512(uint8_t *h, const uint8_t *in, size_t inlen)
 576:fips202.c     **** {
 3512              	 .loc 1 576 1 is_stmt 1 view-0
 3513              	 .cfi_startproc
 3514              	 
 3515              	 
 577:fips202.c     ****   unsigned int i;
 3516              	 .loc 1 577 3 view .LVU1189
 578:fips202.c     ****   uint64_t s[25];
 3517              	 .loc 1 578 3 view .LVU1190
 579:fips202.c     ****   uint8_t t[SHA3_512_RATE];
 3518              	 .loc 1 579 3 view .LVU1191
 580:fips202.c     **** 
 581:fips202.c     ****   keccak_absorb(s, SHA3_512_RATE, in, inlen, 0x06);
 3519              	 .loc 1 581 3 view .LVU1192
 576:fips202.c     ****   unsigned int i;
 3520              	 .loc 1 576 1 is_stmt 0 view .LVU1193
 3521 0000 30B5     	 push {r4,r5,lr}
 3522              	.LCFI25:
 3523              	 .cfi_def_cfa_offset 12
 3524              	 .cfi_offset 4,-12
 3525              	 .cfi_offset 5,-8
 3526              	 .cfi_offset 14,-4
 3527 0002 C7B0     	 sub sp,sp,#284
 3528              	.LCFI26:
 3529              	 .cfi_def_cfa_offset 296
 576:fips202.c     ****   unsigned int i;
 3530              	 .loc 1 576 1 view .LVU1194
 3531 0004 1346     	 mov r3,r2
 3532              	 .loc 1 581 3 view .LVU1195
 3533 0006 0622     	 movs r2,#6
 3534              	.LVL432:
 3535              	 .loc 1 581 3 view .LVU1196
 3536 0008 0D4D     	 ldr r5,.L67
 3537 000a 0092     	 str r2,[sp]
 576:fips202.c     ****   unsigned int i;
 3538              	 .loc 1 576 1 view .LVU1197
 3539 000c 0446     	 mov r4,r0
 3540              	 .loc 1 581 3 view .LVU1198
 3541 000e 0A46     	 mov r2,r1
 3542 0010 14A8     	 add r0,sp,#80
 3543              	.LVL433:
 3544              	 .loc 1 581 3 view .LVU1199
 3545 0012 4821     	 movs r1,#72
 3546              	.LVL434:
 3547              	 .loc 1 581 3 view .LVU1200
 3548 0014 A847     	 blx r5
 3549              	.LVL435:
 582:fips202.c     ****   keccak_squeezeblocks(t, 1, s, SHA3_512_RATE);
 3550              	 .loc 1 582 3 is_stmt 1 view .LVU1201
 3551 0016 0B4D     	 ldr r5,.L67+4
 3552 0018 4823     	 movs r3,#72
 3553 001a 14AA     	 add r2,sp,#80
 3554 001c 0121     	 movs r1,#1
 3555 001e 02A8     	 add r0,sp,#8
 3556 0020 A847     	 blx r5
 3557              	.LVL436:
 583:fips202.c     **** 
 584:fips202.c     ****   for(i=0;i<64;i++)
 3558              	 .loc 1 584 3 view .LVU1202
 3559              	 .loc 1 584 12 discriminator 1 view .LVU1203
 585:fips202.c     ****     h[i] = t[i];
 3560              	 .loc 1 585 10 is_stmt 0 view .LVU1204
 3561 0022 02AA     	 add r2,sp,#8
 3562 0024 2346     	 mov r3,r4
 3563 0026 12AD     	 add r5,sp,#72
 3564              	.LVL437:
 3565              	.L65:
 3566              	 .loc 1 585 10 view .LVU1205
 3567 0028 1446     	 mov r4,r2
 3568 002a 03CC     	 ldmia r4!,{r0,r1}
 3569 002c AC42     	 cmp r4,r5
 3570 002e 1860     	 str r0,[r3]
 3571 0030 5960     	 str r1,[r3,#4]
 3572 0032 2246     	 mov r2,r4
 3573 0034 03F10803 	 add r3,r3,#8
 3574 0038 F6D1     	 bne .L65
 586:fips202.c     **** }
 3575              	 .loc 1 586 1 view .LVU1206
 3576 003a 47B0     	 add sp,sp,#284
 3577              	.LCFI27:
 3578              	 .cfi_def_cfa_offset 12
 3579              	 
 3580 003c 30BD     	 pop {r4,r5,pc}
 3581              	.L68:
 3582 003e 00BF     	 .align 2
 3583              	.L67:
 3584 0040 00000000 	 .word keccak_absorb
 3585 0044 00000000 	 .word keccak_squeezeblocks
 3586              	 .cfi_endproc
 3587              	.LFE12:
 3589              	 .section .rodata.KeccakF_RoundConstants,"a"
 3590              	 .align 3
 3593              	KeccakF_RoundConstants:
 3594 0000 01000000 	 .word 1
 3595 0004 00000000 	 .word 0
 3596 0008 82800000 	 .word 32898
 3597 000c 00000000 	 .word 0
 3598 0010 8A800000 	 .word 32906
 3599 0014 00000080 	 .word -2147483648
 3600 0018 00800080 	 .word -2147450880
 3601 001c 00000080 	 .word -2147483648
 3602 0020 8B800000 	 .word 32907
 3603 0024 00000000 	 .word 0
 3604 0028 01000080 	 .word -2147483647
 3605 002c 00000000 	 .word 0
 3606 0030 81800080 	 .word -2147450751
 3607 0034 00000080 	 .word -2147483648
 3608 0038 09800000 	 .word 32777
 3609 003c 00000080 	 .word -2147483648
 3610 0040 8A000000 	 .word 138
 3611 0044 00000000 	 .word 0
 3612 0048 88000000 	 .word 136
 3613 004c 00000000 	 .word 0
 3614 0050 09800080 	 .word -2147450871
 3615 0054 00000000 	 .word 0
 3616 0058 0A000080 	 .word -2147483638
 3617 005c 00000000 	 .word 0
 3618 0060 8B800080 	 .word -2147450741
 3619 0064 00000000 	 .word 0
 3620 0068 8B000000 	 .word 139
 3621 006c 00000080 	 .word -2147483648
 3622 0070 89800000 	 .word 32905
 3623 0074 00000080 	 .word -2147483648
 3624 0078 03800000 	 .word 32771
 3625 007c 00000080 	 .word -2147483648
 3626 0080 02800000 	 .word 32770
 3627 0084 00000080 	 .word -2147483648
 3628 0088 80000000 	 .word 128
 3629 008c 00000080 	 .word -2147483648
 3630 0090 0A800000 	 .word 32778
 3631 0094 00000000 	 .word 0
 3632 0098 0A000080 	 .word -2147483638
 3633 009c 00000080 	 .word -2147483648
 3634 00a0 81800080 	 .word -2147450751
 3635 00a4 00000080 	 .word -2147483648
 3636 00a8 80800000 	 .word 32896
 3637 00ac 00000080 	 .word -2147483648
 3638 00b0 01000080 	 .word -2147483647
 3639 00b4 00000000 	 .word 0
 3640 00b8 08800080 	 .word -2147450872
 3641 00bc 00000080 	 .word -2147483648
 3642              	 .text
 3643              	.Letext0:
 3644              	 .file 2 "/usr/lib/gcc/arm-none-eabi/14.2.1/include/stddef.h"
 3645              	 .file 3 "/usr/lib/gcc/arm-none-eabi/14.2.1/include/stdint.h"
 3646              	 .file 4 "fips202.h"
 3647              	 .file 5 "<built-in>"