   1              	 .cpu cortex-m4
   2              	 .arch armv7e-m
   3              	 .fpu softvfp
   4              	 .eabi_attribute 20,1
   5              	 .eabi_attribute 21,1
   6              	 .eabi_attribute 23,3
   7              	 .eabi_attribute 24,1
   8              	 .eabi_attribute 25,1
   9              	 .eabi_attribute 26,1
  10              	 .eabi_attribute 30,4
  11              	 .eabi_attribute 34,1
  12              	 .eabi_attribute 18,4
  13              	 .file "pio.c"
  14              	 .text
  15              	.Ltext0:
  16              	 .cfi_sections .debug_frame
  17              	 .file 1 ".././hal//sam4s/pio.c"
  18              	 .section .text.pio_pull_up,"ax",%progbits
  19              	 .align 1
  20              	 .global pio_pull_up
  21              	 .syntax unified
  22              	 .thumb
  23              	 .thumb_func
  25              	pio_pull_up:
  26              	.LVL0:
  27              	.LFB136:
   1:.././hal//sam4s/pio.c **** /**
   2:.././hal//sam4s/pio.c ****  * \file
   3:.././hal//sam4s/pio.c ****  *
   4:.././hal//sam4s/pio.c ****  * \brief Parallel Input/Output (PIO) Controller driver for SAM.
   5:.././hal//sam4s/pio.c ****  *
   6:.././hal//sam4s/pio.c ****  * Copyright (c) 2011-2018 Microchip Technology Inc. and its subsidiaries.
   7:.././hal//sam4s/pio.c ****  *
   8:.././hal//sam4s/pio.c ****  * \asf_license_start
   9:.././hal//sam4s/pio.c ****  *
  10:.././hal//sam4s/pio.c ****  * \page License
  11:.././hal//sam4s/pio.c ****  *
  12:.././hal//sam4s/pio.c ****  * Subject to your compliance with these terms, you may use Microchip
  13:.././hal//sam4s/pio.c ****  * software and any derivatives exclusively with Microchip products.
  14:.././hal//sam4s/pio.c ****  * It is your responsibility to comply with third party license terms applicable
  15:.././hal//sam4s/pio.c ****  * to your use of third party software (including open source software) that
  16:.././hal//sam4s/pio.c ****  * may accompany Microchip software.
  17:.././hal//sam4s/pio.c ****  *
  18:.././hal//sam4s/pio.c ****  * THIS SOFTWARE IS SUPPLIED BY MICROCHIP "AS IS". NO WARRANTIES,
  19:.././hal//sam4s/pio.c ****  * WHETHER EXPRESS, IMPLIED OR STATUTORY, APPLY TO THIS SOFTWARE,
  20:.././hal//sam4s/pio.c ****  * INCLUDING ANY IMPLIED WARRANTIES OF NON-INFRINGEMENT, MERCHANTABILITY,
  21:.././hal//sam4s/pio.c ****  * AND FITNESS FOR A PARTICULAR PURPOSE. IN NO EVENT WILL MICROCHIP BE
  22:.././hal//sam4s/pio.c ****  * LIABLE FOR ANY INDIRECT, SPECIAL, PUNITIVE, INCIDENTAL OR CONSEQUENTIAL
  23:.././hal//sam4s/pio.c ****  * LOSS, DAMAGE, COST OR EXPENSE OF ANY KIND WHATSOEVER RELATED TO THE
  24:.././hal//sam4s/pio.c ****  * SOFTWARE, HOWEVER CAUSED, EVEN IF MICROCHIP HAS BEEN ADVISED OF THE
  25:.././hal//sam4s/pio.c ****  * POSSIBILITY OR THE DAMAGES ARE FORESEEABLE.  TO THE FULLEST EXTENT
  26:.././hal//sam4s/pio.c ****  * ALLOWED BY LAW, MICROCHIP'S TOTAL LIABILITY ON ALL CLAIMS IN ANY WAY
  27:.././hal//sam4s/pio.c ****  * RELATED TO THIS SOFTWARE WILL NOT EXCEED THE AMOUNT OF FEES, IF ANY,
  28:.././hal//sam4s/pio.c ****  * THAT YOU HAVE PAID DIRECTLY TO MICROCHIP FOR THIS SOFTWARE.
  29:.././hal//sam4s/pio.c ****  *
  30:.././hal//sam4s/pio.c ****  * \asf_license_stop
  31:.././hal//sam4s/pio.c ****  *
  32:.././hal//sam4s/pio.c ****  */
  33:.././hal//sam4s/pio.c **** /*
  34:.././hal//sam4s/pio.c ****  * Support and FAQ: visit <a href="https://www.microchip.com/support/">Microchip Support</a>
  35:.././hal//sam4s/pio.c ****  */
  36:.././hal//sam4s/pio.c **** 
  37:.././hal//sam4s/pio.c **** #include "pio.h"
  38:.././hal//sam4s/pio.c **** 
  39:.././hal//sam4s/pio.c **** #ifndef PIO_WPMR_WPKEY_PASSWD
  40:.././hal//sam4s/pio.c **** #  define PIO_WPMR_WPKEY_PASSWD PIO_WPMR_WPKEY(0x50494Fu)
  41:.././hal//sam4s/pio.c **** #endif
  42:.././hal//sam4s/pio.c **** 
  43:.././hal//sam4s/pio.c **** /**
  44:.././hal//sam4s/pio.c ****  * \defgroup sam_drivers_pio_group Peripheral Parallel Input/Output (PIO) Controller
  45:.././hal//sam4s/pio.c ****  *
  46:.././hal//sam4s/pio.c ****  * \par Purpose
  47:.././hal//sam4s/pio.c ****  *
  48:.././hal//sam4s/pio.c ****  * The Parallel Input/Output Controller (PIO) manages up to 32 fully
  49:.././hal//sam4s/pio.c ****  * programmable input/output lines. Each I/O line may be dedicated as a
  50:.././hal//sam4s/pio.c ****  * general-purpose I/O or be assigned to a function of an embedded peripheral.
  51:.././hal//sam4s/pio.c ****  * This assures effective optimization of the pins of a product.
  52:.././hal//sam4s/pio.c ****  *
  53:.././hal//sam4s/pio.c ****  * @{
  54:.././hal//sam4s/pio.c ****  */
  55:.././hal//sam4s/pio.c **** 
  56:.././hal//sam4s/pio.c **** #ifndef FREQ_SLOW_CLOCK_EXT
  57:.././hal//sam4s/pio.c **** /* External slow clock frequency (hz) */
  58:.././hal//sam4s/pio.c **** #define FREQ_SLOW_CLOCK_EXT 32768
  59:.././hal//sam4s/pio.c **** #endif
  60:.././hal//sam4s/pio.c **** 
  61:.././hal//sam4s/pio.c **** /**
  62:.././hal//sam4s/pio.c ****  * \brief Configure PIO internal pull-up.
  63:.././hal//sam4s/pio.c ****  *
  64:.././hal//sam4s/pio.c ****  * \param p_pio Pointer to a PIO instance.
  65:.././hal//sam4s/pio.c ****  * \param ul_mask Bitmask of one or more pin(s) to configure.
  66:.././hal//sam4s/pio.c ****  * \param ul_pull_up_enable Indicates if the pin(s) internal pull-up shall be
  67:.././hal//sam4s/pio.c ****  * configured.
  68:.././hal//sam4s/pio.c ****  */
  69:.././hal//sam4s/pio.c **** void pio_pull_up(Pio *p_pio, const uint32_t ul_mask,
  70:.././hal//sam4s/pio.c **** 		const uint32_t ul_pull_up_enable)
  71:.././hal//sam4s/pio.c **** {
  28              	 .loc 1 71 1 view-0
  29              	 .cfi_startproc
  30              	 
  31              	 
  32              	 
  72:.././hal//sam4s/pio.c **** 	/* Enable the pull-up(s) if necessary */
  73:.././hal//sam4s/pio.c **** 	if (ul_pull_up_enable) {
  33              	 .loc 1 73 2 view .LVU1
  34              	 .loc 1 73 5 is_stmt 0 view .LVU2
  35 0000 0AB1     	 cbz r2,.L2
  74:.././hal//sam4s/pio.c **** 		p_pio->PIO_PUER = ul_mask;
  36              	 .loc 1 74 3 is_stmt 1 view .LVU3
  37              	 .loc 1 74 19 is_stmt 0 view .LVU4
  38 0002 4166     	 str r1,[r0,#100]
  39 0004 7047     	 bx lr
  40              	.L2:
  75:.././hal//sam4s/pio.c **** 	} else {
  76:.././hal//sam4s/pio.c **** 		p_pio->PIO_PUDR = ul_mask;
  41              	 .loc 1 76 3 is_stmt 1 view .LVU5
  42              	 .loc 1 76 19 is_stmt 0 view .LVU6
  43 0006 0166     	 str r1,[r0,#96]
  77:.././hal//sam4s/pio.c **** 	}
  78:.././hal//sam4s/pio.c **** }
  44              	 .loc 1 78 1 view .LVU7
  45 0008 7047     	 bx lr
  46              	 .cfi_endproc
  47              	.LFE136:
  49              	 .section .text.pio_set_debounce_filter,"ax",%progbits
  50              	 .align 1
  51              	 .global pio_set_debounce_filter
  52              	 .syntax unified
  53              	 .thumb
  54              	 .thumb_func
  56              	pio_set_debounce_filter:
  57              	.LVL1:
  58              	.LFB137:
  79:.././hal//sam4s/pio.c **** 
  80:.././hal//sam4s/pio.c **** /**
  81:.././hal//sam4s/pio.c ****  * \brief Configure Glitch or Debouncing filter for the specified input(s).
  82:.././hal//sam4s/pio.c ****  *
  83:.././hal//sam4s/pio.c ****  * \param p_pio Pointer to a PIO instance.
  84:.././hal//sam4s/pio.c ****  * \param ul_mask Bitmask of one or more pin(s) to configure.
  85:.././hal//sam4s/pio.c ****  * \param ul_cut_off Cuts off frequency for debouncing filter.
  86:.././hal//sam4s/pio.c ****  */
  87:.././hal//sam4s/pio.c **** void pio_set_debounce_filter(Pio *p_pio, const uint32_t ul_mask,
  88:.././hal//sam4s/pio.c **** 		const uint32_t ul_cut_off)
  89:.././hal//sam4s/pio.c **** {
  59              	 .loc 1 89 1 is_stmt 1 view-0
  60              	 .cfi_startproc
  61              	 
  62              	 
  63              	 
  90:.././hal//sam4s/pio.c **** #if (SAM3S || SAM3N || SAM4S || SAM4E || SAM4N || SAM4C || SAMG || SAM4CP || SAM4CM || SAMV71 || SA
  91:.././hal//sam4s/pio.c **** 	/* Set Debouncing, 0 bit field no effect */
  92:.././hal//sam4s/pio.c **** 	p_pio->PIO_IFSCER = ul_mask;
  64              	 .loc 1 92 2 view .LVU9
  93:.././hal//sam4s/pio.c **** #elif (SAM3XA || SAM3U)
  94:.././hal//sam4s/pio.c **** 	/* Set Debouncing, 0 bit field no effect */
  95:.././hal//sam4s/pio.c **** 	p_pio->PIO_DIFSR = ul_mask;
  96:.././hal//sam4s/pio.c **** #else
  97:.././hal//sam4s/pio.c **** #error "Unsupported device"
  98:.././hal//sam4s/pio.c **** #endif
  99:.././hal//sam4s/pio.c **** 
 100:.././hal//sam4s/pio.c **** 	/*
 101:.././hal//sam4s/pio.c **** 	 * The debouncing filter can filter a pulse of less than 1/2 Period of a
 102:.././hal//sam4s/pio.c **** 	 * programmable Divided Slow Clock:
 103:.././hal//sam4s/pio.c **** 	 * Tdiv_slclk = ((DIV+1)*2).Tslow_clock
 104:.././hal//sam4s/pio.c **** 	 */
 105:.././hal//sam4s/pio.c **** 	p_pio->PIO_SCDR = PIO_SCDR_DIV((FREQ_SLOW_CLOCK_EXT /
  65              	 .loc 1 105 20 is_stmt 0 view .LVU10
  66 0000 5200     	 lsls r2,r2,#1
  67              	.LVL2:
  68              	 .loc 1 105 20 view .LVU11
  69 0002 4FF40043 	 mov r3,#32768
  70 0006 B3FBF2F3 	 udiv r3,r3,r2
  71 000a 013B     	 subs r3,r3,#1
  72 000c C3F30D03 	 ubfx r3,r3,#0,#14
  92:.././hal//sam4s/pio.c **** #elif (SAM3XA || SAM3U)
  73              	 .loc 1 92 20 view .LVU12
  74 0010 C0F88410 	 str r1,[r0,#132]
  75              	 .loc 1 105 2 is_stmt 1 view .LVU13
  76              	 .loc 1 105 18 is_stmt 0 view .LVU14
  77 0014 C0F88C30 	 str r3,[r0,#140]
 106:.././hal//sam4s/pio.c **** 			(2 * (ul_cut_off))) - 1);
 107:.././hal//sam4s/pio.c **** }
  78              	 .loc 1 107 1 view .LVU15
  79 0018 7047     	 bx lr
  80              	 .cfi_endproc
  81              	.LFE137:
  83              	 .section .text.pio_set,"ax",%progbits
  84              	 .align 1
  85              	 .global pio_set
  86              	 .syntax unified
  87              	 .thumb
  88              	 .thumb_func
  90              	pio_set:
  91              	.LVL3:
  92              	.LFB138:
 108:.././hal//sam4s/pio.c **** 
 109:.././hal//sam4s/pio.c **** /**
 110:.././hal//sam4s/pio.c ****  * \brief Set a high output level on all the PIOs defined in ul_mask.
 111:.././hal//sam4s/pio.c ****  * This has no immediate effects on PIOs that are not output, but the PIO
 112:.././hal//sam4s/pio.c ****  * controller will save the value if they are changed to outputs.
 113:.././hal//sam4s/pio.c ****  *
 114:.././hal//sam4s/pio.c ****  * \param p_pio Pointer to a PIO instance.
 115:.././hal//sam4s/pio.c ****  * \param ul_mask Bitmask of one or more pin(s) to configure.
 116:.././hal//sam4s/pio.c ****  */
 117:.././hal//sam4s/pio.c **** void pio_set(Pio *p_pio, const uint32_t ul_mask)
 118:.././hal//sam4s/pio.c **** {
  93              	 .loc 1 118 1 is_stmt 1 view-0
  94              	 .cfi_startproc
  95              	 
  96              	 
  97              	 
 119:.././hal//sam4s/pio.c **** 	p_pio->PIO_SODR = ul_mask;
  98              	 .loc 1 119 2 view .LVU17
  99              	 .loc 1 119 18 is_stmt 0 view .LVU18
 100 0000 0163     	 str r1,[r0,#48]
 120:.././hal//sam4s/pio.c **** }
 101              	 .loc 1 120 1 view .LVU19
 102 0002 7047     	 bx lr
 103              	 .cfi_endproc
 104              	.LFE138:
 106              	 .section .text.pio_clear,"ax",%progbits
 107              	 .align 1
 108              	 .global pio_clear
 109              	 .syntax unified
 110              	 .thumb
 111              	 .thumb_func
 113              	pio_clear:
 114              	.LVL4:
 115              	.LFB139:
 121:.././hal//sam4s/pio.c **** 
 122:.././hal//sam4s/pio.c **** /**
 123:.././hal//sam4s/pio.c ****  * \brief Set a low output level on all the PIOs defined in ul_mask.
 124:.././hal//sam4s/pio.c ****  * This has no immediate effects on PIOs that are not output, but the PIO
 125:.././hal//sam4s/pio.c ****  * controller will save the value if they are changed to outputs.
 126:.././hal//sam4s/pio.c ****  *
 127:.././hal//sam4s/pio.c ****  * \param p_pio Pointer to a PIO instance.
 128:.././hal//sam4s/pio.c ****  * \param ul_mask Bitmask of one or more pin(s) to configure.
 129:.././hal//sam4s/pio.c ****  */
 130:.././hal//sam4s/pio.c **** void pio_clear(Pio *p_pio, const uint32_t ul_mask)
 131:.././hal//sam4s/pio.c **** {
 116              	 .loc 1 131 1 is_stmt 1 view-0
 117              	 .cfi_startproc
 118              	 
 119              	 
 120              	 
 132:.././hal//sam4s/pio.c **** 	p_pio->PIO_CODR = ul_mask;
 121              	 .loc 1 132 2 view .LVU21
 122              	 .loc 1 132 18 is_stmt 0 view .LVU22
 123 0000 4163     	 str r1,[r0,#52]
 133:.././hal//sam4s/pio.c **** }
 124              	 .loc 1 133 1 view .LVU23
 125 0002 7047     	 bx lr
 126              	 .cfi_endproc
 127              	.LFE139:
 129              	 .section .text.pio_get,"ax",%progbits
 130              	 .align 1
 131              	 .global pio_get
 132              	 .syntax unified
 133              	 .thumb
 134              	 .thumb_func
 136              	pio_get:
 137              	.LVL5:
 138              	.LFB140:
 134:.././hal//sam4s/pio.c **** 
 135:.././hal//sam4s/pio.c **** /**
 136:.././hal//sam4s/pio.c ****  * \brief Return 1 if one or more PIOs of the given Pin instance currently have
 137:.././hal//sam4s/pio.c ****  * a high level; otherwise returns 0. This method returns the actual value that
 138:.././hal//sam4s/pio.c ****  * is being read on the pin. To return the supposed output value of a pin, use
 139:.././hal//sam4s/pio.c ****  * pio_get_output_data_status() instead.
 140:.././hal//sam4s/pio.c ****  *
 141:.././hal//sam4s/pio.c ****  * \param p_pio Pointer to a PIO instance.
 142:.././hal//sam4s/pio.c ****  * \param ul_type PIO type.
 143:.././hal//sam4s/pio.c ****  * \param ul_mask Bitmask of one or more pin(s) to configure.
 144:.././hal//sam4s/pio.c ****  *
 145:.././hal//sam4s/pio.c ****  * \retval 1 at least one PIO currently has a high level.
 146:.././hal//sam4s/pio.c ****  * \retval 0 all PIOs have a low level.
 147:.././hal//sam4s/pio.c ****  */
 148:.././hal//sam4s/pio.c **** uint32_t pio_get(Pio *p_pio, const pio_type_t ul_type,
 149:.././hal//sam4s/pio.c **** 		const uint32_t ul_mask)
 150:.././hal//sam4s/pio.c **** {
 139              	 .loc 1 150 1 is_stmt 1 view-0
 140              	 .cfi_startproc
 141              	 
 142              	 
 143              	 
 151:.././hal//sam4s/pio.c **** 	uint32_t ul_reg;
 144              	 .loc 1 151 2 view .LVU25
 152:.././hal//sam4s/pio.c **** 
 153:.././hal//sam4s/pio.c **** 	if ((ul_type == PIO_OUTPUT_0) || (ul_type == PIO_OUTPUT_1)) {
 145              	 .loc 1 153 2 view .LVU26
 146              	 .loc 1 153 5 is_stmt 0 view .LVU27
 147 0000 21F00061 	 bic r1,r1,#134217728
 148              	.LVL6:
 149              	 .loc 1 153 5 view .LVU28
 150 0004 B1F1405F 	 cmp r1,#805306368
 154:.././hal//sam4s/pio.c **** 		ul_reg = p_pio->PIO_ODSR;
 151              	 .loc 1 154 3 is_stmt 1 view .LVU29
 152              	 .loc 1 154 10 is_stmt 0 view .LVU30
 153 0008 0CBF     	 ite eq
 154 000a 806B     	 ldreq r0,[r0,#56]
 155              	.LVL7:
 155:.././hal//sam4s/pio.c **** 	} else {
 156:.././hal//sam4s/pio.c **** 		ul_reg = p_pio->PIO_PDSR;
 156              	 .loc 1 156 3 is_stmt 1 view .LVU31
 157              	 .loc 1 156 10 is_stmt 0 view .LVU32
 158 000c C06B     	 ldrne r0,[r0,#60]
 159              	.LVL8:
 157:.././hal//sam4s/pio.c **** 	}
 158:.././hal//sam4s/pio.c **** 
 159:.././hal//sam4s/pio.c **** 	if ((ul_reg & ul_mask) == 0) {
 160              	 .loc 1 159 2 is_stmt 1 view .LVU33
 161              	 .loc 1 159 14 is_stmt 0 view .LVU34
 162 000e 1040     	 ands r0,r0,r2
 163              	.LVL9:
 160:.././hal//sam4s/pio.c **** 		return 0;
 161:.././hal//sam4s/pio.c **** 	} else {
 162:.././hal//sam4s/pio.c **** 		return 1;
 163:.././hal//sam4s/pio.c **** 	}
 164:.././hal//sam4s/pio.c **** }
 164              	 .loc 1 164 1 view .LVU35
 165 0010 0038     	 subs r0,r0,#0
 166 0012 18BF     	 it ne
 167 0014 0120     	 movne r0,#1
 168 0016 7047     	 bx lr
 169              	 .cfi_endproc
 170              	.LFE140:
 172              	 .section .text.pio_set_peripheral,"ax",%progbits
 173              	 .align 1
 174              	 .global pio_set_peripheral
 175              	 .syntax unified
 176              	 .thumb
 177              	 .thumb_func
 179              	pio_set_peripheral:
 180              	.LVL10:
 181              	.LFB141:
 165:.././hal//sam4s/pio.c **** 
 166:.././hal//sam4s/pio.c **** /**
 167:.././hal//sam4s/pio.c ****  * \brief Configure IO of a PIO controller as being controlled by a specific
 168:.././hal//sam4s/pio.c ****  * peripheral.
 169:.././hal//sam4s/pio.c ****  *
 170:.././hal//sam4s/pio.c ****  * \param p_pio Pointer to a PIO instance.
 171:.././hal//sam4s/pio.c ****  * \param ul_type PIO type.
 172:.././hal//sam4s/pio.c ****  * \param ul_mask Bitmask of one or more pin(s) to configure.
 173:.././hal//sam4s/pio.c ****  */
 174:.././hal//sam4s/pio.c **** void pio_set_peripheral(Pio *p_pio, const pio_type_t ul_type,
 175:.././hal//sam4s/pio.c **** 		const uint32_t ul_mask)
 176:.././hal//sam4s/pio.c **** {
 182              	 .loc 1 176 1 is_stmt 1 view-0
 183              	 .cfi_startproc
 184              	 
 185              	 
 186              	 
 177:.././hal//sam4s/pio.c **** 	uint32_t ul_sr;
 187              	 .loc 1 177 2 view .LVU37
 178:.././hal//sam4s/pio.c **** 
 179:.././hal//sam4s/pio.c **** 	/* Disable interrupts on the pin(s) */
 180:.././hal//sam4s/pio.c **** 	p_pio->PIO_IDR = ul_mask;
 188              	 .loc 1 180 2 view .LVU38
 181:.././hal//sam4s/pio.c **** 
 182:.././hal//sam4s/pio.c **** #if (SAM3S || SAM3N || SAM4S || SAM4E || SAM4N || SAM4C || SAMG || SAM4CP || SAM4CM || SAMV71 || SA
 183:.././hal//sam4s/pio.c **** 	switch (ul_type) {
 189              	 .loc 1 183 2 is_stmt 0 view .LVU39
 190 0000 B1F1C05F 	 cmp r1,#402653184
 180:.././hal//sam4s/pio.c **** 
 191              	 .loc 1 180 17 view .LVU40
 192 0004 4264     	 str r2,[r0,#68]
 193              	 .loc 1 183 2 is_stmt 1 view .LVU41
 194 0006 26D0     	 beq .L11
 195 0008 07D8     	 bhi .L12
 196 000a B1F1006F 	 cmp r1,#134217728
 197 000e 11D0     	 beq .L13
 198 0010 B1F1805F 	 cmp r1,#268435456
 199 0014 1CD0     	 beq .L14
 200 0016 C9B9     	 cbnz r1,.L16
 201 0018 7047     	 bx lr
 202              	.L12:
 203 001a B1F1005F 	 cmp r1,#536870912
 204 001e 23D0     	 beq .L17
 205 0020 14D3     	 bcc .L16
 206 0022 B1F1405F 	 cmp r1,#805306368
 207 0026 12D0     	 beq .L10
 208 0028 21F08051 	 bic r1,r1,#268435456
 209              	.LVL11:
 210              	 .loc 1 183 2 is_stmt 0 view .LVU42
 211 002c B1F1205F 	 cmp r1,#671088640
 212 0030 0CD1     	 bne .L16
 213 0032 7047     	 bx lr
 214              	.LVL12:
 215              	.L13:
 184:.././hal//sam4s/pio.c **** 	case PIO_PERIPH_A:
 185:.././hal//sam4s/pio.c **** 		ul_sr = p_pio->PIO_ABCDSR[0];
 216              	 .loc 1 185 3 is_stmt 1 view .LVU43
 217              	 .loc 1 185 9 is_stmt 0 view .LVU44
 218 0034 016F     	 ldr r1,[r0,#112]
 219              	.LVL13:
 186:.././hal//sam4s/pio.c **** 		p_pio->PIO_ABCDSR[0] &= (~ul_mask & ul_sr);
 220              	 .loc 1 186 3 is_stmt 1 view .LVU45
 221              	 .loc 1 186 20 is_stmt 0 view .LVU46
 222 0036 036F     	 ldr r3,[r0,#112]
 223              	 .loc 1 186 24 view .LVU47
 224 0038 0B40     	 ands r3,r3,r1
 225 003a 23EA0203 	 bic r3,r3,r2
 226              	.LVL14:
 227              	.L29:
 187:.././hal//sam4s/pio.c **** 
 188:.././hal//sam4s/pio.c **** 		ul_sr = p_pio->PIO_ABCDSR[1];
 189:.././hal//sam4s/pio.c **** 		p_pio->PIO_ABCDSR[1] &= (~ul_mask & ul_sr);
 190:.././hal//sam4s/pio.c **** 		break;
 191:.././hal//sam4s/pio.c **** 	case PIO_PERIPH_B:
 192:.././hal//sam4s/pio.c **** 		ul_sr = p_pio->PIO_ABCDSR[0];
 193:.././hal//sam4s/pio.c **** 		p_pio->PIO_ABCDSR[0] = (ul_mask | ul_sr);
 228              	 .loc 1 193 24 view .LVU48
 229 003e 0367     	 str r3,[r0,#112]
 194:.././hal//sam4s/pio.c **** 
 195:.././hal//sam4s/pio.c **** 		ul_sr = p_pio->PIO_ABCDSR[1];
 230              	 .loc 1 195 3 is_stmt 1 view .LVU49
 231              	 .loc 1 195 9 is_stmt 0 view .LVU50
 232 0040 416F     	 ldr r1,[r0,#116]
 233              	.LVL15:
 196:.././hal//sam4s/pio.c **** 		p_pio->PIO_ABCDSR[1] &= (~ul_mask & ul_sr);
 234              	 .loc 1 196 3 is_stmt 1 view .LVU51
 235              	 .loc 1 196 20 is_stmt 0 view .LVU52
 236 0042 436F     	 ldr r3,[r0,#116]
 237              	 .loc 1 196 24 view .LVU53
 238 0044 0B40     	 ands r3,r3,r1
 239 0046 23EA0203 	 bic r3,r3,r2
 240              	.LVL16:
 241              	.L27:
 197:.././hal//sam4s/pio.c **** 		break;
 198:.././hal//sam4s/pio.c **** #if (!SAMG)
 199:.././hal//sam4s/pio.c **** 	case PIO_PERIPH_C:
 200:.././hal//sam4s/pio.c **** 		ul_sr = p_pio->PIO_ABCDSR[0];
 201:.././hal//sam4s/pio.c **** 		p_pio->PIO_ABCDSR[0] &= (~ul_mask & ul_sr);
 202:.././hal//sam4s/pio.c **** 
 203:.././hal//sam4s/pio.c **** 		ul_sr = p_pio->PIO_ABCDSR[1];
 204:.././hal//sam4s/pio.c **** 		p_pio->PIO_ABCDSR[1] = (ul_mask | ul_sr);
 205:.././hal//sam4s/pio.c **** 		break;
 206:.././hal//sam4s/pio.c **** 	case PIO_PERIPH_D:
 207:.././hal//sam4s/pio.c **** 		ul_sr = p_pio->PIO_ABCDSR[0];
 208:.././hal//sam4s/pio.c **** 		p_pio->PIO_ABCDSR[0] = (ul_mask | ul_sr);
 209:.././hal//sam4s/pio.c **** 
 210:.././hal//sam4s/pio.c **** 		ul_sr = p_pio->PIO_ABCDSR[1];
 211:.././hal//sam4s/pio.c **** 		p_pio->PIO_ABCDSR[1] = (ul_mask | ul_sr);
 242              	 .loc 1 211 24 view .LVU54
 243 004a 4367     	 str r3,[r0,#116]
 212:.././hal//sam4s/pio.c **** 		break;
 244              	 .loc 1 212 3 is_stmt 1 view .LVU55
 245              	.L16:
 213:.././hal//sam4s/pio.c **** #endif
 214:.././hal//sam4s/pio.c **** 		/* Other types are invalid in this function */
 215:.././hal//sam4s/pio.c **** 	case PIO_INPUT:
 216:.././hal//sam4s/pio.c **** 	case PIO_OUTPUT_0:
 217:.././hal//sam4s/pio.c **** 	case PIO_OUTPUT_1:
 218:.././hal//sam4s/pio.c **** 	case PIO_NOT_A_PIN:
 219:.././hal//sam4s/pio.c **** 		return;
 220:.././hal//sam4s/pio.c **** 	}
 221:.././hal//sam4s/pio.c **** #elif (SAM3XA|| SAM3U)
 222:.././hal//sam4s/pio.c **** 	switch (ul_type) {
 223:.././hal//sam4s/pio.c **** 	case PIO_PERIPH_A:
 224:.././hal//sam4s/pio.c **** 		ul_sr = p_pio->PIO_ABSR;
 225:.././hal//sam4s/pio.c **** 		p_pio->PIO_ABSR &= (~ul_mask & ul_sr);
 226:.././hal//sam4s/pio.c **** 		break;
 227:.././hal//sam4s/pio.c **** 
 228:.././hal//sam4s/pio.c **** 	case PIO_PERIPH_B:
 229:.././hal//sam4s/pio.c **** 		ul_sr = p_pio->PIO_ABSR;
 230:.././hal//sam4s/pio.c **** 		p_pio->PIO_ABSR = (ul_mask | ul_sr);
 231:.././hal//sam4s/pio.c **** 		break;
 232:.././hal//sam4s/pio.c **** 
 233:.././hal//sam4s/pio.c **** 		// other types are invalid in this function
 234:.././hal//sam4s/pio.c **** 	case PIO_INPUT:
 235:.././hal//sam4s/pio.c **** 	case PIO_OUTPUT_0:
 236:.././hal//sam4s/pio.c **** 	case PIO_OUTPUT_1:
 237:.././hal//sam4s/pio.c **** 	case PIO_NOT_A_PIN:
 238:.././hal//sam4s/pio.c **** 		return;
 239:.././hal//sam4s/pio.c **** 	}
 240:.././hal//sam4s/pio.c **** #else
 241:.././hal//sam4s/pio.c **** #error "Unsupported device"
 242:.././hal//sam4s/pio.c **** #endif
 243:.././hal//sam4s/pio.c **** 
 244:.././hal//sam4s/pio.c **** 	/* Remove the pins from under the control of PIO */
 245:.././hal//sam4s/pio.c **** 	p_pio->PIO_PDR = ul_mask;
 246              	 .loc 1 245 2 view .LVU56
 247              	 .loc 1 245 17 is_stmt 0 view .LVU57
 248 004c 4260     	 str r2,[r0,#4]
 249              	.L10:
 246:.././hal//sam4s/pio.c **** }
 250              	 .loc 1 246 1 view .LVU58
 251 004e 7047     	 bx lr
 252              	.LVL17:
 253              	.L14:
 192:.././hal//sam4s/pio.c **** 		p_pio->PIO_ABCDSR[0] = (ul_mask | ul_sr);
 254              	 .loc 1 192 3 is_stmt 1 view .LVU59
 192:.././hal//sam4s/pio.c **** 		p_pio->PIO_ABCDSR[0] = (ul_mask | ul_sr);
 255              	 .loc 1 192 9 is_stmt 0 view .LVU60
 256 0050 036F     	 ldr r3,[r0,#112]
 257              	.LVL18:
 193:.././hal//sam4s/pio.c **** 
 258              	 .loc 1 193 3 is_stmt 1 view .LVU61
 193:.././hal//sam4s/pio.c **** 
 259              	 .loc 1 193 35 is_stmt 0 view .LVU62
 260 0052 1343     	 orrs r3,r3,r2
 261              	.LVL19:
 193:.././hal//sam4s/pio.c **** 
 262              	 .loc 1 193 35 view .LVU63
 263 0054 F3E7     	 b .L29
 264              	.LVL20:
 265              	.L11:
 200:.././hal//sam4s/pio.c **** 		p_pio->PIO_ABCDSR[0] &= (~ul_mask & ul_sr);
 266              	 .loc 1 200 3 is_stmt 1 view .LVU64
 200:.././hal//sam4s/pio.c **** 		p_pio->PIO_ABCDSR[0] &= (~ul_mask & ul_sr);
 267              	 .loc 1 200 9 is_stmt 0 view .LVU65
 268 0056 016F     	 ldr r1,[r0,#112]
 269              	.LVL21:
 201:.././hal//sam4s/pio.c **** 
 270              	 .loc 1 201 3 is_stmt 1 view .LVU66
 201:.././hal//sam4s/pio.c **** 
 271              	 .loc 1 201 20 is_stmt 0 view .LVU67
 272 0058 036F     	 ldr r3,[r0,#112]
 201:.././hal//sam4s/pio.c **** 
 273              	 .loc 1 201 24 view .LVU68
 274 005a 0B40     	 ands r3,r3,r1
 275 005c 23EA0203 	 bic r3,r3,r2
 276              	.LVL22:
 277              	.L28:
 208:.././hal//sam4s/pio.c **** 
 278              	 .loc 1 208 24 view .LVU69
 279 0060 0367     	 str r3,[r0,#112]
 210:.././hal//sam4s/pio.c **** 		p_pio->PIO_ABCDSR[1] = (ul_mask | ul_sr);
 280              	 .loc 1 210 3 is_stmt 1 view .LVU70
 210:.././hal//sam4s/pio.c **** 		p_pio->PIO_ABCDSR[1] = (ul_mask | ul_sr);
 281              	 .loc 1 210 9 is_stmt 0 view .LVU71
 282 0062 436F     	 ldr r3,[r0,#116]
 283              	.LVL23:
 211:.././hal//sam4s/pio.c **** 		break;
 284              	 .loc 1 211 3 is_stmt 1 view .LVU72
 211:.././hal//sam4s/pio.c **** 		break;
 285              	 .loc 1 211 35 is_stmt 0 view .LVU73
 286 0064 1343     	 orrs r3,r3,r2
 287              	.LVL24:
 211:.././hal//sam4s/pio.c **** 		break;
 288              	 .loc 1 211 35 view .LVU74
 289 0066 F0E7     	 b .L27
 290              	.LVL25:
 291              	.L17:
 207:.././hal//sam4s/pio.c **** 		p_pio->PIO_ABCDSR[0] = (ul_mask | ul_sr);
 292              	 .loc 1 207 3 is_stmt 1 view .LVU75
 207:.././hal//sam4s/pio.c **** 		p_pio->PIO_ABCDSR[0] = (ul_mask | ul_sr);
 293              	 .loc 1 207 9 is_stmt 0 view .LVU76
 294 0068 036F     	 ldr r3,[r0,#112]
 295              	.LVL26:
 208:.././hal//sam4s/pio.c **** 
 296              	 .loc 1 208 3 is_stmt 1 view .LVU77
 208:.././hal//sam4s/pio.c **** 
 297              	 .loc 1 208 35 is_stmt 0 view .LVU78
 298 006a 1343     	 orrs r3,r3,r2
 299              	.LVL27:
 208:.././hal//sam4s/pio.c **** 
 300              	 .loc 1 208 35 view .LVU79
 301 006c F8E7     	 b .L28
 302              	 .cfi_endproc
 303              	.LFE141:
 305              	 .section .text.pio_set_input,"ax",%progbits
 306              	 .align 1
 307              	 .global pio_set_input
 308              	 .syntax unified
 309              	 .thumb
 310              	 .thumb_func
 312              	pio_set_input:
 313              	.LVL28:
 314              	.LFB142:
 247:.././hal//sam4s/pio.c **** 
 248:.././hal//sam4s/pio.c **** /**
 249:.././hal//sam4s/pio.c ****  * \brief Configure one or more pin(s) or a PIO controller as inputs.
 250:.././hal//sam4s/pio.c ****  * Optionally, the corresponding internal pull-up(s) and glitch filter(s) can
 251:.././hal//sam4s/pio.c ****  * be enabled.
 252:.././hal//sam4s/pio.c ****  *
 253:.././hal//sam4s/pio.c ****  * \param p_pio Pointer to a PIO instance.
 254:.././hal//sam4s/pio.c ****  * \param ul_mask Bitmask indicating which pin(s) to configure as input(s).
 255:.././hal//sam4s/pio.c ****  * \param ul_attribute PIO attribute(s).
 256:.././hal//sam4s/pio.c ****  */
 257:.././hal//sam4s/pio.c **** void pio_set_input(Pio *p_pio, const uint32_t ul_mask,
 258:.././hal//sam4s/pio.c **** 		const uint32_t ul_attribute)
 259:.././hal//sam4s/pio.c **** {
 315              	 .loc 1 259 1 is_stmt 1 view-0
 316              	 .cfi_startproc
 317              	 
 318              	 
 319              	 
 260:.././hal//sam4s/pio.c **** 	pio_disable_interrupt(p_pio, ul_mask);
 320              	 .loc 1 260 2 view .LVU81
 321              	.LBB42:
 322              	.LBI42:
 261:.././hal//sam4s/pio.c **** 	pio_pull_up(p_pio, ul_mask, ul_attribute & PIO_PULLUP);
 262:.././hal//sam4s/pio.c **** 
 263:.././hal//sam4s/pio.c **** 	/* Enable Input Filter if necessary */
 264:.././hal//sam4s/pio.c **** 	if (ul_attribute & (PIO_DEGLITCH | PIO_DEBOUNCE)) {
 265:.././hal//sam4s/pio.c **** 		p_pio->PIO_IFER = ul_mask;
 266:.././hal//sam4s/pio.c **** 	} else {
 267:.././hal//sam4s/pio.c **** 		p_pio->PIO_IFDR = ul_mask;
 268:.././hal//sam4s/pio.c **** 	}
 269:.././hal//sam4s/pio.c **** 
 270:.././hal//sam4s/pio.c **** #if (SAM3S || SAM3N || SAM4S || SAM4E || SAM4N || SAM4C || SAMG || SAM4CP || SAM4CM || SAMV71 || SA
 271:.././hal//sam4s/pio.c **** 	/* Enable de-glitch or de-bounce if necessary */
 272:.././hal//sam4s/pio.c **** 	if (ul_attribute & PIO_DEGLITCH) {
 273:.././hal//sam4s/pio.c **** 		p_pio->PIO_IFSCDR = ul_mask;
 274:.././hal//sam4s/pio.c **** 	} else {
 275:.././hal//sam4s/pio.c **** 		if (ul_attribute & PIO_DEBOUNCE) {
 276:.././hal//sam4s/pio.c **** 			p_pio->PIO_IFSCER = ul_mask;
 277:.././hal//sam4s/pio.c **** 		}
 278:.././hal//sam4s/pio.c **** 	}
 279:.././hal//sam4s/pio.c **** #elif (SAM3XA|| SAM3U)
 280:.././hal//sam4s/pio.c **** 	/* Enable de-glitch or de-bounce if necessary */
 281:.././hal//sam4s/pio.c **** 	if (ul_attribute & PIO_DEGLITCH) {
 282:.././hal//sam4s/pio.c **** 		p_pio->PIO_SCIFSR = ul_mask;
 283:.././hal//sam4s/pio.c **** 	} else {
 284:.././hal//sam4s/pio.c **** 		if (ul_attribute & PIO_DEBOUNCE) {
 285:.././hal//sam4s/pio.c **** 			p_pio->PIO_DIFSR = ul_mask;
 286:.././hal//sam4s/pio.c **** 		}
 287:.././hal//sam4s/pio.c **** 	}
 288:.././hal//sam4s/pio.c **** #else
 289:.././hal//sam4s/pio.c **** #error "Unsupported device"
 290:.././hal//sam4s/pio.c **** #endif
 291:.././hal//sam4s/pio.c **** 
 292:.././hal//sam4s/pio.c **** 	/* Configure pin as input */
 293:.././hal//sam4s/pio.c **** 	p_pio->PIO_ODR = ul_mask;
 294:.././hal//sam4s/pio.c **** 	p_pio->PIO_PER = ul_mask;
 295:.././hal//sam4s/pio.c **** }
 296:.././hal//sam4s/pio.c **** 
 297:.././hal//sam4s/pio.c **** /**
 298:.././hal//sam4s/pio.c ****  * \brief Configure one or more pin(s) of a PIO controller as outputs, with
 299:.././hal//sam4s/pio.c ****  * the given default value. Optionally, the multi-drive feature can be enabled
 300:.././hal//sam4s/pio.c ****  * on the pin(s).
 301:.././hal//sam4s/pio.c ****  *
 302:.././hal//sam4s/pio.c ****  * \param p_pio Pointer to a PIO instance.
 303:.././hal//sam4s/pio.c ****  * \param ul_mask Bitmask indicating which pin(s) to configure.
 304:.././hal//sam4s/pio.c ****  * \param ul_default_level Default level on the pin(s).
 305:.././hal//sam4s/pio.c ****  * \param ul_multidrive_enable Indicates if the pin(s) shall be configured as
 306:.././hal//sam4s/pio.c ****  * open-drain.
 307:.././hal//sam4s/pio.c ****  * \param ul_pull_up_enable Indicates if the pin shall have its pull-up
 308:.././hal//sam4s/pio.c ****  * activated.
 309:.././hal//sam4s/pio.c ****  */
 310:.././hal//sam4s/pio.c **** void pio_set_output(Pio *p_pio, const uint32_t ul_mask,
 311:.././hal//sam4s/pio.c **** 		const uint32_t ul_default_level,
 312:.././hal//sam4s/pio.c **** 		const uint32_t ul_multidrive_enable,
 313:.././hal//sam4s/pio.c **** 		const uint32_t ul_pull_up_enable)
 314:.././hal//sam4s/pio.c **** {
 315:.././hal//sam4s/pio.c **** 	pio_disable_interrupt(p_pio, ul_mask);
 316:.././hal//sam4s/pio.c **** 	pio_pull_up(p_pio, ul_mask, ul_pull_up_enable);
 317:.././hal//sam4s/pio.c **** 
 318:.././hal//sam4s/pio.c **** 	/* Enable multi-drive if necessary */
 319:.././hal//sam4s/pio.c **** 	if (ul_multidrive_enable) {
 320:.././hal//sam4s/pio.c **** 		p_pio->PIO_MDER = ul_mask;
 321:.././hal//sam4s/pio.c **** 	} else {
 322:.././hal//sam4s/pio.c **** 		p_pio->PIO_MDDR = ul_mask;
 323:.././hal//sam4s/pio.c **** 	}
 324:.././hal//sam4s/pio.c **** 
 325:.././hal//sam4s/pio.c **** 	/* Set default value */
 326:.././hal//sam4s/pio.c **** 	if (ul_default_level) {
 327:.././hal//sam4s/pio.c **** 		p_pio->PIO_SODR = ul_mask;
 328:.././hal//sam4s/pio.c **** 	} else {
 329:.././hal//sam4s/pio.c **** 		p_pio->PIO_CODR = ul_mask;
 330:.././hal//sam4s/pio.c **** 	}
 331:.././hal//sam4s/pio.c **** 
 332:.././hal//sam4s/pio.c **** 	/* Configure pin(s) as output(s) */
 333:.././hal//sam4s/pio.c **** 	p_pio->PIO_OER = ul_mask;
 334:.././hal//sam4s/pio.c **** 	p_pio->PIO_PER = ul_mask;
 335:.././hal//sam4s/pio.c **** }
 336:.././hal//sam4s/pio.c **** 
 337:.././hal//sam4s/pio.c **** /**
 338:.././hal//sam4s/pio.c ****  * \brief Perform complete pin(s) configuration; general attributes and PIO init
 339:.././hal//sam4s/pio.c ****  * if necessary.
 340:.././hal//sam4s/pio.c ****  *
 341:.././hal//sam4s/pio.c ****  * \param p_pio Pointer to a PIO instance.
 342:.././hal//sam4s/pio.c ****  * \param ul_type PIO type.
 343:.././hal//sam4s/pio.c ****  * \param ul_mask Bitmask of one or more pin(s) to configure.
 344:.././hal//sam4s/pio.c ****  * \param ul_attribute Pins attributes.
 345:.././hal//sam4s/pio.c ****  *
 346:.././hal//sam4s/pio.c ****  * \return Whether the pin(s) have been configured properly.
 347:.././hal//sam4s/pio.c ****  */
 348:.././hal//sam4s/pio.c **** uint32_t pio_configure(Pio *p_pio, const pio_type_t ul_type,
 349:.././hal//sam4s/pio.c **** 		const uint32_t ul_mask, const uint32_t ul_attribute)
 350:.././hal//sam4s/pio.c **** {
 351:.././hal//sam4s/pio.c **** 	/* Configure pins */
 352:.././hal//sam4s/pio.c **** 	switch (ul_type) {
 353:.././hal//sam4s/pio.c **** 	case PIO_PERIPH_A:
 354:.././hal//sam4s/pio.c **** 	case PIO_PERIPH_B:
 355:.././hal//sam4s/pio.c **** #if (SAM3S || SAM3N || SAM4S || SAM4E || SAM4N || SAM4C || SAM4CP || SAM4CM || SAMV71 || SAMV70 || 
 356:.././hal//sam4s/pio.c **** 	case PIO_PERIPH_C:
 357:.././hal//sam4s/pio.c **** 	case PIO_PERIPH_D:
 358:.././hal//sam4s/pio.c **** #endif
 359:.././hal//sam4s/pio.c **** 		pio_set_peripheral(p_pio, ul_type, ul_mask);
 360:.././hal//sam4s/pio.c **** 		pio_pull_up(p_pio, ul_mask, (ul_attribute & PIO_PULLUP));
 361:.././hal//sam4s/pio.c **** 		break;
 362:.././hal//sam4s/pio.c **** 
 363:.././hal//sam4s/pio.c **** 	case PIO_INPUT:
 364:.././hal//sam4s/pio.c **** 		pio_set_input(p_pio, ul_mask, ul_attribute);
 365:.././hal//sam4s/pio.c **** 		break;
 366:.././hal//sam4s/pio.c **** 
 367:.././hal//sam4s/pio.c **** 	case PIO_OUTPUT_0:
 368:.././hal//sam4s/pio.c **** 	case PIO_OUTPUT_1:
 369:.././hal//sam4s/pio.c **** 		pio_set_output(p_pio, ul_mask, (ul_type == PIO_OUTPUT_1),
 370:.././hal//sam4s/pio.c **** 				(ul_attribute & PIO_OPENDRAIN) ? 1 : 0,
 371:.././hal//sam4s/pio.c **** 				(ul_attribute & PIO_PULLUP) ? 1 : 0);
 372:.././hal//sam4s/pio.c **** 		break;
 373:.././hal//sam4s/pio.c **** 
 374:.././hal//sam4s/pio.c **** 	default:
 375:.././hal//sam4s/pio.c **** 		return 0;
 376:.././hal//sam4s/pio.c **** 	}
 377:.././hal//sam4s/pio.c **** 
 378:.././hal//sam4s/pio.c **** 	return 1;
 379:.././hal//sam4s/pio.c **** }
 380:.././hal//sam4s/pio.c **** 
 381:.././hal//sam4s/pio.c **** /**
 382:.././hal//sam4s/pio.c ****  * \brief Return 1 if one or more PIOs of the given Pin are configured to
 383:.././hal//sam4s/pio.c ****  * output a high level (even if they are not output).
 384:.././hal//sam4s/pio.c ****  * To get the actual value of the pin, use PIO_Get() instead.
 385:.././hal//sam4s/pio.c ****  *
 386:.././hal//sam4s/pio.c ****  * \param p_pio Pointer to a PIO instance.
 387:.././hal//sam4s/pio.c ****  * \param ul_mask Bitmask of one or more pin(s).
 388:.././hal//sam4s/pio.c ****  *
 389:.././hal//sam4s/pio.c ****  * \retval 1 At least one PIO is configured to output a high level.
 390:.././hal//sam4s/pio.c ****  * \retval 0 All PIOs are configured to output a low level.
 391:.././hal//sam4s/pio.c ****  */
 392:.././hal//sam4s/pio.c **** uint32_t pio_get_output_data_status(const Pio *p_pio,
 393:.././hal//sam4s/pio.c **** 		const uint32_t ul_mask)
 394:.././hal//sam4s/pio.c **** {
 395:.././hal//sam4s/pio.c **** 	if ((p_pio->PIO_ODSR & ul_mask) == 0) {
 396:.././hal//sam4s/pio.c **** 		return 0;
 397:.././hal//sam4s/pio.c **** 	} else {
 398:.././hal//sam4s/pio.c **** 		return 1;
 399:.././hal//sam4s/pio.c **** 	}
 400:.././hal//sam4s/pio.c **** }
 401:.././hal//sam4s/pio.c **** 
 402:.././hal//sam4s/pio.c **** /**
 403:.././hal//sam4s/pio.c ****  * \brief Configure PIO pin multi-driver.
 404:.././hal//sam4s/pio.c ****  *
 405:.././hal//sam4s/pio.c ****  * \param p_pio Pointer to a PIO instance.
 406:.././hal//sam4s/pio.c ****  * \param ul_mask Bitmask of one or more pin(s) to configure.
 407:.././hal//sam4s/pio.c ****  * \param ul_multi_driver_enable Indicates if the pin(s) multi-driver shall be
 408:.././hal//sam4s/pio.c ****  * configured.
 409:.././hal//sam4s/pio.c ****  */
 410:.././hal//sam4s/pio.c **** void pio_set_multi_driver(Pio *p_pio, const uint32_t ul_mask,
 411:.././hal//sam4s/pio.c **** 		const uint32_t ul_multi_driver_enable)
 412:.././hal//sam4s/pio.c **** {
 413:.././hal//sam4s/pio.c **** 	/* Enable the multi-driver if necessary */
 414:.././hal//sam4s/pio.c **** 	if (ul_multi_driver_enable) {
 415:.././hal//sam4s/pio.c **** 		p_pio->PIO_MDER = ul_mask;
 416:.././hal//sam4s/pio.c **** 	} else {
 417:.././hal//sam4s/pio.c **** 		p_pio->PIO_MDDR = ul_mask;
 418:.././hal//sam4s/pio.c **** 	}
 419:.././hal//sam4s/pio.c **** }
 420:.././hal//sam4s/pio.c **** 
 421:.././hal//sam4s/pio.c **** /**
 422:.././hal//sam4s/pio.c ****  * \brief Get multi-driver status.
 423:.././hal//sam4s/pio.c ****  *
 424:.././hal//sam4s/pio.c ****  * \param p_pio Pointer to a PIO instance.
 425:.././hal//sam4s/pio.c ****  *
 426:.././hal//sam4s/pio.c ****  * \return The multi-driver mask value.
 427:.././hal//sam4s/pio.c ****  */
 428:.././hal//sam4s/pio.c **** uint32_t pio_get_multi_driver_status(const Pio *p_pio)
 429:.././hal//sam4s/pio.c **** {
 430:.././hal//sam4s/pio.c **** 	return p_pio->PIO_MDSR;
 431:.././hal//sam4s/pio.c **** }
 432:.././hal//sam4s/pio.c **** 
 433:.././hal//sam4s/pio.c **** 
 434:.././hal//sam4s/pio.c **** #if (SAM3S || SAM3N || SAM4S || SAM4E || SAM4N || SAM4C || SAMG || SAM4CP || SAM4CM || SAMV71 || SA
 435:.././hal//sam4s/pio.c **** /**
 436:.././hal//sam4s/pio.c ****  * \brief Configure PIO pin internal pull-down.
 437:.././hal//sam4s/pio.c ****  *
 438:.././hal//sam4s/pio.c ****  * \param p_pio Pointer to a PIO instance.
 439:.././hal//sam4s/pio.c ****  * \param ul_mask Bitmask of one or more pin(s) to configure.
 440:.././hal//sam4s/pio.c ****  * \param ul_pull_down_enable Indicates if the pin(s) internal pull-down shall
 441:.././hal//sam4s/pio.c ****  * be configured.
 442:.././hal//sam4s/pio.c ****  */
 443:.././hal//sam4s/pio.c **** void pio_pull_down(Pio *p_pio, const uint32_t ul_mask,
 444:.././hal//sam4s/pio.c **** 		const uint32_t ul_pull_down_enable)
 445:.././hal//sam4s/pio.c **** {
 446:.././hal//sam4s/pio.c **** 	/* Enable the pull-down if necessary */
 447:.././hal//sam4s/pio.c **** 	if (ul_pull_down_enable) {
 448:.././hal//sam4s/pio.c **** 		p_pio->PIO_PPDER = ul_mask;
 449:.././hal//sam4s/pio.c **** 	} else {
 450:.././hal//sam4s/pio.c **** 		p_pio->PIO_PPDDR = ul_mask;
 451:.././hal//sam4s/pio.c **** 	}
 452:.././hal//sam4s/pio.c **** }
 453:.././hal//sam4s/pio.c **** #endif
 454:.././hal//sam4s/pio.c **** 
 455:.././hal//sam4s/pio.c **** /**
 456:.././hal//sam4s/pio.c ****  * \brief Enable PIO output write for synchronous data output.
 457:.././hal//sam4s/pio.c ****  *
 458:.././hal//sam4s/pio.c ****  * \param p_pio Pointer to a PIO instance.
 459:.././hal//sam4s/pio.c ****  * \param ul_mask Bitmask of one or more pin(s) to configure.
 460:.././hal//sam4s/pio.c ****  */
 461:.././hal//sam4s/pio.c **** void pio_enable_output_write(Pio *p_pio, const uint32_t ul_mask)
 462:.././hal//sam4s/pio.c **** {
 463:.././hal//sam4s/pio.c **** 	p_pio->PIO_OWER = ul_mask;
 464:.././hal//sam4s/pio.c **** }
 465:.././hal//sam4s/pio.c **** 
 466:.././hal//sam4s/pio.c **** /**
 467:.././hal//sam4s/pio.c ****  * \brief Disable PIO output write.
 468:.././hal//sam4s/pio.c ****  *
 469:.././hal//sam4s/pio.c ****  * \param p_pio Pointer to a PIO instance.
 470:.././hal//sam4s/pio.c ****  * \param ul_mask Bitmask of one or more pin(s) to configure.
 471:.././hal//sam4s/pio.c ****  */
 472:.././hal//sam4s/pio.c **** void pio_disable_output_write(Pio *p_pio, const uint32_t ul_mask)
 473:.././hal//sam4s/pio.c **** {
 474:.././hal//sam4s/pio.c **** 	p_pio->PIO_OWDR = ul_mask;
 475:.././hal//sam4s/pio.c **** }
 476:.././hal//sam4s/pio.c **** 
 477:.././hal//sam4s/pio.c **** /**
 478:.././hal//sam4s/pio.c ****  * \brief Read PIO output write status.
 479:.././hal//sam4s/pio.c ****  *
 480:.././hal//sam4s/pio.c ****  * \param p_pio Pointer to a PIO instance.
 481:.././hal//sam4s/pio.c ****  *
 482:.././hal//sam4s/pio.c ****  * \return The output write mask value.
 483:.././hal//sam4s/pio.c ****  */
 484:.././hal//sam4s/pio.c **** uint32_t pio_get_output_write_status(const Pio *p_pio)
 485:.././hal//sam4s/pio.c **** {
 486:.././hal//sam4s/pio.c **** 	return p_pio->PIO_OWSR;
 487:.././hal//sam4s/pio.c **** }
 488:.././hal//sam4s/pio.c **** 
 489:.././hal//sam4s/pio.c **** /**
 490:.././hal//sam4s/pio.c ****  * \brief Synchronously write on output pins.
 491:.././hal//sam4s/pio.c ****  * \note Only bits unmasked by PIO_OWSR (Output Write Status Register) are
 492:.././hal//sam4s/pio.c ****  * written.
 493:.././hal//sam4s/pio.c ****  *
 494:.././hal//sam4s/pio.c ****  * \param p_pio Pointer to a PIO instance.
 495:.././hal//sam4s/pio.c ****  * \param ul_mask Bitmask of one or more pin(s) to configure.
 496:.././hal//sam4s/pio.c ****  */
 497:.././hal//sam4s/pio.c **** void pio_sync_output_write(Pio *p_pio, const uint32_t ul_mask)
 498:.././hal//sam4s/pio.c **** {
 499:.././hal//sam4s/pio.c **** 	p_pio->PIO_ODSR = ul_mask;
 500:.././hal//sam4s/pio.c **** }
 501:.././hal//sam4s/pio.c **** 
 502:.././hal//sam4s/pio.c **** #if (SAM3S || SAM3N || SAM4S || SAM4E || SAM4N || SAM4C || SAMG || SAM4CP || SAM4CM || SAMV71 || SA
 503:.././hal//sam4s/pio.c **** /**
 504:.././hal//sam4s/pio.c ****  * \brief Configure PIO pin schmitt trigger. By default the Schmitt trigger is
 505:.././hal//sam4s/pio.c ****  * active.
 506:.././hal//sam4s/pio.c ****  * Disabling the Schmitt Trigger is requested when using the QTouch Library.
 507:.././hal//sam4s/pio.c ****  *
 508:.././hal//sam4s/pio.c ****  * \param p_pio Pointer to a PIO instance.
 509:.././hal//sam4s/pio.c ****  * \param ul_mask Bitmask of one or more pin(s) to configure.
 510:.././hal//sam4s/pio.c ****  */
 511:.././hal//sam4s/pio.c **** void pio_set_schmitt_trigger(Pio *p_pio, const uint32_t ul_mask)
 512:.././hal//sam4s/pio.c **** {
 513:.././hal//sam4s/pio.c **** 	p_pio->PIO_SCHMITT = ul_mask;
 514:.././hal//sam4s/pio.c **** }
 515:.././hal//sam4s/pio.c **** 
 516:.././hal//sam4s/pio.c **** /**
 517:.././hal//sam4s/pio.c ****  * \brief Get PIO pin schmitt trigger status.
 518:.././hal//sam4s/pio.c ****  *
 519:.././hal//sam4s/pio.c ****  * \param p_pio Pointer to a PIO instance.
 520:.././hal//sam4s/pio.c ****  *
 521:.././hal//sam4s/pio.c ****  * \return The schmitt trigger mask value.
 522:.././hal//sam4s/pio.c ****  */
 523:.././hal//sam4s/pio.c **** uint32_t pio_get_schmitt_trigger(const Pio *p_pio)
 524:.././hal//sam4s/pio.c **** {
 525:.././hal//sam4s/pio.c **** 	return p_pio->PIO_SCHMITT;
 526:.././hal//sam4s/pio.c **** }
 527:.././hal//sam4s/pio.c **** #endif
 528:.././hal//sam4s/pio.c **** 
 529:.././hal//sam4s/pio.c **** /**
 530:.././hal//sam4s/pio.c ****  * \brief Configure the given interrupt source.
 531:.././hal//sam4s/pio.c ****  * Interrupt can be configured to trigger on rising edge, falling edge,
 532:.././hal//sam4s/pio.c ****  * high level, low level or simply on level change.
 533:.././hal//sam4s/pio.c ****  *
 534:.././hal//sam4s/pio.c ****  * \param p_pio Pointer to a PIO instance.
 535:.././hal//sam4s/pio.c ****  * \param ul_mask Interrupt source bit map.
 536:.././hal//sam4s/pio.c ****  * \param ul_attr Interrupt source attributes.
 537:.././hal//sam4s/pio.c ****  */
 538:.././hal//sam4s/pio.c **** void pio_configure_interrupt(Pio *p_pio, const uint32_t ul_mask,
 539:.././hal//sam4s/pio.c **** 		const uint32_t ul_attr)
 540:.././hal//sam4s/pio.c **** {
 541:.././hal//sam4s/pio.c **** 	/* Configure additional interrupt mode registers. */
 542:.././hal//sam4s/pio.c **** 	if (ul_attr & PIO_IT_AIME) {
 543:.././hal//sam4s/pio.c **** 		/* Enable additional interrupt mode. */
 544:.././hal//sam4s/pio.c **** 		p_pio->PIO_AIMER = ul_mask;
 545:.././hal//sam4s/pio.c **** 
 546:.././hal//sam4s/pio.c **** 		/* If bit field of the selected pin is 1, set as
 547:.././hal//sam4s/pio.c **** 		   Rising Edge/High level detection event. */
 548:.././hal//sam4s/pio.c **** 		if (ul_attr & PIO_IT_RE_OR_HL) {
 549:.././hal//sam4s/pio.c **** 			/* Rising Edge or High Level */
 550:.././hal//sam4s/pio.c **** 			p_pio->PIO_REHLSR = ul_mask;
 551:.././hal//sam4s/pio.c **** 		} else {
 552:.././hal//sam4s/pio.c **** 			/* Falling Edge or Low Level */
 553:.././hal//sam4s/pio.c **** 			p_pio->PIO_FELLSR = ul_mask;
 554:.././hal//sam4s/pio.c **** 		}
 555:.././hal//sam4s/pio.c **** 
 556:.././hal//sam4s/pio.c **** 		/* If bit field of the selected pin is 1, set as
 557:.././hal//sam4s/pio.c **** 		   edge detection source. */
 558:.././hal//sam4s/pio.c **** 		if (ul_attr & PIO_IT_EDGE) {
 559:.././hal//sam4s/pio.c **** 			/* Edge select */
 560:.././hal//sam4s/pio.c **** 			p_pio->PIO_ESR = ul_mask;
 561:.././hal//sam4s/pio.c **** 		} else {
 562:.././hal//sam4s/pio.c **** 			/* Level select */
 563:.././hal//sam4s/pio.c **** 			p_pio->PIO_LSR = ul_mask;
 564:.././hal//sam4s/pio.c **** 		}
 565:.././hal//sam4s/pio.c **** 	} else {
 566:.././hal//sam4s/pio.c **** 		/* Disable additional interrupt mode. */
 567:.././hal//sam4s/pio.c **** 		p_pio->PIO_AIMDR = ul_mask;
 568:.././hal//sam4s/pio.c **** 	}
 569:.././hal//sam4s/pio.c **** }
 570:.././hal//sam4s/pio.c **** 
 571:.././hal//sam4s/pio.c **** /**
 572:.././hal//sam4s/pio.c ****  * \brief Enable the given interrupt source.
 573:.././hal//sam4s/pio.c ****  * The PIO must be configured as an NVIC interrupt source as well.
 574:.././hal//sam4s/pio.c ****  *
 575:.././hal//sam4s/pio.c ****  * \param p_pio Pointer to a PIO instance.
 576:.././hal//sam4s/pio.c ****  * \param ul_mask Interrupt sources bit map.
 577:.././hal//sam4s/pio.c ****  */
 578:.././hal//sam4s/pio.c **** void pio_enable_interrupt(Pio *p_pio, const uint32_t ul_mask)
 579:.././hal//sam4s/pio.c **** {
 580:.././hal//sam4s/pio.c **** 	p_pio->PIO_IER = ul_mask;
 581:.././hal//sam4s/pio.c **** }
 582:.././hal//sam4s/pio.c **** 
 583:.././hal//sam4s/pio.c **** /**
 584:.././hal//sam4s/pio.c ****  * \brief Disable a given interrupt source, with no added side effects.
 585:.././hal//sam4s/pio.c ****  *
 586:.././hal//sam4s/pio.c ****  * \param p_pio Pointer to a PIO instance.
 587:.././hal//sam4s/pio.c ****  * \param ul_mask Interrupt sources bit map.
 588:.././hal//sam4s/pio.c ****  */
 589:.././hal//sam4s/pio.c **** void pio_disable_interrupt(Pio *p_pio, const uint32_t ul_mask)
 323              	 .loc 1 589 6 view .LVU82
 324              	.LBB43:
 590:.././hal//sam4s/pio.c **** {
 591:.././hal//sam4s/pio.c **** 	p_pio->PIO_IDR = ul_mask;
 325              	 .loc 1 591 2 view .LVU83
 326              	.LBE43:
 327              	.LBE42:
 328              	.LBB45:
 329              	.LBB46:
  73:.././hal//sam4s/pio.c **** 		p_pio->PIO_PUER = ul_mask;
 330              	 .loc 1 73 5 is_stmt 0 view .LVU84
 331 0000 D307     	 lsls r3,r2,#31
 332              	.LBE46:
 333              	.LBE45:
 334              	.LBB48:
 335              	.LBB44:
 336              	 .loc 1 591 17 view .LVU85
 337 0002 4164     	 str r1,[r0,#68]
 338              	.LVL29:
 339              	 .loc 1 591 17 view .LVU86
 340              	.LBE44:
 341              	.LBE48:
 261:.././hal//sam4s/pio.c **** 	pio_pull_up(p_pio, ul_mask, ul_attribute & PIO_PULLUP);
 342              	 .loc 1 261 2 is_stmt 1 view .LVU87
 343              	.LBB49:
 344              	.LBI45:
  69:.././hal//sam4s/pio.c **** 		const uint32_t ul_pull_up_enable)
 345              	 .loc 1 69 6 view .LVU88
 346              	.LBB47:
  73:.././hal//sam4s/pio.c **** 		p_pio->PIO_PUER = ul_mask;
 347              	 .loc 1 73 2 view .LVU89
  74:.././hal//sam4s/pio.c **** 	} else {
 348              	 .loc 1 74 3 view .LVU90
  74:.././hal//sam4s/pio.c **** 	} else {
 349              	 .loc 1 74 19 is_stmt 0 view .LVU91
 350 0004 4CBF     	 ite mi
 351 0006 4166     	 strmi r1,[r0,#100]
  76:.././hal//sam4s/pio.c **** 	}
 352              	 .loc 1 76 3 is_stmt 1 view .LVU92
  76:.././hal//sam4s/pio.c **** 	}
 353              	 .loc 1 76 19 is_stmt 0 view .LVU93
 354 0008 0166     	 strpl r1,[r0,#96]
 355              	.LVL30:
  76:.././hal//sam4s/pio.c **** 	}
 356              	 .loc 1 76 19 view .LVU94
 357              	.LBE47:
 358              	.LBE49:
 264:.././hal//sam4s/pio.c **** 		p_pio->PIO_IFER = ul_mask;
 359              	 .loc 1 264 2 is_stmt 1 view .LVU95
 264:.././hal//sam4s/pio.c **** 		p_pio->PIO_IFER = ul_mask;
 360              	 .loc 1 264 5 is_stmt 0 view .LVU96
 361 000a 12F00A0F 	 tst r2,#10
 362 000e 07D0     	 beq .L33
 265:.././hal//sam4s/pio.c **** 	} else {
 363              	 .loc 1 265 3 is_stmt 1 view .LVU97
 272:.././hal//sam4s/pio.c **** 		p_pio->PIO_IFSCDR = ul_mask;
 364              	 .loc 1 272 5 is_stmt 0 view .LVU98
 365 0010 9307     	 lsls r3,r2,#30
 265:.././hal//sam4s/pio.c **** 	} else {
 366              	 .loc 1 265 19 view .LVU99
 367 0012 0162     	 str r1,[r0,#32]
 272:.././hal//sam4s/pio.c **** 		p_pio->PIO_IFSCDR = ul_mask;
 368              	 .loc 1 272 2 is_stmt 1 view .LVU100
 272:.././hal//sam4s/pio.c **** 		p_pio->PIO_IFSCDR = ul_mask;
 369              	 .loc 1 272 5 is_stmt 0 view .LVU101
 370 0014 08D4     	 bmi .L34
 275:.././hal//sam4s/pio.c **** 			p_pio->PIO_IFSCER = ul_mask;
 371              	 .loc 1 275 3 is_stmt 1 view .LVU102
 275:.././hal//sam4s/pio.c **** 			p_pio->PIO_IFSCER = ul_mask;
 372              	 .loc 1 275 6 is_stmt 0 view .LVU103
 373 0016 1307     	 lsls r3,r2,#28
 276:.././hal//sam4s/pio.c **** 		}
 374              	 .loc 1 276 4 is_stmt 1 view .LVU104
 276:.././hal//sam4s/pio.c **** 		}
 375              	 .loc 1 276 22 is_stmt 0 view .LVU105
 376 0018 48BF     	 it mi
 377 001a C0F88410 	 strmi r1,[r0,#132]
 378 001e 00E0     	 b .L36
 379              	.L33:
 267:.././hal//sam4s/pio.c **** 	}
 380              	 .loc 1 267 3 is_stmt 1 view .LVU106
 267:.././hal//sam4s/pio.c **** 	}
 381              	 .loc 1 267 19 is_stmt 0 view .LVU107
 382 0020 4162     	 str r1,[r0,#36]
 272:.././hal//sam4s/pio.c **** 		p_pio->PIO_IFSCDR = ul_mask;
 383              	 .loc 1 272 2 is_stmt 1 view .LVU108
 275:.././hal//sam4s/pio.c **** 			p_pio->PIO_IFSCER = ul_mask;
 384              	 .loc 1 275 3 view .LVU109
 385              	.L36:
 293:.././hal//sam4s/pio.c **** 	p_pio->PIO_PER = ul_mask;
 386              	 .loc 1 293 2 view .LVU110
 293:.././hal//sam4s/pio.c **** 	p_pio->PIO_PER = ul_mask;
 387              	 .loc 1 293 17 is_stmt 0 view .LVU111
 388 0022 4161     	 str r1,[r0,#20]
 294:.././hal//sam4s/pio.c **** }
 389              	 .loc 1 294 2 is_stmt 1 view .LVU112
 294:.././hal//sam4s/pio.c **** }
 390              	 .loc 1 294 17 is_stmt 0 view .LVU113
 391 0024 0160     	 str r1,[r0]
 295:.././hal//sam4s/pio.c **** 
 392              	 .loc 1 295 1 view .LVU114
 393 0026 7047     	 bx lr
 394              	.L34:
 273:.././hal//sam4s/pio.c **** 	} else {
 395              	 .loc 1 273 3 is_stmt 1 view .LVU115
 273:.././hal//sam4s/pio.c **** 	} else {
 396              	 .loc 1 273 21 is_stmt 0 view .LVU116
 397 0028 C0F88010 	 str r1,[r0,#128]
 398 002c F9E7     	 b .L36
 399              	 .cfi_endproc
 400              	.LFE142:
 402              	 .section .text.pio_set_output,"ax",%progbits
 403              	 .align 1
 404              	 .global pio_set_output
 405              	 .syntax unified
 406              	 .thumb
 407              	 .thumb_func
 409              	pio_set_output:
 410              	.LVL31:
 411              	.LFB143:
 314:.././hal//sam4s/pio.c **** 	pio_disable_interrupt(p_pio, ul_mask);
 412              	 .loc 1 314 1 is_stmt 1 view-0
 413              	 .cfi_startproc
 414              	 
 415              	 
 315:.././hal//sam4s/pio.c **** 	pio_pull_up(p_pio, ul_mask, ul_pull_up_enable);
 416              	 .loc 1 315 2 view .LVU118
 417              	.LBB50:
 418              	.LBI50:
 589:.././hal//sam4s/pio.c **** {
 419              	 .loc 1 589 6 view .LVU119
 420              	.LBB51:
 421              	 .loc 1 591 2 view .LVU120
 422              	.LBE51:
 423              	.LBE50:
 314:.././hal//sam4s/pio.c **** 	pio_disable_interrupt(p_pio, ul_mask);
 424              	 .loc 1 314 1 is_stmt 0 view .LVU121
 425 0000 10B5     	 push {r4,lr}
 426              	.LCFI0:
 427              	 .cfi_def_cfa_offset 8
 428              	 .cfi_offset 4,-8
 429              	 .cfi_offset 14,-4
 314:.././hal//sam4s/pio.c **** 	pio_disable_interrupt(p_pio, ul_mask);
 430              	 .loc 1 314 1 view .LVU122
 431 0002 029C     	 ldr r4,[sp,#8]
 432              	.LBB53:
 433              	.LBB52:
 434              	 .loc 1 591 17 view .LVU123
 435 0004 4164     	 str r1,[r0,#68]
 436              	.LVL32:
 437              	 .loc 1 591 17 view .LVU124
 438              	.LBE52:
 439              	.LBE53:
 316:.././hal//sam4s/pio.c **** 
 440              	 .loc 1 316 2 is_stmt 1 view .LVU125
 441              	.LBB54:
 442              	.LBI54:
  69:.././hal//sam4s/pio.c **** 		const uint32_t ul_pull_up_enable)
 443              	 .loc 1 69 6 view .LVU126
 444              	.LBB55:
  73:.././hal//sam4s/pio.c **** 		p_pio->PIO_PUER = ul_mask;
 445              	 .loc 1 73 2 view .LVU127
  73:.././hal//sam4s/pio.c **** 		p_pio->PIO_PUER = ul_mask;
 446              	 .loc 1 73 5 is_stmt 0 view .LVU128
 447 0006 3CB1     	 cbz r4,.L42
  74:.././hal//sam4s/pio.c **** 	} else {
 448              	 .loc 1 74 3 is_stmt 1 view .LVU129
  74:.././hal//sam4s/pio.c **** 	} else {
 449              	 .loc 1 74 19 is_stmt 0 view .LVU130
 450 0008 4166     	 str r1,[r0,#100]
 451              	.L43:
 452              	.LVL33:
  74:.././hal//sam4s/pio.c **** 	} else {
 453              	 .loc 1 74 19 view .LVU131
 454              	.LBE55:
 455              	.LBE54:
 319:.././hal//sam4s/pio.c **** 		p_pio->PIO_MDER = ul_mask;
 456              	 .loc 1 319 2 is_stmt 1 view .LVU132
 319:.././hal//sam4s/pio.c **** 		p_pio->PIO_MDER = ul_mask;
 457              	 .loc 1 319 5 is_stmt 0 view .LVU133
 458 000a 3BB1     	 cbz r3,.L44
 320:.././hal//sam4s/pio.c **** 	} else {
 459              	 .loc 1 320 3 is_stmt 1 view .LVU134
 320:.././hal//sam4s/pio.c **** 	} else {
 460              	 .loc 1 320 19 is_stmt 0 view .LVU135
 461 000c 0165     	 str r1,[r0,#80]
 462              	.L45:
 326:.././hal//sam4s/pio.c **** 		p_pio->PIO_SODR = ul_mask;
 463              	 .loc 1 326 2 is_stmt 1 view .LVU136
 326:.././hal//sam4s/pio.c **** 		p_pio->PIO_SODR = ul_mask;
 464              	 .loc 1 326 5 is_stmt 0 view .LVU137
 465 000e 3AB1     	 cbz r2,.L46
 327:.././hal//sam4s/pio.c **** 	} else {
 466              	 .loc 1 327 3 is_stmt 1 view .LVU138
 327:.././hal//sam4s/pio.c **** 	} else {
 467              	 .loc 1 327 19 is_stmt 0 view .LVU139
 468 0010 0163     	 str r1,[r0,#48]
 469              	.L47:
 333:.././hal//sam4s/pio.c **** 	p_pio->PIO_PER = ul_mask;
 470              	 .loc 1 333 2 is_stmt 1 view .LVU140
 333:.././hal//sam4s/pio.c **** 	p_pio->PIO_PER = ul_mask;
 471              	 .loc 1 333 17 is_stmt 0 view .LVU141
 472 0012 0161     	 str r1,[r0,#16]
 334:.././hal//sam4s/pio.c **** }
 473              	 .loc 1 334 2 is_stmt 1 view .LVU142
 334:.././hal//sam4s/pio.c **** }
 474              	 .loc 1 334 17 is_stmt 0 view .LVU143
 475 0014 0160     	 str r1,[r0]
 335:.././hal//sam4s/pio.c **** 
 476              	 .loc 1 335 1 view .LVU144
 477 0016 10BD     	 pop {r4,pc}
 478              	.LVL34:
 479              	.L42:
 480              	.LBB57:
 481              	.LBB56:
  76:.././hal//sam4s/pio.c **** 	}
 482              	 .loc 1 76 3 is_stmt 1 view .LVU145
  76:.././hal//sam4s/pio.c **** 	}
 483              	 .loc 1 76 19 is_stmt 0 view .LVU146
 484 0018 0166     	 str r1,[r0,#96]
 485 001a F6E7     	 b .L43
 486              	.LVL35:
 487              	.L44:
  76:.././hal//sam4s/pio.c **** 	}
 488              	 .loc 1 76 19 view .LVU147
 489              	.LBE56:
 490              	.LBE57:
 322:.././hal//sam4s/pio.c **** 	}
 491              	 .loc 1 322 3 is_stmt 1 view .LVU148
 322:.././hal//sam4s/pio.c **** 	}
 492              	 .loc 1 322 19 is_stmt 0 view .LVU149
 493 001c 4165     	 str r1,[r0,#84]
 494 001e F6E7     	 b .L45
 495              	.L46:
 329:.././hal//sam4s/pio.c **** 	}
 496              	 .loc 1 329 3 is_stmt 1 view .LVU150
 329:.././hal//sam4s/pio.c **** 	}
 497              	 .loc 1 329 19 is_stmt 0 view .LVU151
 498 0020 4163     	 str r1,[r0,#52]
 499 0022 F6E7     	 b .L47
 500              	 .cfi_endproc
 501              	.LFE143:
 503              	 .section .text.pio_configure,"ax",%progbits
 504              	 .align 1
 505              	 .global pio_configure
 506              	 .syntax unified
 507              	 .thumb
 508              	 .thumb_func
 510              	pio_configure:
 511              	.LVL36:
 512              	.LFB144:
 350:.././hal//sam4s/pio.c **** 	/* Configure pins */
 513              	 .loc 1 350 1 is_stmt 1 view-0
 514              	 .cfi_startproc
 515              	 
 516              	 
 352:.././hal//sam4s/pio.c **** 	case PIO_PERIPH_A:
 517              	 .loc 1 352 2 view .LVU153
 518 0000 B1F1205F 	 cmp r1,#671088640
 350:.././hal//sam4s/pio.c **** 	/* Configure pins */
 519              	 .loc 1 350 1 is_stmt 0 view .LVU154
 520 0004 73B5     	 push {r0,r1,r4,r5,r6,lr}
 521              	.LCFI1:
 522              	 .cfi_def_cfa_offset 24
 523              	 .cfi_offset 4,-16
 524              	 .cfi_offset 5,-12
 525              	 .cfi_offset 6,-8
 526              	 .cfi_offset 14,-4
 350:.././hal//sam4s/pio.c **** 	/* Configure pins */
 527              	 .loc 1 350 1 view .LVU155
 528 0006 0646     	 mov r6,r0
 529 0008 1446     	 mov r4,r2
 530 000a 1D46     	 mov r5,r3
 352:.././hal//sam4s/pio.c **** 	case PIO_PERIPH_A:
 531              	 .loc 1 352 2 view .LVU156
 532 000c 2CD0     	 beq .L49
 533 000e 0FD8     	 bhi .L50
 534 0010 B1F1C05F 	 cmp r1,#402653184
 535 0014 1ED0     	 beq .L51
 536 0016 08D8     	 bhi .L52
 537 0018 B1F1006F 	 cmp r1,#134217728
 538 001c 1AD0     	 beq .L51
 539 001e B1F1805F 	 cmp r1,#268435456
 540              	.L71:
 541 0022 17D0     	 beq .L51
 542              	.LVL37:
 543              	.L69:
 352:.././hal//sam4s/pio.c **** 	case PIO_PERIPH_A:
 544              	 .loc 1 352 2 view .LVU157
 545 0024 0020     	 movs r0,#0
 546              	.LVL38:
 547              	.L48:
 379:.././hal//sam4s/pio.c **** 
 548              	 .loc 1 379 1 view .LVU158
 549 0026 02B0     	 add sp,sp,#8
 550              	.LCFI2:
 551              	 .cfi_remember_state
 552              	 .cfi_def_cfa_offset 16
 553              	 
 554 0028 70BD     	 pop {r4,r5,r6,pc}
 555              	.LVL39:
 556              	.L52:
 557              	.LCFI3:
 558              	 .cfi_restore_state
 352:.././hal//sam4s/pio.c **** 	case PIO_PERIPH_A:
 559              	 .loc 1 352 2 view .LVU159
 560 002a B1F1005F 	 cmp r1,#536870912
 561 002e F8E7     	 b .L71
 562              	.L50:
 352:.././hal//sam4s/pio.c **** 	case PIO_PERIPH_A:
 563              	 .loc 1 352 2 view .LVU160
 564 0030 21F00063 	 bic r3,r1,#134217728
 565              	.LVL40:
 352:.././hal//sam4s/pio.c **** 	case PIO_PERIPH_A:
 566              	 .loc 1 352 2 view .LVU161
 567 0034 B3F1405F 	 cmp r3,#805306368
 568 0038 F4D1     	 bne .L69
 369:.././hal//sam4s/pio.c **** 				(ul_attribute & PIO_OPENDRAIN) ? 1 : 0,
 569              	 .loc 1 369 3 is_stmt 1 view .LVU162
 570 003a 01F14841 	 add r1,r1,#-939524096
 571              	.LVL41:
 369:.././hal//sam4s/pio.c **** 				(ul_attribute & PIO_OPENDRAIN) ? 1 : 0,
 572              	 .loc 1 369 3 is_stmt 0 view .LVU163
 573 003e 05F00103 	 and r3,r5,#1
 574 0042 4A42     	 rsbs r2,r1,#0
 575              	.LVL42:
 369:.././hal//sam4s/pio.c **** 				(ul_attribute & PIO_OPENDRAIN) ? 1 : 0,
 576              	 .loc 1 369 3 view .LVU164
 577 0044 0093     	 str r3,[sp]
 578 0046 4A41     	 adcs r2,r2,r1
 579 0048 C5F38003 	 ubfx r3,r5,#2,#1
 580 004c 2146     	 mov r1,r4
 581              	.LVL43:
 369:.././hal//sam4s/pio.c **** 				(ul_attribute & PIO_OPENDRAIN) ? 1 : 0,
 582              	 .loc 1 369 3 view .LVU165
 583 004e 094C     	 ldr r4,.L72
 584              	.LVL44:
 369:.././hal//sam4s/pio.c **** 				(ul_attribute & PIO_OPENDRAIN) ? 1 : 0,
 585              	 .loc 1 369 3 view .LVU166
 586 0050 A047     	 blx r4
 587              	.LVL45:
 372:.././hal//sam4s/pio.c **** 
 588              	 .loc 1 372 3 is_stmt 1 view .LVU167
 589 0052 07E0     	 b .L56
 590              	.LVL46:
 591              	.L51:
 359:.././hal//sam4s/pio.c **** 		pio_pull_up(p_pio, ul_mask, (ul_attribute & PIO_PULLUP));
 592              	 .loc 1 359 3 view .LVU168
 593 0054 3046     	 mov r0,r6
 594              	.LVL47:
 359:.././hal//sam4s/pio.c **** 		pio_pull_up(p_pio, ul_mask, (ul_attribute & PIO_PULLUP));
 595              	 .loc 1 359 3 is_stmt 0 view .LVU169
 596 0056 084B     	 ldr r3,.L72+4
 597              	.LVL48:
 359:.././hal//sam4s/pio.c **** 		pio_pull_up(p_pio, ul_mask, (ul_attribute & PIO_PULLUP));
 598              	 .loc 1 359 3 view .LVU170
 599 0058 2246     	 mov r2,r4
 600              	.LVL49:
 359:.././hal//sam4s/pio.c **** 		pio_pull_up(p_pio, ul_mask, (ul_attribute & PIO_PULLUP));
 601              	 .loc 1 359 3 view .LVU171
 602 005a 9847     	 blx r3
 603              	.LVL50:
 360:.././hal//sam4s/pio.c **** 		break;
 604              	 .loc 1 360 3 is_stmt 1 view .LVU172
 605              	.LBB58:
 606              	.LBI58:
  69:.././hal//sam4s/pio.c **** 		const uint32_t ul_pull_up_enable)
 607              	 .loc 1 69 6 view .LVU173
 608              	.LBB59:
  73:.././hal//sam4s/pio.c **** 		p_pio->PIO_PUER = ul_mask;
 609              	 .loc 1 73 2 view .LVU174
  73:.././hal//sam4s/pio.c **** 		p_pio->PIO_PUER = ul_mask;
 610              	 .loc 1 73 5 is_stmt 0 view .LVU175
 611 005c E807     	 lsls r0,r5,#31
 612              	.LVL51:
  74:.././hal//sam4s/pio.c **** 	} else {
 613              	 .loc 1 74 3 is_stmt 1 view .LVU176
  74:.././hal//sam4s/pio.c **** 	} else {
 614              	 .loc 1 74 19 is_stmt 0 view .LVU177
 615 005e 4CBF     	 ite mi
 616 0060 7466     	 strmi r4,[r6,#100]
  76:.././hal//sam4s/pio.c **** 	}
 617              	 .loc 1 76 3 is_stmt 1 view .LVU178
  76:.././hal//sam4s/pio.c **** 	}
 618              	 .loc 1 76 19 is_stmt 0 view .LVU179
 619 0062 3466     	 strpl r4,[r6,#96]
 620              	.LVL52:
 621              	.L56:
  76:.././hal//sam4s/pio.c **** 	}
 622              	 .loc 1 76 19 view .LVU180
 623              	.LBE59:
 624              	.LBE58:
 378:.././hal//sam4s/pio.c **** }
 625              	 .loc 1 378 9 view .LVU181
 626 0064 0120     	 movs r0,#1
 627 0066 DEE7     	 b .L48
 628              	.LVL53:
 629              	.L49:
 364:.././hal//sam4s/pio.c **** 		break;
 630              	 .loc 1 364 3 is_stmt 1 view .LVU182
 631 0068 1A46     	 mov r2,r3
 632              	.LVL54:
 364:.././hal//sam4s/pio.c **** 		break;
 633              	 .loc 1 364 3 is_stmt 0 view .LVU183
 634 006a 2146     	 mov r1,r4
 635              	.LVL55:
 364:.././hal//sam4s/pio.c **** 		break;
 636              	 .loc 1 364 3 view .LVU184
 637 006c 034B     	 ldr r3,.L72+8
 638              	.LVL56:
 364:.././hal//sam4s/pio.c **** 		break;
 639              	 .loc 1 364 3 view .LVU185
 640 006e 9847     	 blx r3
 641              	.LVL57:
 365:.././hal//sam4s/pio.c **** 
 642              	 .loc 1 365 3 is_stmt 1 view .LVU186
 643 0070 F8E7     	 b .L56
 644              	.L73:
 645 0072 00BF     	 .align 2
 646              	.L72:
 647 0074 00000000 	 .word pio_set_output
 648 0078 00000000 	 .word pio_set_peripheral
 649 007c 00000000 	 .word pio_set_input
 650              	 .cfi_endproc
 651              	.LFE144:
 653              	 .section .text.pio_get_output_data_status,"ax",%progbits
 654              	 .align 1
 655              	 .global pio_get_output_data_status
 656              	 .syntax unified
 657              	 .thumb
 658              	 .thumb_func
 660              	pio_get_output_data_status:
 661              	.LVL58:
 662              	.LFB145:
 394:.././hal//sam4s/pio.c **** 	if ((p_pio->PIO_ODSR & ul_mask) == 0) {
 663              	 .loc 1 394 1 view-0
 664              	 .cfi_startproc
 665              	 
 666              	 
 667              	 
 395:.././hal//sam4s/pio.c **** 		return 0;
 668              	 .loc 1 395 2 view .LVU188
 395:.././hal//sam4s/pio.c **** 		return 0;
 669              	 .loc 1 395 12 is_stmt 0 view .LVU189
 670 0000 806B     	 ldr r0,[r0,#56]
 671              	.LVL59:
 395:.././hal//sam4s/pio.c **** 		return 0;
 672              	 .loc 1 395 23 view .LVU190
 673 0002 0840     	 ands r0,r0,r1
 400:.././hal//sam4s/pio.c **** 
 674              	 .loc 1 400 1 view .LVU191
 675 0004 0038     	 subs r0,r0,#0
 676 0006 18BF     	 it ne
 677 0008 0120     	 movne r0,#1
 678 000a 7047     	 bx lr
 679              	 .cfi_endproc
 680              	.LFE145:
 682              	 .section .text.pio_set_multi_driver,"ax",%progbits
 683              	 .align 1
 684              	 .global pio_set_multi_driver
 685              	 .syntax unified
 686              	 .thumb
 687              	 .thumb_func
 689              	pio_set_multi_driver:
 690              	.LVL60:
 691              	.LFB146:
 412:.././hal//sam4s/pio.c **** 	/* Enable the multi-driver if necessary */
 692              	 .loc 1 412 1 is_stmt 1 view-0
 693              	 .cfi_startproc
 694              	 
 695              	 
 696              	 
 414:.././hal//sam4s/pio.c **** 		p_pio->PIO_MDER = ul_mask;
 697              	 .loc 1 414 2 view .LVU193
 414:.././hal//sam4s/pio.c **** 		p_pio->PIO_MDER = ul_mask;
 698              	 .loc 1 414 5 is_stmt 0 view .LVU194
 699 0000 0AB1     	 cbz r2,.L76
 415:.././hal//sam4s/pio.c **** 	} else {
 700              	 .loc 1 415 3 is_stmt 1 view .LVU195
 415:.././hal//sam4s/pio.c **** 	} else {
 701              	 .loc 1 415 19 is_stmt 0 view .LVU196
 702 0002 0165     	 str r1,[r0,#80]
 703 0004 7047     	 bx lr
 704              	.L76:
 417:.././hal//sam4s/pio.c **** 	}
 705              	 .loc 1 417 3 is_stmt 1 view .LVU197
 417:.././hal//sam4s/pio.c **** 	}
 706              	 .loc 1 417 19 is_stmt 0 view .LVU198
 707 0006 4165     	 str r1,[r0,#84]
 419:.././hal//sam4s/pio.c **** 
 708              	 .loc 1 419 1 view .LVU199
 709 0008 7047     	 bx lr
 710              	 .cfi_endproc
 711              	.LFE146:
 713              	 .section .text.pio_get_multi_driver_status,"ax",%progbits
 714              	 .align 1
 715              	 .global pio_get_multi_driver_status
 716              	 .syntax unified
 717              	 .thumb
 718              	 .thumb_func
 720              	pio_get_multi_driver_status:
 721              	.LVL61:
 722              	.LFB147:
 429:.././hal//sam4s/pio.c **** 	return p_pio->PIO_MDSR;
 723              	 .loc 1 429 1 is_stmt 1 view-0
 724              	 .cfi_startproc
 725              	 
 726              	 
 727              	 
 430:.././hal//sam4s/pio.c **** }
 728              	 .loc 1 430 2 view .LVU201
 430:.././hal//sam4s/pio.c **** }
 729              	 .loc 1 430 14 is_stmt 0 view .LVU202
 730 0000 806D     	 ldr r0,[r0,#88]
 731              	.LVL62:
 431:.././hal//sam4s/pio.c **** 
 732              	 .loc 1 431 1 view .LVU203
 733 0002 7047     	 bx lr
 734              	 .cfi_endproc
 735              	.LFE147:
 737              	 .section .text.pio_pull_down,"ax",%progbits
 738              	 .align 1
 739              	 .global pio_pull_down
 740              	 .syntax unified
 741              	 .thumb
 742              	 .thumb_func
 744              	pio_pull_down:
 745              	.LVL63:
 746              	.LFB148:
 445:.././hal//sam4s/pio.c **** 	/* Enable the pull-down if necessary */
 747              	 .loc 1 445 1 is_stmt 1 view-0
 748              	 .cfi_startproc
 749              	 
 750              	 
 751              	 
 447:.././hal//sam4s/pio.c **** 		p_pio->PIO_PPDER = ul_mask;
 752              	 .loc 1 447 2 view .LVU205
 447:.././hal//sam4s/pio.c **** 		p_pio->PIO_PPDER = ul_mask;
 753              	 .loc 1 447 5 is_stmt 0 view .LVU206
 754 0000 12B1     	 cbz r2,.L80
 448:.././hal//sam4s/pio.c **** 	} else {
 755              	 .loc 1 448 3 is_stmt 1 view .LVU207
 448:.././hal//sam4s/pio.c **** 	} else {
 756              	 .loc 1 448 20 is_stmt 0 view .LVU208
 757 0002 C0F89410 	 str r1,[r0,#148]
 758 0006 7047     	 bx lr
 759              	.L80:
 450:.././hal//sam4s/pio.c **** 	}
 760              	 .loc 1 450 3 is_stmt 1 view .LVU209
 450:.././hal//sam4s/pio.c **** 	}
 761              	 .loc 1 450 20 is_stmt 0 view .LVU210
 762 0008 C0F89010 	 str r1,[r0,#144]
 452:.././hal//sam4s/pio.c **** #endif
 763              	 .loc 1 452 1 view .LVU211
 764 000c 7047     	 bx lr
 765              	 .cfi_endproc
 766              	.LFE148:
 768              	 .section .text.pio_enable_output_write,"ax",%progbits
 769              	 .align 1
 770              	 .global pio_enable_output_write
 771              	 .syntax unified
 772              	 .thumb
 773              	 .thumb_func
 775              	pio_enable_output_write:
 776              	.LVL64:
 777              	.LFB149:
 462:.././hal//sam4s/pio.c **** 	p_pio->PIO_OWER = ul_mask;
 778              	 .loc 1 462 1 is_stmt 1 view-0
 779              	 .cfi_startproc
 780              	 
 781              	 
 782              	 
 463:.././hal//sam4s/pio.c **** }
 783              	 .loc 1 463 2 view .LVU213
 463:.././hal//sam4s/pio.c **** }
 784              	 .loc 1 463 18 is_stmt 0 view .LVU214
 785 0000 C0F8A010 	 str r1,[r0,#160]
 464:.././hal//sam4s/pio.c **** 
 786              	 .loc 1 464 1 view .LVU215
 787 0004 7047     	 bx lr
 788              	 .cfi_endproc
 789              	.LFE149:
 791              	 .section .text.pio_disable_output_write,"ax",%progbits
 792              	 .align 1
 793              	 .global pio_disable_output_write
 794              	 .syntax unified
 795              	 .thumb
 796              	 .thumb_func
 798              	pio_disable_output_write:
 799              	.LVL65:
 800              	.LFB150:
 473:.././hal//sam4s/pio.c **** 	p_pio->PIO_OWDR = ul_mask;
 801              	 .loc 1 473 1 is_stmt 1 view-0
 802              	 .cfi_startproc
 803              	 
 804              	 
 805              	 
 474:.././hal//sam4s/pio.c **** }
 806              	 .loc 1 474 2 view .LVU217
 474:.././hal//sam4s/pio.c **** }
 807              	 .loc 1 474 18 is_stmt 0 view .LVU218
 808 0000 C0F8A410 	 str r1,[r0,#164]
 475:.././hal//sam4s/pio.c **** 
 809              	 .loc 1 475 1 view .LVU219
 810 0004 7047     	 bx lr
 811              	 .cfi_endproc
 812              	.LFE150:
 814              	 .section .text.pio_get_output_write_status,"ax",%progbits
 815              	 .align 1
 816              	 .global pio_get_output_write_status
 817              	 .syntax unified
 818              	 .thumb
 819              	 .thumb_func
 821              	pio_get_output_write_status:
 822              	.LVL66:
 823              	.LFB151:
 485:.././hal//sam4s/pio.c **** 	return p_pio->PIO_OWSR;
 824              	 .loc 1 485 1 is_stmt 1 view-0
 825              	 .cfi_startproc
 826              	 
 827              	 
 828              	 
 486:.././hal//sam4s/pio.c **** }
 829              	 .loc 1 486 2 view .LVU221
 486:.././hal//sam4s/pio.c **** }
 830              	 .loc 1 486 14 is_stmt 0 view .LVU222
 831 0000 D0F8A800 	 ldr r0,[r0,#168]
 832              	.LVL67:
 487:.././hal//sam4s/pio.c **** 
 833              	 .loc 1 487 1 view .LVU223
 834 0004 7047     	 bx lr
 835              	 .cfi_endproc
 836              	.LFE151:
 838              	 .section .text.pio_sync_output_write,"ax",%progbits
 839              	 .align 1
 840              	 .global pio_sync_output_write
 841              	 .syntax unified
 842              	 .thumb
 843              	 .thumb_func
 845              	pio_sync_output_write:
 846              	.LVL68:
 847              	.LFB152:
 498:.././hal//sam4s/pio.c **** 	p_pio->PIO_ODSR = ul_mask;
 848              	 .loc 1 498 1 is_stmt 1 view-0
 849              	 .cfi_startproc
 850              	 
 851              	 
 852              	 
 499:.././hal//sam4s/pio.c **** }
 853              	 .loc 1 499 2 view .LVU225
 499:.././hal//sam4s/pio.c **** }
 854              	 .loc 1 499 18 is_stmt 0 view .LVU226
 855 0000 8163     	 str r1,[r0,#56]
 500:.././hal//sam4s/pio.c **** 
 856              	 .loc 1 500 1 view .LVU227
 857 0002 7047     	 bx lr
 858              	 .cfi_endproc
 859              	.LFE152:
 861              	 .section .text.pio_set_schmitt_trigger,"ax",%progbits
 862              	 .align 1
 863              	 .global pio_set_schmitt_trigger
 864              	 .syntax unified
 865              	 .thumb
 866              	 .thumb_func
 868              	pio_set_schmitt_trigger:
 869              	.LVL69:
 870              	.LFB153:
 512:.././hal//sam4s/pio.c **** 	p_pio->PIO_SCHMITT = ul_mask;
 871              	 .loc 1 512 1 is_stmt 1 view-0
 872              	 .cfi_startproc
 873              	 
 874              	 
 875              	 
 513:.././hal//sam4s/pio.c **** }
 876              	 .loc 1 513 2 view .LVU229
 513:.././hal//sam4s/pio.c **** }
 877              	 .loc 1 513 21 is_stmt 0 view .LVU230
 878 0000 C0F80011 	 str r1,[r0,#256]
 514:.././hal//sam4s/pio.c **** 
 879              	 .loc 1 514 1 view .LVU231
 880 0004 7047     	 bx lr
 881              	 .cfi_endproc
 882              	.LFE153:
 884              	 .section .text.pio_get_schmitt_trigger,"ax",%progbits
 885              	 .align 1
 886              	 .global pio_get_schmitt_trigger
 887              	 .syntax unified
 888              	 .thumb
 889              	 .thumb_func
 891              	pio_get_schmitt_trigger:
 892              	.LVL70:
 893              	.LFB154:
 524:.././hal//sam4s/pio.c **** 	return p_pio->PIO_SCHMITT;
 894              	 .loc 1 524 1 is_stmt 1 view-0
 895              	 .cfi_startproc
 896              	 
 897              	 
 898              	 
 525:.././hal//sam4s/pio.c **** }
 899              	 .loc 1 525 2 view .LVU233
 525:.././hal//sam4s/pio.c **** }
 900              	 .loc 1 525 14 is_stmt 0 view .LVU234
 901 0000 D0F80001 	 ldr r0,[r0,#256]
 902              	.LVL71:
 526:.././hal//sam4s/pio.c **** #endif
 903              	 .loc 1 526 1 view .LVU235
 904 0004 7047     	 bx lr
 905              	 .cfi_endproc
 906              	.LFE154:
 908              	 .section .text.pio_configure_interrupt,"ax",%progbits
 909              	 .align 1
 910              	 .global pio_configure_interrupt
 911              	 .syntax unified
 912              	 .thumb
 913              	 .thumb_func
 915              	pio_configure_interrupt:
 916              	.LVL72:
 917              	.LFB155:
 540:.././hal//sam4s/pio.c **** 	/* Configure additional interrupt mode registers. */
 918              	 .loc 1 540 1 is_stmt 1 view-0
 919              	 .cfi_startproc
 920              	 
 921              	 
 922              	 
 542:.././hal//sam4s/pio.c **** 		/* Enable additional interrupt mode. */
 923              	 .loc 1 542 2 view .LVU237
 542:.././hal//sam4s/pio.c **** 		/* Enable additional interrupt mode. */
 924              	 .loc 1 542 5 is_stmt 0 view .LVU238
 925 0000 D306     	 lsls r3,r2,#27
 926 0002 0ED5     	 bpl .L89
 544:.././hal//sam4s/pio.c **** 
 927              	 .loc 1 544 3 is_stmt 1 view .LVU239
 548:.././hal//sam4s/pio.c **** 			/* Rising Edge or High Level */
 928              	 .loc 1 548 6 is_stmt 0 view .LVU240
 929 0004 9306     	 lsls r3,r2,#26
 544:.././hal//sam4s/pio.c **** 
 930              	 .loc 1 544 20 view .LVU241
 931 0006 C0F8B010 	 str r1,[r0,#176]
 548:.././hal//sam4s/pio.c **** 			/* Rising Edge or High Level */
 932              	 .loc 1 548 3 is_stmt 1 view .LVU242
 550:.././hal//sam4s/pio.c **** 		} else {
 933              	 .loc 1 550 4 view .LVU243
 550:.././hal//sam4s/pio.c **** 		} else {
 934              	 .loc 1 550 22 is_stmt 0 view .LVU244
 935 000a 4CBF     	 ite mi
 936 000c C0F8D410 	 strmi r1,[r0,#212]
 553:.././hal//sam4s/pio.c **** 		}
 937              	 .loc 1 553 4 is_stmt 1 view .LVU245
 553:.././hal//sam4s/pio.c **** 		}
 938              	 .loc 1 553 22 is_stmt 0 view .LVU246
 939 0010 C0F8D010 	 strpl r1,[r0,#208]
 558:.././hal//sam4s/pio.c **** 			/* Edge select */
 940              	 .loc 1 558 3 is_stmt 1 view .LVU247
 558:.././hal//sam4s/pio.c **** 			/* Edge select */
 941              	 .loc 1 558 6 is_stmt 0 view .LVU248
 942 0014 5306     	 lsls r3,r2,#25
 560:.././hal//sam4s/pio.c **** 		} else {
 943              	 .loc 1 560 4 is_stmt 1 view .LVU249
 560:.././hal//sam4s/pio.c **** 		} else {
 944              	 .loc 1 560 19 is_stmt 0 view .LVU250
 945 0016 4CBF     	 ite mi
 946 0018 C0F8C010 	 strmi r1,[r0,#192]
 563:.././hal//sam4s/pio.c **** 		}
 947              	 .loc 1 563 4 is_stmt 1 view .LVU251
 563:.././hal//sam4s/pio.c **** 		}
 948              	 .loc 1 563 19 is_stmt 0 view .LVU252
 949 001c C0F8C410 	 strpl r1,[r0,#196]
 950 0020 7047     	 bx lr
 951              	.L89:
 567:.././hal//sam4s/pio.c **** 	}
 952              	 .loc 1 567 3 is_stmt 1 view .LVU253
 567:.././hal//sam4s/pio.c **** 	}
 953              	 .loc 1 567 20 is_stmt 0 view .LVU254
 954 0022 C0F8B410 	 str r1,[r0,#180]
 569:.././hal//sam4s/pio.c **** 
 955              	 .loc 1 569 1 view .LVU255
 956 0026 7047     	 bx lr
 957              	 .cfi_endproc
 958              	.LFE155:
 960              	 .section .text.pio_enable_interrupt,"ax",%progbits
 961              	 .align 1
 962              	 .global pio_enable_interrupt
 963              	 .syntax unified
 964              	 .thumb
 965              	 .thumb_func
 967              	pio_enable_interrupt:
 968              	.LVL73:
 969              	.LFB156:
 579:.././hal//sam4s/pio.c **** 	p_pio->PIO_IER = ul_mask;
 970              	 .loc 1 579 1 is_stmt 1 view-0
 971              	 .cfi_startproc
 972              	 
 973              	 
 974              	 
 580:.././hal//sam4s/pio.c **** }
 975              	 .loc 1 580 2 view .LVU257
 580:.././hal//sam4s/pio.c **** }
 976              	 .loc 1 580 17 is_stmt 0 view .LVU258
 977 0000 0164     	 str r1,[r0,#64]
 581:.././hal//sam4s/pio.c **** 
 978              	 .loc 1 581 1 view .LVU259
 979 0002 7047     	 bx lr
 980              	 .cfi_endproc
 981              	.LFE156:
 983              	 .section .text.pio_disable_interrupt,"ax",%progbits
 984              	 .align 1
 985              	 .global pio_disable_interrupt
 986              	 .syntax unified
 987              	 .thumb
 988              	 .thumb_func
 990              	pio_disable_interrupt:
 991              	.LVL74:
 992              	.LFB157:
 590:.././hal//sam4s/pio.c **** 	p_pio->PIO_IDR = ul_mask;
 993              	 .loc 1 590 1 is_stmt 1 view-0
 994              	 .cfi_startproc
 995              	 
 996              	 
 997              	 
 998              	 .loc 1 591 2 view .LVU261
 999              	 .loc 1 591 17 is_stmt 0 view .LVU262
 1000 0000 4164     	 str r1,[r0,#68]
 592:.././hal//sam4s/pio.c **** }
 1001              	 .loc 1 592 1 view .LVU263
 1002 0002 7047     	 bx lr
 1003              	 .cfi_endproc
 1004              	.LFE157:
 1006              	 .section .text.pio_get_interrupt_status,"ax",%progbits
 1007              	 .align 1
 1008              	 .global pio_get_interrupt_status
 1009              	 .syntax unified
 1010              	 .thumb
 1011              	 .thumb_func
 1013              	pio_get_interrupt_status:
 1014              	.LVL75:
 1015              	.LFB158:
 593:.././hal//sam4s/pio.c **** 
 594:.././hal//sam4s/pio.c **** /**
 595:.././hal//sam4s/pio.c ****  * \brief Read and clear PIO interrupt status.
 596:.././hal//sam4s/pio.c ****  *
 597:.././hal//sam4s/pio.c ****  * \param p_pio Pointer to a PIO instance.
 598:.././hal//sam4s/pio.c ****  *
 599:.././hal//sam4s/pio.c ****  * \return The interrupt status value.
 600:.././hal//sam4s/pio.c ****  */
 601:.././hal//sam4s/pio.c **** uint32_t pio_get_interrupt_status(const Pio *p_pio)
 602:.././hal//sam4s/pio.c **** {
 1016              	 .loc 1 602 1 is_stmt 1 view-0
 1017              	 .cfi_startproc
 1018              	 
 1019              	 
 1020              	 
 603:.././hal//sam4s/pio.c **** 	return p_pio->PIO_ISR;
 1021              	 .loc 1 603 2 view .LVU265
 1022              	 .loc 1 603 14 is_stmt 0 view .LVU266
 1023 0000 C06C     	 ldr r0,[r0,#76]
 1024              	.LVL76:
 604:.././hal//sam4s/pio.c **** }
 1025              	 .loc 1 604 1 view .LVU267
 1026 0002 7047     	 bx lr
 1027              	 .cfi_endproc
 1028              	.LFE158:
 1030              	 .section .text.pio_get_interrupt_mask,"ax",%progbits
 1031              	 .align 1
 1032              	 .global pio_get_interrupt_mask
 1033              	 .syntax unified
 1034              	 .thumb
 1035              	 .thumb_func
 1037              	pio_get_interrupt_mask:
 1038              	.LVL77:
 1039              	.LFB159:
 605:.././hal//sam4s/pio.c **** 
 606:.././hal//sam4s/pio.c **** /**
 607:.././hal//sam4s/pio.c ****  * \brief Read PIO interrupt mask.
 608:.././hal//sam4s/pio.c ****  *
 609:.././hal//sam4s/pio.c ****  * \param p_pio Pointer to a PIO instance.
 610:.././hal//sam4s/pio.c ****  *
 611:.././hal//sam4s/pio.c ****  * \return The interrupt mask value.
 612:.././hal//sam4s/pio.c ****  */
 613:.././hal//sam4s/pio.c **** uint32_t pio_get_interrupt_mask(const Pio *p_pio)
 614:.././hal//sam4s/pio.c **** {
 1040              	 .loc 1 614 1 is_stmt 1 view-0
 1041              	 .cfi_startproc
 1042              	 
 1043              	 
 1044              	 
 615:.././hal//sam4s/pio.c **** 	return p_pio->PIO_IMR;
 1045              	 .loc 1 615 2 view .LVU269
 1046              	 .loc 1 615 14 is_stmt 0 view .LVU270
 1047 0000 806C     	 ldr r0,[r0,#72]
 1048              	.LVL78:
 616:.././hal//sam4s/pio.c **** }
 1049              	 .loc 1 616 1 view .LVU271
 1050 0002 7047     	 bx lr
 1051              	 .cfi_endproc
 1052              	.LFE159:
 1054              	 .section .text.pio_set_additional_interrupt_mode,"ax",%progbits
 1055              	 .align 1
 1056              	 .global pio_set_additional_interrupt_mode
 1057              	 .syntax unified
 1058              	 .thumb
 1059              	 .thumb_func
 1061              	pio_set_additional_interrupt_mode:
 1062              	.LFB191:
 1063              	 .cfi_startproc
 617:.././hal//sam4s/pio.c **** 
 618:.././hal//sam4s/pio.c **** /**
 619:.././hal//sam4s/pio.c ****  * \brief Set additional interrupt mode.
 620:.././hal//sam4s/pio.c ****  *
 621:.././hal//sam4s/pio.c ****  * \param p_pio Pointer to a PIO instance.
 622:.././hal//sam4s/pio.c ****  * \param ul_mask Interrupt sources bit map.
 623:.././hal//sam4s/pio.c ****  * \param ul_attribute Pin(s) attributes.
 624:.././hal//sam4s/pio.c ****  */
 625:.././hal//sam4s/pio.c **** void pio_set_additional_interrupt_mode(Pio *p_pio,
 1064              	 .loc 1 625 6 is_stmt 1 view-0
 1065              	 
 1066              	 
 1067              	 
 1068 0000 004B     	 ldr r3,.L99
 1069 0002 1847     	 bx r3
 1070              	.L100:
 1071              	 .align 2
 1072              	.L99:
 1073 0004 00000000 	 .word pio_configure_interrupt
 1074              	 .cfi_endproc
 1075              	.LFE191:
 1077              	 .section .text.pio_set_writeprotect,"ax",%progbits
 1078              	 .align 1
 1079              	 .global pio_set_writeprotect
 1080              	 .syntax unified
 1081              	 .thumb
 1082              	 .thumb_func
 1084              	pio_set_writeprotect:
 1085              	.LVL79:
 1086              	.LFB161:
 626:.././hal//sam4s/pio.c **** 		const uint32_t ul_mask, const uint32_t ul_attribute)
 627:.././hal//sam4s/pio.c **** {
 628:.././hal//sam4s/pio.c **** 	/* Enables additional interrupt mode if needed */
 629:.././hal//sam4s/pio.c **** 	if (ul_attribute & PIO_IT_AIME) {
 630:.././hal//sam4s/pio.c **** 		/* Enables additional interrupt mode */
 631:.././hal//sam4s/pio.c **** 		p_pio->PIO_AIMER = ul_mask;
 632:.././hal//sam4s/pio.c **** 
 633:.././hal//sam4s/pio.c **** 		/* Configures the Polarity of the event detection */
 634:.././hal//sam4s/pio.c **** 		/* (Rising/Falling Edge or High/Low Level) */
 635:.././hal//sam4s/pio.c **** 		if (ul_attribute & PIO_IT_RE_OR_HL) {
 636:.././hal//sam4s/pio.c **** 			/* Rising Edge or High Level */
 637:.././hal//sam4s/pio.c **** 			p_pio->PIO_REHLSR = ul_mask;
 638:.././hal//sam4s/pio.c **** 		} else {
 639:.././hal//sam4s/pio.c **** 			/* Falling Edge or Low Level */
 640:.././hal//sam4s/pio.c **** 			p_pio->PIO_FELLSR = ul_mask;
 641:.././hal//sam4s/pio.c **** 		}
 642:.././hal//sam4s/pio.c **** 
 643:.././hal//sam4s/pio.c **** 		/* Configures the type of event detection (Edge or Level) */
 644:.././hal//sam4s/pio.c **** 		if (ul_attribute & PIO_IT_EDGE) {
 645:.././hal//sam4s/pio.c **** 			/* Edge select */
 646:.././hal//sam4s/pio.c **** 			p_pio->PIO_ESR = ul_mask;
 647:.././hal//sam4s/pio.c **** 		} else {
 648:.././hal//sam4s/pio.c **** 			/* Level select */
 649:.././hal//sam4s/pio.c **** 			p_pio->PIO_LSR = ul_mask;
 650:.././hal//sam4s/pio.c **** 		}
 651:.././hal//sam4s/pio.c **** 	} else {
 652:.././hal//sam4s/pio.c **** 		/* Disable additional interrupt mode */
 653:.././hal//sam4s/pio.c **** 		p_pio->PIO_AIMDR = ul_mask;
 654:.././hal//sam4s/pio.c **** 	}
 655:.././hal//sam4s/pio.c **** }
 656:.././hal//sam4s/pio.c **** 
 657:.././hal//sam4s/pio.c **** #ifndef PIO_WPMR_WPKEY_PASSWD
 658:.././hal//sam4s/pio.c **** #define PIO_WPMR_WPKEY_PASSWD    PIO_WPMR_WPKEY(0x50494FU)
 659:.././hal//sam4s/pio.c **** #endif
 660:.././hal//sam4s/pio.c **** 
 661:.././hal//sam4s/pio.c **** /**
 662:.././hal//sam4s/pio.c ****  * \brief Enable or disable write protect of PIO registers.
 663:.././hal//sam4s/pio.c ****  *
 664:.././hal//sam4s/pio.c ****  * \param p_pio Pointer to a PIO instance.
 665:.././hal//sam4s/pio.c ****  * \param ul_enable 1 to enable, 0 to disable.
 666:.././hal//sam4s/pio.c ****  */
 667:.././hal//sam4s/pio.c **** void pio_set_writeprotect(Pio *p_pio, const uint32_t ul_enable)
 668:.././hal//sam4s/pio.c **** {
 1087              	 .loc 1 668 1 view-0
 1088              	 .cfi_startproc
 1089              	 
 1090              	 
 1091              	 
 669:.././hal//sam4s/pio.c **** 	p_pio->PIO_WPMR = PIO_WPMR_WPKEY_PASSWD | (ul_enable & PIO_WPMR_WPEN);
 1092              	 .loc 1 669 2 view .LVU274
 1093              	 .loc 1 669 42 is_stmt 0 view .LVU275
 1094 0000 034B     	 ldr r3,.L102
 1095              	 .loc 1 669 55 view .LVU276
 1096 0002 01F00101 	 and r1,r1,#1
 1097              	.LVL80:
 1098              	 .loc 1 669 42 view .LVU277
 1099 0006 0B43     	 orrs r3,r3,r1
 1100              	 .loc 1 669 18 view .LVU278
 1101 0008 C0F8E430 	 str r3,[r0,#228]
 670:.././hal//sam4s/pio.c **** }
 1102              	 .loc 1 670 1 view .LVU279
 1103 000c 7047     	 bx lr
 1104              	.L103:
 1105 000e 00BF     	 .align 2
 1106              	.L102:
 1107 0010 004F4950 	 .word 1346981632
 1108              	 .cfi_endproc
 1109              	.LFE161:
 1111              	 .section .text.pio_get_writeprotect_status,"ax",%progbits
 1112              	 .align 1
 1113              	 .global pio_get_writeprotect_status
 1114              	 .syntax unified
 1115              	 .thumb
 1116              	 .thumb_func
 1118              	pio_get_writeprotect_status:
 1119              	.LVL81:
 1120              	.LFB162:
 671:.././hal//sam4s/pio.c **** 
 672:.././hal//sam4s/pio.c **** /**
 673:.././hal//sam4s/pio.c ****  * \brief Read write protect status.
 674:.././hal//sam4s/pio.c ****  *
 675:.././hal//sam4s/pio.c ****  * \param p_pio Pointer to a PIO instance.
 676:.././hal//sam4s/pio.c ****  *
 677:.././hal//sam4s/pio.c ****  * \return Return write protect status.
 678:.././hal//sam4s/pio.c ****  */
 679:.././hal//sam4s/pio.c **** uint32_t pio_get_writeprotect_status(const Pio *p_pio)
 680:.././hal//sam4s/pio.c **** {
 1121              	 .loc 1 680 1 is_stmt 1 view-0
 1122              	 .cfi_startproc
 1123              	 
 1124              	 
 1125              	 
 681:.././hal//sam4s/pio.c **** 	return p_pio->PIO_WPSR;
 1126              	 .loc 1 681 2 view .LVU281
 1127              	 .loc 1 681 14 is_stmt 0 view .LVU282
 1128 0000 D0F8E800 	 ldr r0,[r0,#232]
 1129              	.LVL82:
 682:.././hal//sam4s/pio.c **** }
 1130              	 .loc 1 682 1 view .LVU283
 1131 0004 7047     	 bx lr
 1132              	 .cfi_endproc
 1133              	.LFE162:
 1135              	 .section .text.pio_get_pin_value,"ax",%progbits
 1136              	 .align 1
 1137              	 .global pio_get_pin_value
 1138              	 .syntax unified
 1139              	 .thumb
 1140              	 .thumb_func
 1142              	pio_get_pin_value:
 1143              	.LVL83:
 1144              	.LFB163:
 683:.././hal//sam4s/pio.c **** 
 684:.././hal//sam4s/pio.c **** /**
 685:.././hal//sam4s/pio.c ****  * \brief Return the value of a pin.
 686:.././hal//sam4s/pio.c ****  *
 687:.././hal//sam4s/pio.c ****  * \param ul_pin The pin number.
 688:.././hal//sam4s/pio.c ****  *
 689:.././hal//sam4s/pio.c ****  * \return The pin value.
 690:.././hal//sam4s/pio.c ****  *
 691:.././hal//sam4s/pio.c ****  * \note If pin is output: a pull-up or pull-down could hide the actual value.
 692:.././hal//sam4s/pio.c ****  *       The function \ref pio_get can be called to get the actual pin output
 693:.././hal//sam4s/pio.c ****  *       level.
 694:.././hal//sam4s/pio.c ****  * \note If pin is input: PIOx must be clocked to sample the signal.
 695:.././hal//sam4s/pio.c ****  *       See PMC driver.
 696:.././hal//sam4s/pio.c ****  */
 697:.././hal//sam4s/pio.c **** uint32_t pio_get_pin_value(uint32_t ul_pin)
 698:.././hal//sam4s/pio.c **** {
 1145              	 .loc 1 698 1 is_stmt 1 view-0
 1146              	 .cfi_startproc
 1147              	 
 1148              	 
 1149              	 
 699:.././hal//sam4s/pio.c **** 	Pio *p_pio = pio_get_pin_group(ul_pin);
 1150              	 .loc 1 699 2 view .LVU285
 1151              	.LBB60:
 1152              	.LBI60:
 700:.././hal//sam4s/pio.c **** 
 701:.././hal//sam4s/pio.c **** 	return (p_pio->PIO_PDSR >> (ul_pin & 0x1F)) & 1;
 702:.././hal//sam4s/pio.c **** }
 703:.././hal//sam4s/pio.c **** 
 704:.././hal//sam4s/pio.c **** /**
 705:.././hal//sam4s/pio.c ****  * \brief Drive a GPIO pin to 1.
 706:.././hal//sam4s/pio.c ****  *
 707:.././hal//sam4s/pio.c ****  * \param ul_pin The pin index.
 708:.././hal//sam4s/pio.c ****  *
 709:.././hal//sam4s/pio.c ****  * \note The function \ref pio_configure_pin must be called beforehand.
 710:.././hal//sam4s/pio.c ****  */
 711:.././hal//sam4s/pio.c **** void pio_set_pin_high(uint32_t ul_pin)
 712:.././hal//sam4s/pio.c **** {
 713:.././hal//sam4s/pio.c **** 	Pio *p_pio = pio_get_pin_group(ul_pin);
 714:.././hal//sam4s/pio.c **** 
 715:.././hal//sam4s/pio.c **** 	/* Value to be driven on the I/O line: 1. */
 716:.././hal//sam4s/pio.c **** 	p_pio->PIO_SODR = 1 << (ul_pin & 0x1F);
 717:.././hal//sam4s/pio.c **** }
 718:.././hal//sam4s/pio.c **** 
 719:.././hal//sam4s/pio.c **** /**
 720:.././hal//sam4s/pio.c ****  * \brief Drive a GPIO pin to 0.
 721:.././hal//sam4s/pio.c ****  *
 722:.././hal//sam4s/pio.c ****  * \param ul_pin The pin index.
 723:.././hal//sam4s/pio.c ****  *
 724:.././hal//sam4s/pio.c ****  * \note The function \ref pio_configure_pin must be called before.
 725:.././hal//sam4s/pio.c ****  */
 726:.././hal//sam4s/pio.c **** void pio_set_pin_low(uint32_t ul_pin)
 727:.././hal//sam4s/pio.c **** {
 728:.././hal//sam4s/pio.c **** 	Pio *p_pio = pio_get_pin_group(ul_pin);
 729:.././hal//sam4s/pio.c **** 
 730:.././hal//sam4s/pio.c **** 	/* Value to be driven on the I/O line: 0. */
 731:.././hal//sam4s/pio.c **** 	p_pio->PIO_CODR = 1 << (ul_pin & 0x1F);
 732:.././hal//sam4s/pio.c **** }
 733:.././hal//sam4s/pio.c **** 
 734:.././hal//sam4s/pio.c **** /**
 735:.././hal//sam4s/pio.c ****  * \brief Toggle a GPIO pin.
 736:.././hal//sam4s/pio.c ****  *
 737:.././hal//sam4s/pio.c ****  * \param ul_pin The pin index.
 738:.././hal//sam4s/pio.c ****  *
 739:.././hal//sam4s/pio.c ****  * \note The function \ref pio_configure_pin must be called before.
 740:.././hal//sam4s/pio.c ****  */
 741:.././hal//sam4s/pio.c **** void pio_toggle_pin(uint32_t ul_pin)
 742:.././hal//sam4s/pio.c **** {
 743:.././hal//sam4s/pio.c **** 	Pio *p_pio = pio_get_pin_group(ul_pin);
 744:.././hal//sam4s/pio.c **** 
 745:.././hal//sam4s/pio.c **** 	if (p_pio->PIO_ODSR & (1 << (ul_pin & 0x1F))) {
 746:.././hal//sam4s/pio.c **** 		/* Value to be driven on the I/O line: 0. */
 747:.././hal//sam4s/pio.c **** 		p_pio->PIO_CODR = 1 << (ul_pin & 0x1F);
 748:.././hal//sam4s/pio.c **** 	} else {
 749:.././hal//sam4s/pio.c **** 		/* Value to be driven on the I/O line: 1. */
 750:.././hal//sam4s/pio.c **** 		p_pio->PIO_SODR = 1 << (ul_pin & 0x1F);
 751:.././hal//sam4s/pio.c **** 	}
 752:.././hal//sam4s/pio.c **** }
 753:.././hal//sam4s/pio.c **** 
 754:.././hal//sam4s/pio.c **** /**
 755:.././hal//sam4s/pio.c ****  * \brief Perform complete pin(s) configuration; general attributes and PIO init
 756:.././hal//sam4s/pio.c ****  * if necessary.
 757:.././hal//sam4s/pio.c ****  *
 758:.././hal//sam4s/pio.c ****  * \param ul_pin The pin index.
 759:.././hal//sam4s/pio.c ****  * \param ul_flags Pins attributes.
 760:.././hal//sam4s/pio.c ****  *
 761:.././hal//sam4s/pio.c ****  * \return Whether the pin(s) have been configured properly.
 762:.././hal//sam4s/pio.c ****  */
 763:.././hal//sam4s/pio.c **** uint32_t pio_configure_pin(uint32_t ul_pin, const uint32_t ul_flags)
 764:.././hal//sam4s/pio.c **** {
 765:.././hal//sam4s/pio.c **** 	Pio *p_pio = pio_get_pin_group(ul_pin);
 766:.././hal//sam4s/pio.c **** 
 767:.././hal//sam4s/pio.c **** 	/* Configure pins */
 768:.././hal//sam4s/pio.c **** 	switch (ul_flags & PIO_TYPE_Msk) {
 769:.././hal//sam4s/pio.c **** 	case PIO_TYPE_PIO_PERIPH_A:
 770:.././hal//sam4s/pio.c **** 		pio_set_peripheral(p_pio, PIO_PERIPH_A, (1 << (ul_pin & 0x1F)));
 771:.././hal//sam4s/pio.c **** 		pio_pull_up(p_pio, (1 << (ul_pin & 0x1F)),
 772:.././hal//sam4s/pio.c **** 				(ul_flags & PIO_PULLUP));
 773:.././hal//sam4s/pio.c **** 		break;
 774:.././hal//sam4s/pio.c **** 	case PIO_TYPE_PIO_PERIPH_B:
 775:.././hal//sam4s/pio.c **** 		pio_set_peripheral(p_pio, PIO_PERIPH_B, (1 << (ul_pin & 0x1F)));
 776:.././hal//sam4s/pio.c **** 		pio_pull_up(p_pio, (1 << (ul_pin & 0x1F)),
 777:.././hal//sam4s/pio.c **** 				(ul_flags & PIO_PULLUP));
 778:.././hal//sam4s/pio.c **** 		break;
 779:.././hal//sam4s/pio.c **** #if (SAM3S || SAM3N || SAM4S || SAM4E || SAM4N || SAM4C || SAM4CP || SAM4CM || SAMV71 || SAMV70 || 
 780:.././hal//sam4s/pio.c **** 	case PIO_TYPE_PIO_PERIPH_C:
 781:.././hal//sam4s/pio.c **** 		pio_set_peripheral(p_pio, PIO_PERIPH_C, (1 << (ul_pin & 0x1F)));
 782:.././hal//sam4s/pio.c **** 		pio_pull_up(p_pio, (1 << (ul_pin & 0x1F)),
 783:.././hal//sam4s/pio.c **** 				(ul_flags & PIO_PULLUP));
 784:.././hal//sam4s/pio.c **** 		break;
 785:.././hal//sam4s/pio.c **** 	case PIO_TYPE_PIO_PERIPH_D:
 786:.././hal//sam4s/pio.c **** 		pio_set_peripheral(p_pio, PIO_PERIPH_D, (1 << (ul_pin & 0x1F)));
 787:.././hal//sam4s/pio.c **** 		pio_pull_up(p_pio, (1 << (ul_pin & 0x1F)),
 788:.././hal//sam4s/pio.c **** 				(ul_flags & PIO_PULLUP));
 789:.././hal//sam4s/pio.c **** 		break;
 790:.././hal//sam4s/pio.c **** #endif
 791:.././hal//sam4s/pio.c **** 
 792:.././hal//sam4s/pio.c **** 	case PIO_TYPE_PIO_INPUT:
 793:.././hal//sam4s/pio.c **** 		pio_set_input(p_pio, (1 << (ul_pin & 0x1F)), ul_flags);
 794:.././hal//sam4s/pio.c **** 		break;
 795:.././hal//sam4s/pio.c **** 
 796:.././hal//sam4s/pio.c **** 	case PIO_TYPE_PIO_OUTPUT_0:
 797:.././hal//sam4s/pio.c **** 	case PIO_TYPE_PIO_OUTPUT_1:
 798:.././hal//sam4s/pio.c **** 		pio_set_output(p_pio, (1 << (ul_pin & 0x1F)),
 799:.././hal//sam4s/pio.c **** 				((ul_flags & PIO_TYPE_PIO_OUTPUT_1)
 800:.././hal//sam4s/pio.c **** 				== PIO_TYPE_PIO_OUTPUT_1) ? 1 : 0,
 801:.././hal//sam4s/pio.c **** 				(ul_flags & PIO_OPENDRAIN) ? 1 : 0,
 802:.././hal//sam4s/pio.c **** 				(ul_flags & PIO_PULLUP) ? 1 : 0);
 803:.././hal//sam4s/pio.c **** 		break;
 804:.././hal//sam4s/pio.c **** 
 805:.././hal//sam4s/pio.c **** 	default:
 806:.././hal//sam4s/pio.c **** 		return 0;
 807:.././hal//sam4s/pio.c **** 	}
 808:.././hal//sam4s/pio.c **** 
 809:.././hal//sam4s/pio.c **** 	return 1;
 810:.././hal//sam4s/pio.c **** }
 811:.././hal//sam4s/pio.c **** 
 812:.././hal//sam4s/pio.c **** /**
 813:.././hal//sam4s/pio.c ****  * \brief Drive a GPIO port to 1.
 814:.././hal//sam4s/pio.c ****  *
 815:.././hal//sam4s/pio.c ****  * \param p_pio Base address of the PIO port.
 816:.././hal//sam4s/pio.c ****  * \param ul_mask Bitmask of one or more pin(s) to toggle.
 817:.././hal//sam4s/pio.c ****  */
 818:.././hal//sam4s/pio.c **** void pio_set_pin_group_high(Pio *p_pio, uint32_t ul_mask)
 819:.././hal//sam4s/pio.c **** {
 820:.././hal//sam4s/pio.c **** 	/* Value to be driven on the I/O line: 1. */
 821:.././hal//sam4s/pio.c **** 	p_pio->PIO_SODR = ul_mask;
 822:.././hal//sam4s/pio.c **** }
 823:.././hal//sam4s/pio.c **** 
 824:.././hal//sam4s/pio.c **** /**
 825:.././hal//sam4s/pio.c ****  * \brief Drive a GPIO port to 0.
 826:.././hal//sam4s/pio.c ****  *
 827:.././hal//sam4s/pio.c ****  * \param p_pio Base address of the PIO port.
 828:.././hal//sam4s/pio.c ****  * \param ul_mask Bitmask of one or more pin(s) to toggle.
 829:.././hal//sam4s/pio.c ****  */
 830:.././hal//sam4s/pio.c **** void pio_set_pin_group_low(Pio *p_pio, uint32_t ul_mask)
 831:.././hal//sam4s/pio.c **** {
 832:.././hal//sam4s/pio.c **** 	/* Value to be driven on the I/O line: 0. */
 833:.././hal//sam4s/pio.c **** 	p_pio->PIO_CODR = ul_mask;
 834:.././hal//sam4s/pio.c **** }
 835:.././hal//sam4s/pio.c **** 
 836:.././hal//sam4s/pio.c **** /**
 837:.././hal//sam4s/pio.c ****  * \brief Toggle a GPIO group.
 838:.././hal//sam4s/pio.c ****  *
 839:.././hal//sam4s/pio.c ****  * \param p_pio Pointer to a PIO instance.
 840:.././hal//sam4s/pio.c ****  * \param ul_mask Bitmask of one or more pin(s) to configure.
 841:.././hal//sam4s/pio.c ****  */
 842:.././hal//sam4s/pio.c **** void pio_toggle_pin_group(Pio *p_pio, uint32_t ul_mask)
 843:.././hal//sam4s/pio.c **** {
 844:.././hal//sam4s/pio.c **** 	if (p_pio->PIO_ODSR & ul_mask) {
 845:.././hal//sam4s/pio.c **** 		/* Value to be driven on the I/O line: 0. */
 846:.././hal//sam4s/pio.c **** 		p_pio->PIO_CODR = ul_mask;
 847:.././hal//sam4s/pio.c **** 	} else {
 848:.././hal//sam4s/pio.c **** 		/* Value to be driven on the I/O line: 1. */
 849:.././hal//sam4s/pio.c **** 		p_pio->PIO_SODR = ul_mask;
 850:.././hal//sam4s/pio.c **** 	}
 851:.././hal//sam4s/pio.c **** }
 852:.././hal//sam4s/pio.c **** 
 853:.././hal//sam4s/pio.c **** /**
 854:.././hal//sam4s/pio.c ****  * \brief Perform complete pin(s) configuration; general attributes and PIO init
 855:.././hal//sam4s/pio.c ****  * if necessary.
 856:.././hal//sam4s/pio.c ****  *
 857:.././hal//sam4s/pio.c ****  * \param p_pio Pointer to a PIO instance.
 858:.././hal//sam4s/pio.c ****  * \param ul_mask Bitmask of one or more pin(s) to configure.
 859:.././hal//sam4s/pio.c ****  * \param ul_flags Pin(s) attributes.
 860:.././hal//sam4s/pio.c ****  *
 861:.././hal//sam4s/pio.c ****  * \return Whether the pin(s) have been configured properly.
 862:.././hal//sam4s/pio.c ****  */
 863:.././hal//sam4s/pio.c **** uint32_t pio_configure_pin_group(Pio *p_pio,
 864:.././hal//sam4s/pio.c **** 		uint32_t ul_mask, const uint32_t ul_flags)
 865:.././hal//sam4s/pio.c **** {
 866:.././hal//sam4s/pio.c **** 	/* Configure pins */
 867:.././hal//sam4s/pio.c **** 	switch (ul_flags & PIO_TYPE_Msk) {
 868:.././hal//sam4s/pio.c **** 	case PIO_TYPE_PIO_PERIPH_A:
 869:.././hal//sam4s/pio.c **** 		pio_set_peripheral(p_pio, PIO_PERIPH_A, ul_mask);
 870:.././hal//sam4s/pio.c **** 		pio_pull_up(p_pio, ul_mask, (ul_flags & PIO_PULLUP));
 871:.././hal//sam4s/pio.c **** 		break;
 872:.././hal//sam4s/pio.c **** 	case PIO_TYPE_PIO_PERIPH_B:
 873:.././hal//sam4s/pio.c **** 		pio_set_peripheral(p_pio, PIO_PERIPH_B, ul_mask);
 874:.././hal//sam4s/pio.c **** 		pio_pull_up(p_pio, ul_mask, (ul_flags & PIO_PULLUP));
 875:.././hal//sam4s/pio.c **** 		break;
 876:.././hal//sam4s/pio.c **** #if (SAM3S || SAM3N || SAM4S || SAM4E || SAM4N || SAM4C || SAM4CP || SAM4CM || SAMV71 || SAMV70 || 
 877:.././hal//sam4s/pio.c **** 	case PIO_TYPE_PIO_PERIPH_C:
 878:.././hal//sam4s/pio.c **** 		pio_set_peripheral(p_pio, PIO_PERIPH_C, ul_mask);
 879:.././hal//sam4s/pio.c **** 		pio_pull_up(p_pio, ul_mask, (ul_flags & PIO_PULLUP));
 880:.././hal//sam4s/pio.c **** 		break;
 881:.././hal//sam4s/pio.c **** 	case PIO_TYPE_PIO_PERIPH_D:
 882:.././hal//sam4s/pio.c **** 		pio_set_peripheral(p_pio, PIO_PERIPH_D, ul_mask);
 883:.././hal//sam4s/pio.c **** 		pio_pull_up(p_pio, ul_mask, (ul_flags & PIO_PULLUP));
 884:.././hal//sam4s/pio.c **** 		break;
 885:.././hal//sam4s/pio.c **** #endif
 886:.././hal//sam4s/pio.c **** 
 887:.././hal//sam4s/pio.c **** 	case PIO_TYPE_PIO_INPUT:
 888:.././hal//sam4s/pio.c **** 		pio_set_input(p_pio, ul_mask, ul_flags);
 889:.././hal//sam4s/pio.c **** 		break;
 890:.././hal//sam4s/pio.c **** 
 891:.././hal//sam4s/pio.c **** 	case PIO_TYPE_PIO_OUTPUT_0:
 892:.././hal//sam4s/pio.c **** 	case PIO_TYPE_PIO_OUTPUT_1:
 893:.././hal//sam4s/pio.c **** 		pio_set_output(p_pio, ul_mask,
 894:.././hal//sam4s/pio.c **** 				((ul_flags & PIO_TYPE_PIO_OUTPUT_1)
 895:.././hal//sam4s/pio.c **** 				== PIO_TYPE_PIO_OUTPUT_1) ? 1 : 0,
 896:.././hal//sam4s/pio.c **** 				(ul_flags & PIO_OPENDRAIN) ? 1 : 0,
 897:.././hal//sam4s/pio.c **** 				(ul_flags & PIO_PULLUP) ? 1 : 0);
 898:.././hal//sam4s/pio.c **** 		break;
 899:.././hal//sam4s/pio.c **** 
 900:.././hal//sam4s/pio.c **** 	default:
 901:.././hal//sam4s/pio.c **** 		return 0;
 902:.././hal//sam4s/pio.c **** 	}
 903:.././hal//sam4s/pio.c **** 
 904:.././hal//sam4s/pio.c **** 	return 1;
 905:.././hal//sam4s/pio.c **** }
 906:.././hal//sam4s/pio.c **** 
 907:.././hal//sam4s/pio.c **** /**
 908:.././hal//sam4s/pio.c ****  * \brief Enable interrupt for a GPIO pin.
 909:.././hal//sam4s/pio.c ****  *
 910:.././hal//sam4s/pio.c ****  * \param ul_pin The pin index.
 911:.././hal//sam4s/pio.c ****  *
 912:.././hal//sam4s/pio.c ****  * \note The function \ref gpio_configure_pin must be called before.
 913:.././hal//sam4s/pio.c ****  */
 914:.././hal//sam4s/pio.c **** void pio_enable_pin_interrupt(uint32_t ul_pin)
 915:.././hal//sam4s/pio.c **** {
 916:.././hal//sam4s/pio.c **** 	Pio *p_pio = pio_get_pin_group(ul_pin);
 917:.././hal//sam4s/pio.c **** 
 918:.././hal//sam4s/pio.c **** 	p_pio->PIO_IER = 1 << (ul_pin & 0x1F);
 919:.././hal//sam4s/pio.c **** }
 920:.././hal//sam4s/pio.c **** 
 921:.././hal//sam4s/pio.c **** 
 922:.././hal//sam4s/pio.c **** /**
 923:.././hal//sam4s/pio.c ****  * \brief Disable interrupt for a GPIO pin.
 924:.././hal//sam4s/pio.c ****  *
 925:.././hal//sam4s/pio.c ****  * \param ul_pin The pin index.
 926:.././hal//sam4s/pio.c ****  *
 927:.././hal//sam4s/pio.c ****  * \note The function \ref gpio_configure_pin must be called before.
 928:.././hal//sam4s/pio.c ****  */
 929:.././hal//sam4s/pio.c **** void pio_disable_pin_interrupt(uint32_t ul_pin)
 930:.././hal//sam4s/pio.c **** {
 931:.././hal//sam4s/pio.c **** 	Pio *p_pio = pio_get_pin_group(ul_pin);
 932:.././hal//sam4s/pio.c **** 
 933:.././hal//sam4s/pio.c **** 	p_pio->PIO_IDR = 1 << (ul_pin & 0x1F);
 934:.././hal//sam4s/pio.c **** }
 935:.././hal//sam4s/pio.c **** 
 936:.././hal//sam4s/pio.c **** 
 937:.././hal//sam4s/pio.c **** /**
 938:.././hal//sam4s/pio.c ****  * \brief Return GPIO port for a GPIO pin.
 939:.././hal//sam4s/pio.c ****  *
 940:.././hal//sam4s/pio.c ****  * \param ul_pin The pin index.
 941:.././hal//sam4s/pio.c ****  *
 942:.././hal//sam4s/pio.c ****  * \return Pointer to \ref Pio struct for GPIO port.
 943:.././hal//sam4s/pio.c ****  */
 944:.././hal//sam4s/pio.c **** Pio *pio_get_pin_group(uint32_t ul_pin)
 1153              	 .loc 1 944 6 view .LVU286
 1154              	.LBB61:
 945:.././hal//sam4s/pio.c **** {
 946:.././hal//sam4s/pio.c **** 	Pio *p_pio;
 1155              	 .loc 1 946 2 view .LVU287
 947:.././hal//sam4s/pio.c **** 
 948:.././hal//sam4s/pio.c **** #if (SAM4C || SAM4CP)
 949:.././hal//sam4s/pio.c **** #  ifdef ID_PIOD
 950:.././hal//sam4s/pio.c **** 	if (ul_pin > PIO_PC9_IDX) {
 951:.././hal//sam4s/pio.c **** 		p_pio = PIOD;
 952:.././hal//sam4s/pio.c **** 	} else if (ul_pin > PIO_PB31_IDX) {
 953:.././hal//sam4s/pio.c **** #  else
 954:.././hal//sam4s/pio.c **** 	if  (ul_pin > PIO_PB31_IDX) {
 955:.././hal//sam4s/pio.c **** #  endif
 956:.././hal//sam4s/pio.c **** 		p_pio = PIOC;
 957:.././hal//sam4s/pio.c **** 	} else {
 958:.././hal//sam4s/pio.c **** 		p_pio = (Pio *)((uint32_t)PIOA + (PIO_DELTA * (ul_pin >> 5)));
 959:.././hal//sam4s/pio.c **** 	}
 960:.././hal//sam4s/pio.c **** #elif (SAM4CM)
 961:.././hal//sam4s/pio.c **** 	if (ul_pin > PIO_PB21_IDX) {
 962:.././hal//sam4s/pio.c **** 		p_pio = PIOC;
 963:.././hal//sam4s/pio.c **** 	} else {
 964:.././hal//sam4s/pio.c **** 		p_pio = (Pio *)((uint32_t)PIOA + (PIO_DELTA * (ul_pin >> 5)));
 965:.././hal//sam4s/pio.c **** 	}
 966:.././hal//sam4s/pio.c **** #else
 967:.././hal//sam4s/pio.c **** 	p_pio = (Pio *)((uint32_t)PIOA + (PIO_DELTA * (ul_pin >> 5)));
 1156              	 .loc 1 967 2 view .LVU288
 1157              	 .loc 1 967 56 is_stmt 0 view .LVU289
 1158 0000 4309     	 lsrs r3,r0,#5
 1159              	 .loc 1 967 33 view .LVU290
 1160 0002 03F50013 	 add r3,r3,#2097152
 1161 0006 03F20773 	 addw r3,r3,#1799
 1162 000a 5B02     	 lsls r3,r3,#9
 1163              	.LVL84:
 968:.././hal//sam4s/pio.c **** #endif
 969:.././hal//sam4s/pio.c **** 	return p_pio;
 1164              	 .loc 1 969 2 is_stmt 1 view .LVU291
 1165              	 .loc 1 969 2 is_stmt 0 view .LVU292
 1166              	.LBE61:
 1167              	.LBE60:
 701:.././hal//sam4s/pio.c **** }
 1168              	 .loc 1 701 2 is_stmt 1 view .LVU293
 701:.././hal//sam4s/pio.c **** }
 1169              	 .loc 1 701 37 is_stmt 0 view .LVU294
 1170 000c 00F01F00 	 and r0,r0,#31
 1171              	.LVL85:
 701:.././hal//sam4s/pio.c **** }
 1172              	 .loc 1 701 15 view .LVU295
 1173 0010 DB6B     	 ldr r3,[r3,#60]
 1174              	.LVL86:
 701:.././hal//sam4s/pio.c **** }
 1175              	 .loc 1 701 26 view .LVU296
 1176 0012 23FA00F0 	 lsr r0,r3,r0
 702:.././hal//sam4s/pio.c **** 
 1177              	 .loc 1 702 1 view .LVU297
 1178 0016 00F00100 	 and r0,r0,#1
 1179 001a 7047     	 bx lr
 1180              	 .cfi_endproc
 1181              	.LFE163:
 1183              	 .section .text.pio_set_pin_high,"ax",%progbits
 1184              	 .align 1
 1185              	 .global pio_set_pin_high
 1186              	 .syntax unified
 1187              	 .thumb
 1188              	 .thumb_func
 1190              	pio_set_pin_high:
 1191              	.LVL87:
 1192              	.LFB164:
 712:.././hal//sam4s/pio.c **** 	Pio *p_pio = pio_get_pin_group(ul_pin);
 1193              	 .loc 1 712 1 is_stmt 1 view-0
 1194              	 .cfi_startproc
 1195              	 
 1196              	 
 1197              	 
 713:.././hal//sam4s/pio.c **** 
 1198              	 .loc 1 713 2 view .LVU299
 1199              	.LBB62:
 1200              	.LBI62:
 944:.././hal//sam4s/pio.c **** {
 1201              	 .loc 1 944 6 view .LVU300
 1202              	.LBB63:
 946:.././hal//sam4s/pio.c **** 
 1203              	 .loc 1 946 2 view .LVU301
 967:.././hal//sam4s/pio.c **** #endif
 1204              	 .loc 1 967 2 view .LVU302
 967:.././hal//sam4s/pio.c **** #endif
 1205              	 .loc 1 967 56 is_stmt 0 view .LVU303
 1206 0000 4309     	 lsrs r3,r0,#5
 967:.././hal//sam4s/pio.c **** #endif
 1207              	 .loc 1 967 33 view .LVU304
 1208 0002 03F50013 	 add r3,r3,#2097152
 1209 0006 03F20773 	 addw r3,r3,#1799
 1210 000a 5B02     	 lsls r3,r3,#9
 1211              	.LVL88:
 1212              	 .loc 1 969 2 is_stmt 1 view .LVU305
 1213              	 .loc 1 969 2 is_stmt 0 view .LVU306
 1214              	.LBE63:
 1215              	.LBE62:
 716:.././hal//sam4s/pio.c **** }
 1216              	 .loc 1 716 2 is_stmt 1 view .LVU307
 716:.././hal//sam4s/pio.c **** }
 1217              	 .loc 1 716 33 is_stmt 0 view .LVU308
 1218 000c 00F01F00 	 and r0,r0,#31
 1219              	.LVL89:
 716:.././hal//sam4s/pio.c **** }
 1220              	 .loc 1 716 22 view .LVU309
 1221 0010 0122     	 movs r2,#1
 1222 0012 8240     	 lsls r2,r2,r0
 716:.././hal//sam4s/pio.c **** }
 1223              	 .loc 1 716 18 view .LVU310
 1224 0014 1A63     	 str r2,[r3,#48]
 717:.././hal//sam4s/pio.c **** 
 1225              	 .loc 1 717 1 view .LVU311
 1226 0016 7047     	 bx lr
 1227              	 .cfi_endproc
 1228              	.LFE164:
 1230              	 .section .text.pio_set_pin_low,"ax",%progbits
 1231              	 .align 1
 1232              	 .global pio_set_pin_low
 1233              	 .syntax unified
 1234              	 .thumb
 1235              	 .thumb_func
 1237              	pio_set_pin_low:
 1238              	.LVL90:
 1239              	.LFB165:
 727:.././hal//sam4s/pio.c **** 	Pio *p_pio = pio_get_pin_group(ul_pin);
 1240              	 .loc 1 727 1 is_stmt 1 view-0
 1241              	 .cfi_startproc
 1242              	 
 1243              	 
 1244              	 
 728:.././hal//sam4s/pio.c **** 
 1245              	 .loc 1 728 2 view .LVU313
 1246              	.LBB64:
 1247              	.LBI64:
 944:.././hal//sam4s/pio.c **** {
 1248              	 .loc 1 944 6 view .LVU314
 1249              	.LBB65:
 946:.././hal//sam4s/pio.c **** 
 1250              	 .loc 1 946 2 view .LVU315
 967:.././hal//sam4s/pio.c **** #endif
 1251              	 .loc 1 967 2 view .LVU316
 967:.././hal//sam4s/pio.c **** #endif
 1252              	 .loc 1 967 56 is_stmt 0 view .LVU317
 1253 0000 4309     	 lsrs r3,r0,#5
 967:.././hal//sam4s/pio.c **** #endif
 1254              	 .loc 1 967 33 view .LVU318
 1255 0002 03F50013 	 add r3,r3,#2097152
 1256 0006 03F20773 	 addw r3,r3,#1799
 1257 000a 5B02     	 lsls r3,r3,#9
 1258              	.LVL91:
 1259              	 .loc 1 969 2 is_stmt 1 view .LVU319
 1260              	 .loc 1 969 2 is_stmt 0 view .LVU320
 1261              	.LBE65:
 1262              	.LBE64:
 731:.././hal//sam4s/pio.c **** }
 1263              	 .loc 1 731 2 is_stmt 1 view .LVU321
 731:.././hal//sam4s/pio.c **** }
 1264              	 .loc 1 731 33 is_stmt 0 view .LVU322
 1265 000c 00F01F00 	 and r0,r0,#31
 1266              	.LVL92:
 731:.././hal//sam4s/pio.c **** }
 1267              	 .loc 1 731 22 view .LVU323
 1268 0010 0122     	 movs r2,#1
 1269 0012 8240     	 lsls r2,r2,r0
 731:.././hal//sam4s/pio.c **** }
 1270              	 .loc 1 731 18 view .LVU324
 1271 0014 5A63     	 str r2,[r3,#52]
 732:.././hal//sam4s/pio.c **** 
 1272              	 .loc 1 732 1 view .LVU325
 1273 0016 7047     	 bx lr
 1274              	 .cfi_endproc
 1275              	.LFE165:
 1277              	 .section .text.pio_toggle_pin,"ax",%progbits
 1278              	 .align 1
 1279              	 .global pio_toggle_pin
 1280              	 .syntax unified
 1281              	 .thumb
 1282              	 .thumb_func
 1284              	pio_toggle_pin:
 1285              	.LVL93:
 1286              	.LFB166:
 742:.././hal//sam4s/pio.c **** 	Pio *p_pio = pio_get_pin_group(ul_pin);
 1287              	 .loc 1 742 1 is_stmt 1 view-0
 1288              	 .cfi_startproc
 1289              	 
 1290              	 
 1291              	 
 743:.././hal//sam4s/pio.c **** 
 1292              	 .loc 1 743 2 view .LVU327
 1293              	.LBB66:
 1294              	.LBI66:
 944:.././hal//sam4s/pio.c **** {
 1295              	 .loc 1 944 6 view .LVU328
 1296              	.LBB67:
 946:.././hal//sam4s/pio.c **** 
 1297              	 .loc 1 946 2 view .LVU329
 967:.././hal//sam4s/pio.c **** #endif
 1298              	 .loc 1 967 2 view .LVU330
 967:.././hal//sam4s/pio.c **** #endif
 1299              	 .loc 1 967 56 is_stmt 0 view .LVU331
 1300 0000 4309     	 lsrs r3,r0,#5
 967:.././hal//sam4s/pio.c **** #endif
 1301              	 .loc 1 967 33 view .LVU332
 1302 0002 03F50013 	 add r3,r3,#2097152
 1303 0006 03F20773 	 addw r3,r3,#1799
 1304 000a 5B02     	 lsls r3,r3,#9
 1305              	.LVL94:
 1306              	 .loc 1 969 2 is_stmt 1 view .LVU333
 1307              	 .loc 1 969 2 is_stmt 0 view .LVU334
 1308              	.LBE67:
 1309              	.LBE66:
 745:.././hal//sam4s/pio.c **** 		/* Value to be driven on the I/O line: 0. */
 1310              	 .loc 1 745 2 is_stmt 1 view .LVU335
 745:.././hal//sam4s/pio.c **** 		/* Value to be driven on the I/O line: 0. */
 1311              	 .loc 1 745 38 is_stmt 0 view .LVU336
 1312 000c 00F01F00 	 and r0,r0,#31
 1313              	.LVL95:
 745:.././hal//sam4s/pio.c **** 		/* Value to be driven on the I/O line: 0. */
 1314              	 .loc 1 745 11 view .LVU337
 1315 0010 996B     	 ldr r1,[r3,#56]
 745:.././hal//sam4s/pio.c **** 		/* Value to be driven on the I/O line: 0. */
 1316              	 .loc 1 745 27 view .LVU338
 1317 0012 0122     	 movs r2,#1
 1318 0014 8240     	 lsls r2,r2,r0
 745:.././hal//sam4s/pio.c **** 		/* Value to be driven on the I/O line: 0. */
 1319              	 .loc 1 745 5 view .LVU339
 1320 0016 1142     	 tst r1,r2
 747:.././hal//sam4s/pio.c **** 	} else {
 1321              	 .loc 1 747 3 is_stmt 1 view .LVU340
 747:.././hal//sam4s/pio.c **** 	} else {
 1322              	 .loc 1 747 19 is_stmt 0 view .LVU341
 1323 0018 14BF     	 ite ne
 1324 001a 5A63     	 strne r2,[r3,#52]
 750:.././hal//sam4s/pio.c **** 	}
 1325              	 .loc 1 750 3 is_stmt 1 view .LVU342
 750:.././hal//sam4s/pio.c **** 	}
 1326              	 .loc 1 750 19 is_stmt 0 view .LVU343
 1327 001c 1A63     	 streq r2,[r3,#48]
 752:.././hal//sam4s/pio.c **** 
 1328              	 .loc 1 752 1 view .LVU344
 1329 001e 7047     	 bx lr
 1330              	 .cfi_endproc
 1331              	.LFE166:
 1333              	 .section .text.pio_configure_pin,"ax",%progbits
 1334              	 .align 1
 1335              	 .global pio_configure_pin
 1336              	 .syntax unified
 1337              	 .thumb
 1338              	 .thumb_func
 1340              	pio_configure_pin:
 1341              	.LVL96:
 1342              	.LFB167:
 764:.././hal//sam4s/pio.c **** 	Pio *p_pio = pio_get_pin_group(ul_pin);
 1343              	 .loc 1 764 1 is_stmt 1 view-0
 1344              	 .cfi_startproc
 1345              	 
 1346              	 
 765:.././hal//sam4s/pio.c **** 
 1347              	 .loc 1 765 2 view .LVU346
 1348              	.LBB68:
 1349              	.LBI68:
 944:.././hal//sam4s/pio.c **** {
 1350              	 .loc 1 944 6 view .LVU347
 1351              	.LBB69:
 946:.././hal//sam4s/pio.c **** 
 1352              	 .loc 1 946 2 view .LVU348
 967:.././hal//sam4s/pio.c **** #endif
 1353              	 .loc 1 967 2 view .LVU349
 1354              	.LBE69:
 1355              	.LBE68:
 764:.././hal//sam4s/pio.c **** 	Pio *p_pio = pio_get_pin_group(ul_pin);
 1356              	 .loc 1 764 1 is_stmt 0 view .LVU350
 1357 0000 37B5     	 push {r0,r1,r2,r4,r5,lr}
 1358              	.LCFI4:
 1359              	 .cfi_def_cfa_offset 24
 1360              	 .cfi_offset 4,-12
 1361              	 .cfi_offset 5,-8
 1362              	 .cfi_offset 14,-4
 764:.././hal//sam4s/pio.c **** 	Pio *p_pio = pio_get_pin_group(ul_pin);
 1363              	 .loc 1 764 1 view .LVU351
 1364 0002 0446     	 mov r4,r0
 1365              	.LBB74:
 1366              	.LBB70:
 967:.././hal//sam4s/pio.c **** #endif
 1367              	 .loc 1 967 56 view .LVU352
 1368 0004 4009     	 lsrs r0,r0,#5
 1369              	.LVL97:
 967:.././hal//sam4s/pio.c **** #endif
 1370              	 .loc 1 967 56 view .LVU353
 1371              	.LBE70:
 1372              	.LBE74:
 764:.././hal//sam4s/pio.c **** 	Pio *p_pio = pio_get_pin_group(ul_pin);
 1373              	 .loc 1 764 1 view .LVU354
 1374 0006 0D46     	 mov r5,r1
 1375              	.LBB75:
 1376              	.LBB71:
 967:.././hal//sam4s/pio.c **** #endif
 1377              	 .loc 1 967 33 view .LVU355
 1378 0008 00F50010 	 add r0,r0,#2097152
 1379              	.LBE71:
 1380              	.LBE75:
 768:.././hal//sam4s/pio.c **** 	case PIO_TYPE_PIO_PERIPH_A:
 1381              	 .loc 1 768 19 view .LVU356
 1382 000c 01F0F041 	 and r1,r1,#2013265920
 1383              	.LVL98:
 1384              	.LBB76:
 1385              	.LBB72:
 967:.././hal//sam4s/pio.c **** #endif
 1386              	 .loc 1 967 33 view .LVU357
 1387 0010 00F20770 	 addw r0,r0,#1799
 1388              	.LBE72:
 1389              	.LBE76:
 768:.././hal//sam4s/pio.c **** 	case PIO_TYPE_PIO_PERIPH_A:
 1390              	 .loc 1 768 2 view .LVU358
 1391 0014 B1F1005F 	 cmp r1,#536870912
 1392              	.LBB77:
 1393              	.LBB73:
 967:.././hal//sam4s/pio.c **** #endif
 1394              	 .loc 1 967 33 view .LVU359
 1395 0018 4FEA4020 	 lsl r0,r0,#9
 1396              	.LVL99:
 1397              	 .loc 1 969 2 is_stmt 1 view .LVU360
 1398              	 .loc 1 969 2 is_stmt 0 view .LVU361
 1399              	.LBE73:
 1400              	.LBE77:
 768:.././hal//sam4s/pio.c **** 	case PIO_TYPE_PIO_PERIPH_A:
 1401              	 .loc 1 768 2 is_stmt 1 view .LVU362
 1402 001c 1FD0     	 beq .L112
 1403 001e 0BD8     	 bhi .L113
 1404 0020 B1F1805F 	 cmp r1,#268435456
 1405 0024 1BD0     	 beq .L112
 1406 0026 B1F1C05F 	 cmp r1,#402653184
 1407 002a 18D0     	 beq .L112
 1408 002c B1F1006F 	 cmp r1,#134217728
 1409 0030 15D0     	 beq .L112
 1410              	.L128:
 1411 0032 0020     	 movs r0,#0
 1412              	.LVL100:
 1413              	.L111:
 810:.././hal//sam4s/pio.c **** 
 1414              	 .loc 1 810 1 is_stmt 0 view .LVU363
 1415 0034 03B0     	 add sp,sp,#12
 1416              	.LCFI5:
 1417              	 .cfi_remember_state
 1418              	 .cfi_def_cfa_offset 12
 1419              	 
 1420 0036 30BD     	 pop {r4,r5,pc}
 1421              	.LVL101:
 1422              	.L113:
 1423              	.LCFI6:
 1424              	 .cfi_restore_state
 768:.././hal//sam4s/pio.c **** 	case PIO_TYPE_PIO_PERIPH_A:
 1425              	 .loc 1 768 2 view .LVU364
 1426 0038 05F0E043 	 and r3,r5,#1879048192
 1427 003c B3F1405F 	 cmp r3,#805306368
 1428 0040 17D0     	 beq .L118
 1429 0042 B1F1205F 	 cmp r1,#671088640
 1430 0046 F4D1     	 bne .L128
 793:.././hal//sam4s/pio.c **** 		break;
 1431              	 .loc 1 793 3 is_stmt 1 view .LVU365
 793:.././hal//sam4s/pio.c **** 		break;
 1432              	 .loc 1 793 38 is_stmt 0 view .LVU366
 1433 0048 04F01F04 	 and r4,r4,#31
 1434              	.LVL102:
 793:.././hal//sam4s/pio.c **** 		break;
 1435              	 .loc 1 793 3 view .LVU367
 1436 004c 0121     	 movs r1,#1
 1437 004e 124B     	 ldr r3,.L131
 1438 0050 2A46     	 mov r2,r5
 1439 0052 A140     	 lsls r1,r1,r4
 1440 0054 9847     	 blx r3
 1441              	.LVL103:
 794:.././hal//sam4s/pio.c **** 
 1442              	 .loc 1 794 3 is_stmt 1 view .LVU368
 1443 0056 00E0     	 b .L121
 1444              	.LVL104:
 1445              	.L120:
 1446              	.LBB78:
 1447              	.LBB79:
  76:.././hal//sam4s/pio.c **** 	}
 1448              	 .loc 1 76 3 view .LVU369
  76:.././hal//sam4s/pio.c **** 	}
 1449              	 .loc 1 76 19 is_stmt 0 view .LVU370
 1450 0058 0266     	 str r2,[r0,#96]
 1451              	.LVL105:
 1452              	.L121:
  76:.././hal//sam4s/pio.c **** 	}
 1453              	 .loc 1 76 19 view .LVU371
 1454              	.LBE79:
 1455              	.LBE78:
 809:.././hal//sam4s/pio.c **** }
 1456              	 .loc 1 809 9 view .LVU372
 1457 005a 0120     	 movs r0,#1
 1458              	.LVL106:
 809:.././hal//sam4s/pio.c **** }
 1459              	 .loc 1 809 9 view .LVU373
 1460 005c EAE7     	 b .L111
 1461              	.LVL107:
 1462              	.L112:
 786:.././hal//sam4s/pio.c **** 		pio_pull_up(p_pio, (1 << (ul_pin & 0x1F)),
 1463              	 .loc 1 786 3 is_stmt 1 view .LVU374
 786:.././hal//sam4s/pio.c **** 		pio_pull_up(p_pio, (1 << (ul_pin & 0x1F)),
 1464              	 .loc 1 786 57 is_stmt 0 view .LVU375
 1465 005e 04F01F04 	 and r4,r4,#31
 1466              	.LVL108:
 786:.././hal//sam4s/pio.c **** 		pio_pull_up(p_pio, (1 << (ul_pin & 0x1F)),
 1467              	 .loc 1 786 46 view .LVU376
 1468 0062 0122     	 movs r2,#1
 1469 0064 A240     	 lsls r2,r2,r4
 786:.././hal//sam4s/pio.c **** 		pio_pull_up(p_pio, (1 << (ul_pin & 0x1F)),
 1470              	 .loc 1 786 3 view .LVU377
 1471 0066 0D4B     	 ldr r3,.L131+4
 1472 0068 9847     	 blx r3
 1473              	.LVL109:
 787:.././hal//sam4s/pio.c **** 				(ul_flags & PIO_PULLUP));
 1474              	 .loc 1 787 3 is_stmt 1 view .LVU378
 1475              	.LBB80:
 1476              	.LBI80:
  69:.././hal//sam4s/pio.c **** 		const uint32_t ul_pull_up_enable)
 1477              	 .loc 1 69 6 view .LVU379
 1478              	.LBB81:
  73:.././hal//sam4s/pio.c **** 		p_pio->PIO_PUER = ul_mask;
 1479              	 .loc 1 73 2 view .LVU380
  73:.././hal//sam4s/pio.c **** 		p_pio->PIO_PUER = ul_mask;
 1480              	 .loc 1 73 5 is_stmt 0 view .LVU381
 1481 006a EC07     	 lsls r4,r5,#31
 1482 006c F4D5     	 bpl .L120
  74:.././hal//sam4s/pio.c **** 	} else {
 1483              	 .loc 1 74 3 is_stmt 1 view .LVU382
  74:.././hal//sam4s/pio.c **** 	} else {
 1484              	 .loc 1 74 19 is_stmt 0 view .LVU383
 1485 006e 4266     	 str r2,[r0,#100]
 1486 0070 F3E7     	 b .L121
 1487              	.LVL110:
 1488              	.L118:
  74:.././hal//sam4s/pio.c **** 	} else {
 1489              	 .loc 1 74 19 view .LVU384
 1490              	.LBE81:
 1491              	.LBE80:
 798:.././hal//sam4s/pio.c **** 				((ul_flags & PIO_TYPE_PIO_OUTPUT_1)
 1492              	 .loc 1 798 3 is_stmt 1 view .LVU385
 799:.././hal//sam4s/pio.c **** 				== PIO_TYPE_PIO_OUTPUT_1) ? 1 : 0,
 1493              	 .loc 1 799 16 is_stmt 0 view .LVU386
 1494 0072 05F06052 	 and r2,r5,#939524096
 798:.././hal//sam4s/pio.c **** 				((ul_flags & PIO_TYPE_PIO_OUTPUT_1)
 1495              	 .loc 1 798 3 view .LVU387
 1496 0076 02F14841 	 add r1,r2,#-939524096
 1497 007a 4A42     	 rsbs r2,r1,#0
 1498 007c 05F00103 	 and r3,r5,#1
 798:.././hal//sam4s/pio.c **** 				((ul_flags & PIO_TYPE_PIO_OUTPUT_1)
 1499              	 .loc 1 798 39 view .LVU388
 1500 0080 04F01F04 	 and r4,r4,#31
 1501              	.LVL111:
 798:.././hal//sam4s/pio.c **** 				((ul_flags & PIO_TYPE_PIO_OUTPUT_1)
 1502              	 .loc 1 798 3 view .LVU389
 1503 0084 4A41     	 adcs r2,r2,r1
 1504 0086 0121     	 movs r1,#1
 1505 0088 0093     	 str r3,[sp]
 1506 008a A140     	 lsls r1,r1,r4
 1507 008c C5F38003 	 ubfx r3,r5,#2,#1
 1508 0090 034C     	 ldr r4,.L131+8
 1509 0092 A047     	 blx r4
 1510              	.LVL112:
 803:.././hal//sam4s/pio.c **** 
 1511              	 .loc 1 803 3 is_stmt 1 view .LVU390
 1512 0094 E1E7     	 b .L121
 1513              	.L132:
 1514 0096 00BF     	 .align 2
 1515              	.L131:
 1516 0098 00000000 	 .word pio_set_input
 1517 009c 00000000 	 .word pio_set_peripheral
 1518 00a0 00000000 	 .word pio_set_output
 1519              	 .cfi_endproc
 1520              	.LFE167:
 1522              	 .section .text.pio_set_pin_group_high,"ax",%progbits
 1523              	 .align 1
 1524              	 .global pio_set_pin_group_high
 1525              	 .syntax unified
 1526              	 .thumb
 1527              	 .thumb_func
 1529              	pio_set_pin_group_high:
 1530              	.LFB187:
 1531              	 .cfi_startproc
 818:.././hal//sam4s/pio.c **** {
 1532              	 .loc 1 818 6 view-0
 1533              	 
 1534              	 
 1535              	 
 1536 0000 0163     	 str r1,[r0,#48]
 1537 0002 7047     	 bx lr
 1538              	 .cfi_endproc
 1539              	.LFE187:
 1541              	 .section .text.pio_set_pin_group_low,"ax",%progbits
 1542              	 .align 1
 1543              	 .global pio_set_pin_group_low
 1544              	 .syntax unified
 1545              	 .thumb
 1546              	 .thumb_func
 1548              	pio_set_pin_group_low:
 1549              	.LFB189:
 1550              	 .cfi_startproc
 830:.././hal//sam4s/pio.c **** {
 1551              	 .loc 1 830 6 view-0
 1552              	 
 1553              	 
 1554              	 
 1555 0000 4163     	 str r1,[r0,#52]
 1556 0002 7047     	 bx lr
 1557              	 .cfi_endproc
 1558              	.LFE189:
 1560              	 .section .text.pio_toggle_pin_group,"ax",%progbits
 1561              	 .align 1
 1562              	 .global pio_toggle_pin_group
 1563              	 .syntax unified
 1564              	 .thumb
 1565              	 .thumb_func
 1567              	pio_toggle_pin_group:
 1568              	.LVL113:
 1569              	.LFB170:
 843:.././hal//sam4s/pio.c **** 	if (p_pio->PIO_ODSR & ul_mask) {
 1570              	 .loc 1 843 1 view-0
 1571              	 .cfi_startproc
 1572              	 
 1573              	 
 1574              	 
 844:.././hal//sam4s/pio.c **** 		/* Value to be driven on the I/O line: 0. */
 1575              	 .loc 1 844 2 view .LVU394
 844:.././hal//sam4s/pio.c **** 		/* Value to be driven on the I/O line: 0. */
 1576              	 .loc 1 844 11 is_stmt 0 view .LVU395
 1577 0000 836B     	 ldr r3,[r0,#56]
 844:.././hal//sam4s/pio.c **** 		/* Value to be driven on the I/O line: 0. */
 1578              	 .loc 1 844 5 view .LVU396
 1579 0002 0B42     	 tst r3,r1
 846:.././hal//sam4s/pio.c **** 	} else {
 1580              	 .loc 1 846 3 is_stmt 1 view .LVU397
 846:.././hal//sam4s/pio.c **** 	} else {
 1581              	 .loc 1 846 19 is_stmt 0 view .LVU398
 1582 0004 14BF     	 ite ne
 1583 0006 4163     	 strne r1,[r0,#52]
 849:.././hal//sam4s/pio.c **** 	}
 1584              	 .loc 1 849 3 is_stmt 1 view .LVU399
 849:.././hal//sam4s/pio.c **** 	}
 1585              	 .loc 1 849 19 is_stmt 0 view .LVU400
 1586 0008 0163     	 streq r1,[r0,#48]
 851:.././hal//sam4s/pio.c **** 
 1587              	 .loc 1 851 1 view .LVU401
 1588 000a 7047     	 bx lr
 1589              	 .cfi_endproc
 1590              	.LFE170:
 1592              	 .section .text.pio_configure_pin_group,"ax",%progbits
 1593              	 .align 1
 1594              	 .global pio_configure_pin_group
 1595              	 .syntax unified
 1596              	 .thumb
 1597              	 .thumb_func
 1599              	pio_configure_pin_group:
 1600              	.LVL114:
 1601              	.LFB171:
 865:.././hal//sam4s/pio.c **** 	/* Configure pins */
 1602              	 .loc 1 865 1 is_stmt 1 view-0
 1603              	 .cfi_startproc
 1604              	 
 1605              	 
 867:.././hal//sam4s/pio.c **** 	case PIO_TYPE_PIO_PERIPH_A:
 1606              	 .loc 1 867 2 view .LVU403
 867:.././hal//sam4s/pio.c **** 	case PIO_TYPE_PIO_PERIPH_A:
 1607              	 .loc 1 867 19 is_stmt 0 view .LVU404
 1608 0000 02F0F043 	 and r3,r2,#2013265920
 867:.././hal//sam4s/pio.c **** 	case PIO_TYPE_PIO_PERIPH_A:
 1609              	 .loc 1 867 2 view .LVU405
 1610 0004 B3F1005F 	 cmp r3,#536870912
 865:.././hal//sam4s/pio.c **** 	/* Configure pins */
 1611              	 .loc 1 865 1 view .LVU406
 1612 0008 73B5     	 push {r0,r1,r4,r5,r6,lr}
 1613              	.LCFI7:
 1614              	 .cfi_def_cfa_offset 24
 1615              	 .cfi_offset 4,-16
 1616              	 .cfi_offset 5,-12
 1617              	 .cfi_offset 6,-8
 1618              	 .cfi_offset 14,-4
 865:.././hal//sam4s/pio.c **** 	/* Configure pins */
 1619              	 .loc 1 865 1 view .LVU407
 1620 000a 0646     	 mov r6,r0
 1621 000c 0C46     	 mov r4,r1
 1622 000e 1546     	 mov r5,r2
 867:.././hal//sam4s/pio.c **** 	case PIO_TYPE_PIO_PERIPH_A:
 1623              	 .loc 1 867 2 view .LVU408
 1624 0010 1AD0     	 beq .L139
 1625 0012 0BD8     	 bhi .L140
 1626 0014 B3F1805F 	 cmp r3,#268435456
 1627 0018 16D0     	 beq .L139
 1628 001a B3F1C05F 	 cmp r3,#402653184
 1629 001e 13D0     	 beq .L139
 1630 0020 B3F1006F 	 cmp r3,#134217728
 1631 0024 10D0     	 beq .L139
 1632              	.L155:
 867:.././hal//sam4s/pio.c **** 	case PIO_TYPE_PIO_PERIPH_A:
 1633              	 .loc 1 867 2 view .LVU409
 1634 0026 0020     	 movs r0,#0
 1635              	.LVL115:
 1636              	.L138:
 905:.././hal//sam4s/pio.c **** 
 1637              	 .loc 1 905 1 view .LVU410
 1638 0028 02B0     	 add sp,sp,#8
 1639              	.LCFI8:
 1640              	 .cfi_remember_state
 1641              	 .cfi_def_cfa_offset 16
 1642              	 
 1643 002a 70BD     	 pop {r4,r5,r6,pc}
 1644              	.LVL116:
 1645              	.L140:
 1646              	.LCFI9:
 1647              	 .cfi_restore_state
 867:.././hal//sam4s/pio.c **** 	case PIO_TYPE_PIO_PERIPH_A:
 1648              	 .loc 1 867 2 view .LVU411
 1649 002c 02F0E044 	 and r4,r2,#1879048192
 1650 0030 B4F1405F 	 cmp r4,#805306368
 1651 0034 10D0     	 beq .L145
 1652 0036 B3F1205F 	 cmp r3,#671088640
 1653 003a F4D1     	 bne .L155
 888:.././hal//sam4s/pio.c **** 		break;
 1654              	 .loc 1 888 3 is_stmt 1 view .LVU412
 1655 003c 0D4B     	 ldr r3,.L158
 1656 003e 9847     	 blx r3
 1657              	.LVL117:
 889:.././hal//sam4s/pio.c **** 
 1658              	 .loc 1 889 3 view .LVU413
 1659 0040 00E0     	 b .L148
 1660              	.LVL118:
 1661              	.L147:
 1662              	.LBB82:
 1663              	.LBB83:
  76:.././hal//sam4s/pio.c **** 	}
 1664              	 .loc 1 76 3 view .LVU414
  76:.././hal//sam4s/pio.c **** 	}
 1665              	 .loc 1 76 19 is_stmt 0 view .LVU415
 1666 0042 3466     	 str r4,[r6,#96]
 1667              	.LVL119:
 1668              	.L148:
  76:.././hal//sam4s/pio.c **** 	}
 1669              	 .loc 1 76 19 view .LVU416
 1670              	.LBE83:
 1671              	.LBE82:
 904:.././hal//sam4s/pio.c **** }
 1672              	 .loc 1 904 9 view .LVU417
 1673 0044 0120     	 movs r0,#1
 1674              	.LVL120:
 904:.././hal//sam4s/pio.c **** }
 1675              	 .loc 1 904 9 view .LVU418
 1676 0046 EFE7     	 b .L138
 1677              	.LVL121:
 1678              	.L139:
 882:.././hal//sam4s/pio.c **** 		pio_pull_up(p_pio, ul_mask, (ul_flags & PIO_PULLUP));
 1679              	 .loc 1 882 3 is_stmt 1 view .LVU419
 1680 0048 1946     	 mov r1,r3
 1681              	.LVL122:
 882:.././hal//sam4s/pio.c **** 		pio_pull_up(p_pio, ul_mask, (ul_flags & PIO_PULLUP));
 1682              	 .loc 1 882 3 is_stmt 0 view .LVU420
 1683 004a 2246     	 mov r2,r4
 1684              	.LVL123:
 882:.././hal//sam4s/pio.c **** 		pio_pull_up(p_pio, ul_mask, (ul_flags & PIO_PULLUP));
 1685              	 .loc 1 882 3 view .LVU421
 1686 004c 0A4B     	 ldr r3,.L158+4
 1687 004e 9847     	 blx r3
 1688              	.LVL124:
 883:.././hal//sam4s/pio.c **** 		break;
 1689              	 .loc 1 883 3 is_stmt 1 view .LVU422
 1690              	.LBB84:
 1691              	.LBI84:
  69:.././hal//sam4s/pio.c **** 		const uint32_t ul_pull_up_enable)
 1692              	 .loc 1 69 6 view .LVU423
 1693              	.LBB85:
  73:.././hal//sam4s/pio.c **** 		p_pio->PIO_PUER = ul_mask;
 1694              	 .loc 1 73 2 view .LVU424
  73:.././hal//sam4s/pio.c **** 		p_pio->PIO_PUER = ul_mask;
 1695              	 .loc 1 73 5 is_stmt 0 view .LVU425
 1696 0050 ED07     	 lsls r5,r5,#31
 1697              	.LVL125:
  73:.././hal//sam4s/pio.c **** 		p_pio->PIO_PUER = ul_mask;
 1698              	 .loc 1 73 5 view .LVU426
 1699 0052 F6D5     	 bpl .L147
 1700              	.LVL126:
  74:.././hal//sam4s/pio.c **** 	} else {
 1701              	 .loc 1 74 3 is_stmt 1 view .LVU427
  74:.././hal//sam4s/pio.c **** 	} else {
 1702              	 .loc 1 74 19 is_stmt 0 view .LVU428
 1703 0054 7466     	 str r4,[r6,#100]
 1704 0056 F5E7     	 b .L148
 1705              	.LVL127:
 1706              	.L145:
  74:.././hal//sam4s/pio.c **** 	} else {
 1707              	 .loc 1 74 19 view .LVU429
 1708              	.LBE85:
 1709              	.LBE84:
 893:.././hal//sam4s/pio.c **** 				((ul_flags & PIO_TYPE_PIO_OUTPUT_1)
 1710              	 .loc 1 893 3 is_stmt 1 view .LVU430
 894:.././hal//sam4s/pio.c **** 				== PIO_TYPE_PIO_OUTPUT_1) ? 1 : 0,
 1711              	 .loc 1 894 16 is_stmt 0 view .LVU431
 1712 0058 02F06052 	 and r2,r2,#939524096
 1713              	.LVL128:
 893:.././hal//sam4s/pio.c **** 				((ul_flags & PIO_TYPE_PIO_OUTPUT_1)
 1714              	 .loc 1 893 3 view .LVU432
 1715 005c 02F14844 	 add r4,r2,#-939524096
 1716 0060 05F00103 	 and r3,r5,#1
 1717 0064 6242     	 rsbs r2,r4,#0
 1718 0066 0093     	 str r3,[sp]
 1719 0068 6241     	 adcs r2,r2,r4
 1720 006a C5F38003 	 ubfx r3,r5,#2,#1
 1721 006e 034C     	 ldr r4,.L158+8
 1722 0070 A047     	 blx r4
 1723              	.LVL129:
 898:.././hal//sam4s/pio.c **** 
 1724              	 .loc 1 898 3 is_stmt 1 view .LVU433
 1725 0072 E7E7     	 b .L148
 1726              	.L159:
 1727              	 .align 2
 1728              	.L158:
 1729 0074 00000000 	 .word pio_set_input
 1730 0078 00000000 	 .word pio_set_peripheral
 1731 007c 00000000 	 .word pio_set_output
 1732              	 .cfi_endproc
 1733              	.LFE171:
 1735              	 .section .text.pio_enable_pin_interrupt,"ax",%progbits
 1736              	 .align 1
 1737              	 .global pio_enable_pin_interrupt
 1738              	 .syntax unified
 1739              	 .thumb
 1740              	 .thumb_func
 1742              	pio_enable_pin_interrupt:
 1743              	.LVL130:
 1744              	.LFB172:
 915:.././hal//sam4s/pio.c **** 	Pio *p_pio = pio_get_pin_group(ul_pin);
 1745              	 .loc 1 915 1 view-0
 1746              	 .cfi_startproc
 1747              	 
 1748              	 
 1749              	 
 916:.././hal//sam4s/pio.c **** 
 1750              	 .loc 1 916 2 view .LVU435
 1751              	.LBB86:
 1752              	.LBI86:
 944:.././hal//sam4s/pio.c **** {
 1753              	 .loc 1 944 6 view .LVU436
 1754              	.LBB87:
 946:.././hal//sam4s/pio.c **** 
 1755              	 .loc 1 946 2 view .LVU437
 967:.././hal//sam4s/pio.c **** #endif
 1756              	 .loc 1 967 2 view .LVU438
 967:.././hal//sam4s/pio.c **** #endif
 1757              	 .loc 1 967 56 is_stmt 0 view .LVU439
 1758 0000 4309     	 lsrs r3,r0,#5
 967:.././hal//sam4s/pio.c **** #endif
 1759              	 .loc 1 967 33 view .LVU440
 1760 0002 03F50013 	 add r3,r3,#2097152
 1761 0006 03F20773 	 addw r3,r3,#1799
 1762 000a 5B02     	 lsls r3,r3,#9
 1763              	.LVL131:
 1764              	 .loc 1 969 2 is_stmt 1 view .LVU441
 1765              	 .loc 1 969 2 is_stmt 0 view .LVU442
 1766              	.LBE87:
 1767              	.LBE86:
 918:.././hal//sam4s/pio.c **** }
 1768              	 .loc 1 918 2 is_stmt 1 view .LVU443
 918:.././hal//sam4s/pio.c **** }
 1769              	 .loc 1 918 32 is_stmt 0 view .LVU444
 1770 000c 00F01F00 	 and r0,r0,#31
 1771              	.LVL132:
 918:.././hal//sam4s/pio.c **** }
 1772              	 .loc 1 918 21 view .LVU445
 1773 0010 0122     	 movs r2,#1
 1774 0012 8240     	 lsls r2,r2,r0
 918:.././hal//sam4s/pio.c **** }
 1775              	 .loc 1 918 17 view .LVU446
 1776 0014 1A64     	 str r2,[r3,#64]
 919:.././hal//sam4s/pio.c **** 
 1777              	 .loc 1 919 1 view .LVU447
 1778 0016 7047     	 bx lr
 1779              	 .cfi_endproc
 1780              	.LFE172:
 1782              	 .section .text.pio_disable_pin_interrupt,"ax",%progbits
 1783              	 .align 1
 1784              	 .global pio_disable_pin_interrupt
 1785              	 .syntax unified
 1786              	 .thumb
 1787              	 .thumb_func
 1789              	pio_disable_pin_interrupt:
 1790              	.LVL133:
 1791              	.LFB173:
 930:.././hal//sam4s/pio.c **** 	Pio *p_pio = pio_get_pin_group(ul_pin);
 1792              	 .loc 1 930 1 is_stmt 1 view-0
 1793              	 .cfi_startproc
 1794              	 
 1795              	 
 1796              	 
 931:.././hal//sam4s/pio.c **** 
 1797              	 .loc 1 931 2 view .LVU449
 1798              	.LBB88:
 1799              	.LBI88:
 944:.././hal//sam4s/pio.c **** {
 1800              	 .loc 1 944 6 view .LVU450
 1801              	.LBB89:
 946:.././hal//sam4s/pio.c **** 
 1802              	 .loc 1 946 2 view .LVU451
 967:.././hal//sam4s/pio.c **** #endif
 1803              	 .loc 1 967 2 view .LVU452
 967:.././hal//sam4s/pio.c **** #endif
 1804              	 .loc 1 967 56 is_stmt 0 view .LVU453
 1805 0000 4309     	 lsrs r3,r0,#5
 967:.././hal//sam4s/pio.c **** #endif
 1806              	 .loc 1 967 33 view .LVU454
 1807 0002 03F50013 	 add r3,r3,#2097152
 1808 0006 03F20773 	 addw r3,r3,#1799
 1809 000a 5B02     	 lsls r3,r3,#9
 1810              	.LVL134:
 1811              	 .loc 1 969 2 is_stmt 1 view .LVU455
 1812              	 .loc 1 969 2 is_stmt 0 view .LVU456
 1813              	.LBE89:
 1814              	.LBE88:
 933:.././hal//sam4s/pio.c **** }
 1815              	 .loc 1 933 2 is_stmt 1 view .LVU457
 933:.././hal//sam4s/pio.c **** }
 1816              	 .loc 1 933 32 is_stmt 0 view .LVU458
 1817 000c 00F01F00 	 and r0,r0,#31
 1818              	.LVL135:
 933:.././hal//sam4s/pio.c **** }
 1819              	 .loc 1 933 21 view .LVU459
 1820 0010 0122     	 movs r2,#1
 1821 0012 8240     	 lsls r2,r2,r0
 933:.././hal//sam4s/pio.c **** }
 1822              	 .loc 1 933 17 view .LVU460
 1823 0014 5A64     	 str r2,[r3,#68]
 934:.././hal//sam4s/pio.c **** 
 1824              	 .loc 1 934 1 view .LVU461
 1825 0016 7047     	 bx lr
 1826              	 .cfi_endproc
 1827              	.LFE173:
 1829              	 .section .text.pio_get_pin_group,"ax",%progbits
 1830              	 .align 1
 1831              	 .global pio_get_pin_group
 1832              	 .syntax unified
 1833              	 .thumb
 1834              	 .thumb_func
 1836              	pio_get_pin_group:
 1837              	.LVL136:
 1838              	.LFB174:
 945:.././hal//sam4s/pio.c **** 	Pio *p_pio;
 1839              	 .loc 1 945 1 is_stmt 1 view-0
 1840              	 .cfi_startproc
 1841              	 
 1842              	 
 1843              	 
 946:.././hal//sam4s/pio.c **** 
 1844              	 .loc 1 946 2 view .LVU463
 967:.././hal//sam4s/pio.c **** #endif
 1845              	 .loc 1 967 2 view .LVU464
 1846              	 .loc 1 969 2 view .LVU465
 967:.././hal//sam4s/pio.c **** #endif
 1847              	 .loc 1 967 56 is_stmt 0 view .LVU466
 1848 0000 4009     	 lsrs r0,r0,#5
 1849              	.LVL137:
 967:.././hal//sam4s/pio.c **** #endif
 1850              	 .loc 1 967 33 view .LVU467
 1851 0002 00F50010 	 add r0,r0,#2097152
 1852 0006 00F20770 	 addw r0,r0,#1799
 970:.././hal//sam4s/pio.c **** }
 1853              	 .loc 1 970 1 view .LVU468
 1854 000a 4002     	 lsls r0,r0,#9
 1855 000c 7047     	 bx lr
 1856              	 .cfi_endproc
 1857              	.LFE174:
 1859              	 .section .text.pio_get_pin_group_id,"ax",%progbits
 1860              	 .align 1
 1861              	 .global pio_get_pin_group_id
 1862              	 .syntax unified
 1863              	 .thumb
 1864              	 .thumb_func
 1866              	pio_get_pin_group_id:
 1867              	.LVL138:
 1868              	.LFB175:
 971:.././hal//sam4s/pio.c **** 
 972:.././hal//sam4s/pio.c **** /**
 973:.././hal//sam4s/pio.c ****  * \brief Return GPIO port peripheral ID for a GPIO pin.
 974:.././hal//sam4s/pio.c ****  *
 975:.././hal//sam4s/pio.c ****  * \param ul_pin The pin index.
 976:.././hal//sam4s/pio.c ****  *
 977:.././hal//sam4s/pio.c ****  * \return GPIO port peripheral ID.
 978:.././hal//sam4s/pio.c ****  */
 979:.././hal//sam4s/pio.c **** uint32_t pio_get_pin_group_id(uint32_t ul_pin)
 980:.././hal//sam4s/pio.c **** {
 1869              	 .loc 1 980 1 is_stmt 1 view-0
 1870              	 .cfi_startproc
 1871              	 
 1872              	 
 1873              	 
 981:.././hal//sam4s/pio.c **** 	uint32_t ul_id;
 1874              	 .loc 1 981 2 view .LVU470
 982:.././hal//sam4s/pio.c **** 
 983:.././hal//sam4s/pio.c **** #if (SAM4C || SAM4CP)
 984:.././hal//sam4s/pio.c **** #  ifdef ID_PIOD
 985:.././hal//sam4s/pio.c **** 	if (ul_pin > PIO_PC9_IDX) {
 986:.././hal//sam4s/pio.c **** 		ul_id = ID_PIOD;
 987:.././hal//sam4s/pio.c **** 	} else if (ul_pin > PIO_PB31_IDX) {
 988:.././hal//sam4s/pio.c **** #  else
 989:.././hal//sam4s/pio.c **** 	if (ul_pin > PIO_PB31_IDX) {
 990:.././hal//sam4s/pio.c **** #  endif
 991:.././hal//sam4s/pio.c **** 		ul_id = ID_PIOC;
 992:.././hal//sam4s/pio.c **** 	} else {
 993:.././hal//sam4s/pio.c **** 		ul_id = ID_PIOA + (ul_pin >> 5);
 994:.././hal//sam4s/pio.c **** 	}
 995:.././hal//sam4s/pio.c **** #elif (SAM4CM)
 996:.././hal//sam4s/pio.c **** 	if (ul_pin > PIO_PB21_IDX) {
 997:.././hal//sam4s/pio.c **** 		ul_id = ID_PIOC;
 998:.././hal//sam4s/pio.c **** 	} else {
 999:.././hal//sam4s/pio.c **** 		ul_id = ID_PIOA + (ul_pin >> 5);
1000:.././hal//sam4s/pio.c **** 	}
1001:.././hal//sam4s/pio.c **** #elif (SAMV70 || SAMV71 || SAME70 || SAMS70)
1002:.././hal//sam4s/pio.c **** 	ul_id = ID_PIOA + (ul_pin >> 5);
1003:.././hal//sam4s/pio.c **** 
1004:.././hal//sam4s/pio.c **** 	#ifdef ID_PIOD 
1005:.././hal//sam4s/pio.c **** 	if (ul_pin >= PIO_PD0_IDX) ul_id = ID_PIOD; 
1006:.././hal//sam4s/pio.c **** 	#endif
1007:.././hal//sam4s/pio.c **** 	
1008:.././hal//sam4s/pio.c **** 	#ifdef ID_PIOE 
1009:.././hal//sam4s/pio.c **** 	if (ul_pin >= PIO_PE0_IDX) ul_id = ID_PIOE; 
1010:.././hal//sam4s/pio.c **** 	#endif 
1011:.././hal//sam4s/pio.c **** #else
1012:.././hal//sam4s/pio.c **** 	ul_id = ID_PIOA + (ul_pin >> 5);
 1875              	 .loc 1 1012 2 view .LVU471
1013:.././hal//sam4s/pio.c **** #endif
1014:.././hal//sam4s/pio.c **** 	return ul_id;
 1876              	 .loc 1 1014 2 view .LVU472
1012:.././hal//sam4s/pio.c **** #endif
 1877              	 .loc 1 1012 28 is_stmt 0 view .LVU473
 1878 0000 4009     	 lsrs r0,r0,#5
 1879              	.LVL139:
1015:.././hal//sam4s/pio.c **** }
 1880              	 .loc 1 1015 1 view .LVU474
 1881 0002 0B30     	 adds r0,r0,#11
 1882              	.LVL140:
 1883              	 .loc 1 1015 1 view .LVU475
 1884 0004 7047     	 bx lr
 1885              	 .cfi_endproc
 1886              	.LFE175:
 1888              	 .section .text.pio_get_pin_group_mask,"ax",%progbits
 1889              	 .align 1
 1890              	 .global pio_get_pin_group_mask
 1891              	 .syntax unified
 1892              	 .thumb
 1893              	 .thumb_func
 1895              	pio_get_pin_group_mask:
 1896              	.LVL141:
 1897              	.LFB176:
1016:.././hal//sam4s/pio.c **** 
1017:.././hal//sam4s/pio.c **** 
1018:.././hal//sam4s/pio.c **** /**
1019:.././hal//sam4s/pio.c ****  * \brief Return GPIO port pin mask for a GPIO pin.
1020:.././hal//sam4s/pio.c ****  *
1021:.././hal//sam4s/pio.c ****  * \param ul_pin The pin index.
1022:.././hal//sam4s/pio.c ****  *
1023:.././hal//sam4s/pio.c ****  * \return GPIO port pin mask.
1024:.././hal//sam4s/pio.c ****  */
1025:.././hal//sam4s/pio.c **** uint32_t pio_get_pin_group_mask(uint32_t ul_pin)
1026:.././hal//sam4s/pio.c **** {
 1898              	 .loc 1 1026 1 is_stmt 1 view-0
 1899              	 .cfi_startproc
 1900              	 
 1901              	 
 1902              	 
1027:.././hal//sam4s/pio.c **** 	uint32_t ul_mask = 1 << (ul_pin & 0x1F);
 1903              	 .loc 1 1027 2 view .LVU477
1028:.././hal//sam4s/pio.c **** 	return ul_mask;
 1904              	 .loc 1 1028 2 view .LVU478
1029:.././hal//sam4s/pio.c **** }
 1905              	 .loc 1 1029 1 is_stmt 0 view .LVU479
 1906 0000 0123     	 movs r3,#1
1027:.././hal//sam4s/pio.c **** 	uint32_t ul_mask = 1 << (ul_pin & 0x1F);
 1907              	 .loc 1 1027 34 view .LVU480
 1908 0002 00F01F00 	 and r0,r0,#31
 1909              	.LVL142:
 1910              	 .loc 1 1029 1 view .LVU481
 1911 0006 03FA00F0 	 lsl r0,r3,r0
 1912              	.LVL143:
 1913              	 .loc 1 1029 1 view .LVU482
 1914 000a 7047     	 bx lr
 1915              	 .cfi_endproc
 1916              	.LFE176:
 1918              	 .section .text.pio_capture_set_mode,"ax",%progbits
 1919              	 .align 1
 1920              	 .global pio_capture_set_mode
 1921              	 .syntax unified
 1922              	 .thumb
 1923              	 .thumb_func
 1925              	pio_capture_set_mode:
 1926              	.LVL144:
 1927              	.LFB177:
1030:.././hal//sam4s/pio.c **** 
1031:.././hal//sam4s/pio.c **** #if (SAM3S || SAM4S || SAM4E || SAMV71 || SAMV70 || SAME70 || SAMS70)
1032:.././hal//sam4s/pio.c **** /* Capture mode enable flag */
1033:.././hal//sam4s/pio.c **** uint32_t pio_capture_enable_flag;
1034:.././hal//sam4s/pio.c **** 
1035:.././hal//sam4s/pio.c **** /**
1036:.././hal//sam4s/pio.c ****  * \brief Configure PIO capture mode.
1037:.././hal//sam4s/pio.c ****  * \note PIO capture mode will be disabled automatically.
1038:.././hal//sam4s/pio.c ****  *
1039:.././hal//sam4s/pio.c ****  * \param p_pio Pointer to a PIO instance.
1040:.././hal//sam4s/pio.c ****  * \param ul_mode Bitmask of one or more modes.
1041:.././hal//sam4s/pio.c ****  */
1042:.././hal//sam4s/pio.c **** void pio_capture_set_mode(Pio *p_pio, uint32_t ul_mode)
1043:.././hal//sam4s/pio.c **** {
 1928              	 .loc 1 1043 1 is_stmt 1 view-0
 1929              	 .cfi_startproc
 1930              	 
 1931              	 
 1932              	 
1044:.././hal//sam4s/pio.c **** 	ul_mode &= (~PIO_PCMR_PCEN); /* Disable PIO capture mode */
 1933              	 .loc 1 1044 2 view .LVU484
 1934              	 .loc 1 1044 10 is_stmt 0 view .LVU485
 1935 0000 21F00101 	 bic r1,r1,#1
 1936              	.LVL145:
1045:.././hal//sam4s/pio.c **** 	p_pio->PIO_PCMR = ul_mode;
 1937              	 .loc 1 1045 2 is_stmt 1 view .LVU486
 1938              	 .loc 1 1045 18 is_stmt 0 view .LVU487
 1939 0004 C0F85011 	 str r1,[r0,#336]
1046:.././hal//sam4s/pio.c **** }
 1940              	 .loc 1 1046 1 view .LVU488
 1941 0008 7047     	 bx lr
 1942              	 .cfi_endproc
 1943              	.LFE177:
 1945              	 .section .text.pio_capture_enable,"ax",%progbits
 1946              	 .align 1
 1947              	 .global pio_capture_enable
 1948              	 .syntax unified
 1949              	 .thumb
 1950              	 .thumb_func
 1952              	pio_capture_enable:
 1953              	.LVL146:
 1954              	.LFB178:
1047:.././hal//sam4s/pio.c **** 
1048:.././hal//sam4s/pio.c **** /**
1049:.././hal//sam4s/pio.c ****  * \brief Enable PIO capture mode.
1050:.././hal//sam4s/pio.c ****  *
1051:.././hal//sam4s/pio.c ****  * \param p_pio Pointer to a PIO instance.
1052:.././hal//sam4s/pio.c ****  */
1053:.././hal//sam4s/pio.c **** void pio_capture_enable(Pio *p_pio)
1054:.././hal//sam4s/pio.c **** {
 1955              	 .loc 1 1054 1 is_stmt 1 view-0
 1956              	 .cfi_startproc
 1957              	 
 1958              	 
 1959              	 
1055:.././hal//sam4s/pio.c **** 	p_pio->PIO_PCMR |= PIO_PCMR_PCEN;
 1960              	 .loc 1 1055 2 view .LVU490
 1961              	 .loc 1 1055 7 is_stmt 0 view .LVU491
 1962 0000 D0F85031 	 ldr r3,[r0,#336]
 1963              	 .loc 1 1055 18 view .LVU492
 1964 0004 43F00103 	 orr r3,r3,#1
 1965 0008 C0F85031 	 str r3,[r0,#336]
1056:.././hal//sam4s/pio.c **** 	pio_capture_enable_flag = true;
 1966              	 .loc 1 1056 2 is_stmt 1 view .LVU493
 1967              	 .loc 1 1056 26 is_stmt 0 view .LVU494
 1968 000c 014B     	 ldr r3,.L167
 1969 000e 0122     	 movs r2,#1
 1970 0010 1A60     	 str r2,[r3]
1057:.././hal//sam4s/pio.c **** }
 1971              	 .loc 1 1057 1 view .LVU495
 1972 0012 7047     	 bx lr
 1973              	.L168:
 1974              	 .align 2
 1975              	.L167:
 1976 0014 00000000 	 .word pio_capture_enable_flag
 1977              	 .cfi_endproc
 1978              	.LFE178:
 1980              	 .section .text.pio_capture_disable,"ax",%progbits
 1981              	 .align 1
 1982              	 .global pio_capture_disable
 1983              	 .syntax unified
 1984              	 .thumb
 1985              	 .thumb_func
 1987              	pio_capture_disable:
 1988              	.LVL147:
 1989              	.LFB179:
1058:.././hal//sam4s/pio.c **** 
1059:.././hal//sam4s/pio.c **** /**
1060:.././hal//sam4s/pio.c ****  * \brief Disable PIO capture mode.
1061:.././hal//sam4s/pio.c ****  *
1062:.././hal//sam4s/pio.c ****  * \param p_pio Pointer to a PIO instance.
1063:.././hal//sam4s/pio.c ****  */
1064:.././hal//sam4s/pio.c **** void pio_capture_disable(Pio *p_pio)
1065:.././hal//sam4s/pio.c **** {
 1990              	 .loc 1 1065 1 is_stmt 1 view-0
 1991              	 .cfi_startproc
 1992              	 
 1993              	 
 1994              	 
1066:.././hal//sam4s/pio.c **** 	p_pio->PIO_PCMR &= (~PIO_PCMR_PCEN);
 1995              	 .loc 1 1066 2 view .LVU497
 1996              	 .loc 1 1066 7 is_stmt 0 view .LVU498
 1997 0000 D0F85031 	 ldr r3,[r0,#336]
 1998              	 .loc 1 1066 18 view .LVU499
 1999 0004 23F00103 	 bic r3,r3,#1
 2000 0008 C0F85031 	 str r3,[r0,#336]
1067:.././hal//sam4s/pio.c **** 	pio_capture_enable_flag = false;
 2001              	 .loc 1 1067 2 is_stmt 1 view .LVU500
 2002              	 .loc 1 1067 26 is_stmt 0 view .LVU501
 2003 000c 014B     	 ldr r3,.L170
 2004 000e 0022     	 movs r2,#0
 2005 0010 1A60     	 str r2,[r3]
1068:.././hal//sam4s/pio.c **** }
 2006              	 .loc 1 1068 1 view .LVU502
 2007 0012 7047     	 bx lr
 2008              	.L171:
 2009              	 .align 2
 2010              	.L170:
 2011 0014 00000000 	 .word pio_capture_enable_flag
 2012              	 .cfi_endproc
 2013              	.LFE179:
 2015              	 .section .text.pio_capture_read,"ax",%progbits
 2016              	 .align 1
 2017              	 .global pio_capture_read
 2018              	 .syntax unified
 2019              	 .thumb
 2020              	 .thumb_func
 2022              	pio_capture_read:
 2023              	.LVL148:
 2024              	.LFB180:
1069:.././hal//sam4s/pio.c **** 
1070:.././hal//sam4s/pio.c **** /**
1071:.././hal//sam4s/pio.c ****  * \brief Read from Capture Reception Holding Register.
1072:.././hal//sam4s/pio.c ****  * \note Data presence should be tested before any read attempt.
1073:.././hal//sam4s/pio.c ****  *
1074:.././hal//sam4s/pio.c ****  * \param p_pio Pointer to a PIO instance.
1075:.././hal//sam4s/pio.c ****  * \param pul_data Pointer to store the data.
1076:.././hal//sam4s/pio.c ****  *
1077:.././hal//sam4s/pio.c ****  * \retval 0 Success.
1078:.././hal//sam4s/pio.c ****  * \retval 1 I/O Failure, Capture data is not ready.
1079:.././hal//sam4s/pio.c ****  */
1080:.././hal//sam4s/pio.c **** uint32_t pio_capture_read(const Pio *p_pio, uint32_t *pul_data)
1081:.././hal//sam4s/pio.c **** {
 2025              	 .loc 1 1081 1 is_stmt 1 view-0
 2026              	 .cfi_startproc
 2027              	 
 2028              	 
 2029              	 
1082:.././hal//sam4s/pio.c **** 	/* Check if the data is ready */
1083:.././hal//sam4s/pio.c **** 	if ((p_pio->PIO_PCISR & PIO_PCISR_DRDY) == 0) {
 2030              	 .loc 1 1083 2 view .LVU504
 2031              	 .loc 1 1083 12 is_stmt 0 view .LVU505
 2032 0000 D0F86031 	 ldr r3,[r0,#352]
 2033              	 .loc 1 1083 5 view .LVU506
 2034 0004 DB07     	 lsls r3,r3,#31
1084:.././hal//sam4s/pio.c **** 		return 1;
1085:.././hal//sam4s/pio.c **** 	}
1086:.././hal//sam4s/pio.c **** 
1087:.././hal//sam4s/pio.c **** 	/* Read data */
1088:.././hal//sam4s/pio.c **** 	*pul_data = p_pio->PIO_PCRHR;
 2035              	 .loc 1 1088 2 is_stmt 1 view .LVU507
 2036              	 .loc 1 1088 19 is_stmt 0 view .LVU508
 2037 0006 43BF     	 ittte mi
 2038 0008 D0F86431 	 ldrmi r3,[r0,#356]
 2039              	 .loc 1 1088 12 view .LVU509
 2040 000c 0B60     	 strmi r3,[r1]
1089:.././hal//sam4s/pio.c **** 	return 0;
 2041              	 .loc 1 1089 2 is_stmt 1 view .LVU510
 2042              	 .loc 1 1089 9 is_stmt 0 view .LVU511
 2043 000e 0020     	 movmi r0,#0
 2044              	.LVL149:
1084:.././hal//sam4s/pio.c **** 		return 1;
 2045              	 .loc 1 1084 10 view .LVU512
 2046 0010 0120     	 movpl r0,#1
1090:.././hal//sam4s/pio.c **** }
 2047              	 .loc 1 1090 1 view .LVU513
 2048 0012 7047     	 bx lr
 2049              	 .cfi_endproc
 2050              	.LFE180:
 2052              	 .section .text.pio_capture_enable_interrupt,"ax",%progbits
 2053              	 .align 1
 2054              	 .global pio_capture_enable_interrupt
 2055              	 .syntax unified
 2056              	 .thumb
 2057              	 .thumb_func
 2059              	pio_capture_enable_interrupt:
 2060              	.LVL150:
 2061              	.LFB181:
1091:.././hal//sam4s/pio.c **** 
1092:.././hal//sam4s/pio.c **** /**
1093:.././hal//sam4s/pio.c ****  * \brief Enable the given interrupt source of PIO capture. The status
1094:.././hal//sam4s/pio.c ****  * register of the corresponding PIO capture controller is cleared prior
1095:.././hal//sam4s/pio.c ****  * to enabling the interrupt.
1096:.././hal//sam4s/pio.c ****  *
1097:.././hal//sam4s/pio.c ****  * \param p_pio Pointer to a PIO instance.
1098:.././hal//sam4s/pio.c ****  * \param ul_mask Interrupt sources bit map.
1099:.././hal//sam4s/pio.c ****  */
1100:.././hal//sam4s/pio.c **** void pio_capture_enable_interrupt(Pio *p_pio, const uint32_t ul_mask)
1101:.././hal//sam4s/pio.c **** {
 2062              	 .loc 1 1101 1 is_stmt 1 view-0
 2063              	 .cfi_startproc
 2064              	 
 2065              	 
 2066              	 
1102:.././hal//sam4s/pio.c **** 	p_pio->PIO_PCISR;
 2067              	 .loc 1 1102 2 view .LVU515
 2068              	 .loc 1 1102 7 is_stmt 0 view .LVU516
 2069 0000 D0F86031 	 ldr r3,[r0,#352]
1103:.././hal//sam4s/pio.c **** 	p_pio->PIO_PCIER = ul_mask;
 2070              	 .loc 1 1103 2 is_stmt 1 view .LVU517
 2071              	 .loc 1 1103 19 is_stmt 0 view .LVU518
 2072 0004 C0F85411 	 str r1,[r0,#340]
1104:.././hal//sam4s/pio.c **** }
 2073              	 .loc 1 1104 1 view .LVU519
 2074 0008 7047     	 bx lr
 2075              	 .cfi_endproc
 2076              	.LFE181:
 2078              	 .section .text.pio_capture_disable_interrupt,"ax",%progbits
 2079              	 .align 1
 2080              	 .global pio_capture_disable_interrupt
 2081              	 .syntax unified
 2082              	 .thumb
 2083              	 .thumb_func
 2085              	pio_capture_disable_interrupt:
 2086              	.LVL151:
 2087              	.LFB182:
1105:.././hal//sam4s/pio.c **** 
1106:.././hal//sam4s/pio.c **** /**
1107:.././hal//sam4s/pio.c ****  * \brief Disable a given interrupt source of PIO capture.
1108:.././hal//sam4s/pio.c ****  *
1109:.././hal//sam4s/pio.c ****  * \param p_pio Pointer to a PIO instance.
1110:.././hal//sam4s/pio.c ****  * \param ul_mask Interrupt sources bit map.
1111:.././hal//sam4s/pio.c ****  */
1112:.././hal//sam4s/pio.c **** void pio_capture_disable_interrupt(Pio *p_pio, const uint32_t ul_mask)
1113:.././hal//sam4s/pio.c **** {
 2088              	 .loc 1 1113 1 is_stmt 1 view-0
 2089              	 .cfi_startproc
 2090              	 
 2091              	 
 2092              	 
1114:.././hal//sam4s/pio.c **** 	p_pio->PIO_PCIDR = ul_mask;
 2093              	 .loc 1 1114 2 view .LVU521
 2094              	 .loc 1 1114 19 is_stmt 0 view .LVU522
 2095 0000 C0F85811 	 str r1,[r0,#344]
1115:.././hal//sam4s/pio.c **** }
 2096              	 .loc 1 1115 1 view .LVU523
 2097 0004 7047     	 bx lr
 2098              	 .cfi_endproc
 2099              	.LFE182:
 2101              	 .section .text.pio_capture_get_interrupt_status,"ax",%progbits
 2102              	 .align 1
 2103              	 .global pio_capture_get_interrupt_status
 2104              	 .syntax unified
 2105              	 .thumb
 2106              	 .thumb_func
 2108              	pio_capture_get_interrupt_status:
 2109              	.LVL152:
 2110              	.LFB183:
1116:.././hal//sam4s/pio.c **** 
1117:.././hal//sam4s/pio.c **** /**
1118:.././hal//sam4s/pio.c ****  * \brief Read PIO interrupt status of PIO capture.
1119:.././hal//sam4s/pio.c ****  *
1120:.././hal//sam4s/pio.c ****  * \param p_pio Pointer to a PIO instance.
1121:.././hal//sam4s/pio.c ****  *
1122:.././hal//sam4s/pio.c ****  * \return The interrupt status mask value.
1123:.././hal//sam4s/pio.c ****  */
1124:.././hal//sam4s/pio.c **** uint32_t pio_capture_get_interrupt_status(const Pio *p_pio)
1125:.././hal//sam4s/pio.c **** {
 2111              	 .loc 1 1125 1 is_stmt 1 view-0
 2112              	 .cfi_startproc
 2113              	 
 2114              	 
 2115              	 
1126:.././hal//sam4s/pio.c **** 	return p_pio->PIO_PCISR;
 2116              	 .loc 1 1126 2 view .LVU525
 2117              	 .loc 1 1126 14 is_stmt 0 view .LVU526
 2118 0000 D0F86001 	 ldr r0,[r0,#352]
 2119              	.LVL153:
1127:.././hal//sam4s/pio.c **** }
 2120              	 .loc 1 1127 1 view .LVU527
 2121 0004 7047     	 bx lr
 2122              	 .cfi_endproc
 2123              	.LFE183:
 2125              	 .section .text.pio_capture_get_interrupt_mask,"ax",%progbits
 2126              	 .align 1
 2127              	 .global pio_capture_get_interrupt_mask
 2128              	 .syntax unified
 2129              	 .thumb
 2130              	 .thumb_func
 2132              	pio_capture_get_interrupt_mask:
 2133              	.LVL154:
 2134              	.LFB184:
1128:.././hal//sam4s/pio.c **** 
1129:.././hal//sam4s/pio.c **** /**
1130:.././hal//sam4s/pio.c ****  * \brief Read PIO interrupt mask of PIO capture.
1131:.././hal//sam4s/pio.c ****  *
1132:.././hal//sam4s/pio.c ****  * \param p_pio Pointer to a PIO instance.
1133:.././hal//sam4s/pio.c ****  *
1134:.././hal//sam4s/pio.c ****  * \return The interrupt mask value.
1135:.././hal//sam4s/pio.c ****  */
1136:.././hal//sam4s/pio.c **** uint32_t pio_capture_get_interrupt_mask(const Pio *p_pio)
1137:.././hal//sam4s/pio.c **** {
 2135              	 .loc 1 1137 1 is_stmt 1 view-0
 2136              	 .cfi_startproc
 2137              	 
 2138              	 
 2139              	 
1138:.././hal//sam4s/pio.c **** 	return p_pio->PIO_PCIMR;
 2140              	 .loc 1 1138 2 view .LVU529
 2141              	 .loc 1 1138 14 is_stmt 0 view .LVU530
 2142 0000 D0F85C01 	 ldr r0,[r0,#348]
 2143              	.LVL155:
1139:.././hal//sam4s/pio.c **** }
 2144              	 .loc 1 1139 1 view .LVU531
 2145 0004 7047     	 bx lr
 2146              	 .cfi_endproc
 2147              	.LFE184:
 2149              	 .section .text.pio_capture_get_pdc_base,"ax",%progbits
 2150              	 .align 1
 2151              	 .global pio_capture_get_pdc_base
 2152              	 .syntax unified
 2153              	 .thumb
 2154              	 .thumb_func
 2156              	pio_capture_get_pdc_base:
 2157              	.LVL156:
 2158              	.LFB185:
1140:.././hal//sam4s/pio.c **** #if !(SAMV71 || SAMV70 || SAME70 || SAMS70)
1141:.././hal//sam4s/pio.c **** /**
1142:.././hal//sam4s/pio.c ****  * \brief Get PDC registers base address.
1143:.././hal//sam4s/pio.c ****  *
1144:.././hal//sam4s/pio.c ****  * \param p_pio Pointer to an PIO peripheral.
1145:.././hal//sam4s/pio.c ****  *
1146:.././hal//sam4s/pio.c ****  * \return PIOA PDC register base address.
1147:.././hal//sam4s/pio.c ****  */
1148:.././hal//sam4s/pio.c **** Pdc *pio_capture_get_pdc_base(const Pio *p_pio)
1149:.././hal//sam4s/pio.c **** {
 2159              	 .loc 1 1149 1 is_stmt 1 view-0
 2160              	 .cfi_startproc
 2161              	 
 2162              	 
 2163              	 
1150:.././hal//sam4s/pio.c **** 	UNUSED(p_pio); /* Stop warning */
 2164              	 .loc 1 1150 2 view .LVU533
1151:.././hal//sam4s/pio.c **** 	return PDC_PIOA;
 2165              	 .loc 1 1151 2 view .LVU534
1152:.././hal//sam4s/pio.c **** }
 2166              	 .loc 1 1152 1 is_stmt 0 view .LVU535
 2167 0000 0048     	 ldr r0,.L180
 2168              	.LVL157:
 2169              	 .loc 1 1152 1 view .LVU536
 2170 0002 7047     	 bx lr
 2171              	.L181:
 2172              	 .align 2
 2173              	.L180:
 2174 0004 680F0E40 	 .word 1074663272
 2175              	 .cfi_endproc
 2176              	.LFE185:
 2178              	 .global pio_capture_enable_flag
 2179              	 .section .bss.pio_capture_enable_flag,"aw",%nobits
 2180              	 .align 2
 2183              	pio_capture_enable_flag:
 2184 0000 00000000 	 .space 4
 2185              	 .section .bss.cpu_irq_prev_interrupt_state,"aw",%nobits
 2188              	cpu_irq_prev_interrupt_state:
 2189 0000 00       	 .space 1
 2190              	 .section .bss.cpu_irq_critical_section_counter,"aw",%nobits
 2191              	 .align 2
 2194              	cpu_irq_critical_section_counter:
 2195 0000 00000000 	 .space 4
 2196              	 .text
 2197              	.Letext0:
 2198              	 .file 2 ".././hal//sam4s/inc/component/component_pdc.h"
 2199              	 .file 3 ".././hal//sam4s/inc/component/component_pio.h"
 2200              	 .file 4 ".././hal//sam4s/inc/interrupt/interrupt_sam_nvic.h"
 2201              	 .file 5 "/usr/lib/gcc/arm-none-eabi/14.2.1/include/stdint.h"
 2202              	 .file 6 ".././hal//sam4s/inc/pio.h"