
simpleserial-ml-kem-512-CWHUSKY.elf:     file format elf32-littlearm

Sections:
Idx Name          Size      VMA       LMA       File off  Algn
  0 .text         00002ea0  00400000  00400000  00010000  2**3
                  CONTENTS, ALLOC, LOAD, READONLY, CODE
  1 .ARM.exidx    00000008  00402ea0  00402ea0  00012ea0  2**2
                  CONTENTS, ALLOC, LOAD, READONLY, DATA
  2 .relocate     00000054  20000000  00402ea8  00020000  2**2
                  CONTENTS, ALLOC, LOAD, DATA
  3 .bss          00001058  20000054  00402efc  00020054  2**2
                  ALLOC
  4 .stack        00001004  200010ac  00403f54  00020054  2**0
                  ALLOC
  5 .ARM.attributes 0000002a  00000000  00000000  00020054  2**0
                  CONTENTS, READONLY
  6 .comment      0000004c  00000000  00000000  0002007e  2**0
                  CONTENTS, READONLY
  7 .debug_info   000104d4  00000000  00000000  000200ca  2**0
                  CONTENTS, READONLY, DEBUGGING, OCTETS
  8 .debug_abbrev 0000386c  00000000  00000000  0003059e  2**0
                  CONTENTS, READONLY, DEBUGGING, OCTETS
  9 .debug_loc    0000a035  00000000  00000000  00033e0a  2**0
                  CONTENTS, READONLY, DEBUGGING, OCTETS
 10 .debug_aranges 00000b78  00000000  00000000  0003de40  2**3
                  CONTENTS, READONLY, DEBUGGING, OCTETS
 11 .debug_ranges 00000c30  00000000  00000000  0003e9b8  2**0
                  CONTENTS, READONLY, DEBUGGING, OCTETS
 12 .debug_macro  00010df7  00000000  00000000  0003f5e8  2**0
                  CONTENTS, READONLY, DEBUGGING, OCTETS
 13 .debug_line   0000adde  00000000  00000000  000503df  2**0
                  CONTENTS, READONLY, DEBUGGING, OCTETS
 14 .debug_str    0004eba2  00000000  00000000  0005b1bd  2**0
                  CONTENTS, READONLY, DEBUGGING, OCTETS
 15 .debug_frame  00001c24  00000000  00000000  000a9d60  2**2
                  CONTENTS, READONLY, DEBUGGING, OCTETS
 16 .debug_loclists 00000a31  00000000  00000000  000ab984  2**0
                  CONTENTS, READONLY, DEBUGGING, OCTETS
 17 .debug_line_str 0000009a  00000000  00000000  000ac3b5  2**0
                  CONTENTS, READONLY, DEBUGGING, OCTETS
 18 .debug_rnglists 000000d4  00000000  00000000  000ac44f  2**0
                  CONTENTS, READONLY, DEBUGGING, OCTETS

Disassembly of section .text:

00400000 <exception_table>:
  400000:	b0 20 00 20 d1 20 40 00 cd 20 40 00 cd 20 40 00     . . . @.. @.. @.
  400010:	cd 20 40 00 cd 20 40 00 cd 20 40 00 00 00 00 00     . @.. @.. @.....
  400020:	00 00 00 00 00 00 00 00 00 00 00 00 cd 20 40 00     ............. @.
  400030:	cd 20 40 00 00 00 00 00 cd 20 40 00 cd 20 40 00     . @...... @.. @.
  400040:	cd 20 40 00 cd 20 40 00 cd 20 40 00 cd 20 40 00     . @.. @.. @.. @.
  400050:	cd 20 40 00 cd 20 40 00 cd 20 40 00 00 00 00 00     . @.. @.. @.....
  400060:	cd 20 40 00 cd 20 40 00 00 00 00 00 cd 20 40 00     . @.. @...... @.
  400070:	cd 20 40 00 00 00 00 00 cd 20 40 00 cd 20 40 00     . @...... @.. @.
  400080:	00 00 00 00 00 00 00 00 cd 20 40 00 cd 20 40 00     ......... @.. @.
  400090:	cd 20 40 00 cd 20 40 00 cd 20 40 00 cd 20 40 00     . @.. @.. @.. @.
  4000a0:	cd 20 40 00 cd 20 40 00 00 00 00 00 00 00 00 00     . @.. @.........
  4000b0:	00 00 00 00 cd 20 40 00 cd 20 40 00 cd 20 40 00     ..... @.. @.. @.
  4000c0:	cd 20 40 00 cd 20 40 00 cd 20 40 00                 . @.. @.. @.

004000cc <deregister_tm_clones>:
  4000cc:	4803      	ldr	r0, [pc, #12]	@ (4000dc <deregister_tm_clones+0x10>)
  4000ce:	4b04      	ldr	r3, [pc, #16]	@ (4000e0 <deregister_tm_clones+0x14>)
  4000d0:	4283      	cmp	r3, r0
  4000d2:	d002      	beq.n	4000da <deregister_tm_clones+0xe>
  4000d4:	4b03      	ldr	r3, [pc, #12]	@ (4000e4 <deregister_tm_clones+0x18>)
  4000d6:	b103      	cbz	r3, 4000da <deregister_tm_clones+0xe>
  4000d8:	4718      	bx	r3
  4000da:	4770      	bx	lr
  4000dc:	00402ea8 	.word	0x00402ea8
  4000e0:	00402ea8 	.word	0x00402ea8
  4000e4:	00000000 	.word	0x00000000

004000e8 <register_tm_clones>:
  4000e8:	4805      	ldr	r0, [pc, #20]	@ (400100 <register_tm_clones+0x18>)
  4000ea:	4b06      	ldr	r3, [pc, #24]	@ (400104 <register_tm_clones+0x1c>)
  4000ec:	1a1b      	subs	r3, r3, r0
  4000ee:	0fd9      	lsrs	r1, r3, #31
  4000f0:	eb01 01a3 	add.w	r1, r1, r3, asr #2
  4000f4:	1049      	asrs	r1, r1, #1
  4000f6:	d002      	beq.n	4000fe <register_tm_clones+0x16>
  4000f8:	4b03      	ldr	r3, [pc, #12]	@ (400108 <register_tm_clones+0x20>)
  4000fa:	b103      	cbz	r3, 4000fe <register_tm_clones+0x16>
  4000fc:	4718      	bx	r3
  4000fe:	4770      	bx	lr
  400100:	00402ea8 	.word	0x00402ea8
  400104:	00402ea8 	.word	0x00402ea8
  400108:	00000000 	.word	0x00000000

0040010c <__do_global_dtors_aux>:
  40010c:	b510      	push	{r4, lr}
  40010e:	4c06      	ldr	r4, [pc, #24]	@ (400128 <__do_global_dtors_aux+0x1c>)
  400110:	7823      	ldrb	r3, [r4, #0]
  400112:	b943      	cbnz	r3, 400126 <__do_global_dtors_aux+0x1a>
  400114:	f7ff ffda 	bl	4000cc <deregister_tm_clones>
  400118:	4b04      	ldr	r3, [pc, #16]	@ (40012c <__do_global_dtors_aux+0x20>)
  40011a:	b113      	cbz	r3, 400122 <__do_global_dtors_aux+0x16>
  40011c:	4804      	ldr	r0, [pc, #16]	@ (400130 <__do_global_dtors_aux+0x24>)
  40011e:	f3af 8000 	nop.w
  400122:	2301      	movs	r3, #1
  400124:	7023      	strb	r3, [r4, #0]
  400126:	bd10      	pop	{r4, pc}
  400128:	20000054 	.word	0x20000054
  40012c:	00000000 	.word	0x00000000
  400130:	00402ea8 	.word	0x00402ea8

00400134 <frame_dummy>:
  400134:	b508      	push	{r3, lr}
  400136:	4b04      	ldr	r3, [pc, #16]	@ (400148 <frame_dummy+0x14>)
  400138:	b11b      	cbz	r3, 400142 <frame_dummy+0xe>
  40013a:	4904      	ldr	r1, [pc, #16]	@ (40014c <frame_dummy+0x18>)
  40013c:	4804      	ldr	r0, [pc, #16]	@ (400150 <frame_dummy+0x1c>)
  40013e:	f3af 8000 	nop.w
  400142:	e8bd 4008 	ldmia.w	sp!, {r3, lr}
  400146:	e7cf      	b.n	4000e8 <register_tm_clones>
  400148:	00000000 	.word	0x00000000
  40014c:	20000058 	.word	0x20000058
  400150:	00402ea8 	.word	0x00402ea8

00400154 <led_toggle>:
            __asm__ volatile ("nop");
        }
    }
}

uint8_t led_toggle(uint8_t* m, uint8_t len){
  400154:	b510      	push	{r4, lr}
    int led = m[0];  // Get LED number from input byte (14=LED3, 15=LED2, 16=LED1)
  400156:	7804      	ldrb	r4, [r0, #0]
    uint8_t current_state = 0;
    
    // Get current state
    if(led == LED1) current_state = LED1State;
  400158:	2c10      	cmp	r4, #16
  40015a:	d10f      	bne.n	40017c <led_toggle+0x28>
  40015c:	4b16      	ldr	r3, [pc, #88]	@ (4001b8 <led_toggle+0x64>)
    else if(led == LED2) current_state = LED2State;
    else if(led == LED3) current_state = LED3State;
  40015e:	781b      	ldrb	r3, [r3, #0]
  400160:	b2db      	uxtb	r3, r3
    
    // Toggle: if on, turn off; if off, turn on
    if(current_state == 1){
  400162:	2b01      	cmp	r3, #1
  400164:	d117      	bne.n	400196 <led_toggle+0x42>
        gpio_set_pin_low(led);
  400166:	4b15      	ldr	r3, [pc, #84]	@ (4001bc <led_toggle+0x68>)
  400168:	4620      	mov	r0, r4
  40016a:	4798      	blx	r3
        if(led == LED1) LED1State = 0;
  40016c:	2c10      	cmp	r4, #16
  40016e:	f04f 0300 	mov.w	r3, #0
  400172:	d10b      	bne.n	40018c <led_toggle+0x38>
  400174:	4a10      	ldr	r2, [pc, #64]	@ (4001b8 <led_toggle+0x64>)
        else if(led == LED2) LED2State = 0;
        else if(led == LED3) LED3State = 0;
  400176:	7013      	strb	r3, [r2, #0]
        else if(led == LED2) LED2State = 1;
        else if(led == LED3) LED3State = 1;
    }
    
    return 0;
}
  400178:	2000      	movs	r0, #0
  40017a:	bd10      	pop	{r4, pc}
    else if(led == LED2) current_state = LED2State;
  40017c:	2c0f      	cmp	r4, #15
  40017e:	d101      	bne.n	400184 <led_toggle+0x30>
  400180:	4b0f      	ldr	r3, [pc, #60]	@ (4001c0 <led_toggle+0x6c>)
  400182:	e7ec      	b.n	40015e <led_toggle+0xa>
    else if(led == LED3) current_state = LED3State;
  400184:	2c0e      	cmp	r4, #14
  400186:	d106      	bne.n	400196 <led_toggle+0x42>
  400188:	4b0e      	ldr	r3, [pc, #56]	@ (4001c4 <led_toggle+0x70>)
  40018a:	e7e8      	b.n	40015e <led_toggle+0xa>
        else if(led == LED2) LED2State = 0;
  40018c:	2c0f      	cmp	r4, #15
  40018e:	bf0c      	ite	eq
  400190:	4a0b      	ldreq	r2, [pc, #44]	@ (4001c0 <led_toggle+0x6c>)
        else if(led == LED3) LED3State = 0;
  400192:	4a0c      	ldrne	r2, [pc, #48]	@ (4001c4 <led_toggle+0x70>)
  400194:	e7ef      	b.n	400176 <led_toggle+0x22>
        gpio_set_pin_high(led);
  400196:	4b0c      	ldr	r3, [pc, #48]	@ (4001c8 <led_toggle+0x74>)
  400198:	4620      	mov	r0, r4
  40019a:	4798      	blx	r3
        if(led == LED1) LED1State = 1;
  40019c:	2c10      	cmp	r4, #16
  40019e:	d103      	bne.n	4001a8 <led_toggle+0x54>
  4001a0:	4b05      	ldr	r3, [pc, #20]	@ (4001b8 <led_toggle+0x64>)
        else if(led == LED3) LED3State = 1;
  4001a2:	2201      	movs	r2, #1
  4001a4:	701a      	strb	r2, [r3, #0]
  4001a6:	e7e7      	b.n	400178 <led_toggle+0x24>
        else if(led == LED2) LED2State = 1;
  4001a8:	2c0f      	cmp	r4, #15
  4001aa:	d101      	bne.n	4001b0 <led_toggle+0x5c>
  4001ac:	4b04      	ldr	r3, [pc, #16]	@ (4001c0 <led_toggle+0x6c>)
  4001ae:	e7f8      	b.n	4001a2 <led_toggle+0x4e>
        else if(led == LED3) LED3State = 1;
  4001b0:	2c0e      	cmp	r4, #14
  4001b2:	d1e1      	bne.n	400178 <led_toggle+0x24>
  4001b4:	4b03      	ldr	r3, [pc, #12]	@ (4001c4 <led_toggle+0x70>)
  4001b6:	e7f4      	b.n	4001a2 <led_toggle+0x4e>
  4001b8:	20000072 	.word	0x20000072
  4001bc:	00402417 	.word	0x00402417
  4001c0:	20000071 	.word	0x20000071
  4001c4:	20000070 	.word	0x20000070
  4001c8:	004023ff 	.word	0x004023ff

004001cc <led_toggle_v21>:

static uint8_t led_toggle_v21(uint8_t cmd, uint8_t scmd, uint8_t len, uint8_t *buf)
{
    (void)cmd;
    (void)scmd;
    if (len != 1) {
  4001cc:	2a01      	cmp	r2, #1
{
  4001ce:	b508      	push	{r3, lr}
  4001d0:	4611      	mov	r1, r2
  4001d2:	4618      	mov	r0, r3
    if (len != 1) {
  4001d4:	d103      	bne.n	4001de <led_toggle_v21+0x12>
        return SS_ERR_LEN;
    }
    return led_toggle(buf, len);
  4001d6:	4b03      	ldr	r3, [pc, #12]	@ (4001e4 <led_toggle_v21+0x18>)
  4001d8:	4798      	blx	r3
  4001da:	2000      	movs	r0, #0
}
  4001dc:	bd08      	pop	{r3, pc}
        return SS_ERR_LEN;
  4001de:	2004      	movs	r0, #4
  4001e0:	e7fc      	b.n	4001dc <led_toggle_v21+0x10>
  4001e2:	bf00      	nop
  4001e4:	00400155 	.word	0x00400155

004001e8 <led_on_cmd>:
uint8_t led_on_cmd(uint8_t* m, uint8_t len){
  4001e8:	b510      	push	{r4, lr}
    int led = m[0];  // Get LED number from input byte
  4001ea:	7804      	ldrb	r4, [r0, #0]
    gpio_set_pin_high(led);
  4001ec:	4b08      	ldr	r3, [pc, #32]	@ (400210 <led_on_cmd+0x28>)
  4001ee:	4620      	mov	r0, r4
  4001f0:	4798      	blx	r3
    if(led == LED1) LED1State = 1;
  4001f2:	2c10      	cmp	r4, #16
  4001f4:	d104      	bne.n	400200 <led_on_cmd+0x18>
  4001f6:	4b07      	ldr	r3, [pc, #28]	@ (400214 <led_on_cmd+0x2c>)
    else if(led == LED3) LED3State = 1;
  4001f8:	2201      	movs	r2, #1
  4001fa:	701a      	strb	r2, [r3, #0]
}
  4001fc:	2000      	movs	r0, #0
  4001fe:	bd10      	pop	{r4, pc}
    else if(led == LED2) LED2State = 1;
  400200:	2c0f      	cmp	r4, #15
  400202:	d101      	bne.n	400208 <led_on_cmd+0x20>
  400204:	4b04      	ldr	r3, [pc, #16]	@ (400218 <led_on_cmd+0x30>)
  400206:	e7f7      	b.n	4001f8 <led_on_cmd+0x10>
    else if(led == LED3) LED3State = 1;
  400208:	2c0e      	cmp	r4, #14
  40020a:	d1f7      	bne.n	4001fc <led_on_cmd+0x14>
  40020c:	4b03      	ldr	r3, [pc, #12]	@ (40021c <led_on_cmd+0x34>)
  40020e:	e7f3      	b.n	4001f8 <led_on_cmd+0x10>
  400210:	004023ff 	.word	0x004023ff
  400214:	20000072 	.word	0x20000072
  400218:	20000071 	.word	0x20000071
  40021c:	20000070 	.word	0x20000070

00400220 <led_on_cmd_v21>:
    if (len != 1) {
  400220:	2a01      	cmp	r2, #1
{
  400222:	b508      	push	{r3, lr}
  400224:	4611      	mov	r1, r2
  400226:	4618      	mov	r0, r3
    if (len != 1) {
  400228:	d103      	bne.n	400232 <led_on_cmd_v21+0x12>
    return led_on_cmd(buf, len);
  40022a:	4b03      	ldr	r3, [pc, #12]	@ (400238 <led_on_cmd_v21+0x18>)
  40022c:	4798      	blx	r3
  40022e:	2000      	movs	r0, #0
}
  400230:	bd08      	pop	{r3, pc}
        return SS_ERR_LEN;
  400232:	2004      	movs	r0, #4
  400234:	e7fc      	b.n	400230 <led_on_cmd_v21+0x10>
  400236:	bf00      	nop
  400238:	004001e9 	.word	0x004001e9

0040023c <led_off_cmd>:
uint8_t led_off_cmd(uint8_t* m, uint8_t len){
  40023c:	b510      	push	{r4, lr}
    int led = m[0];  // Get LED number from input byte
  40023e:	7804      	ldrb	r4, [r0, #0]
    gpio_set_pin_low(led);
  400240:	4b08      	ldr	r3, [pc, #32]	@ (400264 <led_off_cmd+0x28>)
  400242:	4620      	mov	r0, r4
  400244:	4798      	blx	r3
    if(led == LED1) LED1State = 0;
  400246:	2c10      	cmp	r4, #16
  400248:	d104      	bne.n	400254 <led_off_cmd+0x18>
  40024a:	4b07      	ldr	r3, [pc, #28]	@ (400268 <led_off_cmd+0x2c>)
    else if(led == LED3) LED3State = 0;
  40024c:	2200      	movs	r2, #0
  40024e:	701a      	strb	r2, [r3, #0]
}
  400250:	2000      	movs	r0, #0
  400252:	bd10      	pop	{r4, pc}
    else if(led == LED2) LED2State = 0;
  400254:	2c0f      	cmp	r4, #15
  400256:	d101      	bne.n	40025c <led_off_cmd+0x20>
  400258:	4b04      	ldr	r3, [pc, #16]	@ (40026c <led_off_cmd+0x30>)
  40025a:	e7f7      	b.n	40024c <led_off_cmd+0x10>
    else if(led == LED3) LED3State = 0;
  40025c:	2c0e      	cmp	r4, #14
  40025e:	d1f7      	bne.n	400250 <led_off_cmd+0x14>
  400260:	4b03      	ldr	r3, [pc, #12]	@ (400270 <led_off_cmd+0x34>)
  400262:	e7f3      	b.n	40024c <led_off_cmd+0x10>
  400264:	00402417 	.word	0x00402417
  400268:	20000072 	.word	0x20000072
  40026c:	20000071 	.word	0x20000071
  400270:	20000070 	.word	0x20000070

00400274 <led_off_cmd_v21>:
    if (len != 1) {
  400274:	2a01      	cmp	r2, #1
{
  400276:	b508      	push	{r3, lr}
  400278:	4611      	mov	r1, r2
  40027a:	4618      	mov	r0, r3
    if (len != 1) {
  40027c:	d103      	bne.n	400286 <led_off_cmd_v21+0x12>
    return led_off_cmd(buf, len);
  40027e:	4b03      	ldr	r3, [pc, #12]	@ (40028c <led_off_cmd_v21+0x18>)
  400280:	4798      	blx	r3
  400282:	2000      	movs	r0, #0
}
  400284:	bd08      	pop	{r3, pc}
        return SS_ERR_LEN;
  400286:	2004      	movs	r0, #4
  400288:	e7fc      	b.n	400284 <led_off_cmd_v21+0x10>
  40028a:	bf00      	nop
  40028c:	0040023d 	.word	0x0040023d

00400290 <led_on>:
void led_on(int led) {
  400290:	b510      	push	{r4, lr}
    gpio_set_pin_high(led);
  400292:	4b08      	ldr	r3, [pc, #32]	@ (4002b4 <led_on+0x24>)
void led_on(int led) {
  400294:	4604      	mov	r4, r0
    gpio_set_pin_high(led);
  400296:	4798      	blx	r3
    if(led == LED1) LED1State = 1;
  400298:	2c10      	cmp	r4, #16
  40029a:	d103      	bne.n	4002a4 <led_on+0x14>
  40029c:	4b06      	ldr	r3, [pc, #24]	@ (4002b8 <led_on+0x28>)
    else if(led == LED3) LED3State = 1;
  40029e:	2201      	movs	r2, #1
  4002a0:	701a      	strb	r2, [r3, #0]
}
  4002a2:	bd10      	pop	{r4, pc}
    else if(led == LED2) LED2State = 1;
  4002a4:	2c0f      	cmp	r4, #15
  4002a6:	d101      	bne.n	4002ac <led_on+0x1c>
  4002a8:	4b04      	ldr	r3, [pc, #16]	@ (4002bc <led_on+0x2c>)
  4002aa:	e7f8      	b.n	40029e <led_on+0xe>
    else if(led == LED3) LED3State = 1;
  4002ac:	2c0e      	cmp	r4, #14
  4002ae:	d1f8      	bne.n	4002a2 <led_on+0x12>
  4002b0:	4b03      	ldr	r3, [pc, #12]	@ (4002c0 <led_on+0x30>)
  4002b2:	e7f4      	b.n	40029e <led_on+0xe>
  4002b4:	004023ff 	.word	0x004023ff
  4002b8:	20000072 	.word	0x20000072
  4002bc:	20000071 	.word	0x20000071
  4002c0:	20000070 	.word	0x20000070

004002c4 <led_off>:
void led_off(int led) {
  4002c4:	b510      	push	{r4, lr}
    gpio_set_pin_low(led);
  4002c6:	4b08      	ldr	r3, [pc, #32]	@ (4002e8 <led_off+0x24>)
void led_off(int led) {
  4002c8:	4604      	mov	r4, r0
    gpio_set_pin_low(led);
  4002ca:	4798      	blx	r3
    if(led == LED1) LED1State = 0;
  4002cc:	2c10      	cmp	r4, #16
  4002ce:	d103      	bne.n	4002d8 <led_off+0x14>
  4002d0:	4b06      	ldr	r3, [pc, #24]	@ (4002ec <led_off+0x28>)
    else if(led == LED3) LED3State = 0;
  4002d2:	2200      	movs	r2, #0
  4002d4:	701a      	strb	r2, [r3, #0]
}
  4002d6:	bd10      	pop	{r4, pc}
    else if(led == LED2) LED2State = 0;
  4002d8:	2c0f      	cmp	r4, #15
  4002da:	d101      	bne.n	4002e0 <led_off+0x1c>
  4002dc:	4b04      	ldr	r3, [pc, #16]	@ (4002f0 <led_off+0x2c>)
  4002de:	e7f8      	b.n	4002d2 <led_off+0xe>
    else if(led == LED3) LED3State = 0;
  4002e0:	2c0e      	cmp	r4, #14
  4002e2:	d1f8      	bne.n	4002d6 <led_off+0x12>
  4002e4:	4b03      	ldr	r3, [pc, #12]	@ (4002f4 <led_off+0x30>)
  4002e6:	e7f4      	b.n	4002d2 <led_off+0xe>
  4002e8:	00402417 	.word	0x00402417
  4002ec:	20000072 	.word	0x20000072
  4002f0:	20000071 	.word	0x20000071
  4002f4:	20000070 	.word	0x20000070

004002f8 <ml_kem_512_decap>:
{
  4002f8:	b570      	push	{r4, r5, r6, lr}
    if (led1_on) led_on(LED1);
  4002fa:	2010      	movs	r0, #16
  4002fc:	4c2e      	ldr	r4, [pc, #184]	@ (4003b8 <ml_kem_512_decap+0xc0>)
    else led_off(LED2);
  4002fe:	4d2f      	ldr	r5, [pc, #188]	@ (4003bc <ml_kem_512_decap+0xc4>)
    if (led1_on) led_on(LED1);
  400300:	47a0      	blx	r4
    else led_off(LED2);
  400302:	200f      	movs	r0, #15
  400304:	47a8      	blx	r5
    else led_off(LED3);
  400306:	200e      	movs	r0, #14
  400308:	47a8      	blx	r5
    PQCLEAN_MLKEM512_CLEAN_indcpa_dec(decap_decrypted_buf, ct, sk);
  40030a:	4a2d      	ldr	r2, [pc, #180]	@ (4003c0 <ml_kem_512_decap+0xc8>)
  40030c:	492d      	ldr	r1, [pc, #180]	@ (4003c4 <ml_kem_512_decap+0xcc>)
  40030e:	4b2e      	ldr	r3, [pc, #184]	@ (4003c8 <ml_kem_512_decap+0xd0>)
  400310:	482e      	ldr	r0, [pc, #184]	@ (4003cc <ml_kem_512_decap+0xd4>)
  400312:	4798      	blx	r3
    memcpy(decap_buf, decap_decrypted_buf, KYBER_SYMBYTES);
  400314:	4b2d      	ldr	r3, [pc, #180]	@ (4003cc <ml_kem_512_decap+0xd4>)
  400316:	4a2e      	ldr	r2, [pc, #184]	@ (4003d0 <ml_kem_512_decap+0xd8>)
  400318:	f103 0120 	add.w	r1, r3, #32
  40031c:	f853 0b04 	ldr.w	r0, [r3], #4
  400320:	f842 0b04 	str.w	r0, [r2], #4
  400324:	428b      	cmp	r3, r1
  400326:	d1f9      	bne.n	40031c <ml_kem_512_decap+0x24>
    memcpy(decap_buf + KYBER_SYMBYTES, sk + KYBER_SECRETKEYBYTES - 2 * KYBER_SYMBYTES, KYBER_SYMBYTES);
  400328:	4b2a      	ldr	r3, [pc, #168]	@ (4003d4 <ml_kem_512_decap+0xdc>)
  40032a:	4a2b      	ldr	r2, [pc, #172]	@ (4003d8 <ml_kem_512_decap+0xe0>)
  40032c:	f103 0120 	add.w	r1, r3, #32
  400330:	f853 0b04 	ldr.w	r0, [r3], #4
  400334:	f842 0b04 	str.w	r0, [r2], #4
  400338:	428b      	cmp	r3, r1
  40033a:	d1f9      	bne.n	400330 <ml_kem_512_decap+0x38>
    hash_g(decap_kr, decap_buf, 2 * KYBER_SYMBYTES);
  40033c:	4924      	ldr	r1, [pc, #144]	@ (4003d0 <ml_kem_512_decap+0xd8>)
  40033e:	4b27      	ldr	r3, [pc, #156]	@ (4003dc <ml_kem_512_decap+0xe4>)
  400340:	4827      	ldr	r0, [pc, #156]	@ (4003e0 <ml_kem_512_decap+0xe8>)
  400342:	2240      	movs	r2, #64	@ 0x40
  400344:	4798      	blx	r3
    else led_off(LED1);
  400346:	2010      	movs	r0, #16
  400348:	47a8      	blx	r5
    if (led2_on) led_on(LED2);
  40034a:	200f      	movs	r0, #15
  40034c:	47a0      	blx	r4
    else led_off(LED3);
  40034e:	200e      	movs	r0, #14
  400350:	47a8      	blx	r5
    if (led1_on) led_on(LED1);
  400352:	2010      	movs	r0, #16
  400354:	47a0      	blx	r4
    if (led2_on) led_on(LED2);
  400356:	200f      	movs	r0, #15
  400358:	47a0      	blx	r4
    else led_off(LED3);
  40035a:	200e      	movs	r0, #14
  40035c:	47a8      	blx	r5
    fail = PQCLEAN_MLKEM512_CLEAN_verify(ct, ct, KYBER_CIPHERTEXTBYTES);
  40035e:	4919      	ldr	r1, [pc, #100]	@ (4003c4 <ml_kem_512_decap+0xcc>)
  400360:	4b20      	ldr	r3, [pc, #128]	@ (4003e4 <ml_kem_512_decap+0xec>)
  400362:	f44f 7240 	mov.w	r2, #768	@ 0x300
  400366:	4608      	mov	r0, r1
  400368:	4798      	blx	r3
  40036a:	4606      	mov	r6, r0
    else led_off(LED1);
  40036c:	2010      	movs	r0, #16
  40036e:	47a8      	blx	r5
    if (led2_on) led_on(LED2);
  400370:	200f      	movs	r0, #15
  400372:	47a0      	blx	r4
    if (led3_on) led_on(LED3);
  400374:	200e      	movs	r0, #14
  400376:	47a0      	blx	r4
    rkprf(ss_result, sk + KYBER_SECRETKEYBYTES - KYBER_SYMBYTES, ct);
  400378:	4a12      	ldr	r2, [pc, #72]	@ (4003c4 <ml_kem_512_decap+0xcc>)
  40037a:	491b      	ldr	r1, [pc, #108]	@ (4003e8 <ml_kem_512_decap+0xf0>)
  40037c:	4b1b      	ldr	r3, [pc, #108]	@ (4003ec <ml_kem_512_decap+0xf4>)
  40037e:	481c      	ldr	r0, [pc, #112]	@ (4003f0 <ml_kem_512_decap+0xf8>)
  400380:	4798      	blx	r3
    if (led1_on) led_on(LED1);
  400382:	2010      	movs	r0, #16
  400384:	47a0      	blx	r4
    else led_off(LED2);
  400386:	200f      	movs	r0, #15
  400388:	47a8      	blx	r5
    if (led3_on) led_on(LED3);
  40038a:	200e      	movs	r0, #14
  40038c:	47a0      	blx	r4
    trigger_high();
  40038e:	4b19      	ldr	r3, [pc, #100]	@ (4003f4 <ml_kem_512_decap+0xfc>)
  400390:	4798      	blx	r3
    PQCLEAN_MLKEM512_CLEAN_cmov(ss_result, decap_kr, KYBER_SYMBYTES, (uint8_t)(1 - fail));
  400392:	f1c6 0301 	rsb	r3, r6, #1
  400396:	4912      	ldr	r1, [pc, #72]	@ (4003e0 <ml_kem_512_decap+0xe8>)
  400398:	4815      	ldr	r0, [pc, #84]	@ (4003f0 <ml_kem_512_decap+0xf8>)
  40039a:	4e17      	ldr	r6, [pc, #92]	@ (4003f8 <ml_kem_512_decap+0x100>)
  40039c:	2220      	movs	r2, #32
  40039e:	b2db      	uxtb	r3, r3
  4003a0:	47b0      	blx	r6
    trigger_low();
  4003a2:	4b16      	ldr	r3, [pc, #88]	@ (4003fc <ml_kem_512_decap+0x104>)
  4003a4:	4798      	blx	r3
    else led_off(LED1);
  4003a6:	2010      	movs	r0, #16
  4003a8:	47a8      	blx	r5
    else led_off(LED2);
  4003aa:	200f      	movs	r0, #15
  4003ac:	47a8      	blx	r5
    if (led3_on) led_on(LED3);
  4003ae:	200e      	movs	r0, #14
  4003b0:	47a0      	blx	r4
}
  4003b2:	2000      	movs	r0, #0
  4003b4:	bd70      	pop	{r4, r5, r6, pc}
  4003b6:	bf00      	nop
  4003b8:	00400291 	.word	0x00400291
  4003bc:	004002c5 	.word	0x004002c5
  4003c0:	20000457 	.word	0x20000457
  4003c4:	20000157 	.word	0x20000157
  4003c8:	00400611 	.word	0x00400611
  4003cc:	20000077 	.word	0x20000077
  4003d0:	200000d7 	.word	0x200000d7
  4003d4:	20000a77 	.word	0x20000a77
  4003d8:	200000f7 	.word	0x200000f7
  4003dc:	00401ddd 	.word	0x00401ddd
  4003e0:	20000097 	.word	0x20000097
  4003e4:	00400b31 	.word	0x00400b31
  4003e8:	20000a97 	.word	0x20000a97
  4003ec:	00400ae1 	.word	0x00400ae1
  4003f0:	20000117 	.word	0x20000117
  4003f4:	004022c1 	.word	0x004022c1
  4003f8:	00400b51 	.word	0x00400b51
  4003fc:	004022a1 	.word	0x004022a1

00400400 <ml_kem_512>:
    uint8_t chunk_index;
    uint8_t err;

    (void)cmd;

    if ((scmd >= MLKEM_SS_V21_SCMD_SK_BASE) &&
  400400:	2907      	cmp	r1, #7
{
  400402:	e92d 47f0 	stmdb	sp!, {r4, r5, r6, r7, r8, r9, sl, lr}
  400406:	460e      	mov	r6, r1
  400408:	4615      	mov	r5, r2
  40040a:	461c      	mov	r4, r3
    if ((scmd >= MLKEM_SS_V21_SCMD_SK_BASE) &&
  40040c:	d811      	bhi.n	400432 <ml_kem_512+0x32>
    if ((chunk_index >= total_chunks) || (len != chunk_len)) {
  40040e:	2acc      	cmp	r2, #204	@ 0xcc
  400410:	f040 8082 	bne.w	400518 <ml_kem_512+0x118>
    memcpy(dst + offset, buf, chunk_len);
  400414:	4841      	ldr	r0, [pc, #260]	@ (40051c <ml_kem_512+0x11c>)
  400416:	4619      	mov	r1, r3
  400418:	fb02 0006 	mla	r0, r2, r6, r0
  40041c:	4b40      	ldr	r3, [pc, #256]	@ (400520 <ml_kem_512+0x120>)
  40041e:	4798      	blx	r3
        (scmd < (MLKEM_SS_V21_SCMD_SK_BASE + MLKEM_SS_V21_SK_CHUNKS))) {
        chunk_index = scmd - MLKEM_SS_V21_SCMD_SK_BASE;
        err = v21_copy_chunk(sk, sizeof(sk), MLKEM_SS_V21_CHUNK_SK, chunk_index,
                             MLKEM_SS_V21_SK_CHUNKS, len, buf);
        if (err == SS_ERR_OK) {
            sk_chunks_loaded |= (uint8_t)(1u << chunk_index);
  400420:	2301      	movs	r3, #1
  400422:	4a40      	ldr	r2, [pc, #256]	@ (400524 <ml_kem_512+0x124>)
  400424:	40b3      	lsls	r3, r6
  400426:	7811      	ldrb	r1, [r2, #0]
  400428:	430b      	orrs	r3, r1
  40042a:	7013      	strb	r3, [r2, #0]
        }
        return err;
  40042c:	2000      	movs	r0, #0
        }
        return PQCLEAN_MLKEM512_CLEAN_verify(ss, ss_result, KYBER_SSBYTES);
    }

    return SS_ERR_CMD;
}
  40042e:	e8bd 87f0 	ldmia.w	sp!, {r4, r5, r6, r7, r8, r9, sl, pc}
    if ((scmd >= MLKEM_SS_V21_SCMD_PK_BASE) &&
  400432:	f1a1 0a10 	sub.w	sl, r1, #16
  400436:	fa5f fa8a 	uxtb.w	sl, sl
  40043a:	f1ba 0f03 	cmp.w	sl, #3
  40043e:	d82a      	bhi.n	400496 <ml_kem_512+0x96>
    if ((chunk_index >= total_chunks) || (len != chunk_len)) {
  400440:	2ac8      	cmp	r2, #200	@ 0xc8
  400442:	d169      	bne.n	400518 <ml_kem_512+0x118>
    memcpy(dst + offset, buf, chunk_len);
  400444:	f8df 80e0 	ldr.w	r8, [pc, #224]	@ 400528 <ml_kem_512+0x128>
  400448:	f8df 90d4 	ldr.w	r9, [pc, #212]	@ 400520 <ml_kem_512+0x120>
    offset = (size_t)chunk_index * chunk_len;
  40044c:	fb02 f70a 	mul.w	r7, r2, sl
    memcpy(dst + offset, buf, chunk_len);
  400450:	4619      	mov	r1, r3
  400452:	eb08 0007 	add.w	r0, r8, r7
  400456:	47c8      	blx	r9
            pk_chunks_loaded |= (uint8_t)(1u << chunk_index);
  400458:	4b34      	ldr	r3, [pc, #208]	@ (40052c <ml_kem_512+0x12c>)
  40045a:	2601      	movs	r6, #1
  40045c:	781a      	ldrb	r2, [r3, #0]
            memcpy(sk + KYBER_INDCPA_SECRETKEYBYTES + ((size_t)chunk_index * MLKEM_SS_V21_CHUNK_PK),
  40045e:	f507 7040 	add.w	r0, r7, #768	@ 0x300
            pk_chunks_loaded |= (uint8_t)(1u << chunk_index);
  400462:	fa06 f60a 	lsl.w	r6, r6, sl
            memcpy(sk + KYBER_INDCPA_SECRETKEYBYTES + ((size_t)chunk_index * MLKEM_SS_V21_CHUNK_PK),
  400466:	4f2d      	ldr	r7, [pc, #180]	@ (40051c <ml_kem_512+0x11c>)
            pk_chunks_loaded |= (uint8_t)(1u << chunk_index);
  400468:	4316      	orrs	r6, r2
  40046a:	b2f6      	uxtb	r6, r6
            memcpy(sk + KYBER_INDCPA_SECRETKEYBYTES + ((size_t)chunk_index * MLKEM_SS_V21_CHUNK_PK),
  40046c:	462a      	mov	r2, r5
  40046e:	4621      	mov	r1, r4
  400470:	4438      	add	r0, r7
            pk_chunks_loaded |= (uint8_t)(1u << chunk_index);
  400472:	701e      	strb	r6, [r3, #0]
            memcpy(sk + KYBER_INDCPA_SECRETKEYBYTES + ((size_t)chunk_index * MLKEM_SS_V21_CHUNK_PK),
  400474:	47c8      	blx	r9
            if (pk_chunks_loaded == MLKEM_SS_V21_PK_MASK) {
  400476:	2e0f      	cmp	r6, #15
  400478:	d1d8      	bne.n	40042c <ml_kem_512+0x2c>
    memcpy(sk + KYBER_INDCPA_SECRETKEYBYTES, pk, KYBER_PUBLICKEYBYTES);
  40047a:	4641      	mov	r1, r8
  40047c:	f44f 7248 	mov.w	r2, #800	@ 0x320
  400480:	f507 7040 	add.w	r0, r7, #768	@ 0x300
  400484:	47c8      	blx	r9
    hash_h(sk + KYBER_SECRETKEYBYTES - 2 * KYBER_SYMBYTES, pk, KYBER_PUBLICKEYBYTES);
  400486:	4b2a      	ldr	r3, [pc, #168]	@ (400530 <ml_kem_512+0x130>)
  400488:	f44f 7248 	mov.w	r2, #800	@ 0x320
  40048c:	4641      	mov	r1, r8
  40048e:	f507 60c4 	add.w	r0, r7, #1568	@ 0x620
  400492:	4798      	blx	r3
}
  400494:	e7ca      	b.n	40042c <ml_kem_512+0x2c>
    if ((scmd >= MLKEM_SS_V21_SCMD_CT_BASE) &&
  400496:	f1a1 0720 	sub.w	r7, r1, #32
  40049a:	b2ff      	uxtb	r7, r7
  40049c:	2f03      	cmp	r7, #3
  40049e:	d80b      	bhi.n	4004b8 <ml_kem_512+0xb8>
    if ((chunk_index >= total_chunks) || (len != chunk_len)) {
  4004a0:	2ac0      	cmp	r2, #192	@ 0xc0
  4004a2:	d139      	bne.n	400518 <ml_kem_512+0x118>
    memcpy(dst + offset, buf, chunk_len);
  4004a4:	4823      	ldr	r0, [pc, #140]	@ (400534 <ml_kem_512+0x134>)
  4004a6:	4619      	mov	r1, r3
  4004a8:	fb02 0007 	mla	r0, r2, r7, r0
  4004ac:	4b1c      	ldr	r3, [pc, #112]	@ (400520 <ml_kem_512+0x120>)
  4004ae:	4798      	blx	r3
            ct_chunks_loaded |= (uint8_t)(1u << chunk_index);
  4004b0:	2301      	movs	r3, #1
  4004b2:	4a21      	ldr	r2, [pc, #132]	@ (400538 <ml_kem_512+0x138>)
  4004b4:	40bb      	lsls	r3, r7
  4004b6:	e7b6      	b.n	400426 <ml_kem_512+0x26>
    if (scmd == MLKEM_SS_V21_SCMD_SS) {
  4004b8:	2930      	cmp	r1, #48	@ 0x30
  4004ba:	d10e      	bne.n	4004da <ml_kem_512+0xda>
        if (len != KYBER_SSBYTES) {
  4004bc:	2a20      	cmp	r2, #32
  4004be:	d12b      	bne.n	400518 <ml_kem_512+0x118>
        memcpy(ss, buf, KYBER_SSBYTES);
  4004c0:	4b1e      	ldr	r3, [pc, #120]	@ (40053c <ml_kem_512+0x13c>)
  4004c2:	f104 0220 	add.w	r2, r4, #32
  4004c6:	f854 1b04 	ldr.w	r1, [r4], #4
  4004ca:	f843 1b04 	str.w	r1, [r3], #4
  4004ce:	4294      	cmp	r4, r2
  4004d0:	d1f9      	bne.n	4004c6 <ml_kem_512+0xc6>
        ss_loaded = 1;
  4004d2:	4b1b      	ldr	r3, [pc, #108]	@ (400540 <ml_kem_512+0x140>)
  4004d4:	2201      	movs	r2, #1
  4004d6:	701a      	strb	r2, [r3, #0]
        return SS_ERR_OK;
  4004d8:	e7a8      	b.n	40042c <ml_kem_512+0x2c>
    if (scmd == MLKEM_SS_V21_SCMD_DECAP) {
  4004da:	2940      	cmp	r1, #64	@ 0x40
  4004dc:	d11a      	bne.n	400514 <ml_kem_512+0x114>
        if (len != 0) {
  4004de:	b9da      	cbnz	r2, 400518 <ml_kem_512+0x118>
        if ((sk_chunks_loaded != MLKEM_SS_V21_SK_MASK) ||
  4004e0:	4b10      	ldr	r3, [pc, #64]	@ (400524 <ml_kem_512+0x124>)
  4004e2:	781b      	ldrb	r3, [r3, #0]
  4004e4:	2bff      	cmp	r3, #255	@ 0xff
  4004e6:	d117      	bne.n	400518 <ml_kem_512+0x118>
            (pk_chunks_loaded != MLKEM_SS_V21_PK_MASK) ||
  4004e8:	4b10      	ldr	r3, [pc, #64]	@ (40052c <ml_kem_512+0x12c>)
        if ((sk_chunks_loaded != MLKEM_SS_V21_SK_MASK) ||
  4004ea:	781b      	ldrb	r3, [r3, #0]
  4004ec:	2b0f      	cmp	r3, #15
  4004ee:	d113      	bne.n	400518 <ml_kem_512+0x118>
            (ct_chunks_loaded != MLKEM_SS_V21_CT_MASK) ||
  4004f0:	4b11      	ldr	r3, [pc, #68]	@ (400538 <ml_kem_512+0x138>)
            (pk_chunks_loaded != MLKEM_SS_V21_PK_MASK) ||
  4004f2:	781b      	ldrb	r3, [r3, #0]
  4004f4:	2b0f      	cmp	r3, #15
  4004f6:	d10f      	bne.n	400518 <ml_kem_512+0x118>
            (ss_loaded == 0)) {
  4004f8:	4b11      	ldr	r3, [pc, #68]	@ (400540 <ml_kem_512+0x140>)
            (ct_chunks_loaded != MLKEM_SS_V21_CT_MASK) ||
  4004fa:	781b      	ldrb	r3, [r3, #0]
  4004fc:	b163      	cbz	r3, 400518 <ml_kem_512+0x118>
        err = ml_kem_512_decap(NULL, 0);
  4004fe:	2100      	movs	r1, #0
  400500:	4b10      	ldr	r3, [pc, #64]	@ (400544 <ml_kem_512+0x144>)
  400502:	4608      	mov	r0, r1
  400504:	4798      	blx	r3
        return PQCLEAN_MLKEM512_CLEAN_verify(ss, ss_result, KYBER_SSBYTES);
  400506:	4910      	ldr	r1, [pc, #64]	@ (400548 <ml_kem_512+0x148>)
  400508:	480c      	ldr	r0, [pc, #48]	@ (40053c <ml_kem_512+0x13c>)
  40050a:	4b10      	ldr	r3, [pc, #64]	@ (40054c <ml_kem_512+0x14c>)
  40050c:	2220      	movs	r2, #32
  40050e:	4798      	blx	r3
  400510:	b2c0      	uxtb	r0, r0
  400512:	e78c      	b.n	40042e <ml_kem_512+0x2e>
    return SS_ERR_CMD;
  400514:	2001      	movs	r0, #1
  400516:	e78a      	b.n	40042e <ml_kem_512+0x2e>
        return err;
  400518:	2004      	movs	r0, #4
  40051a:	e788      	b.n	40042e <ml_kem_512+0x2e>
  40051c:	20000457 	.word	0x20000457
  400520:	00402831 	.word	0x00402831
  400524:	20000076 	.word	0x20000076
  400528:	20000ab7 	.word	0x20000ab7
  40052c:	20000075 	.word	0x20000075
  400530:	00401d95 	.word	0x00401d95
  400534:	20000157 	.word	0x20000157
  400538:	20000074 	.word	0x20000074
  40053c:	20000137 	.word	0x20000137
  400540:	20000073 	.word	0x20000073
  400544:	004002f9 	.word	0x004002f9
  400548:	20000117 	.word	0x20000117
  40054c:	00400b31 	.word	0x00400b31

00400550 <main>:
#endif

int main(void)
{
  400550:	b507      	push	{r0, r1, r2, lr}
    /* Setup the LEDs */
    gpio_configure_pin(LED1, PIO_OUTPUT_0 | PIO_DEFAULT);
  400552:	4c21      	ldr	r4, [pc, #132]	@ (4005d8 <main+0x88>)
  400554:	f04f 5140 	mov.w	r1, #805306368	@ 0x30000000
  400558:	2010      	movs	r0, #16
  40055a:	47a0      	blx	r4
    gpio_configure_pin(LED2, PIO_OUTPUT_0 | PIO_DEFAULT);
  40055c:	f04f 5140 	mov.w	r1, #805306368	@ 0x30000000
  400560:	200f      	movs	r0, #15
  400562:	47a0      	blx	r4
    gpio_configure_pin(LED3, PIO_OUTPUT_0 | PIO_DEFAULT);
  400564:	f04f 5140 	mov.w	r1, #805306368	@ 0x30000000
  400568:	200e      	movs	r0, #14
  40056a:	47a0      	blx	r4

    platform_init();
  40056c:	4b1b      	ldr	r3, [pc, #108]	@ (4005dc <main+0x8c>)
    trigger_setup();

	simpleserial_init();

    /* Indicate startup */
    gpio_set_pin_high(LED1);
  40056e:	4c1c      	ldr	r4, [pc, #112]	@ (4005e0 <main+0x90>)
    platform_init();
  400570:	4798      	blx	r3
    init_uart();
  400572:	4b1c      	ldr	r3, [pc, #112]	@ (4005e4 <main+0x94>)
  400574:	4798      	blx	r3
    trigger_setup();
  400576:	4b1c      	ldr	r3, [pc, #112]	@ (4005e8 <main+0x98>)
  400578:	4798      	blx	r3
	simpleserial_init();
  40057a:	4b1c      	ldr	r3, [pc, #112]	@ (4005ec <main+0x9c>)
  40057c:	4798      	blx	r3
    gpio_set_pin_high(LED1);
  40057e:	2010      	movs	r0, #16
  400580:	47a0      	blx	r4
    gpio_set_pin_high(LED2);
  400582:	200f      	movs	r0, #15
  400584:	47a0      	blx	r4
    gpio_set_pin_high(LED3);
  400586:	200e      	movs	r0, #14
  400588:	47a0      	blx	r4
        for (volatile uint32_t i = 0; i < loops_per_sec; i++) {
  40058a:	2300      	movs	r3, #0
  40058c:	4a18      	ldr	r2, [pc, #96]	@ (4005f0 <main+0xa0>)
  40058e:	9301      	str	r3, [sp, #4]
  400590:	9b01      	ldr	r3, [sp, #4]
  400592:	4293      	cmp	r3, r2
  400594:	d31a      	bcc.n	4005cc <main+0x7c>

    delay_seconds(1);        //Wait for a second to make sure the user can see the LEDs turn on

    /*now turn off the leds */
    /*tur off the leds with the funcion led_off */
    led_off(LED1); //Turn on LED1 using led_on function
  400596:	4c17      	ldr	r4, [pc, #92]	@ (4005f4 <main+0xa4>)
  400598:	2010      	movs	r0, #16
  40059a:	47a0      	blx	r4
    led_off(LED2); //Turn on LED2 using led_on function
  40059c:	200f      	movs	r0, #15
  40059e:	47a0      	blx	r4
    led_off(LED3); //Turn on LED3 using led_on function
  4005a0:	200e      	movs	r0, #14
  4005a2:	47a0      	blx	r4

    #if SS_VER == SS_VER_2_1
    simpleserial_addcmd(MLKEM_SS_V21_CMD, MLKEM_SS_V21_CHUNK_SK, ml_kem_512);
  4005a4:	4c14      	ldr	r4, [pc, #80]	@ (4005f8 <main+0xa8>)
  4005a6:	4a15      	ldr	r2, [pc, #84]	@ (4005fc <main+0xac>)
  4005a8:	21cc      	movs	r1, #204	@ 0xcc
  4005aa:	2001      	movs	r0, #1
  4005ac:	47a0      	blx	r4
    simpleserial_addcmd('h', 1, led_on_cmd_v21);
  4005ae:	4a14      	ldr	r2, [pc, #80]	@ (400600 <main+0xb0>)
  4005b0:	2101      	movs	r1, #1
  4005b2:	2068      	movs	r0, #104	@ 0x68
  4005b4:	47a0      	blx	r4
    simpleserial_addcmd('l', 1, led_off_cmd_v21);
  4005b6:	4a13      	ldr	r2, [pc, #76]	@ (400604 <main+0xb4>)
  4005b8:	2101      	movs	r1, #1
  4005ba:	206c      	movs	r0, #108	@ 0x6c
  4005bc:	47a0      	blx	r4
    simpleserial_addcmd('t', 1, led_toggle_v21);
  4005be:	4a12      	ldr	r2, [pc, #72]	@ (400608 <main+0xb8>)
  4005c0:	2101      	movs	r1, #1
  4005c2:	2074      	movs	r0, #116	@ 0x74
  4005c4:	47a0      	blx	r4
    simpleserial_addcmd('l', 1, led_off_cmd);
    simpleserial_addcmd('t', 1, led_toggle);
    #endif

    while(1)
        simpleserial_get();
  4005c6:	4c11      	ldr	r4, [pc, #68]	@ (40060c <main+0xbc>)
  4005c8:	47a0      	blx	r4
    while(1)
  4005ca:	e7fd      	b.n	4005c8 <main+0x78>
            __asm__ volatile ("nop");
  4005cc:	bf00      	nop
        for (volatile uint32_t i = 0; i < loops_per_sec; i++) {
  4005ce:	9b01      	ldr	r3, [sp, #4]
  4005d0:	3301      	adds	r3, #1
  4005d2:	9301      	str	r3, [sp, #4]
  4005d4:	e7dc      	b.n	400590 <main+0x40>
  4005d6:	bf00      	nop
  4005d8:	00402431 	.word	0x00402431
  4005dc:	0040214d 	.word	0x0040214d
  4005e0:	004023ff 	.word	0x004023ff
  4005e4:	004021e5 	.word	0x004021e5
  4005e8:	00402281 	.word	0x00402281
  4005ec:	00401ed1 	.word	0x00401ed1
  4005f0:	006acfc0 	.word	0x006acfc0
  4005f4:	004002c5 	.word	0x004002c5
  4005f8:	00401e91 	.word	0x00401e91
  4005fc:	00400401 	.word	0x00400401
  400600:	00400221 	.word	0x00400221
  400604:	00400275 	.word	0x00400275
  400608:	004001cd 	.word	0x004001cd
  40060c:	00401fc9 	.word	0x00401fc9

00400610 <PQCLEAN_MLKEM512_CLEAN_indcpa_dec>:
*              - const uint8_t *sk: pointer to input secret key
*                                   (of length KYBER_INDCPA_SECRETKEYBYTES)
**************************************************/
void PQCLEAN_MLKEM512_CLEAN_indcpa_dec(uint8_t m[KYBER_INDCPA_MSGBYTES],
                                       const uint8_t c[KYBER_INDCPA_BYTES],
                                       const uint8_t sk[KYBER_INDCPA_SECRETKEYBYTES]) {
  400610:	b570      	push	{r4, r5, r6, lr}
  400612:	f5ad 6d40 	sub.w	sp, sp, #3072	@ 0xc00
  400616:	4604      	mov	r4, r0
  400618:	460e      	mov	r6, r1
    PQCLEAN_MLKEM512_CLEAN_polyvec_decompress(b, c);
  40061a:	f50d 6080 	add.w	r0, sp, #1024	@ 0x400
  40061e:	4b15      	ldr	r3, [pc, #84]	@ (400674 <PQCLEAN_MLKEM512_CLEAN_indcpa_dec+0x64>)
                                       const uint8_t sk[KYBER_INDCPA_SECRETKEYBYTES]) {
  400620:	4615      	mov	r5, r2
    PQCLEAN_MLKEM512_CLEAN_polyvec_decompress(b, c);
  400622:	4798      	blx	r3
    PQCLEAN_MLKEM512_CLEAN_poly_decompress(v, c + KYBER_POLYVECCOMPRESSEDBYTES);
  400624:	f506 7120 	add.w	r1, r6, #640	@ 0x280
  400628:	4668      	mov	r0, sp
  40062a:	4b13      	ldr	r3, [pc, #76]	@ (400678 <PQCLEAN_MLKEM512_CLEAN_indcpa_dec+0x68>)
  40062c:	4798      	blx	r3
    PQCLEAN_MLKEM512_CLEAN_polyvec_frombytes(sk, packedsk);
  40062e:	4629      	mov	r1, r5
  400630:	f50d 6000 	add.w	r0, sp, #2048	@ 0x800
  400634:	4b11      	ldr	r3, [pc, #68]	@ (40067c <PQCLEAN_MLKEM512_CLEAN_indcpa_dec+0x6c>)
  400636:	4798      	blx	r3
    poly v, mp;

    unpack_ciphertext(&b, &v, c);
    unpack_sk(&skpv, sk);

    PQCLEAN_MLKEM512_CLEAN_polyvec_ntt(&b);
  400638:	f50d 6080 	add.w	r0, sp, #1024	@ 0x400
  40063c:	4b10      	ldr	r3, [pc, #64]	@ (400680 <PQCLEAN_MLKEM512_CLEAN_indcpa_dec+0x70>)
  40063e:	4798      	blx	r3
    PQCLEAN_MLKEM512_CLEAN_polyvec_basemul_acc_montgomery(&mp, &skpv, &b);
  400640:	f50d 6280 	add.w	r2, sp, #1024	@ 0x400
  400644:	f50d 6100 	add.w	r1, sp, #2048	@ 0x800
  400648:	a880      	add	r0, sp, #512	@ 0x200
  40064a:	4b0e      	ldr	r3, [pc, #56]	@ (400684 <PQCLEAN_MLKEM512_CLEAN_indcpa_dec+0x74>)
  40064c:	4798      	blx	r3
    PQCLEAN_MLKEM512_CLEAN_poly_invntt_tomont(&mp);
  40064e:	a880      	add	r0, sp, #512	@ 0x200
  400650:	4b0d      	ldr	r3, [pc, #52]	@ (400688 <PQCLEAN_MLKEM512_CLEAN_indcpa_dec+0x78>)
  400652:	4798      	blx	r3

    PQCLEAN_MLKEM512_CLEAN_poly_sub(&mp, &v, &mp);
  400654:	aa80      	add	r2, sp, #512	@ 0x200
  400656:	4610      	mov	r0, r2
  400658:	4669      	mov	r1, sp
  40065a:	4b0c      	ldr	r3, [pc, #48]	@ (40068c <PQCLEAN_MLKEM512_CLEAN_indcpa_dec+0x7c>)
  40065c:	4798      	blx	r3
    PQCLEAN_MLKEM512_CLEAN_poly_reduce(&mp);
  40065e:	a880      	add	r0, sp, #512	@ 0x200
  400660:	4b0b      	ldr	r3, [pc, #44]	@ (400690 <PQCLEAN_MLKEM512_CLEAN_indcpa_dec+0x80>)
  400662:	4798      	blx	r3

    PQCLEAN_MLKEM512_CLEAN_poly_tomsg(m, &mp);
  400664:	4b0b      	ldr	r3, [pc, #44]	@ (400694 <PQCLEAN_MLKEM512_CLEAN_indcpa_dec+0x84>)
  400666:	a980      	add	r1, sp, #512	@ 0x200
  400668:	4620      	mov	r0, r4
  40066a:	4798      	blx	r3
}
  40066c:	f50d 6d40 	add.w	sp, sp, #3072	@ 0xc00
  400670:	bd70      	pop	{r4, r5, r6, pc}
  400672:	bf00      	nop
  400674:	004009a9 	.word	0x004009a9
  400678:	00400835 	.word	0x00400835
  40067c:	00400a2d 	.word	0x00400a2d
  400680:	00400a4d 	.word	0x00400a4d
  400684:	00400a65 	.word	0x00400a65
  400688:	004008e5 	.word	0x004008e5
  40068c:	0040098d 	.word	0x0040098d
  400690:	00400939 	.word	0x00400939
  400694:	0040089d 	.word	0x0040089d

00400698 <PQCLEAN_MLKEM512_CLEAN_ntt>:
* Description: Inplace number-theoretic transform (NTT) in Rq.
*              input is in standard order, output is in bitreversed order
*
* Arguments:   - int16_t r[256]: pointer to input/output vector of elements of Zq
**************************************************/
void PQCLEAN_MLKEM512_CLEAN_ntt(int16_t r[256]) {
  400698:	e92d 4ff0 	stmdb	sp!, {r4, r5, r6, r7, r8, r9, sl, fp, lr}
  40069c:	4606      	mov	r6, r0
  40069e:	b085      	sub	sp, #20

    k = 1;
    for (len = 128; len >= 2; len >>= 1) {
        for (start = 0; start < 256; start = j + len) {
            zeta = PQCLEAN_MLKEM512_CLEAN_zetas[k++];
            for (j = start; j < start + len; j++) {
  4006a0:	f04f 0907 	mov.w	r9, #7
    k = 1;
  4006a4:	f04f 0801 	mov.w	r8, #1
    for (len = 128; len >= 2; len >>= 1) {
  4006a8:	2580      	movs	r5, #128	@ 0x80
        for (start = 0; start < 256; start = j + len) {
  4006aa:	4b1f      	ldr	r3, [pc, #124]	@ (400728 <PQCLEAN_MLKEM512_CLEAN_ntt+0x90>)
  4006ac:	eb03 0248 	add.w	r2, r3, r8, lsl #1
  4006b0:	1c6b      	adds	r3, r5, #1
  4006b2:	2400      	movs	r4, #0
  4006b4:	9300      	str	r3, [sp, #0]
            for (j = start; j < start + len; j++) {
  4006b6:	eb05 0a04 	add.w	sl, r5, r4
            zeta = PQCLEAN_MLKEM512_CLEAN_zetas[k++];
  4006ba:	f932 1b02 	ldrsh.w	r1, [r2], #2
  4006be:	f108 0801 	add.w	r8, r8, #1
            for (j = start; j < start + len; j++) {
  4006c2:	eb06 034a 	add.w	r3, r6, sl, lsl #1
  4006c6:	eb06 0744 	add.w	r7, r6, r4, lsl #1
  4006ca:	46a3      	mov	fp, r4
                t = fqmul(zeta, r[j + len]);
  4006cc:	f9b3 0000 	ldrsh.w	r0, [r3]
  4006d0:	9302      	str	r3, [sp, #8]
    return PQCLEAN_MLKEM512_CLEAN_montgomery_reduce((int32_t)a * b);
  4006d2:	4348      	muls	r0, r1
  4006d4:	4b15      	ldr	r3, [pc, #84]	@ (40072c <PQCLEAN_MLKEM512_CLEAN_ntt+0x94>)
  4006d6:	9203      	str	r2, [sp, #12]
  4006d8:	9101      	str	r1, [sp, #4]
  4006da:	4798      	blx	r3
                r[j + len] = r[j] - t;
  4006dc:	f9b7 c000 	ldrsh.w	ip, [r7]
  4006e0:	9b02      	ldr	r3, [sp, #8]
            for (j = start; j < start + len; j++) {
  4006e2:	9901      	ldr	r1, [sp, #4]
  4006e4:	9a03      	ldr	r2, [sp, #12]
                r[j + len] = r[j] - t;
  4006e6:	b280      	uxth	r0, r0
  4006e8:	ebac 0c00 	sub.w	ip, ip, r0
  4006ec:	f823 cb02 	strh.w	ip, [r3], #2
                r[j] = r[j] + t;
  4006f0:	f837 cb02 	ldrh.w	ip, [r7], #2
            for (j = start; j < start + len; j++) {
  4006f4:	f10b 0b01 	add.w	fp, fp, #1
                r[j] = r[j] + t;
  4006f8:	4460      	add	r0, ip
            for (j = start; j < start + len; j++) {
  4006fa:	45d3      	cmp	fp, sl
                r[j] = r[j] + t;
  4006fc:	f827 0c02 	strh.w	r0, [r7, #-2]
            for (j = start; j < start + len; j++) {
  400700:	d3e4      	bcc.n	4006cc <PQCLEAN_MLKEM512_CLEAN_ntt+0x34>
  400702:	1c61      	adds	r1, r4, #1
  400704:	1e6b      	subs	r3, r5, #1
  400706:	458a      	cmp	sl, r1
  400708:	bf38      	it	cc
  40070a:	2300      	movcc	r3, #0
  40070c:	9900      	ldr	r1, [sp, #0]
  40070e:	440c      	add	r4, r1
        for (start = 0; start < 256; start = j + len) {
  400710:	441c      	add	r4, r3
  400712:	2cff      	cmp	r4, #255	@ 0xff
  400714:	d9cf      	bls.n	4006b6 <PQCLEAN_MLKEM512_CLEAN_ntt+0x1e>
    for (len = 128; len >= 2; len >>= 1) {
  400716:	f1b9 0901 	subs.w	r9, r9, #1
  40071a:	ea4f 0555 	mov.w	r5, r5, lsr #1
  40071e:	d1c4      	bne.n	4006aa <PQCLEAN_MLKEM512_CLEAN_ntt+0x12>
            }
        }
    }
}
  400720:	b005      	add	sp, #20
  400722:	e8bd 8ff0 	ldmia.w	sp!, {r4, r5, r6, r7, r8, r9, sl, fp, pc}
  400726:	bf00      	nop
  400728:	00402cbc 	.word	0x00402cbc
  40072c:	00400aa5 	.word	0x00400aa5

00400730 <PQCLEAN_MLKEM512_CLEAN_invntt>:
*              multiplication by Montgomery factor 2^16.
*              Input is in bitreversed order, output is in standard order
*
* Arguments:   - int16_t r[256]: pointer to input/output vector of elements of Zq
**************************************************/
void PQCLEAN_MLKEM512_CLEAN_invntt(int16_t r[256]) {
  400730:	e92d 4ff0 	stmdb	sp!, {r4, r5, r6, r7, r8, r9, sl, fp, lr}
  400734:	4604      	mov	r4, r0
  400736:	b085      	sub	sp, #20
    int16_t t, zeta;
    const int16_t f = 1441; // mont^2/128

    k = 127;
    for (len = 2; len <= 128; len <<= 1) {
        for (start = 0; start < 256; start = j + len) {
  400738:	f04f 0907 	mov.w	r9, #7
    k = 127;
  40073c:	f04f 087f 	mov.w	r8, #127	@ 0x7f
    for (len = 2; len <= 128; len <<= 1) {
  400740:	2702      	movs	r7, #2
        for (start = 0; start < 256; start = j + len) {
  400742:	4b23      	ldr	r3, [pc, #140]	@ (4007d0 <PQCLEAN_MLKEM512_CLEAN_invntt+0xa0>)
  400744:	2500      	movs	r5, #0
  400746:	eb03 0248 	add.w	r2, r3, r8, lsl #1
            zeta = PQCLEAN_MLKEM512_CLEAN_zetas[k--];
  40074a:	f932 3902 	ldrsh.w	r3, [r2], #-2
  40074e:	9301      	str	r3, [sp, #4]
  400750:	eb05 0a07 	add.w	sl, r5, r7
  400754:	f108 38ff 	add.w	r8, r8, #4294967295	@ 0xffffffff
            for (j = start; j < start + len; j++) {
  400758:	eb04 0b45 	add.w	fp, r4, r5, lsl #1
  40075c:	eb04 064a 	add.w	r6, r4, sl, lsl #1
  400760:	4555      	cmp	r5, sl
  400762:	d318      	bcc.n	400796 <PQCLEAN_MLKEM512_CLEAN_invntt+0x66>
  400764:	eb07 050a 	add.w	r5, r7, sl
        for (start = 0; start < 256; start = j + len) {
  400768:	2dff      	cmp	r5, #255	@ 0xff
  40076a:	d9ee      	bls.n	40074a <PQCLEAN_MLKEM512_CLEAN_invntt+0x1a>
    for (len = 2; len <= 128; len <<= 1) {
  40076c:	f1b9 0901 	subs.w	r9, r9, #1
  400770:	ea4f 0747 	mov.w	r7, r7, lsl #1
  400774:	d1e5      	bne.n	400742 <PQCLEAN_MLKEM512_CLEAN_invntt+0x12>
    return PQCLEAN_MLKEM512_CLEAN_montgomery_reduce((int32_t)a * b);
  400776:	4e17      	ldr	r6, [pc, #92]	@ (4007d4 <PQCLEAN_MLKEM512_CLEAN_invntt+0xa4>)
  400778:	1ea5      	subs	r5, r4, #2
  40077a:	f240 57a1 	movw	r7, #1441	@ 0x5a1
  40077e:	f504 74ff 	add.w	r4, r4, #510	@ 0x1fe
  400782:	f935 0f02 	ldrsh.w	r0, [r5, #2]!
  400786:	4378      	muls	r0, r7
  400788:	47b0      	blx	r6
                r[j + len] = fqmul(zeta, r[j + len]);
            }
        }
    }

    for (j = 0; j < 256; j++) {
  40078a:	42a5      	cmp	r5, r4
        r[j] = fqmul(r[j], f);
  40078c:	8028      	strh	r0, [r5, #0]
    for (j = 0; j < 256; j++) {
  40078e:	d1f8      	bne.n	400782 <PQCLEAN_MLKEM512_CLEAN_invntt+0x52>
    }
}
  400790:	b005      	add	sp, #20
  400792:	e8bd 8ff0 	ldmia.w	sp!, {r4, r5, r6, r7, r8, r9, sl, fp, pc}
                r[j] = PQCLEAN_MLKEM512_CLEAN_barrett_reduce(t + r[j + len]);
  400796:	f8bb 1000 	ldrh.w	r1, [fp]
  40079a:	f9b6 0000 	ldrsh.w	r0, [r6]
  40079e:	4b0e      	ldr	r3, [pc, #56]	@ (4007d8 <PQCLEAN_MLKEM512_CLEAN_invntt+0xa8>)
  4007a0:	9203      	str	r2, [sp, #12]
  4007a2:	4408      	add	r0, r1
  4007a4:	b200      	sxth	r0, r0
  4007a6:	9102      	str	r1, [sp, #8]
  4007a8:	4798      	blx	r3
  4007aa:	f82b 0b02 	strh.w	r0, [fp], #2
                r[j + len] = r[j + len] - t;
  4007ae:	9902      	ldr	r1, [sp, #8]
  4007b0:	f836 0b02 	ldrh.w	r0, [r6], #2
    return PQCLEAN_MLKEM512_CLEAN_montgomery_reduce((int32_t)a * b);
  4007b4:	9b01      	ldr	r3, [sp, #4]
                r[j + len] = r[j + len] - t;
  4007b6:	1a40      	subs	r0, r0, r1
  4007b8:	b200      	sxth	r0, r0
  4007ba:	f826 0c02 	strh.w	r0, [r6, #-2]
    return PQCLEAN_MLKEM512_CLEAN_montgomery_reduce((int32_t)a * b);
  4007be:	4358      	muls	r0, r3
  4007c0:	4b04      	ldr	r3, [pc, #16]	@ (4007d4 <PQCLEAN_MLKEM512_CLEAN_invntt+0xa4>)
  4007c2:	4798      	blx	r3
            for (j = start; j < start + len; j++) {
  4007c4:	3501      	adds	r5, #1
  4007c6:	9a03      	ldr	r2, [sp, #12]
                r[j + len] = fqmul(zeta, r[j + len]);
  4007c8:	f826 0c02 	strh.w	r0, [r6, #-2]
            for (j = start; j < start + len; j++) {
  4007cc:	e7c8      	b.n	400760 <PQCLEAN_MLKEM512_CLEAN_invntt+0x30>
  4007ce:	bf00      	nop
  4007d0:	00402cbc 	.word	0x00402cbc
  4007d4:	00400aa5 	.word	0x00400aa5
  4007d8:	00400ac1 	.word	0x00400ac1

004007dc <PQCLEAN_MLKEM512_CLEAN_basemul>:
* Arguments:   - int16_t r[2]: pointer to the output polynomial
*              - const int16_t a[2]: pointer to the first factor
*              - const int16_t b[2]: pointer to the second factor
*              - int16_t zeta: integer defining the reduction polynomial
**************************************************/
void PQCLEAN_MLKEM512_CLEAN_basemul(int16_t r[2], const int16_t a[2], const int16_t b[2], int16_t zeta) {
  4007dc:	e92d 41f0 	stmdb	sp!, {r4, r5, r6, r7, r8, lr}
  4007e0:	4604      	mov	r4, r0
  4007e2:	4698      	mov	r8, r3
    return PQCLEAN_MLKEM512_CLEAN_montgomery_reduce((int32_t)a * b);
  4007e4:	8848      	ldrh	r0, [r1, #2]
  4007e6:	8853      	ldrh	r3, [r2, #2]
  4007e8:	4f11      	ldr	r7, [pc, #68]	@ (400830 <PQCLEAN_MLKEM512_CLEAN_basemul+0x54>)
  4007ea:	fb10 f003 	smulbb	r0, r0, r3
void PQCLEAN_MLKEM512_CLEAN_basemul(int16_t r[2], const int16_t a[2], const int16_t b[2], int16_t zeta) {
  4007ee:	460e      	mov	r6, r1
  4007f0:	4615      	mov	r5, r2
    return PQCLEAN_MLKEM512_CLEAN_montgomery_reduce((int32_t)a * b);
  4007f2:	47b8      	blx	r7
    r[0]  = fqmul(a[1], b[1]);
  4007f4:	8020      	strh	r0, [r4, #0]
    return PQCLEAN_MLKEM512_CLEAN_montgomery_reduce((int32_t)a * b);
  4007f6:	fb00 f008 	mul.w	r0, r0, r8
  4007fa:	47b8      	blx	r7
    r[0]  = fqmul(r[0], zeta);
  4007fc:	8020      	strh	r0, [r4, #0]
    return PQCLEAN_MLKEM512_CLEAN_montgomery_reduce((int32_t)a * b);
  4007fe:	882b      	ldrh	r3, [r5, #0]
  400800:	8830      	ldrh	r0, [r6, #0]
  400802:	fb10 f003 	smulbb	r0, r0, r3
  400806:	47b8      	blx	r7
    r[0] += fqmul(a[0], b[0]);
  400808:	8823      	ldrh	r3, [r4, #0]
  40080a:	4418      	add	r0, r3
  40080c:	8020      	strh	r0, [r4, #0]
    return PQCLEAN_MLKEM512_CLEAN_montgomery_reduce((int32_t)a * b);
  40080e:	886b      	ldrh	r3, [r5, #2]
  400810:	8830      	ldrh	r0, [r6, #0]
  400812:	fb10 f003 	smulbb	r0, r0, r3
  400816:	47b8      	blx	r7
    r[1]  = fqmul(a[0], b[1]);
  400818:	8060      	strh	r0, [r4, #2]
    return PQCLEAN_MLKEM512_CLEAN_montgomery_reduce((int32_t)a * b);
  40081a:	882b      	ldrh	r3, [r5, #0]
  40081c:	8870      	ldrh	r0, [r6, #2]
  40081e:	fb10 f003 	smulbb	r0, r0, r3
  400822:	47b8      	blx	r7
    r[1] += fqmul(a[1], b[0]);
  400824:	8863      	ldrh	r3, [r4, #2]
  400826:	4418      	add	r0, r3
  400828:	8060      	strh	r0, [r4, #2]
}
  40082a:	e8bd 81f0 	ldmia.w	sp!, {r4, r5, r6, r7, r8, pc}
  40082e:	bf00      	nop
  400830:	00400aa5 	.word	0x00400aa5

00400834 <PQCLEAN_MLKEM512_CLEAN_poly_decompress>:
*
* Arguments:   - poly *r: pointer to output polynomial
*              - const uint8_t *a: pointer to input byte array
*                                  (of length KYBER_POLYCOMPRESSEDBYTES bytes)
**************************************************/
void PQCLEAN_MLKEM512_CLEAN_poly_decompress(poly *r, const uint8_t a[KYBER_POLYCOMPRESSEDBYTES]) {
  400834:	b570      	push	{r4, r5, r6, lr}
  400836:	3901      	subs	r1, #1
    size_t i;

    for (i = 0; i < KYBER_N / 2; i++) {
  400838:	2200      	movs	r2, #0
        r->coeffs[2 * i + 0] = (((uint16_t)(a[0] & 15) * KYBER_Q) + 8) >> 4;
  40083a:	f640 5501 	movw	r5, #3329	@ 0xd01
  40083e:	2408      	movs	r4, #8
        r->coeffs[2 * i + 1] = (((uint16_t)(a[0] >> 4) * KYBER_Q) + 8) >> 4;
  400840:	1c86      	adds	r6, r0, #2
        r->coeffs[2 * i + 0] = (((uint16_t)(a[0] & 15) * KYBER_Q) + 8) >> 4;
  400842:	f811 3f01 	ldrb.w	r3, [r1, #1]!
  400846:	f003 030f 	and.w	r3, r3, #15
  40084a:	fb13 4305 	smlabb	r3, r3, r5, r4
  40084e:	111b      	asrs	r3, r3, #4
  400850:	f820 3022 	strh.w	r3, [r0, r2, lsl #2]
        r->coeffs[2 * i + 1] = (((uint16_t)(a[0] >> 4) * KYBER_Q) + 8) >> 4;
  400854:	780b      	ldrb	r3, [r1, #0]
  400856:	091b      	lsrs	r3, r3, #4
  400858:	fb13 4305 	smlabb	r3, r3, r5, r4
  40085c:	111b      	asrs	r3, r3, #4
  40085e:	f826 3022 	strh.w	r3, [r6, r2, lsl #2]
    for (i = 0; i < KYBER_N / 2; i++) {
  400862:	3201      	adds	r2, #1
  400864:	2a80      	cmp	r2, #128	@ 0x80
  400866:	d1ec      	bne.n	400842 <PQCLEAN_MLKEM512_CLEAN_poly_decompress+0xe>
        a += 1;
    }
}
  400868:	bd70      	pop	{r4, r5, r6, pc}

0040086a <PQCLEAN_MLKEM512_CLEAN_poly_frombytes>:
*
* Arguments:   - poly *r: pointer to output polynomial
*              - const uint8_t *a: pointer to input byte array
*                                  (of KYBER_POLYBYTES bytes)
**************************************************/
void PQCLEAN_MLKEM512_CLEAN_poly_frombytes(poly *r, const uint8_t a[KYBER_POLYBYTES]) {
  40086a:	b530      	push	{r4, r5, lr}
    size_t i;
    for (i = 0; i < KYBER_N / 2; i++) {
  40086c:	2300      	movs	r3, #0
        r->coeffs[2 * i]   = ((a[3 * i + 0] >> 0) | ((uint16_t)a[3 * i + 1] << 8)) & 0xFFF;
        r->coeffs[2 * i + 1] = ((a[3 * i + 1] >> 4) | ((uint16_t)a[3 * i + 2] << 4)) & 0xFFF;
  40086e:	1c84      	adds	r4, r0, #2
        r->coeffs[2 * i]   = ((a[3 * i + 0] >> 0) | ((uint16_t)a[3 * i + 1] << 8)) & 0xFFF;
  400870:	784d      	ldrb	r5, [r1, #1]
  400872:	780a      	ldrb	r2, [r1, #0]
  400874:	ea42 2205 	orr.w	r2, r2, r5, lsl #8
  400878:	f3c2 020b 	ubfx	r2, r2, #0, #12
  40087c:	f820 2023 	strh.w	r2, [r0, r3, lsl #2]
        r->coeffs[2 * i + 1] = ((a[3 * i + 1] >> 4) | ((uint16_t)a[3 * i + 2] << 4)) & 0xFFF;
  400880:	788a      	ldrb	r2, [r1, #2]
  400882:	784d      	ldrb	r5, [r1, #1]
  400884:	0112      	lsls	r2, r2, #4
  400886:	ea42 1215 	orr.w	r2, r2, r5, lsr #4
  40088a:	f824 2023 	strh.w	r2, [r4, r3, lsl #2]
    for (i = 0; i < KYBER_N / 2; i++) {
  40088e:	3301      	adds	r3, #1
  400890:	2b80      	cmp	r3, #128	@ 0x80
  400892:	f101 0103 	add.w	r1, r1, #3
  400896:	d1eb      	bne.n	400870 <PQCLEAN_MLKEM512_CLEAN_poly_frombytes+0x6>
    }
}
  400898:	bd30      	pop	{r4, r5, pc}
  40089a:	0000      	movs	r0, r0

0040089c <PQCLEAN_MLKEM512_CLEAN_poly_tomsg>:
* Description: Convert polynomial to 32-byte message
*
* Arguments:   - uint8_t *msg: pointer to output message
*              - const poly *a: pointer to input polynomial
**************************************************/
void PQCLEAN_MLKEM512_CLEAN_poly_tomsg(uint8_t msg[KYBER_INDCPA_MSGBYTES], const poly *a) {
  40089c:	b5f0      	push	{r4, r5, r6, r7, lr}
            t  = a->coeffs[8 * i + j];
            // t += ((int16_t)t >> 15) & KYBER_Q;
            // t  = (((t << 1) + KYBER_Q/2)/KYBER_Q) & 1;
            t <<= 1;
            t += 1665;
            t *= 80635;
  40089e:	f8df c040 	ldr.w	ip, [pc, #64]	@ 4008e0 <PQCLEAN_MLKEM512_CLEAN_poly_tomsg+0x44>
void PQCLEAN_MLKEM512_CLEAN_poly_tomsg(uint8_t msg[KYBER_INDCPA_MSGBYTES], const poly *a) {
  4008a2:	2400      	movs	r4, #0
  4008a4:	3801      	subs	r0, #1
        msg[i] = 0;
  4008a6:	4627      	mov	r7, r4
  4008a8:	2200      	movs	r2, #0
  4008aa:	f800 7f01 	strb.w	r7, [r0, #1]!
        for (j = 0; j < 8; j++) {
  4008ae:	eb01 0644 	add.w	r6, r1, r4, lsl #1
  4008b2:	4615      	mov	r5, r2
            t  = a->coeffs[8 * i + j];
  4008b4:	f936 3b02 	ldrsh.w	r3, [r6], #2
            t <<= 1;
  4008b8:	005b      	lsls	r3, r3, #1
            t += 1665;
  4008ba:	f203 6381 	addw	r3, r3, #1665	@ 0x681
            t *= 80635;
  4008be:	fb0c f303 	mul.w	r3, ip, r3
            t >>= 28;
            t &= 1;
  4008c2:	f3c3 7300 	ubfx	r3, r3, #28, #1
            msg[i] |= t << j;
  4008c6:	40ab      	lsls	r3, r5
  4008c8:	431a      	orrs	r2, r3
        for (j = 0; j < 8; j++) {
  4008ca:	3501      	adds	r5, #1
            msg[i] |= t << j;
  4008cc:	b2d2      	uxtb	r2, r2
        for (j = 0; j < 8; j++) {
  4008ce:	2d08      	cmp	r5, #8
            msg[i] |= t << j;
  4008d0:	7002      	strb	r2, [r0, #0]
        for (j = 0; j < 8; j++) {
  4008d2:	d1ef      	bne.n	4008b4 <PQCLEAN_MLKEM512_CLEAN_poly_tomsg+0x18>
    for (i = 0; i < KYBER_N / 8; i++) {
  4008d4:	3408      	adds	r4, #8
  4008d6:	f5b4 7f80 	cmp.w	r4, #256	@ 0x100
  4008da:	d1e5      	bne.n	4008a8 <PQCLEAN_MLKEM512_CLEAN_poly_tomsg+0xc>
        }
    }
}
  4008dc:	bdf0      	pop	{r4, r5, r6, r7, pc}
  4008de:	bf00      	nop
  4008e0:	00013afb 	.word	0x00013afb

004008e4 <PQCLEAN_MLKEM512_CLEAN_poly_invntt_tomont>:
*              inputs assumed to be in bitreversed order, output in normal order
*
* Arguments:   - uint16_t *a: pointer to in/output polynomial
**************************************************/
void PQCLEAN_MLKEM512_CLEAN_poly_invntt_tomont(poly *r) {
    PQCLEAN_MLKEM512_CLEAN_invntt(r->coeffs);
  4008e4:	4b00      	ldr	r3, [pc, #0]	@ (4008e8 <PQCLEAN_MLKEM512_CLEAN_poly_invntt_tomont+0x4>)
  4008e6:	4718      	bx	r3
  4008e8:	00400731 	.word	0x00400731

004008ec <PQCLEAN_MLKEM512_CLEAN_poly_basemul_montgomery>:
*
* Arguments:   - poly *r: pointer to output polynomial
*              - const poly *a: pointer to first input polynomial
*              - const poly *b: pointer to second input polynomial
**************************************************/
void PQCLEAN_MLKEM512_CLEAN_poly_basemul_montgomery(poly *r, const poly *a, const poly *b) {
  4008ec:	e92d 47f0 	stmdb	sp!, {r4, r5, r6, r7, r8, r9, sl, lr}
  4008f0:	4f0f      	ldr	r7, [pc, #60]	@ (400930 <PQCLEAN_MLKEM512_CLEAN_poly_basemul_montgomery+0x44>)
    size_t i;
    for (i = 0; i < KYBER_N / 4; i++) {
        PQCLEAN_MLKEM512_CLEAN_basemul(&r->coeffs[4 * i], &a->coeffs[4 * i], &b->coeffs[4 * i], PQCLEAN_MLKEM512_CLEAN_zetas[64 + i]);
  4008f2:	f8df 9040 	ldr.w	r9, [pc, #64]	@ 400934 <PQCLEAN_MLKEM512_CLEAN_poly_basemul_montgomery+0x48>
  4008f6:	1d06      	adds	r6, r0, #4
  4008f8:	1d0d      	adds	r5, r1, #4
  4008fa:	1d14      	adds	r4, r2, #4
  4008fc:	f107 0a80 	add.w	sl, r7, #128	@ 0x80
  400900:	f937 8f02 	ldrsh.w	r8, [r7, #2]!
  400904:	1f22      	subs	r2, r4, #4
  400906:	1f29      	subs	r1, r5, #4
  400908:	1f30      	subs	r0, r6, #4
  40090a:	4643      	mov	r3, r8
  40090c:	47c8      	blx	r9
        PQCLEAN_MLKEM512_CLEAN_basemul(&r->coeffs[4 * i + 2], &a->coeffs[4 * i + 2], &b->coeffs[4 * i + 2], -PQCLEAN_MLKEM512_CLEAN_zetas[64 + i]);
  40090e:	f1c8 0300 	rsb	r3, r8, #0
  400912:	4622      	mov	r2, r4
  400914:	4629      	mov	r1, r5
  400916:	4630      	mov	r0, r6
  400918:	b21b      	sxth	r3, r3
  40091a:	47c8      	blx	r9
    for (i = 0; i < KYBER_N / 4; i++) {
  40091c:	4557      	cmp	r7, sl
  40091e:	f106 0608 	add.w	r6, r6, #8
  400922:	f105 0508 	add.w	r5, r5, #8
  400926:	f104 0408 	add.w	r4, r4, #8
  40092a:	d1e9      	bne.n	400900 <PQCLEAN_MLKEM512_CLEAN_poly_basemul_montgomery+0x14>
    }
}
  40092c:	e8bd 87f0 	ldmia.w	sp!, {r4, r5, r6, r7, r8, r9, sl, pc}
  400930:	00402d3a 	.word	0x00402d3a
  400934:	004007dd 	.word	0x004007dd

00400938 <PQCLEAN_MLKEM512_CLEAN_poly_reduce>:
* Description: Applies Barrett reduction to all coefficients of a polynomial
*              for details of the Barrett reduction see comments in reduce.c
*
* Arguments:   - poly *r: pointer to input/output polynomial
**************************************************/
void PQCLEAN_MLKEM512_CLEAN_poly_reduce(poly *r) {
  400938:	b570      	push	{r4, r5, r6, lr}
    size_t i;
    for (i = 0; i < KYBER_N; i++) {
        r->coeffs[i] = PQCLEAN_MLKEM512_CLEAN_barrett_reduce(r->coeffs[i]);
  40093a:	4e05      	ldr	r6, [pc, #20]	@ (400950 <PQCLEAN_MLKEM512_CLEAN_poly_reduce+0x18>)
  40093c:	1e85      	subs	r5, r0, #2
  40093e:	f500 74ff 	add.w	r4, r0, #510	@ 0x1fe
  400942:	f935 0f02 	ldrsh.w	r0, [r5, #2]!
  400946:	47b0      	blx	r6
    for (i = 0; i < KYBER_N; i++) {
  400948:	42a5      	cmp	r5, r4
        r->coeffs[i] = PQCLEAN_MLKEM512_CLEAN_barrett_reduce(r->coeffs[i]);
  40094a:	8028      	strh	r0, [r5, #0]
    for (i = 0; i < KYBER_N; i++) {
  40094c:	d1f9      	bne.n	400942 <PQCLEAN_MLKEM512_CLEAN_poly_reduce+0xa>
    }
}
  40094e:	bd70      	pop	{r4, r5, r6, pc}
  400950:	00400ac1 	.word	0x00400ac1

00400954 <PQCLEAN_MLKEM512_CLEAN_poly_ntt>:
void PQCLEAN_MLKEM512_CLEAN_poly_ntt(poly *r) {
  400954:	b510      	push	{r4, lr}
    PQCLEAN_MLKEM512_CLEAN_ntt(r->coeffs);
  400956:	4b04      	ldr	r3, [pc, #16]	@ (400968 <PQCLEAN_MLKEM512_CLEAN_poly_ntt+0x14>)
void PQCLEAN_MLKEM512_CLEAN_poly_ntt(poly *r) {
  400958:	4604      	mov	r4, r0
    PQCLEAN_MLKEM512_CLEAN_ntt(r->coeffs);
  40095a:	4798      	blx	r3
    PQCLEAN_MLKEM512_CLEAN_poly_reduce(r);
  40095c:	4620      	mov	r0, r4
  40095e:	4b03      	ldr	r3, [pc, #12]	@ (40096c <PQCLEAN_MLKEM512_CLEAN_poly_ntt+0x18>)
}
  400960:	e8bd 4010 	ldmia.w	sp!, {r4, lr}
    PQCLEAN_MLKEM512_CLEAN_poly_reduce(r);
  400964:	4718      	bx	r3
  400966:	bf00      	nop
  400968:	00400699 	.word	0x00400699
  40096c:	00400939 	.word	0x00400939

00400970 <PQCLEAN_MLKEM512_CLEAN_poly_add>:
*
* Arguments: - poly *r: pointer to output polynomial
*            - const poly *a: pointer to first input polynomial
*            - const poly *b: pointer to second input polynomial
**************************************************/
void PQCLEAN_MLKEM512_CLEAN_poly_add(poly *r, const poly *a, const poly *b) {
  400970:	b530      	push	{r4, r5, lr}
    size_t i;
    for (i = 0; i < KYBER_N; i++) {
  400972:	2300      	movs	r3, #0
        r->coeffs[i] = a->coeffs[i] + b->coeffs[i];
  400974:	f831 4013 	ldrh.w	r4, [r1, r3, lsl #1]
  400978:	f832 5013 	ldrh.w	r5, [r2, r3, lsl #1]
  40097c:	442c      	add	r4, r5
  40097e:	f820 4013 	strh.w	r4, [r0, r3, lsl #1]
    for (i = 0; i < KYBER_N; i++) {
  400982:	3301      	adds	r3, #1
  400984:	f5b3 7f80 	cmp.w	r3, #256	@ 0x100
  400988:	d1f4      	bne.n	400974 <PQCLEAN_MLKEM512_CLEAN_poly_add+0x4>
    }
}
  40098a:	bd30      	pop	{r4, r5, pc}

0040098c <PQCLEAN_MLKEM512_CLEAN_poly_sub>:
*
* Arguments: - poly *r:       pointer to output polynomial
*            - const poly *a: pointer to first input polynomial
*            - const poly *b: pointer to second input polynomial
**************************************************/
void PQCLEAN_MLKEM512_CLEAN_poly_sub(poly *r, const poly *a, const poly *b) {
  40098c:	b530      	push	{r4, r5, lr}
    size_t i;
    for (i = 0; i < KYBER_N; i++) {
  40098e:	2300      	movs	r3, #0
        r->coeffs[i] = a->coeffs[i] - b->coeffs[i];
  400990:	f831 4013 	ldrh.w	r4, [r1, r3, lsl #1]
  400994:	f832 5013 	ldrh.w	r5, [r2, r3, lsl #1]
  400998:	1b64      	subs	r4, r4, r5
  40099a:	f820 4013 	strh.w	r4, [r0, r3, lsl #1]
    for (i = 0; i < KYBER_N; i++) {
  40099e:	3301      	adds	r3, #1
  4009a0:	f5b3 7f80 	cmp.w	r3, #256	@ 0x100
  4009a4:	d1f4      	bne.n	400990 <PQCLEAN_MLKEM512_CLEAN_poly_sub+0x4>
    }
}
  4009a6:	bd30      	pop	{r4, r5, pc}

004009a8 <PQCLEAN_MLKEM512_CLEAN_polyvec_decompress>:
*
* Arguments:   - polyvec *r:       pointer to output vector of polynomials
*              - const uint8_t *a: pointer to input byte array
*                                  (of length KYBER_POLYVECCOMPRESSEDBYTES)
**************************************************/
void PQCLEAN_MLKEM512_CLEAN_polyvec_decompress(polyvec *r, const uint8_t a[KYBER_POLYVECCOMPRESSEDBYTES]) {
  4009a8:	e92d 41f3 	stmdb	sp!, {r0, r1, r4, r5, r6, r7, r8, lr}
  4009ac:	2400      	movs	r4, #0
            t[2] = (a[2] >> 4) | ((uint16_t)a[3] << 4);
            t[3] = (a[3] >> 6) | ((uint16_t)a[4] << 2);
            a += 5;

            for (k = 0; k < 4; k++) {
                r->vec[i].coeffs[4 * j + k] = ((uint32_t)(t[k] & 0x3FF) * KYBER_Q + 512) >> 10;
  4009ae:	f640 5801 	movw	r8, #3329	@ 0xd01
  4009b2:	eb04 0384 	add.w	r3, r4, r4, lsl #2
  4009b6:	440b      	add	r3, r1
        for (j = 0; j < KYBER_N / 4; j++) {
  4009b8:	eb00 06c4 	add.w	r6, r0, r4, lsl #3
void PQCLEAN_MLKEM512_CLEAN_polyvec_decompress(polyvec *r, const uint8_t a[KYBER_POLYVECCOMPRESSEDBYTES]) {
  4009bc:	2500      	movs	r5, #0
            t[1] = (a[1] >> 2) | ((uint16_t)a[2] << 6);
  4009be:	f893 c002 	ldrb.w	ip, [r3, #2]
            t[0] = (a[0] >> 0) | ((uint16_t)a[1] << 8);
  4009c2:	785f      	ldrb	r7, [r3, #1]
  4009c4:	881a      	ldrh	r2, [r3, #0]
  4009c6:	f8ad 2000 	strh.w	r2, [sp]
            t[1] = (a[1] >> 2) | ((uint16_t)a[2] << 6);
  4009ca:	ea4f 128c 	mov.w	r2, ip, lsl #6
  4009ce:	ea42 0297 	orr.w	r2, r2, r7, lsr #2
  4009d2:	f8ad 2002 	strh.w	r2, [sp, #2]
            t[2] = (a[2] >> 4) | ((uint16_t)a[3] << 4);
  4009d6:	78da      	ldrb	r2, [r3, #3]
  4009d8:	0117      	lsls	r7, r2, #4
  4009da:	ea47 171c 	orr.w	r7, r7, ip, lsr #4
  4009de:	f8ad 7004 	strh.w	r7, [sp, #4]
            t[3] = (a[3] >> 6) | ((uint16_t)a[4] << 2);
  4009e2:	791f      	ldrb	r7, [r3, #4]
  4009e4:	0992      	lsrs	r2, r2, #6
  4009e6:	ea42 0287 	orr.w	r2, r2, r7, lsl #2
  4009ea:	f8ad 2006 	strh.w	r2, [sp, #6]
            a += 5;
  4009ee:	3305      	adds	r3, #5
            for (k = 0; k < 4; k++) {
  4009f0:	46ee      	mov	lr, sp
            a += 5;
  4009f2:	46b4      	mov	ip, r6
            for (k = 0; k < 4; k++) {
  4009f4:	2700      	movs	r7, #0
                r->vec[i].coeffs[4 * j + k] = ((uint32_t)(t[k] & 0x3FF) * KYBER_Q + 512) >> 10;
  4009f6:	f83e 2b02 	ldrh.w	r2, [lr], #2
  4009fa:	f3c2 0209 	ubfx	r2, r2, #0, #10
  4009fe:	fb08 f202 	mul.w	r2, r8, r2
  400a02:	f502 7200 	add.w	r2, r2, #512	@ 0x200
            for (k = 0; k < 4; k++) {
  400a06:	3701      	adds	r7, #1
                r->vec[i].coeffs[4 * j + k] = ((uint32_t)(t[k] & 0x3FF) * KYBER_Q + 512) >> 10;
  400a08:	0a92      	lsrs	r2, r2, #10
            for (k = 0; k < 4; k++) {
  400a0a:	2f04      	cmp	r7, #4
                r->vec[i].coeffs[4 * j + k] = ((uint32_t)(t[k] & 0x3FF) * KYBER_Q + 512) >> 10;
  400a0c:	f82c 2b02 	strh.w	r2, [ip], #2
            for (k = 0; k < 4; k++) {
  400a10:	d1f1      	bne.n	4009f6 <PQCLEAN_MLKEM512_CLEAN_polyvec_decompress+0x4e>
        for (j = 0; j < KYBER_N / 4; j++) {
  400a12:	3504      	adds	r5, #4
  400a14:	f5b5 7f80 	cmp.w	r5, #256	@ 0x100
  400a18:	f106 0608 	add.w	r6, r6, #8
  400a1c:	d1cf      	bne.n	4009be <PQCLEAN_MLKEM512_CLEAN_polyvec_decompress+0x16>
    for (i = 0; i < KYBER_K; i++) {
  400a1e:	b90c      	cbnz	r4, 400a24 <PQCLEAN_MLKEM512_CLEAN_polyvec_decompress+0x7c>
  400a20:	2440      	movs	r4, #64	@ 0x40
  400a22:	e7c6      	b.n	4009b2 <PQCLEAN_MLKEM512_CLEAN_polyvec_decompress+0xa>
            }
        }
    }
}
  400a24:	b002      	add	sp, #8
  400a26:	e8bd 81f0 	ldmia.w	sp!, {r4, r5, r6, r7, r8, pc}
  400a2a:	0000      	movs	r0, r0

00400a2c <PQCLEAN_MLKEM512_CLEAN_polyvec_frombytes>:
*
* Arguments:   - uint8_t *r:       pointer to output byte array
*              - const polyvec *a: pointer to input vector of polynomials
*                                  (of length KYBER_POLYVECBYTES)
**************************************************/
void PQCLEAN_MLKEM512_CLEAN_polyvec_frombytes(polyvec *r, const uint8_t a[KYBER_POLYVECBYTES]) {
  400a2c:	b570      	push	{r4, r5, r6, lr}
    unsigned int i;
    for (i = 0; i < KYBER_K; i++) {
        PQCLEAN_MLKEM512_CLEAN_poly_frombytes(&r->vec[i], a + i * KYBER_POLYBYTES);
  400a2e:	4e06      	ldr	r6, [pc, #24]	@ (400a48 <PQCLEAN_MLKEM512_CLEAN_polyvec_frombytes+0x1c>)
void PQCLEAN_MLKEM512_CLEAN_polyvec_frombytes(polyvec *r, const uint8_t a[KYBER_POLYVECBYTES]) {
  400a30:	4604      	mov	r4, r0
  400a32:	460d      	mov	r5, r1
        PQCLEAN_MLKEM512_CLEAN_poly_frombytes(&r->vec[i], a + i * KYBER_POLYBYTES);
  400a34:	47b0      	blx	r6
  400a36:	f505 71c0 	add.w	r1, r5, #384	@ 0x180
  400a3a:	f504 7000 	add.w	r0, r4, #512	@ 0x200
  400a3e:	4633      	mov	r3, r6
    }
}
  400a40:	e8bd 4070 	ldmia.w	sp!, {r4, r5, r6, lr}
        PQCLEAN_MLKEM512_CLEAN_poly_frombytes(&r->vec[i], a + i * KYBER_POLYBYTES);
  400a44:	4718      	bx	r3
  400a46:	bf00      	nop
  400a48:	0040086b 	.word	0x0040086b

00400a4c <PQCLEAN_MLKEM512_CLEAN_polyvec_ntt>:
*
* Description: Apply forward NTT to all elements of a vector of polynomials
*
* Arguments:   - polyvec *r: pointer to in/output vector of polynomials
**************************************************/
void PQCLEAN_MLKEM512_CLEAN_polyvec_ntt(polyvec *r) {
  400a4c:	b570      	push	{r4, r5, r6, lr}
    unsigned int i;
    for (i = 0; i < KYBER_K; i++) {
        PQCLEAN_MLKEM512_CLEAN_poly_ntt(&r->vec[i]);
  400a4e:	4d04      	ldr	r5, [pc, #16]	@ (400a60 <PQCLEAN_MLKEM512_CLEAN_polyvec_ntt+0x14>)
void PQCLEAN_MLKEM512_CLEAN_polyvec_ntt(polyvec *r) {
  400a50:	4604      	mov	r4, r0
        PQCLEAN_MLKEM512_CLEAN_poly_ntt(&r->vec[i]);
  400a52:	47a8      	blx	r5
  400a54:	f504 7000 	add.w	r0, r4, #512	@ 0x200
  400a58:	462b      	mov	r3, r5
    }
}
  400a5a:	e8bd 4070 	ldmia.w	sp!, {r4, r5, r6, lr}
        PQCLEAN_MLKEM512_CLEAN_poly_ntt(&r->vec[i]);
  400a5e:	4718      	bx	r3
  400a60:	00400955 	.word	0x00400955

00400a64 <PQCLEAN_MLKEM512_CLEAN_polyvec_basemul_acc_montgomery>:
*
* Arguments: - poly *r: pointer to output polynomial
*            - const polyvec *a: pointer to first input vector of polynomials
*            - const polyvec *b: pointer to second input vector of polynomials
**************************************************/
void PQCLEAN_MLKEM512_CLEAN_polyvec_basemul_acc_montgomery(poly *r, const polyvec *a, const polyvec *b) {
  400a64:	b5f0      	push	{r4, r5, r6, r7, lr}
    unsigned int i;
    poly t;

    PQCLEAN_MLKEM512_CLEAN_poly_basemul_montgomery(r, &a->vec[0], &b->vec[0]);
  400a66:	4f0c      	ldr	r7, [pc, #48]	@ (400a98 <PQCLEAN_MLKEM512_CLEAN_polyvec_basemul_acc_montgomery+0x34>)
void PQCLEAN_MLKEM512_CLEAN_polyvec_basemul_acc_montgomery(poly *r, const polyvec *a, const polyvec *b) {
  400a68:	f5ad 7d01 	sub.w	sp, sp, #516	@ 0x204
  400a6c:	460d      	mov	r5, r1
  400a6e:	4616      	mov	r6, r2
  400a70:	4604      	mov	r4, r0
    PQCLEAN_MLKEM512_CLEAN_poly_basemul_montgomery(r, &a->vec[0], &b->vec[0]);
  400a72:	47b8      	blx	r7
    for (i = 1; i < KYBER_K; i++) {
        PQCLEAN_MLKEM512_CLEAN_poly_basemul_montgomery(&t, &a->vec[i], &b->vec[i]);
  400a74:	f506 7200 	add.w	r2, r6, #512	@ 0x200
  400a78:	f505 7100 	add.w	r1, r5, #512	@ 0x200
  400a7c:	4668      	mov	r0, sp
  400a7e:	47b8      	blx	r7
        PQCLEAN_MLKEM512_CLEAN_poly_add(r, r, &t);
  400a80:	466a      	mov	r2, sp
  400a82:	4621      	mov	r1, r4
  400a84:	4620      	mov	r0, r4
  400a86:	4b05      	ldr	r3, [pc, #20]	@ (400a9c <PQCLEAN_MLKEM512_CLEAN_polyvec_basemul_acc_montgomery+0x38>)
  400a88:	4798      	blx	r3
    }

    PQCLEAN_MLKEM512_CLEAN_poly_reduce(r);
  400a8a:	4b05      	ldr	r3, [pc, #20]	@ (400aa0 <PQCLEAN_MLKEM512_CLEAN_polyvec_basemul_acc_montgomery+0x3c>)
  400a8c:	4620      	mov	r0, r4
  400a8e:	4798      	blx	r3
}
  400a90:	f50d 7d01 	add.w	sp, sp, #516	@ 0x204
  400a94:	bdf0      	pop	{r4, r5, r6, r7, pc}
  400a96:	bf00      	nop
  400a98:	004008ed 	.word	0x004008ed
  400a9c:	00400971 	.word	0x00400971
  400aa0:	00400939 	.word	0x00400939

00400aa4 <PQCLEAN_MLKEM512_CLEAN_montgomery_reduce>:
* Returns:     integer in {-q+1,...,q-1} congruent to a * R^-1 modulo q.
**************************************************/
int16_t PQCLEAN_MLKEM512_CLEAN_montgomery_reduce(int32_t a) {
    int16_t t;

    t = (int16_t)a * QINV;
  400aa4:	eb00 0340 	add.w	r3, r0, r0, lsl #1
  400aa8:	eb03 03c3 	add.w	r3, r3, r3, lsl #3
  400aac:	eb03 03c3 	add.w	r3, r3, r3, lsl #3
  400ab0:	eb00 2303 	add.w	r3, r0, r3, lsl #8
    t = (a - (int32_t)t * KYBER_Q) >> 16;
  400ab4:	f24f 22ff 	movw	r2, #62207	@ 0xf2ff
  400ab8:	fb13 0002 	smlabb	r0, r3, r2, r0
    return t;
}
  400abc:	1400      	asrs	r0, r0, #16
  400abe:	4770      	bx	lr

00400ac0 <PQCLEAN_MLKEM512_CLEAN_barrett_reduce>:
**************************************************/
int16_t PQCLEAN_MLKEM512_CLEAN_barrett_reduce(int16_t a) {
    int16_t t;
    const int16_t v = ((1 << 26) + KYBER_Q / 2) / KYBER_Q;

    t  = ((int32_t)v * a + (1 << 25)) >> 26;
  400ac0:	f04f 7200 	mov.w	r2, #33554432	@ 0x2000000
  400ac4:	f644 63bf 	movw	r3, #20159	@ 0x4ebf
  400ac8:	fb10 2303 	smlabb	r3, r0, r3, r2
  400acc:	169b      	asrs	r3, r3, #26
    t *= KYBER_Q;
  400ace:	eb03 0243 	add.w	r2, r3, r3, lsl #1
  400ad2:	eb03 0282 	add.w	r2, r3, r2, lsl #2
  400ad6:	eb03 2302 	add.w	r3, r3, r2, lsl #8
    return a - t;
  400ada:	1ac0      	subs	r0, r0, r3
}
  400adc:	b200      	sxth	r0, r0
  400ade:	4770      	bx	lr

00400ae0 <PQCLEAN_MLKEM512_CLEAN_kyber_shake256_rkprf>:
* Arguments:   - uint8_t *out: pointer to output
*              - size_t outlen: number of requested output bytes
*              - const uint8_t *key: pointer to the key (of length KYBER_SYMBYTES)
*              - uint8_t nonce: single-byte nonce (public PRF input)
**************************************************/
void PQCLEAN_MLKEM512_CLEAN_kyber_shake256_rkprf(uint8_t out[KYBER_SSBYTES], const uint8_t key[KYBER_SYMBYTES], const uint8_t input[KYBER_CIPHERTEXTBYTES]) {
  400ae0:	b573      	push	{r0, r1, r4, r5, r6, lr}
    shake256incctx s;

    shake256_inc_init(&s);
  400ae2:	4b0e      	ldr	r3, [pc, #56]	@ (400b1c <PQCLEAN_MLKEM512_CLEAN_kyber_shake256_rkprf+0x3c>)
void PQCLEAN_MLKEM512_CLEAN_kyber_shake256_rkprf(uint8_t out[KYBER_SSBYTES], const uint8_t key[KYBER_SYMBYTES], const uint8_t input[KYBER_CIPHERTEXTBYTES]) {
  400ae4:	4604      	mov	r4, r0
  400ae6:	460e      	mov	r6, r1
    shake256_inc_init(&s);
  400ae8:	a801      	add	r0, sp, #4
void PQCLEAN_MLKEM512_CLEAN_kyber_shake256_rkprf(uint8_t out[KYBER_SSBYTES], const uint8_t key[KYBER_SYMBYTES], const uint8_t input[KYBER_CIPHERTEXTBYTES]) {
  400aea:	4615      	mov	r5, r2
    shake256_inc_init(&s);
  400aec:	4798      	blx	r3
    shake256_inc_absorb(&s, key, KYBER_SYMBYTES);
  400aee:	4631      	mov	r1, r6
  400af0:	a801      	add	r0, sp, #4
  400af2:	4e0b      	ldr	r6, [pc, #44]	@ (400b20 <PQCLEAN_MLKEM512_CLEAN_kyber_shake256_rkprf+0x40>)
  400af4:	2220      	movs	r2, #32
  400af6:	47b0      	blx	r6
    shake256_inc_absorb(&s, input, KYBER_CIPHERTEXTBYTES);
  400af8:	4629      	mov	r1, r5
  400afa:	f44f 7240 	mov.w	r2, #768	@ 0x300
  400afe:	a801      	add	r0, sp, #4
  400b00:	47b0      	blx	r6
    shake256_inc_finalize(&s);
  400b02:	a801      	add	r0, sp, #4
  400b04:	4b07      	ldr	r3, [pc, #28]	@ (400b24 <PQCLEAN_MLKEM512_CLEAN_kyber_shake256_rkprf+0x44>)
  400b06:	4798      	blx	r3
    shake256_inc_squeeze(out, KYBER_SSBYTES, &s);
  400b08:	aa01      	add	r2, sp, #4
  400b0a:	2120      	movs	r1, #32
  400b0c:	4620      	mov	r0, r4
  400b0e:	4b06      	ldr	r3, [pc, #24]	@ (400b28 <PQCLEAN_MLKEM512_CLEAN_kyber_shake256_rkprf+0x48>)
  400b10:	4798      	blx	r3
    shake256_inc_ctx_release(&s);
  400b12:	4b06      	ldr	r3, [pc, #24]	@ (400b2c <PQCLEAN_MLKEM512_CLEAN_kyber_shake256_rkprf+0x4c>)
  400b14:	a801      	add	r0, sp, #4
  400b16:	4798      	blx	r3
}
  400b18:	b002      	add	sp, #8
  400b1a:	bd70      	pop	{r4, r5, r6, pc}
  400b1c:	00401d25 	.word	0x00401d25
  400b20:	00401d4d 	.word	0x00401d4d
  400b24:	00401d65 	.word	0x00401d65
  400b28:	00401d75 	.word	0x00401d75
  400b2c:	00401d89 	.word	0x00401d89

00400b30 <PQCLEAN_MLKEM512_CLEAN_verify>:
*
* Returns 0 if the byte arrays are equal, 1 otherwise
**************************************************/
int PQCLEAN_MLKEM512_CLEAN_verify(const uint8_t *a, const uint8_t *b, size_t len) {
    size_t i;
    uint8_t r = 0;
  400b30:	2300      	movs	r3, #0
int PQCLEAN_MLKEM512_CLEAN_verify(const uint8_t *a, const uint8_t *b, size_t len) {
  400b32:	b570      	push	{r4, r5, r6, lr}

    for (i = 0; i < len; i++) {
  400b34:	461c      	mov	r4, r3
  400b36:	4294      	cmp	r4, r2
  400b38:	d104      	bne.n	400b44 <PQCLEAN_MLKEM512_CLEAN_verify+0x14>
        r |= a[i] ^ b[i];
    }

    return (-(uint64_t)r) >> 63;
  400b3a:	425b      	negs	r3, r3
  400b3c:	eb60 0000 	sbc.w	r0, r0, r0
}
  400b40:	0fc0      	lsrs	r0, r0, #31
  400b42:	bd70      	pop	{r4, r5, r6, pc}
        r |= a[i] ^ b[i];
  400b44:	5d05      	ldrb	r5, [r0, r4]
  400b46:	5d0e      	ldrb	r6, [r1, r4]
  400b48:	4075      	eors	r5, r6
  400b4a:	432b      	orrs	r3, r5
    for (i = 0; i < len; i++) {
  400b4c:	3401      	adds	r4, #1
  400b4e:	e7f2      	b.n	400b36 <PQCLEAN_MLKEM512_CLEAN_verify+0x6>

00400b50 <PQCLEAN_MLKEM512_CLEAN_cmov>:
* Arguments:   uint8_t *r:       pointer to output byte array
*              const uint8_t *x: pointer to input byte array
*              size_t len:       Amount of bytes to be copied
*              uint8_t b:        Condition bit; has to be in {0,1}
**************************************************/
void PQCLEAN_MLKEM512_CLEAN_cmov(uint8_t *r, const uint8_t *x, size_t len, uint8_t b) {
  400b50:	b530      	push	{r4, r5, lr}
    size_t i;

    PQCLEAN_PREVENT_BRANCH_HACK(b);

    b = -b;
  400b52:	425b      	negs	r3, r3
  400b54:	b2db      	uxtb	r3, r3
    for (i = 0; i < len; i++) {
  400b56:	3901      	subs	r1, #1
  400b58:	4402      	add	r2, r0
  400b5a:	4290      	cmp	r0, r2
  400b5c:	d100      	bne.n	400b60 <PQCLEAN_MLKEM512_CLEAN_cmov+0x10>
        r[i] ^= b & (r[i] ^ x[i]);
    }
}
  400b5e:	bd30      	pop	{r4, r5, pc}
        r[i] ^= b & (r[i] ^ x[i]);
  400b60:	7805      	ldrb	r5, [r0, #0]
  400b62:	f811 4f01 	ldrb.w	r4, [r1, #1]!
  400b66:	406c      	eors	r4, r5
  400b68:	401c      	ands	r4, r3
  400b6a:	4065      	eors	r5, r4
  400b6c:	f800 5b01 	strb.w	r5, [r0], #1
    for (i = 0; i < len; i++) {
  400b70:	e7f3      	b.n	400b5a <PQCLEAN_MLKEM512_CLEAN_cmov+0xa>
  400b72:	0000      	movs	r0, r0

00400b74 <KeccakF1600_StatePermute>:
 *
 * Description: The Keccak F1600 Permutation
 *
 * Arguments:   - uint64_t *state: pointer to input/output Keccak state
 **************************************************/
static void KeccakF1600_StatePermute(uint64_t *state) {
  400b74:	e92d 4ff0 	stmdb	sp!, {r4, r5, r6, r7, r8, r9, sl, fp, lr}
  400b78:	b0bd      	sub	sp, #244	@ 0xf4
    uint64_t Eka, Eke, Eki, Eko, Eku;
    uint64_t Ema, Eme, Emi, Emo, Emu;
    uint64_t Esa, Ese, Esi, Eso, Esu;

    // copyFromState(A, state)
    Aba = state[0];
  400b7a:	6803      	ldr	r3, [r0, #0]
  400b7c:	930a      	str	r3, [sp, #40]	@ 0x28
  400b7e:	6843      	ldr	r3, [r0, #4]
  400b80:	930b      	str	r3, [sp, #44]	@ 0x2c
    Abe = state[1];
  400b82:	6883      	ldr	r3, [r0, #8]
  400b84:	930c      	str	r3, [sp, #48]	@ 0x30
  400b86:	68c3      	ldr	r3, [r0, #12]
  400b88:	930d      	str	r3, [sp, #52]	@ 0x34
    Abi = state[2];
  400b8a:	6903      	ldr	r3, [r0, #16]
  400b8c:	930e      	str	r3, [sp, #56]	@ 0x38
  400b8e:	6943      	ldr	r3, [r0, #20]
  400b90:	930f      	str	r3, [sp, #60]	@ 0x3c
    Abo = state[3];
  400b92:	6983      	ldr	r3, [r0, #24]
  400b94:	9310      	str	r3, [sp, #64]	@ 0x40
  400b96:	69c3      	ldr	r3, [r0, #28]
  400b98:	9311      	str	r3, [sp, #68]	@ 0x44
    Abu = state[4];
  400b9a:	6a03      	ldr	r3, [r0, #32]
  400b9c:	9312      	str	r3, [sp, #72]	@ 0x48
  400b9e:	6a43      	ldr	r3, [r0, #36]	@ 0x24
  400ba0:	9313      	str	r3, [sp, #76]	@ 0x4c
    Aga = state[5];
  400ba2:	6a83      	ldr	r3, [r0, #40]	@ 0x28
  400ba4:	9314      	str	r3, [sp, #80]	@ 0x50
  400ba6:	6ac3      	ldr	r3, [r0, #44]	@ 0x2c
  400ba8:	9315      	str	r3, [sp, #84]	@ 0x54
    Age = state[6];
  400baa:	6b03      	ldr	r3, [r0, #48]	@ 0x30
  400bac:	9316      	str	r3, [sp, #88]	@ 0x58
  400bae:	6b43      	ldr	r3, [r0, #52]	@ 0x34
  400bb0:	9317      	str	r3, [sp, #92]	@ 0x5c
    Agi = state[7];
  400bb2:	6b83      	ldr	r3, [r0, #56]	@ 0x38
  400bb4:	9318      	str	r3, [sp, #96]	@ 0x60
  400bb6:	6bc3      	ldr	r3, [r0, #60]	@ 0x3c
  400bb8:	9319      	str	r3, [sp, #100]	@ 0x64
    Ago = state[8];
  400bba:	6c03      	ldr	r3, [r0, #64]	@ 0x40
  400bbc:	931a      	str	r3, [sp, #104]	@ 0x68
  400bbe:	6c43      	ldr	r3, [r0, #68]	@ 0x44
  400bc0:	931b      	str	r3, [sp, #108]	@ 0x6c
    Agu = state[9];
  400bc2:	6c83      	ldr	r3, [r0, #72]	@ 0x48
  400bc4:	931c      	str	r3, [sp, #112]	@ 0x70
  400bc6:	6cc3      	ldr	r3, [r0, #76]	@ 0x4c
  400bc8:	931d      	str	r3, [sp, #116]	@ 0x74
    Aka = state[10];
  400bca:	6d03      	ldr	r3, [r0, #80]	@ 0x50
  400bcc:	931e      	str	r3, [sp, #120]	@ 0x78
  400bce:	6d43      	ldr	r3, [r0, #84]	@ 0x54
  400bd0:	931f      	str	r3, [sp, #124]	@ 0x7c
    Ake = state[11];
  400bd2:	6d83      	ldr	r3, [r0, #88]	@ 0x58
  400bd4:	9320      	str	r3, [sp, #128]	@ 0x80
  400bd6:	6dc3      	ldr	r3, [r0, #92]	@ 0x5c
  400bd8:	9321      	str	r3, [sp, #132]	@ 0x84
    Aki = state[12];
  400bda:	6e03      	ldr	r3, [r0, #96]	@ 0x60
  400bdc:	9322      	str	r3, [sp, #136]	@ 0x88
  400bde:	6e43      	ldr	r3, [r0, #100]	@ 0x64
  400be0:	9323      	str	r3, [sp, #140]	@ 0x8c
    Ako = state[13];
  400be2:	6e83      	ldr	r3, [r0, #104]	@ 0x68
  400be4:	9324      	str	r3, [sp, #144]	@ 0x90
  400be6:	6ec3      	ldr	r3, [r0, #108]	@ 0x6c
  400be8:	9325      	str	r3, [sp, #148]	@ 0x94
    Aku = state[14];
  400bea:	6f03      	ldr	r3, [r0, #112]	@ 0x70
  400bec:	9326      	str	r3, [sp, #152]	@ 0x98
  400bee:	6f43      	ldr	r3, [r0, #116]	@ 0x74
  400bf0:	9327      	str	r3, [sp, #156]	@ 0x9c
    Ama = state[15];
  400bf2:	6f83      	ldr	r3, [r0, #120]	@ 0x78
  400bf4:	9328      	str	r3, [sp, #160]	@ 0xa0
  400bf6:	6fc3      	ldr	r3, [r0, #124]	@ 0x7c
  400bf8:	9329      	str	r3, [sp, #164]	@ 0xa4
    Ame = state[16];
  400bfa:	f8d0 3080 	ldr.w	r3, [r0, #128]	@ 0x80
  400bfe:	932a      	str	r3, [sp, #168]	@ 0xa8
  400c00:	f8d0 3084 	ldr.w	r3, [r0, #132]	@ 0x84
  400c04:	932b      	str	r3, [sp, #172]	@ 0xac
    Ami = state[17];
  400c06:	f8d0 3088 	ldr.w	r3, [r0, #136]	@ 0x88
  400c0a:	932c      	str	r3, [sp, #176]	@ 0xb0
  400c0c:	f8d0 308c 	ldr.w	r3, [r0, #140]	@ 0x8c
  400c10:	932d      	str	r3, [sp, #180]	@ 0xb4
    Amo = state[18];
  400c12:	f8d0 3090 	ldr.w	r3, [r0, #144]	@ 0x90
  400c16:	932e      	str	r3, [sp, #184]	@ 0xb8
  400c18:	f8d0 3094 	ldr.w	r3, [r0, #148]	@ 0x94
  400c1c:	932f      	str	r3, [sp, #188]	@ 0xbc
    Amu = state[19];
  400c1e:	f8d0 3098 	ldr.w	r3, [r0, #152]	@ 0x98
  400c22:	9330      	str	r3, [sp, #192]	@ 0xc0
  400c24:	f8d0 309c 	ldr.w	r3, [r0, #156]	@ 0x9c
  400c28:	9331      	str	r3, [sp, #196]	@ 0xc4
    Asa = state[20];
  400c2a:	f8d0 30a0 	ldr.w	r3, [r0, #160]	@ 0xa0
  400c2e:	9332      	str	r3, [sp, #200]	@ 0xc8
  400c30:	f8d0 30a4 	ldr.w	r3, [r0, #164]	@ 0xa4
  400c34:	9333      	str	r3, [sp, #204]	@ 0xcc
    Ase = state[21];
  400c36:	f8d0 30a8 	ldr.w	r3, [r0, #168]	@ 0xa8
  400c3a:	9334      	str	r3, [sp, #208]	@ 0xd0
  400c3c:	f8d0 30ac 	ldr.w	r3, [r0, #172]	@ 0xac
  400c40:	9335      	str	r3, [sp, #212]	@ 0xd4
    Asi = state[22];
  400c42:	f8d0 30b0 	ldr.w	r3, [r0, #176]	@ 0xb0
  400c46:	9336      	str	r3, [sp, #216]	@ 0xd8
  400c48:	f8d0 30b4 	ldr.w	r3, [r0, #180]	@ 0xb4
  400c4c:	9337      	str	r3, [sp, #220]	@ 0xdc
    Aso = state[23];
  400c4e:	f8d0 30b8 	ldr.w	r3, [r0, #184]	@ 0xb8
  400c52:	9338      	str	r3, [sp, #224]	@ 0xe0
  400c54:	f8d0 30bc 	ldr.w	r3, [r0, #188]	@ 0xbc
  400c58:	9339      	str	r3, [sp, #228]	@ 0xe4
    Asu = state[24];
  400c5a:	f8d0 30c0 	ldr.w	r3, [r0, #192]	@ 0xc0
  400c5e:	4a03      	ldr	r2, [pc, #12]	@ (400c6c <KeccakF1600_StatePermute+0xf8>)
  400c60:	933a      	str	r3, [sp, #232]	@ 0xe8
  400c62:	f8d0 30c4 	ldr.w	r3, [r0, #196]	@ 0xc4

    for (round = 0; round < NROUNDS; round += 2) {
  400c66:	9200      	str	r2, [sp, #0]
  400c68:	e002      	b.n	400c70 <KeccakF1600_StatePermute+0xfc>
  400c6a:	bf00      	nop
  400c6c:	00402dc0 	.word	0x00402dc0
        //    prepareTheta
        BCa = Aba ^ Aga ^ Aka ^ Ama ^ Asa;
  400c70:	9a0a      	ldr	r2, [sp, #40]	@ 0x28
  400c72:	9914      	ldr	r1, [sp, #80]	@ 0x50
  400c74:	ea82 0601 	eor.w	r6, r2, r1
  400c78:	9915      	ldr	r1, [sp, #84]	@ 0x54
  400c7a:	9a0b      	ldr	r2, [sp, #44]	@ 0x2c
  400c7c:	404a      	eors	r2, r1
  400c7e:	991e      	ldr	r1, [sp, #120]	@ 0x78
  400c80:	404e      	eors	r6, r1
  400c82:	991f      	ldr	r1, [sp, #124]	@ 0x7c
  400c84:	404a      	eors	r2, r1
  400c86:	9928      	ldr	r1, [sp, #160]	@ 0xa0
  400c88:	404e      	eors	r6, r1
  400c8a:	9929      	ldr	r1, [sp, #164]	@ 0xa4
  400c8c:	404a      	eors	r2, r1
  400c8e:	9932      	ldr	r1, [sp, #200]	@ 0xc8
  400c90:	404e      	eors	r6, r1
  400c92:	9933      	ldr	r1, [sp, #204]	@ 0xcc
  400c94:	404a      	eors	r2, r1
  400c96:	9208      	str	r2, [sp, #32]
        BCe = Abe ^ Age ^ Ake ^ Ame ^ Ase;
  400c98:	9916      	ldr	r1, [sp, #88]	@ 0x58
  400c9a:	9a0c      	ldr	r2, [sp, #48]	@ 0x30
  400c9c:	ea82 0901 	eor.w	r9, r2, r1
  400ca0:	9a0d      	ldr	r2, [sp, #52]	@ 0x34
  400ca2:	9917      	ldr	r1, [sp, #92]	@ 0x5c
  400ca4:	ea82 0801 	eor.w	r8, r2, r1
  400ca8:	9a20      	ldr	r2, [sp, #128]	@ 0x80
        BCi = Abi ^ Agi ^ Aki ^ Ami ^ Asi;
  400caa:	9918      	ldr	r1, [sp, #96]	@ 0x60
        BCe = Abe ^ Age ^ Ake ^ Ame ^ Ase;
  400cac:	ea89 0902 	eor.w	r9, r9, r2
  400cb0:	9a21      	ldr	r2, [sp, #132]	@ 0x84
  400cb2:	ea88 0802 	eor.w	r8, r8, r2
  400cb6:	9a2a      	ldr	r2, [sp, #168]	@ 0xa8
  400cb8:	ea89 0902 	eor.w	r9, r9, r2
  400cbc:	9a2b      	ldr	r2, [sp, #172]	@ 0xac
  400cbe:	ea88 0802 	eor.w	r8, r8, r2
  400cc2:	9a34      	ldr	r2, [sp, #208]	@ 0xd0
  400cc4:	ea89 0902 	eor.w	r9, r9, r2
  400cc8:	9a35      	ldr	r2, [sp, #212]	@ 0xd4
  400cca:	ea88 0802 	eor.w	r8, r8, r2
        BCi = Abi ^ Agi ^ Aki ^ Ami ^ Asi;
  400cce:	9a0e      	ldr	r2, [sp, #56]	@ 0x38
  400cd0:	ea82 0c01 	eor.w	ip, r2, r1
  400cd4:	9a0f      	ldr	r2, [sp, #60]	@ 0x3c
  400cd6:	9919      	ldr	r1, [sp, #100]	@ 0x64
  400cd8:	ea82 0701 	eor.w	r7, r2, r1
  400cdc:	9a22      	ldr	r2, [sp, #136]	@ 0x88
  400cde:	9923      	ldr	r1, [sp, #140]	@ 0x8c
  400ce0:	ea8c 0c02 	eor.w	ip, ip, r2
  400ce4:	404f      	eors	r7, r1
  400ce6:	9a2c      	ldr	r2, [sp, #176]	@ 0xb0
  400ce8:	992d      	ldr	r1, [sp, #180]	@ 0xb4
  400cea:	ea8c 0c02 	eor.w	ip, ip, r2
  400cee:	404f      	eors	r7, r1
  400cf0:	9a36      	ldr	r2, [sp, #216]	@ 0xd8
  400cf2:	9937      	ldr	r1, [sp, #220]	@ 0xdc
  400cf4:	ea8c 0c02 	eor.w	ip, ip, r2
  400cf8:	404f      	eors	r7, r1
        BCo = Abo ^ Ago ^ Ako ^ Amo ^ Aso;
  400cfa:	9a10      	ldr	r2, [sp, #64]	@ 0x40
  400cfc:	991a      	ldr	r1, [sp, #104]	@ 0x68
  400cfe:	ea82 0501 	eor.w	r5, r2, r1
  400d02:	9a11      	ldr	r2, [sp, #68]	@ 0x44
  400d04:	991b      	ldr	r1, [sp, #108]	@ 0x6c
  400d06:	ea82 0401 	eor.w	r4, r2, r1
  400d0a:	9924      	ldr	r1, [sp, #144]	@ 0x90
        BCu = Abu ^ Agu ^ Aku ^ Amu ^ Asu;
  400d0c:	9a12      	ldr	r2, [sp, #72]	@ 0x48
        BCo = Abo ^ Ago ^ Ako ^ Amo ^ Aso;
  400d0e:	404d      	eors	r5, r1
  400d10:	9925      	ldr	r1, [sp, #148]	@ 0x94
  400d12:	404c      	eors	r4, r1
  400d14:	992e      	ldr	r1, [sp, #184]	@ 0xb8
  400d16:	404d      	eors	r5, r1
  400d18:	992f      	ldr	r1, [sp, #188]	@ 0xbc
  400d1a:	404c      	eors	r4, r1
  400d1c:	9938      	ldr	r1, [sp, #224]	@ 0xe0
  400d1e:	404d      	eors	r5, r1
  400d20:	9939      	ldr	r1, [sp, #228]	@ 0xe4
  400d22:	404c      	eors	r4, r1
        BCu = Abu ^ Agu ^ Aku ^ Amu ^ Asu;
  400d24:	991c      	ldr	r1, [sp, #112]	@ 0x70
  400d26:	ea82 0e01 	eor.w	lr, r2, r1
  400d2a:	9a13      	ldr	r2, [sp, #76]	@ 0x4c
  400d2c:	991d      	ldr	r1, [sp, #116]	@ 0x74
  400d2e:	4051      	eors	r1, r2
  400d30:	9a26      	ldr	r2, [sp, #152]	@ 0x98
  400d32:	ea8e 0e02 	eor.w	lr, lr, r2
  400d36:	9a27      	ldr	r2, [sp, #156]	@ 0x9c
  400d38:	4051      	eors	r1, r2
  400d3a:	9a30      	ldr	r2, [sp, #192]	@ 0xc0
  400d3c:	ea8e 0e02 	eor.w	lr, lr, r2
  400d40:	9a31      	ldr	r2, [sp, #196]	@ 0xc4
  400d42:	4051      	eors	r1, r2
  400d44:	9a3a      	ldr	r2, [sp, #232]	@ 0xe8

        // thetaRhoPiChiIotaPrepareTheta(round  , A, E)
        Da = BCu ^ ROL(BCe, 1);
  400d46:	ea4f 0b49 	mov.w	fp, r9, lsl #1
        BCu = Abu ^ Agu ^ Aku ^ Amu ^ Asu;
  400d4a:	ea8e 0e02 	eor.w	lr, lr, r2
        Da = BCu ^ ROL(BCe, 1);
  400d4e:	ea4b 7bd8 	orr.w	fp, fp, r8, lsr #31
  400d52:	ea4f 0a48 	mov.w	sl, r8, lsl #1
        BCu = Abu ^ Agu ^ Aku ^ Amu ^ Asu;
  400d56:	4059      	eors	r1, r3
        Da = BCu ^ ROL(BCe, 1);
  400d58:	ea8b 020e 	eor.w	r2, fp, lr
  400d5c:	ea4a 7ad9 	orr.w	sl, sl, r9, lsr #31
        De = BCa ^ ROL(BCi, 1);
  400d60:	ea4f 0b4c 	mov.w	fp, ip, lsl #1
        Da = BCu ^ ROL(BCe, 1);
  400d64:	9201      	str	r2, [sp, #4]
        De = BCa ^ ROL(BCi, 1);
  400d66:	ea4b 7bd7 	orr.w	fp, fp, r7, lsr #31
        Da = BCu ^ ROL(BCe, 1);
  400d6a:	ea8a 0201 	eor.w	r2, sl, r1
  400d6e:	9202      	str	r2, [sp, #8]
        De = BCa ^ ROL(BCi, 1);
  400d70:	ea8b 0206 	eor.w	r2, fp, r6
  400d74:	ea4f 0a47 	mov.w	sl, r7, lsl #1
  400d78:	9203      	str	r2, [sp, #12]
  400d7a:	9a08      	ldr	r2, [sp, #32]
  400d7c:	ea4a 7adc 	orr.w	sl, sl, ip, lsr #31
  400d80:	ea8a 0202 	eor.w	r2, sl, r2
        Di = BCe ^ ROL(BCo, 1);
  400d84:	ea4f 0a44 	mov.w	sl, r4, lsl #1
  400d88:	ea4a 7ad5 	orr.w	sl, sl, r5, lsr #31
        De = BCa ^ ROL(BCi, 1);
  400d8c:	9204      	str	r2, [sp, #16]
        Di = BCe ^ ROL(BCo, 1);
  400d8e:	ea8a 0208 	eor.w	r2, sl, r8
        Do = BCi ^ ROL(BCu, 1);
  400d92:	ea4f 084e 	mov.w	r8, lr, lsl #1
  400d96:	ea48 78d1 	orr.w	r8, r8, r1, lsr #31
  400d9a:	0049      	lsls	r1, r1, #1
  400d9c:	ea41 71de 	orr.w	r1, r1, lr, lsr #31
        Di = BCe ^ ROL(BCo, 1);
  400da0:	9205      	str	r2, [sp, #20]
        Do = BCi ^ ROL(BCu, 1);
  400da2:	ea88 020c 	eor.w	r2, r8, ip
  400da6:	9206      	str	r2, [sp, #24]
  400da8:	ea81 0207 	eor.w	r2, r1, r7
  400dac:	9207      	str	r2, [sp, #28]
        Du = BCo ^ ROL(BCa, 1);
  400dae:	9a08      	ldr	r2, [sp, #32]
  400db0:	0071      	lsls	r1, r6, #1
  400db2:	ea41 71d2 	orr.w	r1, r1, r2, lsr #31
  400db6:	0052      	lsls	r2, r2, #1
  400db8:	ea42 72d6 	orr.w	r2, r2, r6, lsr #31
  400dbc:	4069      	eors	r1, r5
  400dbe:	4062      	eors	r2, r4
        Di = BCe ^ ROL(BCo, 1);
  400dc0:	ea4f 0b45 	mov.w	fp, r5, lsl #1
        Du = BCo ^ ROL(BCa, 1);
  400dc4:	9108      	str	r1, [sp, #32]
  400dc6:	9209      	str	r2, [sp, #36]	@ 0x24

        Aba ^= Da;
  400dc8:	990a      	ldr	r1, [sp, #40]	@ 0x28
  400dca:	9a01      	ldr	r2, [sp, #4]
        Di = BCe ^ ROL(BCo, 1);
  400dcc:	ea4b 7bd4 	orr.w	fp, fp, r4, lsr #31
  400dd0:	ea8b 0b09 	eor.w	fp, fp, r9
        Aba ^= Da;
  400dd4:	ea82 0901 	eor.w	r9, r2, r1
  400dd8:	9a02      	ldr	r2, [sp, #8]
  400dda:	990b      	ldr	r1, [sp, #44]	@ 0x2c
        BCa = Aba;
        Age ^= De;
  400ddc:	9c17      	ldr	r4, [sp, #92]	@ 0x5c
        BCe = ROL(Age, 44);
        Aki ^= Di;
  400dde:	9e23      	ldr	r6, [sp, #140]	@ 0x8c
        BCi = ROL(Aki, 43);
        Amo ^= Do;
  400de0:	9f2f      	ldr	r7, [sp, #188]	@ 0xbc
        Aba ^= Da;
  400de2:	ea82 0a01 	eor.w	sl, r2, r1
        Age ^= De;
  400de6:	9a03      	ldr	r2, [sp, #12]
  400de8:	9916      	ldr	r1, [sp, #88]	@ 0x58
  400dea:	4051      	eors	r1, r2
  400dec:	9a04      	ldr	r2, [sp, #16]
        BCe = ROL(Age, 44);
  400dee:	0d0d      	lsrs	r5, r1, #20
        Age ^= De;
  400df0:	4062      	eors	r2, r4
        BCe = ROL(Age, 44);
  400df2:	ea45 3502 	orr.w	r5, r5, r2, lsl #12
  400df6:	0d12      	lsrs	r2, r2, #20
  400df8:	ea42 3201 	orr.w	r2, r2, r1, lsl #12
        Aki ^= Di;
  400dfc:	9922      	ldr	r1, [sp, #136]	@ 0x88
  400dfe:	9c05      	ldr	r4, [sp, #20]
  400e00:	ea8b 0101 	eor.w	r1, fp, r1
  400e04:	4074      	eors	r4, r6
        BCi = ROL(Aki, 43);
  400e06:	ea4f 5851 	mov.w	r8, r1, lsr #21
  400e0a:	ea48 28c4 	orr.w	r8, r8, r4, lsl #11
  400e0e:	0d64      	lsrs	r4, r4, #21
  400e10:	ea44 24c1 	orr.w	r4, r4, r1, lsl #11
        Amo ^= Do;
  400e14:	9e2e      	ldr	r6, [sp, #184]	@ 0xb8
  400e16:	9906      	ldr	r1, [sp, #24]
  400e18:	404e      	eors	r6, r1
  400e1a:	9907      	ldr	r1, [sp, #28]
        BCo = ROL(Amo, 21);
  400e1c:	ea4f 5e46 	mov.w	lr, r6, lsl #21
        Amo ^= Do;
  400e20:	4079      	eors	r1, r7
        BCo = ROL(Amo, 21);
  400e22:	ea4e 2ed1 	orr.w	lr, lr, r1, lsr #11
  400e26:	0549      	lsls	r1, r1, #21
        Asu ^= Du;
  400e28:	9f3a      	ldr	r7, [sp, #232]	@ 0xe8
        BCo = ROL(Amo, 21);
  400e2a:	ea41 21d6 	orr.w	r1, r1, r6, lsr #11
        Asu ^= Du;
  400e2e:	9e08      	ldr	r6, [sp, #32]
  400e30:	407e      	eors	r6, r7
  400e32:	9f09      	ldr	r7, [sp, #36]	@ 0x24
        BCu = ROL(Asu, 14);
  400e34:	ea4f 3c86 	mov.w	ip, r6, lsl #14
        Asu ^= Du;
  400e38:	407b      	eors	r3, r7
        BCu = ROL(Asu, 14);
  400e3a:	ea4c 4c93 	orr.w	ip, ip, r3, lsr #18
  400e3e:	039b      	lsls	r3, r3, #14
  400e40:	ea43 4396 	orr.w	r3, r3, r6, lsr #18
        Eba = BCa ^ ((~BCe) & BCi);
        Eba ^= KeccakF_RoundConstants[round];
  400e44:	9e00      	ldr	r6, [sp, #0]
  400e46:	e9d6 7600 	ldrd	r7, r6, [r6]
  400e4a:	ea8a 0606 	eor.w	r6, sl, r6
  400e4e:	960b      	str	r6, [sp, #44]	@ 0x2c
  400e50:	ea89 0707 	eor.w	r7, r9, r7
  400e54:	ea28 0605 	bic.w	r6, r8, r5
  400e58:	407e      	eors	r6, r7
  400e5a:	9f0b      	ldr	r7, [sp, #44]	@ 0x2c
  400e5c:	960a      	str	r6, [sp, #40]	@ 0x28
  400e5e:	ea24 0602 	bic.w	r6, r4, r2
  400e62:	4077      	eors	r7, r6
        Ebe = BCe ^ ((~BCi) & BCo);
  400e64:	ea21 0604 	bic.w	r6, r1, r4
  400e68:	4056      	eors	r6, r2
  400e6a:	9623      	str	r6, [sp, #140]	@ 0x8c
        Ebi = BCi ^ ((~BCo) & BCu);
  400e6c:	ea23 0601 	bic.w	r6, r3, r1
  400e70:	4074      	eors	r4, r6
        Ebo = BCo ^ ((~BCu) & BCa);
        Ebu = BCu ^ ((~BCa) & BCe);
  400e72:	ea22 020a 	bic.w	r2, r2, sl
        Eba ^= KeccakF_RoundConstants[round];
  400e76:	970b      	str	r7, [sp, #44]	@ 0x2c
        Ebe = BCe ^ ((~BCi) & BCo);
  400e78:	ea2e 0708 	bic.w	r7, lr, r8
  400e7c:	406f      	eors	r7, r5
        Ebi = BCi ^ ((~BCo) & BCu);
  400e7e:	943b      	str	r4, [sp, #236]	@ 0xec
        Ebo = BCo ^ ((~BCu) & BCa);
  400e80:	ea2a 0403 	bic.w	r4, sl, r3
        Ebu = BCu ^ ((~BCa) & BCe);
  400e84:	4053      	eors	r3, r2
        Ebo = BCo ^ ((~BCu) & BCa);
  400e86:	ea29 060c 	bic.w	r6, r9, ip
  400e8a:	4061      	eors	r1, r4
        Ebu = BCu ^ ((~BCa) & BCe);
  400e8c:	ea25 0509 	bic.w	r5, r5, r9

        Abo ^= Do;
  400e90:	9a10      	ldr	r2, [sp, #64]	@ 0x40
        Ebe = BCe ^ ((~BCi) & BCo);
  400e92:	9722      	str	r7, [sp, #136]	@ 0x88
        Ebu = BCu ^ ((~BCa) & BCe);
  400e94:	932f      	str	r3, [sp, #188]	@ 0xbc
        Ebi = BCi ^ ((~BCo) & BCu);
  400e96:	ea2c 070e 	bic.w	r7, ip, lr
        Abo ^= Do;
  400e9a:	9b06      	ldr	r3, [sp, #24]
        Ebo = BCo ^ ((~BCu) & BCa);
  400e9c:	9117      	str	r1, [sp, #92]	@ 0x5c
        Ebi = BCi ^ ((~BCo) & BCu);
  400e9e:	ea87 0708 	eor.w	r7, r7, r8
        Ebu = BCu ^ ((~BCa) & BCe);
  400ea2:	ea85 010c 	eor.w	r1, r5, ip
        Ebo = BCo ^ ((~BCu) & BCa);
  400ea6:	ea86 060e 	eor.w	r6, r6, lr
        Abo ^= Do;
  400eaa:	4053      	eors	r3, r2
        Ebi = BCi ^ ((~BCo) & BCu);
  400eac:	973a      	str	r7, [sp, #232]	@ 0xe8
        Ebo = BCo ^ ((~BCu) & BCa);
  400eae:	9616      	str	r6, [sp, #88]	@ 0x58
        Ebu = BCu ^ ((~BCa) & BCe);
  400eb0:	912e      	str	r1, [sp, #184]	@ 0xb8
        Abo ^= Do;
  400eb2:	9a07      	ldr	r2, [sp, #28]
  400eb4:	9911      	ldr	r1, [sp, #68]	@ 0x44
        BCa = ROL(Abo, 28);
        Agu ^= Du;
  400eb6:	9c1d      	ldr	r4, [sp, #116]	@ 0x74
        BCe = ROL(Agu, 20);
        Aka ^= Da;
  400eb8:	9d1f      	ldr	r5, [sp, #124]	@ 0x7c
        BCi = ROL(Aka, 3);
        Ame ^= De;
  400eba:	9f2b      	ldr	r7, [sp, #172]	@ 0xac
        Abo ^= Do;
  400ebc:	4051      	eors	r1, r2
        BCa = ROL(Abo, 28);
  400ebe:	ea4f 7c03 	mov.w	ip, r3, lsl #28
  400ec2:	ea4c 1c11 	orr.w	ip, ip, r1, lsr #4
  400ec6:	0709      	lsls	r1, r1, #28
  400ec8:	ea41 1113 	orr.w	r1, r1, r3, lsr #4
        Agu ^= Du;
  400ecc:	9a1c      	ldr	r2, [sp, #112]	@ 0x70
  400ece:	9b08      	ldr	r3, [sp, #32]
  400ed0:	405a      	eors	r2, r3
  400ed2:	9b09      	ldr	r3, [sp, #36]	@ 0x24
        BCe = ROL(Agu, 20);
  400ed4:	0516      	lsls	r6, r2, #20
        Agu ^= Du;
  400ed6:	4063      	eors	r3, r4
        BCe = ROL(Agu, 20);
  400ed8:	ea46 3613 	orr.w	r6, r6, r3, lsr #12
  400edc:	051b      	lsls	r3, r3, #20
        Aka ^= Da;
  400ede:	9c1e      	ldr	r4, [sp, #120]	@ 0x78
        BCe = ROL(Agu, 20);
  400ee0:	ea43 3312 	orr.w	r3, r3, r2, lsr #12
        Aka ^= Da;
  400ee4:	9a01      	ldr	r2, [sp, #4]
  400ee6:	4062      	eors	r2, r4
  400ee8:	9c02      	ldr	r4, [sp, #8]
        BCi = ROL(Aka, 3);
  400eea:	ea4f 08c2 	mov.w	r8, r2, lsl #3
        Aka ^= Da;
  400eee:	4065      	eors	r5, r4
        BCi = ROL(Aka, 3);
  400ef0:	ea48 7855 	orr.w	r8, r8, r5, lsr #29
  400ef4:	00ed      	lsls	r5, r5, #3
        Ame ^= De;
  400ef6:	9c2a      	ldr	r4, [sp, #168]	@ 0xa8
        BCi = ROL(Aka, 3);
  400ef8:	ea45 7552 	orr.w	r5, r5, r2, lsr #29
        Ame ^= De;
  400efc:	9a03      	ldr	r2, [sp, #12]
  400efe:	4062      	eors	r2, r4
  400f00:	9c04      	ldr	r4, [sp, #16]
        BCo = ROL(Ame, 45);
  400f02:	ea4f 4ed2 	mov.w	lr, r2, lsr #19
        Ame ^= De;
  400f06:	407c      	eors	r4, r7
        BCo = ROL(Ame, 45);
  400f08:	ea4e 3e44 	orr.w	lr, lr, r4, lsl #13
  400f0c:	0ce4      	lsrs	r4, r4, #19
  400f0e:	ea44 3442 	orr.w	r4, r4, r2, lsl #13
        Asi ^= Di;
  400f12:	9a36      	ldr	r2, [sp, #216]	@ 0xd8
  400f14:	9f37      	ldr	r7, [sp, #220]	@ 0xdc
  400f16:	ea8b 0902 	eor.w	r9, fp, r2
  400f1a:	9a05      	ldr	r2, [sp, #20]
  400f1c:	407a      	eors	r2, r7
        BCu = ROL(Asi, 61);
  400f1e:	ea4f 07d9 	mov.w	r7, r9, lsr #3
  400f22:	ea47 7742 	orr.w	r7, r7, r2, lsl #29
  400f26:	08d2      	lsrs	r2, r2, #3
  400f28:	ea42 7249 	orr.w	r2, r2, r9, lsl #29
        Ega = BCa ^ ((~BCe) & BCi);
  400f2c:	ea25 0903 	bic.w	r9, r5, r3
  400f30:	ea89 0901 	eor.w	r9, r9, r1
  400f34:	f8cd 90ac 	str.w	r9, [sp, #172]	@ 0xac
        Ege = BCe ^ ((~BCi) & BCo);
  400f38:	ea24 0905 	bic.w	r9, r4, r5
        Ega = BCa ^ ((~BCe) & BCi);
  400f3c:	ea28 0a06 	bic.w	sl, r8, r6
        Ege = BCe ^ ((~BCi) & BCo);
  400f40:	ea89 0903 	eor.w	r9, r9, r3
        Ega = BCa ^ ((~BCe) & BCi);
  400f44:	ea8a 0a0c 	eor.w	sl, sl, ip
        Ege = BCe ^ ((~BCi) & BCo);
  400f48:	f8cd 9044 	str.w	r9, [sp, #68]	@ 0x44
        Egi = BCi ^ ((~BCo) & BCu);
        Ego = BCo ^ ((~BCu) & BCa);
        Egu = BCu ^ ((~BCa) & BCe);
  400f4c:	ea23 0301 	bic.w	r3, r3, r1
        Egi = BCi ^ ((~BCo) & BCu);
  400f50:	ea22 0904 	bic.w	r9, r2, r4
  400f54:	ea89 0505 	eor.w	r5, r9, r5
        Egu = BCu ^ ((~BCa) & BCe);
  400f58:	4053      	eors	r3, r2
        Ega = BCa ^ ((~BCe) & BCi);
  400f5a:	f8cd a0a8 	str.w	sl, [sp, #168]	@ 0xa8
        Ege = BCe ^ ((~BCi) & BCo);
  400f5e:	ea2e 0a08 	bic.w	sl, lr, r8
  400f62:	ea8a 0a06 	eor.w	sl, sl, r6
        Egi = BCi ^ ((~BCo) & BCu);
  400f66:	951f      	str	r5, [sp, #124]	@ 0x7c
        Egu = BCu ^ ((~BCa) & BCe);
  400f68:	ea26 060c 	bic.w	r6, r6, ip
        Ego = BCo ^ ((~BCu) & BCa);
  400f6c:	ea21 0502 	bic.w	r5, r1, r2
        Egu = BCu ^ ((~BCa) & BCe);
  400f70:	931d      	str	r3, [sp, #116]	@ 0x74

        Abe ^= De;
  400f72:	9a0c      	ldr	r2, [sp, #48]	@ 0x30
  400f74:	9b03      	ldr	r3, [sp, #12]
        Ege = BCe ^ ((~BCi) & BCo);
  400f76:	f8cd a040 	str.w	sl, [sp, #64]	@ 0x40
        Egu = BCu ^ ((~BCa) & BCe);
  400f7a:	ea86 0107 	eor.w	r1, r6, r7
        Egi = BCi ^ ((~BCo) & BCu);
  400f7e:	ea27 0a0e 	bic.w	sl, r7, lr
        Abe ^= De;
  400f82:	4053      	eors	r3, r2
        Egu = BCu ^ ((~BCa) & BCe);
  400f84:	911c      	str	r1, [sp, #112]	@ 0x70
        Abe ^= De;
  400f86:	9a04      	ldr	r2, [sp, #16]
  400f88:	990d      	ldr	r1, [sp, #52]	@ 0x34
        Egi = BCi ^ ((~BCo) & BCu);
  400f8a:	ea8a 0808 	eor.w	r8, sl, r8
        Abe ^= De;
  400f8e:	4051      	eors	r1, r2
        Egi = BCi ^ ((~BCo) & BCu);
  400f90:	f8cd 8078 	str.w	r8, [sp, #120]	@ 0x78
        Ego = BCo ^ ((~BCu) & BCa);
  400f94:	ea2c 0807 	bic.w	r8, ip, r7
        BCa = ROL(Abe, 1);
  400f98:	ea4f 0c43 	mov.w	ip, r3, lsl #1
  400f9c:	ea4c 7cd1 	orr.w	ip, ip, r1, lsr #31
  400fa0:	0049      	lsls	r1, r1, #1
  400fa2:	ea41 71d3 	orr.w	r1, r1, r3, lsr #31
        Agi ^= Di;
  400fa6:	9b18      	ldr	r3, [sp, #96]	@ 0x60
        Ego = BCo ^ ((~BCu) & BCa);
  400fa8:	ea88 0e0e 	eor.w	lr, r8, lr
  400fac:	406c      	eors	r4, r5
        Agi ^= Di;
  400fae:	ea8b 0203 	eor.w	r2, fp, r3
        Ego = BCo ^ ((~BCu) & BCa);
  400fb2:	f8cd e0d8 	str.w	lr, [sp, #216]	@ 0xd8
  400fb6:	9437      	str	r4, [sp, #220]	@ 0xdc
        Agi ^= Di;
  400fb8:	9b05      	ldr	r3, [sp, #20]
  400fba:	9c19      	ldr	r4, [sp, #100]	@ 0x64
        BCe = ROL(Agi, 6);
        Ako ^= Do;
  400fbc:	9d25      	ldr	r5, [sp, #148]	@ 0x94
        BCi = ROL(Ako, 25);
        Amu ^= Du;
  400fbe:	9f31      	ldr	r7, [sp, #196]	@ 0xc4
        Agi ^= Di;
  400fc0:	4063      	eors	r3, r4
        BCe = ROL(Agi, 6);
  400fc2:	0196      	lsls	r6, r2, #6
  400fc4:	ea46 6693 	orr.w	r6, r6, r3, lsr #26
  400fc8:	019b      	lsls	r3, r3, #6
        Ako ^= Do;
  400fca:	9c24      	ldr	r4, [sp, #144]	@ 0x90
        BCe = ROL(Agi, 6);
  400fcc:	ea43 6392 	orr.w	r3, r3, r2, lsr #26
        Ako ^= Do;
  400fd0:	9a06      	ldr	r2, [sp, #24]
  400fd2:	4062      	eors	r2, r4
  400fd4:	9c07      	ldr	r4, [sp, #28]
        BCi = ROL(Ako, 25);
  400fd6:	ea4f 6842 	mov.w	r8, r2, lsl #25
        Ako ^= Do;
  400fda:	4065      	eors	r5, r4
        BCi = ROL(Ako, 25);
  400fdc:	ea48 18d5 	orr.w	r8, r8, r5, lsr #7
  400fe0:	066d      	lsls	r5, r5, #25
        Amu ^= Du;
  400fe2:	9c30      	ldr	r4, [sp, #192]	@ 0xc0
        BCi = ROL(Ako, 25);
  400fe4:	ea45 15d2 	orr.w	r5, r5, r2, lsr #7
        Amu ^= Du;
  400fe8:	9a08      	ldr	r2, [sp, #32]
  400fea:	4062      	eors	r2, r4
  400fec:	9c09      	ldr	r4, [sp, #36]	@ 0x24
        BCo = ROL(Amu, 8);
  400fee:	ea4f 2e02 	mov.w	lr, r2, lsl #8
        Amu ^= Du;
  400ff2:	407c      	eors	r4, r7
        BCo = ROL(Amu, 8);
  400ff4:	ea4e 6e14 	orr.w	lr, lr, r4, lsr #24
  400ff8:	0224      	lsls	r4, r4, #8
        Asa ^= Da;
  400ffa:	9f32      	ldr	r7, [sp, #200]	@ 0xc8
        BCo = ROL(Amu, 8);
  400ffc:	ea44 6412 	orr.w	r4, r4, r2, lsr #24
        Asa ^= Da;
  401000:	9a01      	ldr	r2, [sp, #4]
  401002:	ea82 0907 	eor.w	r9, r2, r7
  401006:	9f33      	ldr	r7, [sp, #204]	@ 0xcc
  401008:	9a02      	ldr	r2, [sp, #8]
  40100a:	407a      	eors	r2, r7
        BCu = ROL(Asa, 18);
  40100c:	ea4f 4789 	mov.w	r7, r9, lsl #18
  401010:	ea47 3792 	orr.w	r7, r7, r2, lsr #14
  401014:	0492      	lsls	r2, r2, #18
  401016:	ea42 3299 	orr.w	r2, r2, r9, lsr #14
        Eka = BCa ^ ((~BCe) & BCi);
  40101a:	ea25 0903 	bic.w	r9, r5, r3
  40101e:	ea89 0901 	eor.w	r9, r9, r1
  401022:	f8cd 9064 	str.w	r9, [sp, #100]	@ 0x64
        Eke = BCe ^ ((~BCi) & BCo);
  401026:	ea24 0905 	bic.w	r9, r4, r5
        Eka = BCa ^ ((~BCe) & BCi);
  40102a:	ea28 0a06 	bic.w	sl, r8, r6
        Eke = BCe ^ ((~BCi) & BCo);
  40102e:	ea89 0903 	eor.w	r9, r9, r3
        Eka = BCa ^ ((~BCe) & BCi);
  401032:	ea8a 0a0c 	eor.w	sl, sl, ip
        Eke = BCe ^ ((~BCi) & BCo);
  401036:	f8cd 90c4 	str.w	r9, [sp, #196]	@ 0xc4
        Eki = BCi ^ ((~BCo) & BCu);
        Eko = BCo ^ ((~BCu) & BCa);
        Eku = BCu ^ ((~BCa) & BCe);
  40103a:	ea23 0301 	bic.w	r3, r3, r1
        Eki = BCi ^ ((~BCo) & BCu);
  40103e:	ea22 0904 	bic.w	r9, r2, r4
  401042:	ea89 0505 	eor.w	r5, r9, r5
        Eku = BCu ^ ((~BCa) & BCe);
  401046:	4053      	eors	r3, r2
        Eka = BCa ^ ((~BCe) & BCi);
  401048:	f8cd a060 	str.w	sl, [sp, #96]	@ 0x60
        Eke = BCe ^ ((~BCi) & BCo);
  40104c:	ea2e 0a08 	bic.w	sl, lr, r8
  401050:	ea8a 0a06 	eor.w	sl, sl, r6
        Eki = BCi ^ ((~BCo) & BCu);
  401054:	950d      	str	r5, [sp, #52]	@ 0x34
        Eku = BCu ^ ((~BCa) & BCe);
  401056:	ea26 060c 	bic.w	r6, r6, ip
        Eko = BCo ^ ((~BCu) & BCa);
  40105a:	ea21 0502 	bic.w	r5, r1, r2
        Eku = BCu ^ ((~BCa) & BCe);
  40105e:	9333      	str	r3, [sp, #204]	@ 0xcc

        Abu ^= Du;
  401060:	9a12      	ldr	r2, [sp, #72]	@ 0x48
  401062:	9b08      	ldr	r3, [sp, #32]
        Eke = BCe ^ ((~BCi) & BCo);
  401064:	f8cd a0c0 	str.w	sl, [sp, #192]	@ 0xc0
        Eku = BCu ^ ((~BCa) & BCe);
  401068:	ea86 0107 	eor.w	r1, r6, r7
        Eki = BCi ^ ((~BCo) & BCu);
  40106c:	ea27 0a0e 	bic.w	sl, r7, lr
        Abu ^= Du;
  401070:	4053      	eors	r3, r2
        Eku = BCu ^ ((~BCa) & BCe);
  401072:	9132      	str	r1, [sp, #200]	@ 0xc8
        Abu ^= Du;
  401074:	9a09      	ldr	r2, [sp, #36]	@ 0x24
  401076:	9913      	ldr	r1, [sp, #76]	@ 0x4c
        Eki = BCi ^ ((~BCo) & BCu);
  401078:	ea8a 0808 	eor.w	r8, sl, r8
        Abu ^= Du;
  40107c:	4051      	eors	r1, r2
        Eki = BCi ^ ((~BCo) & BCu);
  40107e:	f8cd 8030 	str.w	r8, [sp, #48]	@ 0x30
        Eko = BCo ^ ((~BCu) & BCa);
  401082:	ea2c 0807 	bic.w	r8, ip, r7
        BCa = ROL(Abu, 27);
  401086:	ea4f 6cc3 	mov.w	ip, r3, lsl #27
  40108a:	ea4c 1c51 	orr.w	ip, ip, r1, lsr #5
  40108e:	06c9      	lsls	r1, r1, #27
  401090:	ea41 1153 	orr.w	r1, r1, r3, lsr #5
        Aga ^= Da;
  401094:	9a14      	ldr	r2, [sp, #80]	@ 0x50
  401096:	9b01      	ldr	r3, [sp, #4]
        Eko = BCo ^ ((~BCu) & BCa);
  401098:	406c      	eors	r4, r5
        Aga ^= Da;
  40109a:	405a      	eors	r2, r3
        Eko = BCo ^ ((~BCu) & BCa);
  40109c:	9425      	str	r4, [sp, #148]	@ 0x94
        Aga ^= Da;
  40109e:	9b02      	ldr	r3, [sp, #8]
  4010a0:	9c15      	ldr	r4, [sp, #84]	@ 0x54
        BCe = ROL(Aga, 36);
  4010a2:	0f16      	lsrs	r6, r2, #28
        Aga ^= Da;
  4010a4:	4063      	eors	r3, r4
        BCe = ROL(Aga, 36);
  4010a6:	ea46 1603 	orr.w	r6, r6, r3, lsl #4
        Eko = BCo ^ ((~BCu) & BCa);
  4010aa:	ea88 0e0e 	eor.w	lr, r8, lr
        BCe = ROL(Aga, 36);
  4010ae:	0f1b      	lsrs	r3, r3, #28
  4010b0:	ea43 1302 	orr.w	r3, r3, r2, lsl #4
        Eko = BCo ^ ((~BCu) & BCa);
  4010b4:	f8cd e090 	str.w	lr, [sp, #144]	@ 0x90
        Ake ^= De;
  4010b8:	9a03      	ldr	r2, [sp, #12]
  4010ba:	9c20      	ldr	r4, [sp, #128]	@ 0x80
  4010bc:	9d21      	ldr	r5, [sp, #132]	@ 0x84
        BCi = ROL(Ake, 10);
        Ami ^= Di;
  4010be:	9f2d      	ldr	r7, [sp, #180]	@ 0xb4
        Ake ^= De;
  4010c0:	4062      	eors	r2, r4
  4010c2:	9c04      	ldr	r4, [sp, #16]
        BCi = ROL(Ake, 10);
  4010c4:	ea4f 2882 	mov.w	r8, r2, lsl #10
        Ake ^= De;
  4010c8:	4065      	eors	r5, r4
        BCi = ROL(Ake, 10);
  4010ca:	ea48 5895 	orr.w	r8, r8, r5, lsr #22
  4010ce:	02ad      	lsls	r5, r5, #10
  4010d0:	ea45 5592 	orr.w	r5, r5, r2, lsr #22
        Ami ^= Di;
  4010d4:	9a2c      	ldr	r2, [sp, #176]	@ 0xb0
  4010d6:	9c05      	ldr	r4, [sp, #20]
  4010d8:	ea8b 0202 	eor.w	r2, fp, r2
  4010dc:	407c      	eors	r4, r7
        BCo = ROL(Ami, 15);
  4010de:	ea4f 3ec2 	mov.w	lr, r2, lsl #15
  4010e2:	ea4e 4e54 	orr.w	lr, lr, r4, lsr #17
  4010e6:	03e4      	lsls	r4, r4, #15
        Aso ^= Do;
  4010e8:	9f38      	ldr	r7, [sp, #224]	@ 0xe0
        BCo = ROL(Ami, 15);
  4010ea:	ea44 4452 	orr.w	r4, r4, r2, lsr #17
        Aso ^= Do;
  4010ee:	9a06      	ldr	r2, [sp, #24]
  4010f0:	ea82 0907 	eor.w	r9, r2, r7
  4010f4:	9f39      	ldr	r7, [sp, #228]	@ 0xe4
  4010f6:	9a07      	ldr	r2, [sp, #28]
  4010f8:	407a      	eors	r2, r7
        BCu = ROL(Aso, 56);
  4010fa:	ea4f 2719 	mov.w	r7, r9, lsr #8
  4010fe:	ea47 6702 	orr.w	r7, r7, r2, lsl #24
  401102:	0a12      	lsrs	r2, r2, #8
  401104:	ea42 6209 	orr.w	r2, r2, r9, lsl #24
        Ema = BCa ^ ((~BCe) & BCi);
  401108:	ea25 0903 	bic.w	r9, r5, r3
  40110c:	ea89 0901 	eor.w	r9, r9, r1
  401110:	ea28 0a06 	bic.w	sl, r8, r6
  401114:	f8cd 90e4 	str.w	r9, [sp, #228]	@ 0xe4
        Eme = BCe ^ ((~BCi) & BCo);
  401118:	ea24 0905 	bic.w	r9, r4, r5
        Ema = BCa ^ ((~BCe) & BCi);
  40111c:	ea8a 0a0c 	eor.w	sl, sl, ip
        Eme = BCe ^ ((~BCi) & BCo);
  401120:	ea89 0903 	eor.w	r9, r9, r3
        Ema = BCa ^ ((~BCe) & BCi);
  401124:	f8cd a0e0 	str.w	sl, [sp, #224]	@ 0xe0
        Eme = BCe ^ ((~BCi) & BCo);
  401128:	f8cd 9054 	str.w	r9, [sp, #84]	@ 0x54
  40112c:	ea2e 0a08 	bic.w	sl, lr, r8
        Emi = BCi ^ ((~BCo) & BCu);
  401130:	ea22 0904 	bic.w	r9, r2, r4
        Emo = BCo ^ ((~BCu) & BCa);
        Emu = BCu ^ ((~BCa) & BCe);
  401134:	ea23 0301 	bic.w	r3, r3, r1
        Eme = BCe ^ ((~BCi) & BCo);
  401138:	ea8a 0a06 	eor.w	sl, sl, r6
        Emi = BCi ^ ((~BCo) & BCu);
  40113c:	ea89 0505 	eor.w	r5, r9, r5
        Emu = BCu ^ ((~BCa) & BCe);
  401140:	ea26 060c 	bic.w	r6, r6, ip
  401144:	4053      	eors	r3, r2
        Emi = BCi ^ ((~BCo) & BCu);
  401146:	952d      	str	r5, [sp, #180]	@ 0xb4
        Emu = BCu ^ ((~BCa) & BCe);
  401148:	9321      	str	r3, [sp, #132]	@ 0x84
        Emo = BCo ^ ((~BCu) & BCa);
  40114a:	ea21 0502 	bic.w	r5, r1, r2

        Abi ^= Di;
  40114e:	9b0e      	ldr	r3, [sp, #56]	@ 0x38
  401150:	9a05      	ldr	r2, [sp, #20]
        Eme = BCe ^ ((~BCi) & BCo);
  401152:	f8cd a050 	str.w	sl, [sp, #80]	@ 0x50
        Emu = BCu ^ ((~BCa) & BCe);
  401156:	ea86 0107 	eor.w	r1, r6, r7
  40115a:	9120      	str	r1, [sp, #128]	@ 0x80
        Abi ^= Di;
  40115c:	990f      	ldr	r1, [sp, #60]	@ 0x3c
        BCa = ROL(Abi, 62);
        Ago ^= Do;
        BCe = ROL(Ago, 55);
        Aku ^= Du;
  40115e:	9e26      	ldr	r6, [sp, #152]	@ 0x98
        Abi ^= Di;
  401160:	ea8b 0303 	eor.w	r3, fp, r3
        Emo = BCo ^ ((~BCu) & BCa);
  401164:	406c      	eors	r4, r5
  401166:	9413      	str	r4, [sp, #76]	@ 0x4c
        BCa = ROL(Abi, 62);
  401168:	089d      	lsrs	r5, r3, #2
        Abi ^= Di;
  40116a:	ea82 0401 	eor.w	r4, r2, r1
        BCa = ROL(Abi, 62);
  40116e:	ea45 7584 	orr.w	r5, r5, r4, lsl #30
  401172:	08a4      	lsrs	r4, r4, #2
  401174:	ea44 7483 	orr.w	r4, r4, r3, lsl #30
        Ago ^= Do;
  401178:	9a1a      	ldr	r2, [sp, #104]	@ 0x68
  40117a:	9b06      	ldr	r3, [sp, #24]
  40117c:	ea83 0102 	eor.w	r1, r3, r2
  401180:	9a1b      	ldr	r2, [sp, #108]	@ 0x6c
  401182:	9b07      	ldr	r3, [sp, #28]
  401184:	4053      	eors	r3, r2
        BCe = ROL(Ago, 55);
  401186:	0a4a      	lsrs	r2, r1, #9
  401188:	ea42 52c3 	orr.w	r2, r2, r3, lsl #23
  40118c:	0a5b      	lsrs	r3, r3, #9
        Emi = BCi ^ ((~BCo) & BCu);
  40118e:	ea27 0a0e 	bic.w	sl, r7, lr
        BCe = ROL(Ago, 55);
  401192:	ea43 53c1 	orr.w	r3, r3, r1, lsl #23
        Aku ^= Du;
  401196:	9908      	ldr	r1, [sp, #32]
        Emi = BCi ^ ((~BCo) & BCu);
  401198:	ea8a 0808 	eor.w	r8, sl, r8
        Aku ^= Du;
  40119c:	4071      	eors	r1, r6
        Emi = BCi ^ ((~BCo) & BCu);
  40119e:	f8cd 80b0 	str.w	r8, [sp, #176]	@ 0xb0
        Aku ^= Du;
  4011a2:	9e09      	ldr	r6, [sp, #36]	@ 0x24
        Emo = BCo ^ ((~BCu) & BCa);
  4011a4:	ea2c 0807 	bic.w	r8, ip, r7
        Aku ^= Du;
  4011a8:	9f27      	ldr	r7, [sp, #156]	@ 0x9c
        BCi = ROL(Aku, 39);
  4011aa:	ea4f 6c51 	mov.w	ip, r1, lsr #25
        Aku ^= Du;
  4011ae:	4077      	eors	r7, r6
        BCi = ROL(Aku, 39);
  4011b0:	ea4c 1cc7 	orr.w	ip, ip, r7, lsl #7
        Emo = BCo ^ ((~BCu) & BCa);
  4011b4:	ea88 0e0e 	eor.w	lr, r8, lr
        BCi = ROL(Aku, 39);
  4011b8:	0e7f      	lsrs	r7, r7, #25
  4011ba:	ea47 17c1 	orr.w	r7, r7, r1, lsl #7
        Emo = BCo ^ ((~BCu) & BCa);
  4011be:	f8cd e048 	str.w	lr, [sp, #72]	@ 0x48
        Ama ^= Da;
  4011c2:	9901      	ldr	r1, [sp, #4]
  4011c4:	9e28      	ldr	r6, [sp, #160]	@ 0xa0
  4011c6:	f8dd e0a4 	ldr.w	lr, [sp, #164]	@ 0xa4
  4011ca:	4071      	eors	r1, r6
  4011cc:	9e02      	ldr	r6, [sp, #8]
        BCo = ROL(Ama, 41);
  4011ce:	ea4f 58d1 	mov.w	r8, r1, lsr #23
        Ama ^= Da;
  4011d2:	ea86 060e 	eor.w	r6, r6, lr
        BCo = ROL(Ama, 41);
  4011d6:	ea48 2846 	orr.w	r8, r8, r6, lsl #9
  4011da:	0df6      	lsrs	r6, r6, #23
        Ase ^= De;
  4011dc:	f8dd e0d0 	ldr.w	lr, [sp, #208]	@ 0xd0
        BCo = ROL(Ama, 41);
  4011e0:	ea46 2641 	orr.w	r6, r6, r1, lsl #9
        Ase ^= De;
  4011e4:	9903      	ldr	r1, [sp, #12]
  4011e6:	ea81 090e 	eor.w	r9, r1, lr
  4011ea:	f8dd e0d4 	ldr.w	lr, [sp, #212]	@ 0xd4
  4011ee:	9904      	ldr	r1, [sp, #16]
  4011f0:	ea81 010e 	eor.w	r1, r1, lr
        BCu = ROL(Ase, 2);
  4011f4:	ea4f 0e89 	mov.w	lr, r9, lsl #2
  4011f8:	ea4e 7e91 	orr.w	lr, lr, r1, lsr #30
  4011fc:	0089      	lsls	r1, r1, #2
  4011fe:	ea41 7199 	orr.w	r1, r1, r9, lsr #30
        Esa = BCa ^ ((~BCe) & BCi);
  401202:	ea27 0903 	bic.w	r9, r7, r3
  401206:	ea2c 0a02 	bic.w	sl, ip, r2
  40120a:	ea89 0904 	eor.w	r9, r9, r4
  40120e:	ea8a 0a05 	eor.w	sl, sl, r5
  401212:	f8cd 909c 	str.w	r9, [sp, #156]	@ 0x9c
        Ese = BCe ^ ((~BCi) & BCo);
  401216:	ea26 0907 	bic.w	r9, r6, r7
        Esa = BCa ^ ((~BCe) & BCi);
  40121a:	f8cd a098 	str.w	sl, [sp, #152]	@ 0x98
        Ese = BCe ^ ((~BCi) & BCo);
  40121e:	ea89 0903 	eor.w	r9, r9, r3
  401222:	ea28 0a0c 	bic.w	sl, r8, ip
  401226:	ea8a 0a02 	eor.w	sl, sl, r2
  40122a:	f8cd 90d4 	str.w	r9, [sp, #212]	@ 0xd4
        Esi = BCi ^ ((~BCo) & BCu);
        Eso = BCo ^ ((~BCu) & BCa);
        Esu = BCu ^ ((~BCa) & BCe);
  40122e:	ea22 0205 	bic.w	r2, r2, r5
        Esi = BCi ^ ((~BCo) & BCu);
  401232:	ea21 0906 	bic.w	r9, r1, r6
        Esu = BCu ^ ((~BCa) & BCe);
  401236:	ea23 0304 	bic.w	r3, r3, r4
        Esi = BCi ^ ((~BCo) & BCu);
  40123a:	ea89 0707 	eor.w	r7, r9, r7
        Esu = BCu ^ ((~BCa) & BCe);
  40123e:	ea82 020e 	eor.w	r2, r2, lr
  401242:	404b      	eors	r3, r1
        Esi = BCi ^ ((~BCo) & BCu);
  401244:	971b      	str	r7, [sp, #108]	@ 0x6c
        Esu = BCu ^ ((~BCa) & BCe);
  401246:	920e      	str	r2, [sp, #56]	@ 0x38
        Eso = BCo ^ ((~BCu) & BCa);
  401248:	ea24 0701 	bic.w	r7, r4, r1

        //    prepareTheta
        BCa = Eba ^ Ega ^ Eka ^ Ema ^ Esa;
  40124c:	9a2a      	ldr	r2, [sp, #168]	@ 0xa8
        Esu = BCu ^ ((~BCa) & BCe);
  40124e:	930f      	str	r3, [sp, #60]	@ 0x3c
        BCa = Eba ^ Ega ^ Eka ^ Ema ^ Esa;
  401250:	9b0a      	ldr	r3, [sp, #40]	@ 0x28
  401252:	9918      	ldr	r1, [sp, #96]	@ 0x60
        Ese = BCe ^ ((~BCi) & BCo);
  401254:	f8cd a0d0 	str.w	sl, [sp, #208]	@ 0xd0
        Eso = BCo ^ ((~BCu) & BCa);
  401258:	407e      	eors	r6, r7
  40125a:	9629      	str	r6, [sp, #164]	@ 0xa4
        BCa = Eba ^ Ega ^ Eka ^ Ema ^ Esa;
  40125c:	ea83 0602 	eor.w	r6, r3, r2
  401260:	9a2b      	ldr	r2, [sp, #172]	@ 0xac
  401262:	9b0b      	ldr	r3, [sp, #44]	@ 0x2c
  401264:	404e      	eors	r6, r1
  401266:	9919      	ldr	r1, [sp, #100]	@ 0x64
  401268:	4053      	eors	r3, r2
  40126a:	404b      	eors	r3, r1
  40126c:	9938      	ldr	r1, [sp, #224]	@ 0xe0
        BCe = Ebe ^ Ege ^ Eke ^ Eme ^ Ese;
  40126e:	9a22      	ldr	r2, [sp, #136]	@ 0x88
        BCa = Eba ^ Ega ^ Eka ^ Ema ^ Esa;
  401270:	404e      	eors	r6, r1
  401272:	9939      	ldr	r1, [sp, #228]	@ 0xe4
  401274:	404b      	eors	r3, r1
  401276:	9926      	ldr	r1, [sp, #152]	@ 0x98
  401278:	404e      	eors	r6, r1
  40127a:	9927      	ldr	r1, [sp, #156]	@ 0x9c
        Esi = BCi ^ ((~BCo) & BCu);
  40127c:	ea2e 0a08 	bic.w	sl, lr, r8
        BCa = Eba ^ Ega ^ Eka ^ Ema ^ Esa;
  401280:	404b      	eors	r3, r1
        BCe = Ebe ^ Ege ^ Eke ^ Eme ^ Ese;
  401282:	9910      	ldr	r1, [sp, #64]	@ 0x40
        Esi = BCi ^ ((~BCo) & BCu);
  401284:	ea8a 0c0c 	eor.w	ip, sl, ip
        BCe = Ebe ^ Ege ^ Eke ^ Eme ^ Ese;
  401288:	ea82 0901 	eor.w	r9, r2, r1
        Esi = BCi ^ ((~BCo) & BCu);
  40128c:	f8cd c068 	str.w	ip, [sp, #104]	@ 0x68
        BCe = Ebe ^ Ege ^ Eke ^ Eme ^ Ese;
  401290:	9911      	ldr	r1, [sp, #68]	@ 0x44
  401292:	9a23      	ldr	r2, [sp, #140]	@ 0x8c
        Eso = BCo ^ ((~BCu) & BCa);
  401294:	ea25 0c0e 	bic.w	ip, r5, lr
  401298:	ea8c 0c08 	eor.w	ip, ip, r8
  40129c:	f8cd c0a0 	str.w	ip, [sp, #160]	@ 0xa0
        BCe = Ebe ^ Ege ^ Eke ^ Eme ^ Ese;
  4012a0:	ea82 0801 	eor.w	r8, r2, r1
  4012a4:	9a30      	ldr	r2, [sp, #192]	@ 0xc0
        BCi = Ebi ^ Egi ^ Eki ^ Emi ^ Esi;
  4012a6:	991e      	ldr	r1, [sp, #120]	@ 0x78
        BCe = Ebe ^ Ege ^ Eke ^ Eme ^ Ese;
  4012a8:	ea89 0902 	eor.w	r9, r9, r2
  4012ac:	9a31      	ldr	r2, [sp, #196]	@ 0xc4
  4012ae:	ea88 0802 	eor.w	r8, r8, r2
  4012b2:	9a14      	ldr	r2, [sp, #80]	@ 0x50
  4012b4:	ea89 0902 	eor.w	r9, r9, r2
  4012b8:	9a15      	ldr	r2, [sp, #84]	@ 0x54
  4012ba:	ea88 0802 	eor.w	r8, r8, r2
  4012be:	9a34      	ldr	r2, [sp, #208]	@ 0xd0
  4012c0:	ea89 0902 	eor.w	r9, r9, r2
  4012c4:	9a35      	ldr	r2, [sp, #212]	@ 0xd4
  4012c6:	ea88 0802 	eor.w	r8, r8, r2
        BCi = Ebi ^ Egi ^ Eki ^ Emi ^ Esi;
  4012ca:	9a3a      	ldr	r2, [sp, #232]	@ 0xe8
  4012cc:	ea82 0c01 	eor.w	ip, r2, r1
  4012d0:	9a3b      	ldr	r2, [sp, #236]	@ 0xec
  4012d2:	991f      	ldr	r1, [sp, #124]	@ 0x7c
  4012d4:	ea82 0701 	eor.w	r7, r2, r1
  4012d8:	9a0c      	ldr	r2, [sp, #48]	@ 0x30
  4012da:	990d      	ldr	r1, [sp, #52]	@ 0x34
  4012dc:	ea8c 0c02 	eor.w	ip, ip, r2
  4012e0:	404f      	eors	r7, r1
  4012e2:	9a2c      	ldr	r2, [sp, #176]	@ 0xb0
  4012e4:	992d      	ldr	r1, [sp, #180]	@ 0xb4
  4012e6:	ea8c 0c02 	eor.w	ip, ip, r2
  4012ea:	404f      	eors	r7, r1
  4012ec:	9a1a      	ldr	r2, [sp, #104]	@ 0x68
  4012ee:	991b      	ldr	r1, [sp, #108]	@ 0x6c
  4012f0:	ea8c 0c02 	eor.w	ip, ip, r2
  4012f4:	404f      	eors	r7, r1
        BCo = Ebo ^ Ego ^ Eko ^ Emo ^ Eso;
  4012f6:	9a16      	ldr	r2, [sp, #88]	@ 0x58
  4012f8:	9936      	ldr	r1, [sp, #216]	@ 0xd8
  4012fa:	ea82 0501 	eor.w	r5, r2, r1
  4012fe:	9a17      	ldr	r2, [sp, #92]	@ 0x5c
  401300:	9937      	ldr	r1, [sp, #220]	@ 0xdc
  401302:	ea82 0401 	eor.w	r4, r2, r1
  401306:	9924      	ldr	r1, [sp, #144]	@ 0x90
        BCu = Ebu ^ Egu ^ Eku ^ Emu ^ Esu;
  401308:	9a1c      	ldr	r2, [sp, #112]	@ 0x70
        BCo = Ebo ^ Ego ^ Eko ^ Emo ^ Eso;
  40130a:	404d      	eors	r5, r1
  40130c:	9925      	ldr	r1, [sp, #148]	@ 0x94
  40130e:	404c      	eors	r4, r1
  401310:	9912      	ldr	r1, [sp, #72]	@ 0x48
  401312:	404d      	eors	r5, r1
  401314:	9913      	ldr	r1, [sp, #76]	@ 0x4c
  401316:	404c      	eors	r4, r1
  401318:	9928      	ldr	r1, [sp, #160]	@ 0xa0
  40131a:	404d      	eors	r5, r1
  40131c:	9929      	ldr	r1, [sp, #164]	@ 0xa4
  40131e:	404c      	eors	r4, r1
        BCu = Ebu ^ Egu ^ Eku ^ Emu ^ Esu;
  401320:	9932      	ldr	r1, [sp, #200]	@ 0xc8
  401322:	ea82 0e01 	eor.w	lr, r2, r1
  401326:	9a1d      	ldr	r2, [sp, #116]	@ 0x74
  401328:	9933      	ldr	r1, [sp, #204]	@ 0xcc
  40132a:	4051      	eors	r1, r2
  40132c:	9a2e      	ldr	r2, [sp, #184]	@ 0xb8
  40132e:	ea8e 0e02 	eor.w	lr, lr, r2
  401332:	9a2f      	ldr	r2, [sp, #188]	@ 0xbc
  401334:	4051      	eors	r1, r2
  401336:	9a20      	ldr	r2, [sp, #128]	@ 0x80
  401338:	ea8e 0e02 	eor.w	lr, lr, r2
  40133c:	9a21      	ldr	r2, [sp, #132]	@ 0x84
  40133e:	4051      	eors	r1, r2
  401340:	9a0e      	ldr	r2, [sp, #56]	@ 0x38

        // thetaRhoPiChiIotaPrepareTheta(round+1, E, A)
        Da = BCu ^ ROL(BCe, 1);
  401342:	ea4f 0b49 	mov.w	fp, r9, lsl #1
        BCu = Ebu ^ Egu ^ Eku ^ Emu ^ Esu;
  401346:	ea8e 0e02 	eor.w	lr, lr, r2
  40134a:	9a0f      	ldr	r2, [sp, #60]	@ 0x3c
        Da = BCu ^ ROL(BCe, 1);
  40134c:	ea4b 7bd8 	orr.w	fp, fp, r8, lsr #31
  401350:	ea4f 0a48 	mov.w	sl, r8, lsl #1
        BCu = Ebu ^ Egu ^ Eku ^ Emu ^ Esu;
  401354:	4051      	eors	r1, r2
        Da = BCu ^ ROL(BCe, 1);
  401356:	ea4a 7ad9 	orr.w	sl, sl, r9, lsr #31
  40135a:	ea8b 020e 	eor.w	r2, fp, lr
        De = BCa ^ ROL(BCi, 1);
  40135e:	ea4f 0b4c 	mov.w	fp, ip, lsl #1
        Da = BCu ^ ROL(BCe, 1);
  401362:	9201      	str	r2, [sp, #4]
        De = BCa ^ ROL(BCi, 1);
  401364:	ea4b 7bd7 	orr.w	fp, fp, r7, lsr #31
        Da = BCu ^ ROL(BCe, 1);
  401368:	ea8a 0201 	eor.w	r2, sl, r1
        De = BCa ^ ROL(BCi, 1);
  40136c:	ea4f 0a47 	mov.w	sl, r7, lsl #1
        Da = BCu ^ ROL(BCe, 1);
  401370:	9202      	str	r2, [sp, #8]
        De = BCa ^ ROL(BCi, 1);
  401372:	ea4a 7adc 	orr.w	sl, sl, ip, lsr #31
  401376:	ea8b 0206 	eor.w	r2, fp, r6
  40137a:	9203      	str	r2, [sp, #12]
  40137c:	ea8a 0203 	eor.w	r2, sl, r3
        Di = BCe ^ ROL(BCo, 1);
  401380:	ea4f 0a44 	mov.w	sl, r4, lsl #1
  401384:	ea4a 7ad5 	orr.w	sl, sl, r5, lsr #31
        De = BCa ^ ROL(BCi, 1);
  401388:	9204      	str	r2, [sp, #16]
        Di = BCe ^ ROL(BCo, 1);
  40138a:	ea8a 0208 	eor.w	r2, sl, r8
        Do = BCi ^ ROL(BCu, 1);
  40138e:	ea4f 084e 	mov.w	r8, lr, lsl #1
  401392:	ea48 78d1 	orr.w	r8, r8, r1, lsr #31
  401396:	0049      	lsls	r1, r1, #1
        Di = BCe ^ ROL(BCo, 1);
  401398:	9205      	str	r2, [sp, #20]
        Do = BCi ^ ROL(BCu, 1);
  40139a:	ea41 71de 	orr.w	r1, r1, lr, lsr #31
  40139e:	ea88 020c 	eor.w	r2, r8, ip
  4013a2:	9206      	str	r2, [sp, #24]
  4013a4:	ea81 0207 	eor.w	r2, r1, r7
        Du = BCo ^ ROL(BCa, 1);
  4013a8:	0071      	lsls	r1, r6, #1
  4013aa:	ea41 71d3 	orr.w	r1, r1, r3, lsr #31
  4013ae:	005b      	lsls	r3, r3, #1
  4013b0:	ea43 73d6 	orr.w	r3, r3, r6, lsr #31
        Do = BCi ^ ROL(BCu, 1);
  4013b4:	9207      	str	r2, [sp, #28]
        Du = BCo ^ ROL(BCa, 1);
  4013b6:	4063      	eors	r3, r4
  4013b8:	ea81 0205 	eor.w	r2, r1, r5
  4013bc:	9208      	str	r2, [sp, #32]
  4013be:	9309      	str	r3, [sp, #36]	@ 0x24

        Eba ^= Da;
  4013c0:	9a01      	ldr	r2, [sp, #4]
  4013c2:	9b0a      	ldr	r3, [sp, #40]	@ 0x28
        BCe = ROL(Ege, 44);
        Eki ^= Di;
        BCi = ROL(Eki, 43);
        Emo ^= Do;
        BCo = ROL(Emo, 21);
        Esu ^= Du;
  4013c4:	9f09      	ldr	r7, [sp, #36]	@ 0x24
        Di = BCe ^ ROL(BCo, 1);
  4013c6:	ea4f 0b45 	mov.w	fp, r5, lsl #1
  4013ca:	ea4b 7bd4 	orr.w	fp, fp, r4, lsr #31
  4013ce:	ea8b 0b09 	eor.w	fp, fp, r9
        Eba ^= Da;
  4013d2:	ea83 0902 	eor.w	r9, r3, r2
  4013d6:	9b0b      	ldr	r3, [sp, #44]	@ 0x2c
  4013d8:	9a02      	ldr	r2, [sp, #8]
        Eki ^= Di;
  4013da:	9c05      	ldr	r4, [sp, #20]
        Eba ^= Da;
  4013dc:	ea83 0a02 	eor.w	sl, r3, r2
        Ege ^= De;
  4013e0:	9b10      	ldr	r3, [sp, #64]	@ 0x40
  4013e2:	9a03      	ldr	r2, [sp, #12]
  4013e4:	ea83 0102 	eor.w	r1, r3, r2
  4013e8:	9a04      	ldr	r2, [sp, #16]
  4013ea:	9b11      	ldr	r3, [sp, #68]	@ 0x44
        BCe = ROL(Ege, 44);
  4013ec:	0d0d      	lsrs	r5, r1, #20
        Ege ^= De;
  4013ee:	4053      	eors	r3, r2
        Eki ^= Di;
  4013f0:	9a0c      	ldr	r2, [sp, #48]	@ 0x30
        BCe = ROL(Ege, 44);
  4013f2:	ea45 3503 	orr.w	r5, r5, r3, lsl #12
  4013f6:	0d1b      	lsrs	r3, r3, #20
  4013f8:	ea43 3301 	orr.w	r3, r3, r1, lsl #12
        Eki ^= Di;
  4013fc:	ea82 010b 	eor.w	r1, r2, fp
  401400:	9a0d      	ldr	r2, [sp, #52]	@ 0x34
        BCi = ROL(Eki, 43);
  401402:	ea4f 5851 	mov.w	r8, r1, lsr #21
        Eki ^= Di;
  401406:	4054      	eors	r4, r2
        BCi = ROL(Eki, 43);
  401408:	ea48 28c4 	orr.w	r8, r8, r4, lsl #11
  40140c:	0d64      	lsrs	r4, r4, #21
  40140e:	ea44 24c1 	orr.w	r4, r4, r1, lsl #11
        Emo ^= Do;
  401412:	9a12      	ldr	r2, [sp, #72]	@ 0x48
  401414:	9906      	ldr	r1, [sp, #24]
  401416:	ea82 0601 	eor.w	r6, r2, r1
  40141a:	9a13      	ldr	r2, [sp, #76]	@ 0x4c
  40141c:	9907      	ldr	r1, [sp, #28]
        BCo = ROL(Emo, 21);
  40141e:	ea4f 5e46 	mov.w	lr, r6, lsl #21
        Emo ^= Do;
  401422:	4051      	eors	r1, r2
        BCo = ROL(Emo, 21);
  401424:	ea4e 2ed1 	orr.w	lr, lr, r1, lsr #11
  401428:	0549      	lsls	r1, r1, #21
  40142a:	ea41 21d6 	orr.w	r1, r1, r6, lsr #11
        Esu ^= Du;
  40142e:	9a08      	ldr	r2, [sp, #32]
  401430:	9e0e      	ldr	r6, [sp, #56]	@ 0x38
  401432:	4056      	eors	r6, r2
  401434:	9a0f      	ldr	r2, [sp, #60]	@ 0x3c
        BCu = ROL(Esu, 14);
  401436:	ea4f 3c86 	mov.w	ip, r6, lsl #14
        Esu ^= Du;
  40143a:	407a      	eors	r2, r7
        BCu = ROL(Esu, 14);
  40143c:	ea4c 4c92 	orr.w	ip, ip, r2, lsr #18
  401440:	0392      	lsls	r2, r2, #14
  401442:	ea42 4296 	orr.w	r2, r2, r6, lsr #18
        Aba = BCa ^ ((~BCe) & BCi);
        Aba ^= KeccakF_RoundConstants[round + 1];
  401446:	9e00      	ldr	r6, [sp, #0]
  401448:	e9d6 7602 	ldrd	r7, r6, [r6, #8]
  40144c:	ea8a 0606 	eor.w	r6, sl, r6
  401450:	960b      	str	r6, [sp, #44]	@ 0x2c
  401452:	ea89 0707 	eor.w	r7, r9, r7
  401456:	ea28 0605 	bic.w	r6, r8, r5
  40145a:	407e      	eors	r6, r7
  40145c:	9f0b      	ldr	r7, [sp, #44]	@ 0x2c
  40145e:	960a      	str	r6, [sp, #40]	@ 0x28
  401460:	ea24 0603 	bic.w	r6, r4, r3
  401464:	4077      	eors	r7, r6
        Abe = BCe ^ ((~BCi) & BCo);
  401466:	ea21 0604 	bic.w	r6, r1, r4
  40146a:	405e      	eors	r6, r3
  40146c:	960d      	str	r6, [sp, #52]	@ 0x34
        Abi = BCi ^ ((~BCo) & BCu);
  40146e:	ea22 0601 	bic.w	r6, r2, r1
  401472:	4074      	eors	r4, r6
        Abo = BCo ^ ((~BCu) & BCa);
        Abu = BCu ^ ((~BCa) & BCe);
  401474:	ea23 030a 	bic.w	r3, r3, sl
  401478:	4053      	eors	r3, r2
        Aba ^= KeccakF_RoundConstants[round + 1];
  40147a:	970b      	str	r7, [sp, #44]	@ 0x2c
        Abi = BCi ^ ((~BCo) & BCu);
  40147c:	940f      	str	r4, [sp, #60]	@ 0x3c
        Abe = BCe ^ ((~BCi) & BCo);
  40147e:	ea2e 0708 	bic.w	r7, lr, r8
        Abo = BCo ^ ((~BCu) & BCa);
  401482:	ea2a 0402 	bic.w	r4, sl, r2
        Abe = BCe ^ ((~BCi) & BCo);
  401486:	406f      	eors	r7, r5

        Ebo ^= Do;
  401488:	9a06      	ldr	r2, [sp, #24]
        Abu = BCu ^ ((~BCa) & BCe);
  40148a:	9313      	str	r3, [sp, #76]	@ 0x4c
        Abo = BCo ^ ((~BCu) & BCa);
  40148c:	4061      	eors	r1, r4
        Abu = BCu ^ ((~BCa) & BCe);
  40148e:	ea25 0509 	bic.w	r5, r5, r9
        Ebo ^= Do;
  401492:	9b16      	ldr	r3, [sp, #88]	@ 0x58
        Abo = BCo ^ ((~BCu) & BCa);
  401494:	9111      	str	r1, [sp, #68]	@ 0x44
        Abu = BCu ^ ((~BCa) & BCe);
  401496:	ea85 010c 	eor.w	r1, r5, ip
        Ebo ^= Do;
  40149a:	4053      	eors	r3, r2
        Abu = BCu ^ ((~BCa) & BCe);
  40149c:	9112      	str	r1, [sp, #72]	@ 0x48
        Ebo ^= Do;
  40149e:	9a17      	ldr	r2, [sp, #92]	@ 0x5c
  4014a0:	9907      	ldr	r1, [sp, #28]
        Abe = BCe ^ ((~BCi) & BCo);
  4014a2:	970c      	str	r7, [sp, #48]	@ 0x30
        Abo = BCo ^ ((~BCu) & BCa);
  4014a4:	ea29 060c 	bic.w	r6, r9, ip
        Abi = BCi ^ ((~BCo) & BCu);
  4014a8:	ea2c 070e 	bic.w	r7, ip, lr
        Ebo ^= Do;
  4014ac:	4051      	eors	r1, r2
        BCa = ROL(Ebo, 28);
  4014ae:	ea4f 7c03 	mov.w	ip, r3, lsl #28
  4014b2:	ea4c 1c11 	orr.w	ip, ip, r1, lsr #4
  4014b6:	0709      	lsls	r1, r1, #28
  4014b8:	ea41 1113 	orr.w	r1, r1, r3, lsr #4
        Egu ^= Du;
  4014bc:	9a08      	ldr	r2, [sp, #32]
  4014be:	9b1c      	ldr	r3, [sp, #112]	@ 0x70
  4014c0:	9c09      	ldr	r4, [sp, #36]	@ 0x24
        BCe = ROL(Egu, 20);
        Eka ^= Da;
  4014c2:	9d02      	ldr	r5, [sp, #8]
        Egu ^= Du;
  4014c4:	405a      	eors	r2, r3
  4014c6:	9b1d      	ldr	r3, [sp, #116]	@ 0x74
        Abo = BCo ^ ((~BCu) & BCa);
  4014c8:	ea86 060e 	eor.w	r6, r6, lr
        Egu ^= Du;
  4014cc:	4063      	eors	r3, r4
        Abo = BCo ^ ((~BCu) & BCa);
  4014ce:	9610      	str	r6, [sp, #64]	@ 0x40
        BCe = ROL(Egu, 20);
  4014d0:	0516      	lsls	r6, r2, #20
  4014d2:	ea46 3613 	orr.w	r6, r6, r3, lsr #12
  4014d6:	051b      	lsls	r3, r3, #20
  4014d8:	ea43 3312 	orr.w	r3, r3, r2, lsr #12
        Eka ^= Da;
  4014dc:	9c01      	ldr	r4, [sp, #4]
  4014de:	9a18      	ldr	r2, [sp, #96]	@ 0x60
  4014e0:	4062      	eors	r2, r4
  4014e2:	9c19      	ldr	r4, [sp, #100]	@ 0x64
        Abi = BCi ^ ((~BCo) & BCu);
  4014e4:	ea87 0708 	eor.w	r7, r7, r8
        Eka ^= Da;
  4014e8:	4065      	eors	r5, r4
        BCi = ROL(Eka, 3);
  4014ea:	ea4f 08c2 	mov.w	r8, r2, lsl #3
  4014ee:	ea48 7855 	orr.w	r8, r8, r5, lsr #29
  4014f2:	00ed      	lsls	r5, r5, #3
  4014f4:	ea45 7552 	orr.w	r5, r5, r2, lsr #29
        Eme ^= De;
  4014f8:	9c03      	ldr	r4, [sp, #12]
  4014fa:	9a14      	ldr	r2, [sp, #80]	@ 0x50
        Abi = BCi ^ ((~BCo) & BCu);
  4014fc:	970e      	str	r7, [sp, #56]	@ 0x38
        Eme ^= De;
  4014fe:	4062      	eors	r2, r4
  401500:	9f04      	ldr	r7, [sp, #16]
  401502:	9c15      	ldr	r4, [sp, #84]	@ 0x54
        BCo = ROL(Eme, 45);
  401504:	ea4f 4ed2 	mov.w	lr, r2, lsr #19
        Eme ^= De;
  401508:	407c      	eors	r4, r7
        BCo = ROL(Eme, 45);
  40150a:	ea4e 3e44 	orr.w	lr, lr, r4, lsl #13
  40150e:	0ce4      	lsrs	r4, r4, #19
  401510:	ea44 3442 	orr.w	r4, r4, r2, lsl #13
        Esi ^= Di;
  401514:	9a1a      	ldr	r2, [sp, #104]	@ 0x68
  401516:	ea82 090b 	eor.w	r9, r2, fp
  40151a:	9a1b      	ldr	r2, [sp, #108]	@ 0x6c
  40151c:	9f05      	ldr	r7, [sp, #20]
  40151e:	407a      	eors	r2, r7
        BCu = ROL(Esi, 61);
  401520:	ea4f 07d9 	mov.w	r7, r9, lsr #3
  401524:	ea47 7742 	orr.w	r7, r7, r2, lsl #29
  401528:	08d2      	lsrs	r2, r2, #3
  40152a:	ea42 7249 	orr.w	r2, r2, r9, lsl #29
        Aga = BCa ^ ((~BCe) & BCi);
  40152e:	ea25 0903 	bic.w	r9, r5, r3
  401532:	ea89 0901 	eor.w	r9, r9, r1
  401536:	f8cd 9054 	str.w	r9, [sp, #84]	@ 0x54
        Age = BCe ^ ((~BCi) & BCo);
  40153a:	ea24 0905 	bic.w	r9, r4, r5
        Aga = BCa ^ ((~BCe) & BCi);
  40153e:	ea28 0a06 	bic.w	sl, r8, r6
        Age = BCe ^ ((~BCi) & BCo);
  401542:	ea89 0903 	eor.w	r9, r9, r3
        Aga = BCa ^ ((~BCe) & BCi);
  401546:	ea8a 0a0c 	eor.w	sl, sl, ip
        Age = BCe ^ ((~BCi) & BCo);
  40154a:	f8cd 905c 	str.w	r9, [sp, #92]	@ 0x5c
        Agi = BCi ^ ((~BCo) & BCu);
        Ago = BCo ^ ((~BCu) & BCa);
        Agu = BCu ^ ((~BCa) & BCe);
  40154e:	ea23 0301 	bic.w	r3, r3, r1
        Agi = BCi ^ ((~BCo) & BCu);
  401552:	ea22 0904 	bic.w	r9, r2, r4
  401556:	ea89 0505 	eor.w	r5, r9, r5
        Agu = BCu ^ ((~BCa) & BCe);
  40155a:	4053      	eors	r3, r2
        Aga = BCa ^ ((~BCe) & BCi);
  40155c:	f8cd a050 	str.w	sl, [sp, #80]	@ 0x50
        Age = BCe ^ ((~BCi) & BCo);
  401560:	ea2e 0a08 	bic.w	sl, lr, r8
  401564:	ea8a 0a06 	eor.w	sl, sl, r6
        Agi = BCi ^ ((~BCo) & BCu);
  401568:	9519      	str	r5, [sp, #100]	@ 0x64
        Agu = BCu ^ ((~BCa) & BCe);
  40156a:	ea26 060c 	bic.w	r6, r6, ip
        Ago = BCo ^ ((~BCu) & BCa);
  40156e:	ea21 0502 	bic.w	r5, r1, r2
        Agu = BCu ^ ((~BCa) & BCe);
  401572:	931d      	str	r3, [sp, #116]	@ 0x74

        Ebe ^= De;
  401574:	9a03      	ldr	r2, [sp, #12]
  401576:	9b22      	ldr	r3, [sp, #136]	@ 0x88
        Age = BCe ^ ((~BCi) & BCo);
  401578:	f8cd a058 	str.w	sl, [sp, #88]	@ 0x58
        Agu = BCu ^ ((~BCa) & BCe);
  40157c:	ea86 0107 	eor.w	r1, r6, r7
        Agi = BCi ^ ((~BCo) & BCu);
  401580:	ea27 0a0e 	bic.w	sl, r7, lr
        Ebe ^= De;
  401584:	4053      	eors	r3, r2
        Agu = BCu ^ ((~BCa) & BCe);
  401586:	911c      	str	r1, [sp, #112]	@ 0x70
        Ebe ^= De;
  401588:	9a23      	ldr	r2, [sp, #140]	@ 0x8c
  40158a:	9904      	ldr	r1, [sp, #16]
        Agi = BCi ^ ((~BCo) & BCu);
  40158c:	ea8a 0808 	eor.w	r8, sl, r8
        Ebe ^= De;
  401590:	4051      	eors	r1, r2
        Agi = BCi ^ ((~BCo) & BCu);
  401592:	f8cd 8060 	str.w	r8, [sp, #96]	@ 0x60
        Ago = BCo ^ ((~BCu) & BCa);
  401596:	ea2c 0807 	bic.w	r8, ip, r7
        BCa = ROL(Ebe, 1);
  40159a:	ea4f 0c43 	mov.w	ip, r3, lsl #1
  40159e:	ea4c 7cd1 	orr.w	ip, ip, r1, lsr #31
  4015a2:	0049      	lsls	r1, r1, #1
  4015a4:	ea41 71d3 	orr.w	r1, r1, r3, lsr #31
        Egi ^= Di;
  4015a8:	9b1e      	ldr	r3, [sp, #120]	@ 0x78
        BCe = ROL(Egi, 6);
        Eko ^= Do;
        BCi = ROL(Eko, 25);
        Emu ^= Du;
  4015aa:	9f09      	ldr	r7, [sp, #36]	@ 0x24
        Ago = BCo ^ ((~BCu) & BCa);
  4015ac:	406c      	eors	r4, r5
        Egi ^= Di;
  4015ae:	ea83 020b 	eor.w	r2, r3, fp
        Ago = BCo ^ ((~BCu) & BCa);
  4015b2:	941b      	str	r4, [sp, #108]	@ 0x6c
        Egi ^= Di;
  4015b4:	9b1f      	ldr	r3, [sp, #124]	@ 0x7c
  4015b6:	9c05      	ldr	r4, [sp, #20]
        Eko ^= Do;
  4015b8:	9d07      	ldr	r5, [sp, #28]
        Egi ^= Di;
  4015ba:	4063      	eors	r3, r4
        BCe = ROL(Egi, 6);
  4015bc:	0196      	lsls	r6, r2, #6
  4015be:	ea46 6693 	orr.w	r6, r6, r3, lsr #26
  4015c2:	019b      	lsls	r3, r3, #6
  4015c4:	ea43 6392 	orr.w	r3, r3, r2, lsr #26
        Eko ^= Do;
  4015c8:	9c06      	ldr	r4, [sp, #24]
  4015ca:	9a24      	ldr	r2, [sp, #144]	@ 0x90
  4015cc:	4062      	eors	r2, r4
  4015ce:	9c25      	ldr	r4, [sp, #148]	@ 0x94
        Ago = BCo ^ ((~BCu) & BCa);
  4015d0:	ea88 0e0e 	eor.w	lr, r8, lr
        Eko ^= Do;
  4015d4:	4065      	eors	r5, r4
        BCi = ROL(Eko, 25);
  4015d6:	ea4f 6842 	mov.w	r8, r2, lsl #25
  4015da:	ea48 18d5 	orr.w	r8, r8, r5, lsr #7
  4015de:	066d      	lsls	r5, r5, #25
  4015e0:	ea45 15d2 	orr.w	r5, r5, r2, lsr #7
        Emu ^= Du;
  4015e4:	9c08      	ldr	r4, [sp, #32]
  4015e6:	9a20      	ldr	r2, [sp, #128]	@ 0x80
        Ago = BCo ^ ((~BCu) & BCa);
  4015e8:	f8cd e068 	str.w	lr, [sp, #104]	@ 0x68
        Emu ^= Du;
  4015ec:	4062      	eors	r2, r4
  4015ee:	9c21      	ldr	r4, [sp, #132]	@ 0x84
        BCo = ROL(Emu, 8);
  4015f0:	ea4f 2e02 	mov.w	lr, r2, lsl #8
        Emu ^= Du;
  4015f4:	407c      	eors	r4, r7
        BCo = ROL(Emu, 8);
  4015f6:	ea4e 6e14 	orr.w	lr, lr, r4, lsr #24
  4015fa:	0224      	lsls	r4, r4, #8
  4015fc:	ea44 6412 	orr.w	r4, r4, r2, lsr #24
        Esa ^= Da;
  401600:	9f01      	ldr	r7, [sp, #4]
  401602:	9a26      	ldr	r2, [sp, #152]	@ 0x98
  401604:	ea82 0907 	eor.w	r9, r2, r7
  401608:	9f02      	ldr	r7, [sp, #8]
  40160a:	9a27      	ldr	r2, [sp, #156]	@ 0x9c
  40160c:	407a      	eors	r2, r7
        BCu = ROL(Esa, 18);
  40160e:	ea4f 4789 	mov.w	r7, r9, lsl #18
  401612:	ea47 3792 	orr.w	r7, r7, r2, lsr #14
  401616:	0492      	lsls	r2, r2, #18
  401618:	ea42 3299 	orr.w	r2, r2, r9, lsr #14
        Aka = BCa ^ ((~BCe) & BCi);
  40161c:	ea28 0a06 	bic.w	sl, r8, r6
  401620:	ea25 0903 	bic.w	r9, r5, r3
  401624:	ea8a 0a0c 	eor.w	sl, sl, ip
  401628:	ea89 0901 	eor.w	r9, r9, r1
  40162c:	f8cd a078 	str.w	sl, [sp, #120]	@ 0x78
  401630:	f8cd 907c 	str.w	r9, [sp, #124]	@ 0x7c
        Ake = BCe ^ ((~BCi) & BCo);
  401634:	ea24 0905 	bic.w	r9, r4, r5
  401638:	ea89 0903 	eor.w	r9, r9, r3
  40163c:	f8cd 9084 	str.w	r9, [sp, #132]	@ 0x84
        Aki = BCi ^ ((~BCo) & BCu);
        Ako = BCo ^ ((~BCu) & BCa);
        Aku = BCu ^ ((~BCa) & BCe);
  401640:	ea23 0301 	bic.w	r3, r3, r1
        Aki = BCi ^ ((~BCo) & BCu);
  401644:	ea22 0904 	bic.w	r9, r2, r4
        Ake = BCe ^ ((~BCi) & BCo);
  401648:	ea2e 0a08 	bic.w	sl, lr, r8
        Aki = BCi ^ ((~BCo) & BCu);
  40164c:	ea89 0505 	eor.w	r5, r9, r5
        Aku = BCu ^ ((~BCa) & BCe);
  401650:	4053      	eors	r3, r2
        Ake = BCe ^ ((~BCi) & BCo);
  401652:	ea8a 0a06 	eor.w	sl, sl, r6
        Aki = BCi ^ ((~BCo) & BCu);
  401656:	9523      	str	r5, [sp, #140]	@ 0x8c
        Aku = BCu ^ ((~BCa) & BCe);
  401658:	ea26 060c 	bic.w	r6, r6, ip
        Ako = BCo ^ ((~BCu) & BCa);
  40165c:	ea21 0502 	bic.w	r5, r1, r2
        Aku = BCu ^ ((~BCa) & BCe);
  401660:	9327      	str	r3, [sp, #156]	@ 0x9c

        Ebu ^= Du;
  401662:	9a08      	ldr	r2, [sp, #32]
  401664:	9b2e      	ldr	r3, [sp, #184]	@ 0xb8
        Ake = BCe ^ ((~BCi) & BCo);
  401666:	f8cd a080 	str.w	sl, [sp, #128]	@ 0x80
        Aku = BCu ^ ((~BCa) & BCe);
  40166a:	ea86 0107 	eor.w	r1, r6, r7
        Aki = BCi ^ ((~BCo) & BCu);
  40166e:	ea27 0a0e 	bic.w	sl, r7, lr
        Ebu ^= Du;
  401672:	4053      	eors	r3, r2
        Aku = BCu ^ ((~BCa) & BCe);
  401674:	9126      	str	r1, [sp, #152]	@ 0x98
        Ebu ^= Du;
  401676:	9a2f      	ldr	r2, [sp, #188]	@ 0xbc
  401678:	9909      	ldr	r1, [sp, #36]	@ 0x24
        Aki = BCi ^ ((~BCo) & BCu);
  40167a:	ea8a 0808 	eor.w	r8, sl, r8
        Ebu ^= Du;
  40167e:	4051      	eors	r1, r2
        Aki = BCi ^ ((~BCo) & BCu);
  401680:	f8cd 8088 	str.w	r8, [sp, #136]	@ 0x88
        Ako = BCo ^ ((~BCu) & BCa);
  401684:	ea2c 0807 	bic.w	r8, ip, r7
        BCa = ROL(Ebu, 27);
  401688:	ea4f 6cc3 	mov.w	ip, r3, lsl #27
  40168c:	ea4c 1c51 	orr.w	ip, ip, r1, lsr #5
  401690:	06c9      	lsls	r1, r1, #27
  401692:	ea41 1153 	orr.w	r1, r1, r3, lsr #5
        Ega ^= Da;
  401696:	9a01      	ldr	r2, [sp, #4]
  401698:	9b2a      	ldr	r3, [sp, #168]	@ 0xa8
        BCe = ROL(Ega, 36);
        Eke ^= De;
        BCi = ROL(Eke, 10);
        Emi ^= Di;
  40169a:	9f05      	ldr	r7, [sp, #20]
        Ako = BCo ^ ((~BCu) & BCa);
  40169c:	406c      	eors	r4, r5
        Ega ^= Da;
  40169e:	405a      	eors	r2, r3
        Ako = BCo ^ ((~BCu) & BCa);
  4016a0:	9425      	str	r4, [sp, #148]	@ 0x94
        Ega ^= Da;
  4016a2:	9b2b      	ldr	r3, [sp, #172]	@ 0xac
  4016a4:	9c02      	ldr	r4, [sp, #8]
        Eke ^= De;
  4016a6:	9d04      	ldr	r5, [sp, #16]
        Ega ^= Da;
  4016a8:	4063      	eors	r3, r4
        BCe = ROL(Ega, 36);
  4016aa:	0f16      	lsrs	r6, r2, #28
  4016ac:	ea46 1603 	orr.w	r6, r6, r3, lsl #4
  4016b0:	0f1b      	lsrs	r3, r3, #28
  4016b2:	ea43 1302 	orr.w	r3, r3, r2, lsl #4
        Eke ^= De;
  4016b6:	9c03      	ldr	r4, [sp, #12]
  4016b8:	9a30      	ldr	r2, [sp, #192]	@ 0xc0
  4016ba:	4062      	eors	r2, r4
  4016bc:	9c31      	ldr	r4, [sp, #196]	@ 0xc4
        Ako = BCo ^ ((~BCu) & BCa);
  4016be:	ea88 0e0e 	eor.w	lr, r8, lr
        Eke ^= De;
  4016c2:	4065      	eors	r5, r4
        BCi = ROL(Eke, 10);
  4016c4:	ea4f 2882 	mov.w	r8, r2, lsl #10
  4016c8:	ea48 5895 	orr.w	r8, r8, r5, lsr #22
  4016cc:	02ad      	lsls	r5, r5, #10
  4016ce:	ea45 5592 	orr.w	r5, r5, r2, lsr #22
        Emi ^= Di;
  4016d2:	9a2c      	ldr	r2, [sp, #176]	@ 0xb0
  4016d4:	9c2d      	ldr	r4, [sp, #180]	@ 0xb4
        Ako = BCo ^ ((~BCu) & BCa);
  4016d6:	f8cd e090 	str.w	lr, [sp, #144]	@ 0x90
        Emi ^= Di;
  4016da:	ea82 020b 	eor.w	r2, r2, fp
  4016de:	407c      	eors	r4, r7
        BCo = ROL(Emi, 15);
  4016e0:	ea4f 3ec2 	mov.w	lr, r2, lsl #15
  4016e4:	ea4e 4e54 	orr.w	lr, lr, r4, lsr #17
  4016e8:	03e4      	lsls	r4, r4, #15
  4016ea:	ea44 4452 	orr.w	r4, r4, r2, lsr #17
        Eso ^= Do;
  4016ee:	9f06      	ldr	r7, [sp, #24]
  4016f0:	9a28      	ldr	r2, [sp, #160]	@ 0xa0
  4016f2:	ea82 0907 	eor.w	r9, r2, r7
  4016f6:	9a29      	ldr	r2, [sp, #164]	@ 0xa4
  4016f8:	9f07      	ldr	r7, [sp, #28]
  4016fa:	407a      	eors	r2, r7
        BCu = ROL(Eso, 56);
  4016fc:	ea4f 2719 	mov.w	r7, r9, lsr #8
  401700:	ea47 6702 	orr.w	r7, r7, r2, lsl #24
  401704:	0a12      	lsrs	r2, r2, #8
  401706:	ea42 6209 	orr.w	r2, r2, r9, lsl #24
        Ama = BCa ^ ((~BCe) & BCi);
  40170a:	ea28 0a06 	bic.w	sl, r8, r6
  40170e:	ea25 0903 	bic.w	r9, r5, r3
  401712:	ea8a 0a0c 	eor.w	sl, sl, ip
  401716:	ea89 0901 	eor.w	r9, r9, r1
  40171a:	f8cd a0a0 	str.w	sl, [sp, #160]	@ 0xa0
  40171e:	f8cd 90a4 	str.w	r9, [sp, #164]	@ 0xa4
        Ame = BCe ^ ((~BCi) & BCo);
  401722:	ea2e 0a08 	bic.w	sl, lr, r8
  401726:	ea24 0905 	bic.w	r9, r4, r5
  40172a:	ea8a 0a06 	eor.w	sl, sl, r6
  40172e:	ea89 0903 	eor.w	r9, r9, r3
  401732:	f8cd a0a8 	str.w	sl, [sp, #168]	@ 0xa8
  401736:	f8cd 90ac 	str.w	r9, [sp, #172]	@ 0xac
        Ami = BCi ^ ((~BCo) & BCu);
  40173a:	ea27 0a0e 	bic.w	sl, r7, lr
  40173e:	ea22 0904 	bic.w	r9, r2, r4
        Amo = BCo ^ ((~BCu) & BCa);
        Amu = BCu ^ ((~BCa) & BCe);
  401742:	ea23 0301 	bic.w	r3, r3, r1
        Ami = BCi ^ ((~BCo) & BCu);
  401746:	ea8a 0808 	eor.w	r8, sl, r8
  40174a:	ea89 0505 	eor.w	r5, r9, r5
        Amu = BCu ^ ((~BCa) & BCe);
  40174e:	ea26 060c 	bic.w	r6, r6, ip
  401752:	4053      	eors	r3, r2
        Ami = BCi ^ ((~BCo) & BCu);
  401754:	f8cd 80b0 	str.w	r8, [sp, #176]	@ 0xb0
  401758:	952d      	str	r5, [sp, #180]	@ 0xb4
        Amo = BCo ^ ((~BCu) & BCa);
  40175a:	ea21 0502 	bic.w	r5, r1, r2
        Amu = BCu ^ ((~BCa) & BCe);
  40175e:	9331      	str	r3, [sp, #196]	@ 0xc4
  401760:	ea86 0107 	eor.w	r1, r6, r7

        Ebi ^= Di;
  401764:	9b3a      	ldr	r3, [sp, #232]	@ 0xe8
  401766:	9a3b      	ldr	r2, [sp, #236]	@ 0xec
        Amu = BCu ^ ((~BCa) & BCe);
  401768:	9130      	str	r1, [sp, #192]	@ 0xc0
        Ebi ^= Di;
  40176a:	9905      	ldr	r1, [sp, #20]
  40176c:	ea83 030b 	eor.w	r3, r3, fp
        Amo = BCo ^ ((~BCu) & BCa);
  401770:	ea2c 0807 	bic.w	r8, ip, r7
        Ebi ^= Di;
  401774:	4051      	eors	r1, r2
        BCa = ROL(Ebi, 62);
  401776:	ea4f 0c93 	mov.w	ip, r3, lsr #2
  40177a:	ea4c 7c81 	orr.w	ip, ip, r1, lsl #30
  40177e:	0889      	lsrs	r1, r1, #2
  401780:	ea41 7183 	orr.w	r1, r1, r3, lsl #30
        Ego ^= Do;
  401784:	9a06      	ldr	r2, [sp, #24]
  401786:	9b36      	ldr	r3, [sp, #216]	@ 0xd8
        BCe = ROL(Ego, 55);
        Eku ^= Du;
        BCi = ROL(Eku, 39);
        Ema ^= Da;
  401788:	9f02      	ldr	r7, [sp, #8]
        Amo = BCo ^ ((~BCu) & BCa);
  40178a:	406c      	eors	r4, r5
        Ego ^= Do;
  40178c:	405a      	eors	r2, r3
        Amo = BCo ^ ((~BCu) & BCa);
  40178e:	942f      	str	r4, [sp, #188]	@ 0xbc
        Ego ^= Do;
  401790:	9b37      	ldr	r3, [sp, #220]	@ 0xdc
  401792:	9c07      	ldr	r4, [sp, #28]
        Eku ^= Du;
  401794:	9d09      	ldr	r5, [sp, #36]	@ 0x24
        Ego ^= Do;
  401796:	4063      	eors	r3, r4
        BCe = ROL(Ego, 55);
  401798:	0a56      	lsrs	r6, r2, #9
  40179a:	ea46 56c3 	orr.w	r6, r6, r3, lsl #23
  40179e:	0a5b      	lsrs	r3, r3, #9
  4017a0:	ea43 53c2 	orr.w	r3, r3, r2, lsl #23
        Eku ^= Du;
  4017a4:	9c08      	ldr	r4, [sp, #32]
  4017a6:	9a32      	ldr	r2, [sp, #200]	@ 0xc8
  4017a8:	4062      	eors	r2, r4
  4017aa:	9c33      	ldr	r4, [sp, #204]	@ 0xcc
        Amo = BCo ^ ((~BCu) & BCa);
  4017ac:	ea88 0e0e 	eor.w	lr, r8, lr
        Eku ^= Du;
  4017b0:	4065      	eors	r5, r4
        BCi = ROL(Eku, 39);
  4017b2:	ea4f 6852 	mov.w	r8, r2, lsr #25
  4017b6:	ea48 18c5 	orr.w	r8, r8, r5, lsl #7
  4017ba:	0e6d      	lsrs	r5, r5, #25
  4017bc:	ea45 15c2 	orr.w	r5, r5, r2, lsl #7
        Ema ^= Da;
  4017c0:	9c01      	ldr	r4, [sp, #4]
  4017c2:	9a38      	ldr	r2, [sp, #224]	@ 0xe0
        Amo = BCo ^ ((~BCu) & BCa);
  4017c4:	f8cd e0b8 	str.w	lr, [sp, #184]	@ 0xb8
        Ema ^= Da;
  4017c8:	4062      	eors	r2, r4
  4017ca:	9c39      	ldr	r4, [sp, #228]	@ 0xe4
        BCo = ROL(Ema, 41);
  4017cc:	ea4f 5ed2 	mov.w	lr, r2, lsr #23
        Ema ^= Da;
  4017d0:	407c      	eors	r4, r7
        BCo = ROL(Ema, 41);
  4017d2:	ea4e 2e44 	orr.w	lr, lr, r4, lsl #9
  4017d6:	0de4      	lsrs	r4, r4, #23
  4017d8:	ea44 2442 	orr.w	r4, r4, r2, lsl #9
        Ese ^= De;
  4017dc:	9f03      	ldr	r7, [sp, #12]
  4017de:	9a34      	ldr	r2, [sp, #208]	@ 0xd0
  4017e0:	ea82 0907 	eor.w	r9, r2, r7
  4017e4:	9a35      	ldr	r2, [sp, #212]	@ 0xd4
  4017e6:	9f04      	ldr	r7, [sp, #16]
  4017e8:	407a      	eors	r2, r7
        BCu = ROL(Ese, 2);
  4017ea:	ea4f 0789 	mov.w	r7, r9, lsl #2
  4017ee:	ea47 7792 	orr.w	r7, r7, r2, lsr #30
  4017f2:	0092      	lsls	r2, r2, #2
  4017f4:	ea42 7299 	orr.w	r2, r2, r9, lsr #30
        Asa = BCa ^ ((~BCe) & BCi);
  4017f8:	ea28 0a06 	bic.w	sl, r8, r6
  4017fc:	ea25 0903 	bic.w	r9, r5, r3
  401800:	ea89 0901 	eor.w	r9, r9, r1
  401804:	ea8a 0a0c 	eor.w	sl, sl, ip
  401808:	f8cd a0c8 	str.w	sl, [sp, #200]	@ 0xc8
  40180c:	f8cd 90cc 	str.w	r9, [sp, #204]	@ 0xcc
        Ase = BCe ^ ((~BCi) & BCo);
  401810:	ea2e 0a08 	bic.w	sl, lr, r8
  401814:	ea24 0905 	bic.w	r9, r4, r5
  401818:	ea8a 0a06 	eor.w	sl, sl, r6
  40181c:	ea89 0903 	eor.w	r9, r9, r3
  401820:	f8cd a0d0 	str.w	sl, [sp, #208]	@ 0xd0
  401824:	f8cd 90d4 	str.w	r9, [sp, #212]	@ 0xd4
        Asi = BCi ^ ((~BCo) & BCu);
  401828:	ea27 0a0e 	bic.w	sl, r7, lr
  40182c:	ea22 0904 	bic.w	r9, r2, r4
  401830:	ea8a 0808 	eor.w	r8, sl, r8
  401834:	ea89 0505 	eor.w	r5, r9, r5
  401838:	f8cd 80d8 	str.w	r8, [sp, #216]	@ 0xd8
  40183c:	9537      	str	r5, [sp, #220]	@ 0xdc
        Aso = BCo ^ ((~BCu) & BCa);
  40183e:	ea2c 0807 	bic.w	r8, ip, r7
  401842:	ea21 0502 	bic.w	r5, r1, r2
        Asu = BCu ^ ((~BCa) & BCe);
  401846:	ea26 060c 	bic.w	r6, r6, ip
  40184a:	ea23 0301 	bic.w	r3, r3, r1
        Aso = BCo ^ ((~BCu) & BCa);
  40184e:	ea88 0e0e 	eor.w	lr, r8, lr
        Asu = BCu ^ ((~BCa) & BCe);
  401852:	ea86 0107 	eor.w	r1, r6, r7
        Aso = BCo ^ ((~BCu) & BCa);
  401856:	406c      	eors	r4, r5
        Asu = BCu ^ ((~BCa) & BCe);
  401858:	913a      	str	r1, [sp, #232]	@ 0xe8
        Aso = BCo ^ ((~BCu) & BCa);
  40185a:	f8cd e0e0 	str.w	lr, [sp, #224]	@ 0xe0
  40185e:	9439      	str	r4, [sp, #228]	@ 0xe4
        Asu = BCu ^ ((~BCa) & BCe);
  401860:	4053      	eors	r3, r2
    for (round = 0; round < NROUNDS; round += 2) {
  401862:	9a00      	ldr	r2, [sp, #0]
  401864:	3210      	adds	r2, #16
  401866:	9200      	str	r2, [sp, #0]
  401868:	9900      	ldr	r1, [sp, #0]
  40186a:	4a3c      	ldr	r2, [pc, #240]	@ (40195c <KeccakF1600_StatePermute+0xde8>)
  40186c:	428a      	cmp	r2, r1
  40186e:	f47f a9ff 	bne.w	400c70 <KeccakF1600_StatePermute+0xfc>
    }

    // copyToState(state, A)
    state[0] = Aba;
  401872:	9a0a      	ldr	r2, [sp, #40]	@ 0x28
  401874:	6002      	str	r2, [r0, #0]
  401876:	9a0b      	ldr	r2, [sp, #44]	@ 0x2c
  401878:	6042      	str	r2, [r0, #4]
    state[1] = Abe;
  40187a:	9a0c      	ldr	r2, [sp, #48]	@ 0x30
  40187c:	6082      	str	r2, [r0, #8]
  40187e:	9a0d      	ldr	r2, [sp, #52]	@ 0x34
  401880:	60c2      	str	r2, [r0, #12]
    state[2] = Abi;
  401882:	9a0e      	ldr	r2, [sp, #56]	@ 0x38
  401884:	6102      	str	r2, [r0, #16]
  401886:	9a0f      	ldr	r2, [sp, #60]	@ 0x3c
  401888:	6142      	str	r2, [r0, #20]
    state[3] = Abo;
  40188a:	9a10      	ldr	r2, [sp, #64]	@ 0x40
  40188c:	6182      	str	r2, [r0, #24]
  40188e:	9a11      	ldr	r2, [sp, #68]	@ 0x44
  401890:	61c2      	str	r2, [r0, #28]
    state[4] = Abu;
  401892:	9a12      	ldr	r2, [sp, #72]	@ 0x48
  401894:	6202      	str	r2, [r0, #32]
  401896:	9a13      	ldr	r2, [sp, #76]	@ 0x4c
  401898:	6242      	str	r2, [r0, #36]	@ 0x24
    state[5] = Aga;
  40189a:	9a14      	ldr	r2, [sp, #80]	@ 0x50
  40189c:	6282      	str	r2, [r0, #40]	@ 0x28
  40189e:	9a15      	ldr	r2, [sp, #84]	@ 0x54
  4018a0:	62c2      	str	r2, [r0, #44]	@ 0x2c
    state[6] = Age;
  4018a2:	9a16      	ldr	r2, [sp, #88]	@ 0x58
  4018a4:	6302      	str	r2, [r0, #48]	@ 0x30
  4018a6:	9a17      	ldr	r2, [sp, #92]	@ 0x5c
  4018a8:	6342      	str	r2, [r0, #52]	@ 0x34
    state[7] = Agi;
  4018aa:	9a18      	ldr	r2, [sp, #96]	@ 0x60
  4018ac:	6382      	str	r2, [r0, #56]	@ 0x38
  4018ae:	9a19      	ldr	r2, [sp, #100]	@ 0x64
  4018b0:	63c2      	str	r2, [r0, #60]	@ 0x3c
    state[8] = Ago;
  4018b2:	9a1a      	ldr	r2, [sp, #104]	@ 0x68
  4018b4:	6402      	str	r2, [r0, #64]	@ 0x40
  4018b6:	9a1b      	ldr	r2, [sp, #108]	@ 0x6c
  4018b8:	6442      	str	r2, [r0, #68]	@ 0x44
    state[9] = Agu;
  4018ba:	9a1c      	ldr	r2, [sp, #112]	@ 0x70
  4018bc:	6482      	str	r2, [r0, #72]	@ 0x48
  4018be:	9a1d      	ldr	r2, [sp, #116]	@ 0x74
  4018c0:	64c2      	str	r2, [r0, #76]	@ 0x4c
    state[10] = Aka;
  4018c2:	9a1e      	ldr	r2, [sp, #120]	@ 0x78
  4018c4:	6502      	str	r2, [r0, #80]	@ 0x50
  4018c6:	9a1f      	ldr	r2, [sp, #124]	@ 0x7c
  4018c8:	6542      	str	r2, [r0, #84]	@ 0x54
    state[11] = Ake;
  4018ca:	9a20      	ldr	r2, [sp, #128]	@ 0x80
  4018cc:	6582      	str	r2, [r0, #88]	@ 0x58
  4018ce:	9a21      	ldr	r2, [sp, #132]	@ 0x84
  4018d0:	65c2      	str	r2, [r0, #92]	@ 0x5c
    state[12] = Aki;
  4018d2:	9a22      	ldr	r2, [sp, #136]	@ 0x88
  4018d4:	6602      	str	r2, [r0, #96]	@ 0x60
  4018d6:	9a23      	ldr	r2, [sp, #140]	@ 0x8c
  4018d8:	6642      	str	r2, [r0, #100]	@ 0x64
    state[13] = Ako;
  4018da:	9a24      	ldr	r2, [sp, #144]	@ 0x90
  4018dc:	6682      	str	r2, [r0, #104]	@ 0x68
  4018de:	9a25      	ldr	r2, [sp, #148]	@ 0x94
  4018e0:	66c2      	str	r2, [r0, #108]	@ 0x6c
    state[14] = Aku;
  4018e2:	9a26      	ldr	r2, [sp, #152]	@ 0x98
  4018e4:	6702      	str	r2, [r0, #112]	@ 0x70
  4018e6:	9a27      	ldr	r2, [sp, #156]	@ 0x9c
  4018e8:	6742      	str	r2, [r0, #116]	@ 0x74
    state[15] = Ama;
  4018ea:	9a28      	ldr	r2, [sp, #160]	@ 0xa0
  4018ec:	6782      	str	r2, [r0, #120]	@ 0x78
  4018ee:	9a29      	ldr	r2, [sp, #164]	@ 0xa4
  4018f0:	67c2      	str	r2, [r0, #124]	@ 0x7c
    state[16] = Ame;
  4018f2:	9a2a      	ldr	r2, [sp, #168]	@ 0xa8
  4018f4:	f8c0 2080 	str.w	r2, [r0, #128]	@ 0x80
  4018f8:	9a2b      	ldr	r2, [sp, #172]	@ 0xac
  4018fa:	f8c0 2084 	str.w	r2, [r0, #132]	@ 0x84
    state[17] = Ami;
  4018fe:	9a2c      	ldr	r2, [sp, #176]	@ 0xb0
  401900:	f8c0 2088 	str.w	r2, [r0, #136]	@ 0x88
  401904:	9a2d      	ldr	r2, [sp, #180]	@ 0xb4
  401906:	f8c0 208c 	str.w	r2, [r0, #140]	@ 0x8c
    state[18] = Amo;
  40190a:	9a2e      	ldr	r2, [sp, #184]	@ 0xb8
  40190c:	f8c0 2090 	str.w	r2, [r0, #144]	@ 0x90
  401910:	9a2f      	ldr	r2, [sp, #188]	@ 0xbc
  401912:	f8c0 2094 	str.w	r2, [r0, #148]	@ 0x94
    state[19] = Amu;
  401916:	9a30      	ldr	r2, [sp, #192]	@ 0xc0
  401918:	f8c0 2098 	str.w	r2, [r0, #152]	@ 0x98
  40191c:	9a31      	ldr	r2, [sp, #196]	@ 0xc4
  40191e:	f8c0 209c 	str.w	r2, [r0, #156]	@ 0x9c
    state[20] = Asa;
  401922:	9a32      	ldr	r2, [sp, #200]	@ 0xc8
  401924:	f8c0 20a0 	str.w	r2, [r0, #160]	@ 0xa0
  401928:	9a33      	ldr	r2, [sp, #204]	@ 0xcc
  40192a:	f8c0 20a4 	str.w	r2, [r0, #164]	@ 0xa4
    state[21] = Ase;
  40192e:	9a34      	ldr	r2, [sp, #208]	@ 0xd0
  401930:	f8c0 20a8 	str.w	r2, [r0, #168]	@ 0xa8
  401934:	9a35      	ldr	r2, [sp, #212]	@ 0xd4
  401936:	f8c0 20ac 	str.w	r2, [r0, #172]	@ 0xac
    state[22] = Asi;
  40193a:	9a36      	ldr	r2, [sp, #216]	@ 0xd8
  40193c:	f8c0 20b0 	str.w	r2, [r0, #176]	@ 0xb0
  401940:	9a37      	ldr	r2, [sp, #220]	@ 0xdc
  401942:	f8c0 20b4 	str.w	r2, [r0, #180]	@ 0xb4
    state[23] = Aso;
    state[24] = Asu;
  401946:	9a3a      	ldr	r2, [sp, #232]	@ 0xe8
    state[23] = Aso;
  401948:	f8c0 e0b8 	str.w	lr, [r0, #184]	@ 0xb8
  40194c:	f8c0 40bc 	str.w	r4, [r0, #188]	@ 0xbc
    state[24] = Asu;
  401950:	e9c0 2330 	strd	r2, r3, [r0, #192]	@ 0xc0
}
  401954:	b03d      	add	sp, #244	@ 0xf4
  401956:	e8bd 8ff0 	ldmia.w	sp!, {r4, r5, r6, r7, r8, r9, sl, fp, pc}
  40195a:	bf00      	nop
  40195c:	00402e80 	.word	0x00402e80

00401960 <keccak_squeezeblocks>:
 *                                                squeezed (written to h)
 *              - uint64_t *s: pointer to input/output Keccak state
 *              - uint32_t r: rate in bytes (e.g., 168 for SHAKE128)
 **************************************************/
static void keccak_squeezeblocks(uint8_t *h, size_t nblocks,
                                 uint64_t *s, uint32_t r) {
  401960:	e92d 4ff8 	stmdb	sp!, {r3, r4, r5, r6, r7, r8, r9, sl, fp, lr}
  401964:	4605      	mov	r5, r0
  401966:	460c      	mov	r4, r1
  401968:	4690      	mov	r8, r2
  40196a:	461e      	mov	r6, r3
  40196c:	f023 0907 	bic.w	r9, r3, #7
    while (nblocks > 0) {
  401970:	b90c      	cbnz	r4, 401976 <keccak_squeezeblocks+0x16>
            store64(h + 8 * i, s[i]);
        }
        h += r;
        nblocks--;
    }
}
  401972:	e8bd 8ff8 	ldmia.w	sp!, {r3, r4, r5, r6, r7, r8, r9, sl, fp, pc}
        KeccakF1600_StatePermute(s);
  401976:	4b12      	ldr	r3, [pc, #72]	@ (4019c0 <keccak_squeezeblocks+0x60>)
  401978:	4640      	mov	r0, r8
  40197a:	4798      	blx	r3
        for (size_t i = 0; i < (r >> 3); i++) {
  40197c:	f1a8 0008 	sub.w	r0, r8, #8
  401980:	2300      	movs	r3, #0
            store64(h + 8 * i, s[i]);
  401982:	f850 bf08 	ldr.w	fp, [r0, #8]!
  401986:	f8d0 a004 	ldr.w	sl, [r0, #4]
    for (size_t i = 0; i < 8; ++i) {
  40198a:	eb05 0e03 	add.w	lr, r5, r3
            store64(h + 8 * i, s[i]);
  40198e:	2200      	movs	r2, #0
        x[i] = (uint8_t) (u >> 8 * i);
  401990:	f1c2 0c20 	rsb	ip, r2, #32
  401994:	f1a2 0720 	sub.w	r7, r2, #32
  401998:	fa2b f102 	lsr.w	r1, fp, r2
  40199c:	fa0a fc0c 	lsl.w	ip, sl, ip
  4019a0:	ea41 010c 	orr.w	r1, r1, ip
  4019a4:	fa2a f707 	lsr.w	r7, sl, r7
    for (size_t i = 0; i < 8; ++i) {
  4019a8:	3208      	adds	r2, #8
        x[i] = (uint8_t) (u >> 8 * i);
  4019aa:	4339      	orrs	r1, r7
    for (size_t i = 0; i < 8; ++i) {
  4019ac:	2a40      	cmp	r2, #64	@ 0x40
        x[i] = (uint8_t) (u >> 8 * i);
  4019ae:	f80e 1b01 	strb.w	r1, [lr], #1
    for (size_t i = 0; i < 8; ++i) {
  4019b2:	d1ed      	bne.n	401990 <keccak_squeezeblocks+0x30>
        for (size_t i = 0; i < (r >> 3); i++) {
  4019b4:	3308      	adds	r3, #8
  4019b6:	454b      	cmp	r3, r9
  4019b8:	d1e3      	bne.n	401982 <keccak_squeezeblocks+0x22>
        h += r;
  4019ba:	4435      	add	r5, r6
        nblocks--;
  4019bc:	3c01      	subs	r4, #1
  4019be:	e7d7      	b.n	401970 <keccak_squeezeblocks+0x10>
  4019c0:	00400b75 	.word	0x00400b75

004019c4 <keccak_inc_init>:
 * Arguments:   - uint64_t *s_inc: pointer to input/output incremental state
 *                First 25 values represent Keccak state.
 *                26th value represents either the number of absorbed bytes
 *                that have not been permuted, or not-yet-squeezed bytes.
 **************************************************/
static void keccak_inc_init(uint64_t *s_inc) {
  4019c4:	b510      	push	{r4, lr}
    size_t i;

    for (i = 0; i < 25; ++i) {
        s_inc[i] = 0;
  4019c6:	4b05      	ldr	r3, [pc, #20]	@ (4019dc <keccak_inc_init+0x18>)
  4019c8:	22c8      	movs	r2, #200	@ 0xc8
  4019ca:	2100      	movs	r1, #0
static void keccak_inc_init(uint64_t *s_inc) {
  4019cc:	4604      	mov	r4, r0
        s_inc[i] = 0;
  4019ce:	4798      	blx	r3
    }
    s_inc[25] = 0;
  4019d0:	2200      	movs	r2, #0
  4019d2:	2300      	movs	r3, #0
  4019d4:	e9c4 2332 	strd	r2, r3, [r4, #200]	@ 0xc8
}
  4019d8:	bd10      	pop	{r4, pc}
  4019da:	bf00      	nop
  4019dc:	0040278d 	.word	0x0040278d

004019e0 <keccak_inc_absorb>:
 *              - uint32_t r: rate in bytes (e.g., 168 for SHAKE128)
 *              - const uint8_t *m: pointer to input to be absorbed into s
 *              - size_t mlen: length of input in bytes
 **************************************************/
static void keccak_inc_absorb(uint64_t *s_inc, uint32_t r, const uint8_t *m,
                              size_t mlen) {
  4019e0:	e92d 4ff8 	stmdb	sp!, {r3, r4, r5, r6, r7, r8, r9, sl, fp, lr}
        }
        mlen -= (size_t)(r - s_inc[25]);
        m += r - s_inc[25];
        s_inc[25] = 0;

        KeccakF1600_StatePermute(s_inc);
  4019e4:	f8df 90f4 	ldr.w	r9, [pc, #244]	@ 401adc <keccak_inc_absorb+0xfc>
                              size_t mlen) {
  4019e8:	4688      	mov	r8, r1
  4019ea:	4615      	mov	r5, r2
  4019ec:	461c      	mov	r4, r3
        s_inc[25] = 0;
  4019ee:	2600      	movs	r6, #0
  4019f0:	2700      	movs	r7, #0
    while (mlen + s_inc[25] >= r) {
  4019f2:	e9d0 2332 	ldrd	r2, r3, [r0, #200]	@ 0xc8
  4019f6:	18a2      	adds	r2, r4, r2
  4019f8:	f143 0300 	adc.w	r3, r3, #0
  4019fc:	4542      	cmp	r2, r8
  4019fe:	f173 0300 	sbcs.w	r3, r3, #0
  401a02:	d240      	bcs.n	401a86 <keccak_inc_absorb+0xa6>
  401a04:	2200      	movs	r2, #0
  401a06:	4617      	mov	r7, r2
    }

    for (i = 0; i < mlen; i++) {
  401a08:	4294      	cmp	r4, r2
        s_inc[(s_inc[25] + i) >> 3] ^= (uint64_t)m[i] << (8 * ((s_inc[25] + i) & 0x07));
  401a0a:	e9d0 3132 	ldrd	r3, r1, [r0, #200]	@ 0xc8
    for (i = 0; i < mlen; i++) {
  401a0e:	d83c      	bhi.n	401a8a <keccak_inc_absorb+0xaa>
    }
    s_inc[25] += mlen;
  401a10:	18e4      	adds	r4, r4, r3
  401a12:	f141 0100 	adc.w	r1, r1, #0
  401a16:	e9c0 4132 	strd	r4, r1, [r0, #200]	@ 0xc8
}
  401a1a:	e8bd 8ff8 	ldmia.w	sp!, {r3, r4, r5, r6, r7, r8, r9, sl, fp, pc}
            s_inc[(s_inc[25] + i) >> 3] ^= (uint64_t)m[i] << (8 * ((s_inc[25] + i) & 0x07));
  401a1e:	18cb      	adds	r3, r1, r3
  401a20:	f142 0200 	adc.w	r2, r2, #0
  401a24:	ea4f 0cd3 	mov.w	ip, r3, lsr #3
  401a28:	f003 0307 	and.w	r3, r3, #7
  401a2c:	ea4c 7c42 	orr.w	ip, ip, r2, lsl #29
  401a30:	00db      	lsls	r3, r3, #3
  401a32:	5c6a      	ldrb	r2, [r5, r1]
  401a34:	eb00 0ecc 	add.w	lr, r0, ip, lsl #3
  401a38:	f1a3 0a20 	sub.w	sl, r3, #32
  401a3c:	f1c3 0b20 	rsb	fp, r3, #32
  401a40:	fa22 fb0b 	lsr.w	fp, r2, fp
  401a44:	fa02 fa0a 	lsl.w	sl, r2, sl
  401a48:	ea4a 0a0b 	orr.w	sl, sl, fp
  401a4c:	fa02 fb03 	lsl.w	fp, r2, r3
  401a50:	f850 203c 	ldr.w	r2, [r0, ip, lsl #3]
  401a54:	f8de 3004 	ldr.w	r3, [lr, #4]
  401a58:	ea82 020b 	eor.w	r2, r2, fp
  401a5c:	ea83 030a 	eor.w	r3, r3, sl
  401a60:	f840 203c 	str.w	r2, [r0, ip, lsl #3]
        for (i = 0; i < r - (uint32_t)s_inc[25]; i++) {
  401a64:	3101      	adds	r1, #1
            s_inc[(s_inc[25] + i) >> 3] ^= (uint64_t)m[i] << (8 * ((s_inc[25] + i) & 0x07));
  401a66:	f8ce 3004 	str.w	r3, [lr, #4]
        for (i = 0; i < r - (uint32_t)s_inc[25]; i++) {
  401a6a:	e9d0 3232 	ldrd	r3, r2, [r0, #200]	@ 0xc8
  401a6e:	eba8 0c03 	sub.w	ip, r8, r3
  401a72:	458c      	cmp	ip, r1
  401a74:	d8d3      	bhi.n	401a1e <keccak_inc_absorb+0x3e>
        mlen -= (size_t)(r - s_inc[25]);
  401a76:	eba3 0308 	sub.w	r3, r3, r8
        s_inc[25] = 0;
  401a7a:	e9c0 6732 	strd	r6, r7, [r0, #200]	@ 0xc8
        mlen -= (size_t)(r - s_inc[25]);
  401a7e:	441c      	add	r4, r3
        m += r - s_inc[25];
  401a80:	4465      	add	r5, ip
        KeccakF1600_StatePermute(s_inc);
  401a82:	47c8      	blx	r9
  401a84:	e7b5      	b.n	4019f2 <keccak_inc_absorb+0x12>
        for (i = 0; i < r - (uint32_t)s_inc[25]; i++) {
  401a86:	2100      	movs	r1, #0
  401a88:	e7ef      	b.n	401a6a <keccak_inc_absorb+0x8a>
        s_inc[(s_inc[25] + i) >> 3] ^= (uint64_t)m[i] << (8 * ((s_inc[25] + i) & 0x07));
  401a8a:	18d3      	adds	r3, r2, r3
  401a8c:	eb47 0101 	adc.w	r1, r7, r1
  401a90:	08de      	lsrs	r6, r3, #3
  401a92:	f003 0307 	and.w	r3, r3, #7
  401a96:	f815 e002 	ldrb.w	lr, [r5, r2]
  401a9a:	ea46 7641 	orr.w	r6, r6, r1, lsl #29
  401a9e:	00db      	lsls	r3, r3, #3
  401aa0:	eb00 0cc6 	add.w	ip, r0, r6, lsl #3
  401aa4:	f1a3 0120 	sub.w	r1, r3, #32
  401aa8:	f1c3 0820 	rsb	r8, r3, #32
  401aac:	fa2e f808 	lsr.w	r8, lr, r8
  401ab0:	fa0e f101 	lsl.w	r1, lr, r1
  401ab4:	ea41 0108 	orr.w	r1, r1, r8
  401ab8:	fa0e fe03 	lsl.w	lr, lr, r3
  401abc:	f850 8036 	ldr.w	r8, [r0, r6, lsl #3]
  401ac0:	f8dc 3004 	ldr.w	r3, [ip, #4]
  401ac4:	ea88 0e0e 	eor.w	lr, r8, lr
  401ac8:	404b      	eors	r3, r1
  401aca:	3201      	adds	r2, #1
  401acc:	f840 e036 	str.w	lr, [r0, r6, lsl #3]
  401ad0:	f147 0700 	adc.w	r7, r7, #0
  401ad4:	f8cc 3004 	str.w	r3, [ip, #4]
    for (i = 0; i < mlen; i++) {
  401ad8:	e796      	b.n	401a08 <keccak_inc_absorb+0x28>
  401ada:	bf00      	nop
  401adc:	00400b75 	.word	0x00400b75

00401ae0 <keccak_inc_finalize>:
 *                that have not been permuted, or not-yet-squeezed bytes.
 *              - uint32_t r: rate in bytes (e.g., 168 for SHAKE128)
 *              - uint8_t p: domain-separation byte for different
 *                                 Keccak-derived functions
 **************************************************/
static void keccak_inc_finalize(uint64_t *s_inc, uint32_t r, uint8_t p) {
  401ae0:	b5f0      	push	{r4, r5, r6, r7, lr}
    /* After keccak_inc_absorb, we are guaranteed that s_inc[25] < r,
       so we can always use one more byte for p in the current state. */
    s_inc[s_inc[25] >> 3] ^= (uint64_t)p << (8 * (s_inc[25] & 0x07));
  401ae2:	e9d0 3532 	ldrd	r3, r5, [r0, #200]	@ 0xc8
  401ae6:	08dc      	lsrs	r4, r3, #3
  401ae8:	f003 0307 	and.w	r3, r3, #7
  401aec:	00db      	lsls	r3, r3, #3
  401aee:	ea44 7445 	orr.w	r4, r4, r5, lsl #29
  401af2:	f1c3 0620 	rsb	r6, r3, #32
  401af6:	f1a3 0520 	sub.w	r5, r3, #32
  401afa:	fa22 f606 	lsr.w	r6, r2, r6
  401afe:	eb00 07c4 	add.w	r7, r0, r4, lsl #3
  401b02:	fa02 f505 	lsl.w	r5, r2, r5
  401b06:	4335      	orrs	r5, r6
  401b08:	f850 6034 	ldr.w	r6, [r0, r4, lsl #3]
  401b0c:	409a      	lsls	r2, r3
    s_inc[(r - 1) >> 3] ^= (uint64_t)128 << (8 * ((r - 1) & 0x07));
  401b0e:	3901      	subs	r1, #1
    s_inc[s_inc[25] >> 3] ^= (uint64_t)p << (8 * (s_inc[25] & 0x07));
  401b10:	687b      	ldr	r3, [r7, #4]
  401b12:	4056      	eors	r6, r2
    s_inc[(r - 1) >> 3] ^= (uint64_t)128 << (8 * ((r - 1) & 0x07));
  401b14:	f021 0107 	bic.w	r1, r1, #7
    s_inc[s_inc[25] >> 3] ^= (uint64_t)p << (8 * (s_inc[25] & 0x07));
  401b18:	f840 6034 	str.w	r6, [r0, r4, lsl #3]
  401b1c:	406b      	eors	r3, r5
    s_inc[(r - 1) >> 3] ^= (uint64_t)128 << (8 * ((r - 1) & 0x07));
  401b1e:	4401      	add	r1, r0
    s_inc[s_inc[25] >> 3] ^= (uint64_t)p << (8 * (s_inc[25] & 0x07));
  401b20:	607b      	str	r3, [r7, #4]
    s_inc[(r - 1) >> 3] ^= (uint64_t)128 << (8 * ((r - 1) & 0x07));
  401b22:	684b      	ldr	r3, [r1, #4]
  401b24:	f103 4300 	add.w	r3, r3, #2147483648	@ 0x80000000
  401b28:	604b      	str	r3, [r1, #4]
    s_inc[25] = 0;
  401b2a:	2200      	movs	r2, #0
  401b2c:	2300      	movs	r3, #0
  401b2e:	e9c0 2332 	strd	r2, r3, [r0, #200]	@ 0xc8
}
  401b32:	bdf0      	pop	{r4, r5, r6, r7, pc}

00401b34 <keccak_inc_squeeze>:
 *                26th value represents either the number of absorbed bytes
 *                that have not been permuted, or not-yet-squeezed bytes.
 *              - uint32_t r: rate in bytes (e.g., 168 for SHAKE128)
 **************************************************/
static void keccak_inc_squeeze(uint8_t *h, size_t outlen,
                               uint64_t *s_inc, uint32_t r) {
  401b34:	e92d 43f8 	stmdb	sp!, {r3, r4, r5, r6, r7, r8, r9, lr}
    size_t i;

    /* First consume any bytes we still have sitting around */
    for (i = 0; i < outlen && i < s_inc[25]; i++) {
  401b38:	2600      	movs	r6, #0
                               uint64_t *s_inc, uint32_t r) {
  401b3a:	4698      	mov	r8, r3
  401b3c:	4617      	mov	r7, r2
    for (i = 0; i < outlen && i < s_inc[25]; i++) {
  401b3e:	4633      	mov	r3, r6
  401b40:	428e      	cmp	r6, r1
  401b42:	e9d7 4232 	ldrd	r4, r2, [r7, #200]	@ 0xc8
        /* There are s_inc[25] bytes left, so r - s_inc[25] is the first
           available byte. We consume from there, i.e., up to r. */
        h[i] = (uint8_t)(s_inc[(r - s_inc[25] + i) >> 3] >> (8 * ((r - s_inc[25] + i) & 0x07)));
  401b46:	4605      	mov	r5, r0
    for (i = 0; i < outlen && i < s_inc[25]; i++) {
  401b48:	d203      	bcs.n	401b52 <keccak_inc_squeeze+0x1e>
  401b4a:	42a6      	cmp	r6, r4
  401b4c:	eb73 0c02 	sbcs.w	ip, r3, r2
  401b50:	d30c      	bcc.n	401b6c <keccak_inc_squeeze+0x38>
    }
    h += i;
    outlen -= i;
    s_inc[25] -= i;
  401b52:	1ba4      	subs	r4, r4, r6
    outlen -= i;
  401b54:	eba1 0906 	sub.w	r9, r1, r6

    /* Then squeeze the remaining necessary blocks */
    while (outlen > 0) {
        KeccakF1600_StatePermute(s_inc);
  401b58:	4e2a      	ldr	r6, [pc, #168]	@ (401c04 <keccak_inc_squeeze+0xd0>)
    s_inc[25] -= i;
  401b5a:	eb62 0203 	sbc.w	r2, r2, r3
  401b5e:	e9c7 4232 	strd	r4, r2, [r7, #200]	@ 0xc8
    while (outlen > 0) {
  401b62:	f1b9 0f00 	cmp.w	r9, #0
  401b66:	d127      	bne.n	401bb8 <keccak_inc_squeeze+0x84>
        }
        h += i;
        outlen -= i;
        s_inc[25] = r - i;
    }
}
  401b68:	e8bd 83f8 	ldmia.w	sp!, {r3, r4, r5, r6, r7, r8, r9, pc}
        h[i] = (uint8_t)(s_inc[(r - s_inc[25] + i) >> 3] >> (8 * ((r - s_inc[25] + i) & 0x07)));
  401b6c:	ebb8 0404 	subs.w	r4, r8, r4
  401b70:	eb62 0242 	sbc.w	r2, r2, r2, lsl #1
  401b74:	19a4      	adds	r4, r4, r6
  401b76:	eb43 0202 	adc.w	r2, r3, r2
  401b7a:	ea4f 0cd4 	mov.w	ip, r4, lsr #3
  401b7e:	ea4c 7c42 	orr.w	ip, ip, r2, lsl #29
  401b82:	eb07 0ecc 	add.w	lr, r7, ip, lsl #3
  401b86:	f004 0407 	and.w	r4, r4, #7
  401b8a:	f857 203c 	ldr.w	r2, [r7, ip, lsl #3]
  401b8e:	f8de e004 	ldr.w	lr, [lr, #4]
  401b92:	00e5      	lsls	r5, r4, #3
  401b94:	f1c5 0c20 	rsb	ip, r5, #32
  401b98:	f1a5 0420 	sub.w	r4, r5, #32
  401b9c:	40ea      	lsrs	r2, r5
  401b9e:	fa0e fc0c 	lsl.w	ip, lr, ip
  401ba2:	ea42 020c 	orr.w	r2, r2, ip
  401ba6:	fa2e f404 	lsr.w	r4, lr, r4
  401baa:	4322      	orrs	r2, r4
  401bac:	3601      	adds	r6, #1
  401bae:	f800 2b01 	strb.w	r2, [r0], #1
    for (i = 0; i < outlen && i < s_inc[25]; i++) {
  401bb2:	f143 0300 	adc.w	r3, r3, #0
  401bb6:	e7c3      	b.n	401b40 <keccak_inc_squeeze+0xc>
        KeccakF1600_StatePermute(s_inc);
  401bb8:	4638      	mov	r0, r7
  401bba:	47b0      	blx	r6
        for (i = 0; i < outlen && i < r; i++) {
  401bbc:	2400      	movs	r4, #0
            h[i] = (uint8_t)(s_inc[i >> 3] >> (8 * (i & 0x07)));
  401bbe:	f024 0107 	bic.w	r1, r4, #7
  401bc2:	08e3      	lsrs	r3, r4, #3
  401bc4:	4439      	add	r1, r7
  401bc6:	f004 0207 	and.w	r2, r4, #7
  401bca:	f8d1 c004 	ldr.w	ip, [r1, #4]
  401bce:	f857 3033 	ldr.w	r3, [r7, r3, lsl #3]
  401bd2:	00d2      	lsls	r2, r2, #3
  401bd4:	f1c2 0020 	rsb	r0, r2, #32
  401bd8:	f1a2 0120 	sub.w	r1, r2, #32
  401bdc:	40d3      	lsrs	r3, r2
  401bde:	fa0c f000 	lsl.w	r0, ip, r0
  401be2:	4303      	orrs	r3, r0
  401be4:	fa2c f101 	lsr.w	r1, ip, r1
  401be8:	430b      	orrs	r3, r1
  401bea:	552b      	strb	r3, [r5, r4]
        for (i = 0; i < outlen && i < r; i++) {
  401bec:	3401      	adds	r4, #1
  401bee:	45a1      	cmp	r9, r4
  401bf0:	d001      	beq.n	401bf6 <keccak_inc_squeeze+0xc2>
  401bf2:	45a0      	cmp	r8, r4
  401bf4:	d1e3      	bne.n	401bbe <keccak_inc_squeeze+0x8a>
        h += i;
  401bf6:	4425      	add	r5, r4
        outlen -= i;
  401bf8:	eba9 0904 	sub.w	r9, r9, r4
        s_inc[25] = r - i;
  401bfc:	2200      	movs	r2, #0
  401bfe:	eba8 0404 	sub.w	r4, r8, r4
  401c02:	e7ac      	b.n	401b5e <keccak_inc_squeeze+0x2a>
  401c04:	00400b75 	.word	0x00400b75

00401c08 <keccak_absorb>:
                          size_t mlen, uint8_t p) {
  401c08:	e92d 4ff0 	stmdb	sp!, {r4, r5, r6, r7, r8, r9, sl, fp, lr}
  401c0c:	460c      	mov	r4, r1
  401c0e:	b0b3      	sub	sp, #204	@ 0xcc
  401c10:	4616      	mov	r6, r2
  401c12:	461f      	mov	r7, r3
        s[i] = 0;
  401c14:	22c8      	movs	r2, #200	@ 0xc8
  401c16:	4b41      	ldr	r3, [pc, #260]	@ (401d1c <keccak_absorb+0x114>)
  401c18:	2100      	movs	r1, #0
                          size_t mlen, uint8_t p) {
  401c1a:	4605      	mov	r5, r0
        s[i] = 0;
  401c1c:	4798      	blx	r3
        for (i = 0; i < r / 8; ++i) {
  401c1e:	ea4f 08d4 	mov.w	r8, r4, lsr #3
    while (mlen >= r) {
  401c22:	42a7      	cmp	r7, r4
  401c24:	d244      	bcs.n	401cb0 <keccak_absorb+0xa8>
        t[i] = 0;
  401c26:	4b3d      	ldr	r3, [pc, #244]	@ (401d1c <keccak_absorb+0x114>)
  401c28:	4622      	mov	r2, r4
  401c2a:	2100      	movs	r1, #0
  401c2c:	4668      	mov	r0, sp
  401c2e:	4798      	blx	r3
  401c30:	466a      	mov	r2, sp
  401c32:	19f1      	adds	r1, r6, r7
  401c34:	466b      	mov	r3, sp
    for (i = 0; i < mlen; ++i) {
  401c36:	42b1      	cmp	r1, r6
  401c38:	d16a      	bne.n	401d10 <keccak_absorb+0x108>
    t[i] = p;
  401c3a:	f107 03c8 	add.w	r3, r7, #200	@ 0xc8
  401c3e:	eb0d 0703 	add.w	r7, sp, r3
  401c42:	f89d 30f0 	ldrb.w	r3, [sp, #240]	@ 0xf0
  401c46:	f807 3cc8 	strb.w	r3, [r7, #-200]
    t[r - 1] |= 128;
  401c4a:	f104 03c7 	add.w	r3, r4, #199	@ 0xc7
  401c4e:	eb0d 0403 	add.w	r4, sp, r3
  401c52:	3d08      	subs	r5, #8
  401c54:	f814 3cc8 	ldrb.w	r3, [r4, #-200]
  401c58:	f063 037f 	orn	r3, r3, #127	@ 0x7f
  401c5c:	f804 3cc8 	strb.w	r3, [r4, #-200]
    for (i = 0; i < r / 8; ++i) {
  401c60:	2400      	movs	r4, #0
  401c62:	2300      	movs	r3, #0
  401c64:	4696      	mov	lr, r2
    uint64_t r = 0;
  401c66:	461f      	mov	r7, r3
  401c68:	461e      	mov	r6, r3
        r |= (uint64_t)x[i] << 8 * i;
  401c6a:	f81e 0b01 	ldrb.w	r0, [lr], #1
  401c6e:	f1a3 0120 	sub.w	r1, r3, #32
  401c72:	f1c3 0c20 	rsb	ip, r3, #32
  401c76:	fa00 f101 	lsl.w	r1, r0, r1
  401c7a:	fa20 fc0c 	lsr.w	ip, r0, ip
  401c7e:	4098      	lsls	r0, r3
    for (size_t i = 0; i < 8; ++i) {
  401c80:	3308      	adds	r3, #8
        r |= (uint64_t)x[i] << 8 * i;
  401c82:	ea41 010c 	orr.w	r1, r1, ip
    for (size_t i = 0; i < 8; ++i) {
  401c86:	2b40      	cmp	r3, #64	@ 0x40
        r |= (uint64_t)x[i] << 8 * i;
  401c88:	ea47 0700 	orr.w	r7, r7, r0
  401c8c:	ea46 0601 	orr.w	r6, r6, r1
    for (size_t i = 0; i < 8; ++i) {
  401c90:	d1eb      	bne.n	401c6a <keccak_absorb+0x62>
        s[i] ^= load64(t + 8 * i);
  401c92:	f855 1f08 	ldr.w	r1, [r5, #8]!
  401c96:	686b      	ldr	r3, [r5, #4]
    for (i = 0; i < r / 8; ++i) {
  401c98:	3401      	adds	r4, #1
        s[i] ^= load64(t + 8 * i);
  401c9a:	4079      	eors	r1, r7
  401c9c:	4073      	eors	r3, r6
    for (i = 0; i < r / 8; ++i) {
  401c9e:	4544      	cmp	r4, r8
        s[i] ^= load64(t + 8 * i);
  401ca0:	e9c5 1300 	strd	r1, r3, [r5]
    for (i = 0; i < r / 8; ++i) {
  401ca4:	f102 0208 	add.w	r2, r2, #8
  401ca8:	d3db      	bcc.n	401c62 <keccak_absorb+0x5a>
}
  401caa:	b033      	add	sp, #204	@ 0xcc
  401cac:	e8bd 8ff0 	ldmia.w	sp!, {r4, r5, r6, r7, r8, r9, sl, fp, pc}
  401cb0:	f1a5 0208 	sub.w	r2, r5, #8
        for (i = 0; i < r / 8; ++i) {
  401cb4:	f04f 0c00 	mov.w	ip, #0
  401cb8:	2300      	movs	r3, #0
  401cba:	eb06 0bcc 	add.w	fp, r6, ip, lsl #3
    uint64_t r = 0;
  401cbe:	4699      	mov	r9, r3
  401cc0:	469e      	mov	lr, r3
        r |= (uint64_t)x[i] << 8 * i;
  401cc2:	f81b 0b01 	ldrb.w	r0, [fp], #1
  401cc6:	f1a3 0a20 	sub.w	sl, r3, #32
  401cca:	f1c3 0120 	rsb	r1, r3, #32
  401cce:	fa00 fa0a 	lsl.w	sl, r0, sl
  401cd2:	fa20 f101 	lsr.w	r1, r0, r1
  401cd6:	4098      	lsls	r0, r3
    for (size_t i = 0; i < 8; ++i) {
  401cd8:	3308      	adds	r3, #8
        r |= (uint64_t)x[i] << 8 * i;
  401cda:	ea4a 0101 	orr.w	r1, sl, r1
    for (size_t i = 0; i < 8; ++i) {
  401cde:	2b40      	cmp	r3, #64	@ 0x40
        r |= (uint64_t)x[i] << 8 * i;
  401ce0:	ea40 0909 	orr.w	r9, r0, r9
  401ce4:	ea41 0e0e 	orr.w	lr, r1, lr
    for (size_t i = 0; i < 8; ++i) {
  401ce8:	d1eb      	bne.n	401cc2 <keccak_absorb+0xba>
            s[i] ^= load64(m + 8 * i);
  401cea:	f852 1f08 	ldr.w	r1, [r2, #8]!
  401cee:	6853      	ldr	r3, [r2, #4]
        for (i = 0; i < r / 8; ++i) {
  401cf0:	f10c 0c01 	add.w	ip, ip, #1
            s[i] ^= load64(m + 8 * i);
  401cf4:	ea81 0109 	eor.w	r1, r1, r9
  401cf8:	ea83 030e 	eor.w	r3, r3, lr
        for (i = 0; i < r / 8; ++i) {
  401cfc:	45c4      	cmp	ip, r8
            s[i] ^= load64(m + 8 * i);
  401cfe:	e9c2 1300 	strd	r1, r3, [r2]
        for (i = 0; i < r / 8; ++i) {
  401d02:	d3d9      	bcc.n	401cb8 <keccak_absorb+0xb0>
        KeccakF1600_StatePermute(s);
  401d04:	4b06      	ldr	r3, [pc, #24]	@ (401d20 <keccak_absorb+0x118>)
  401d06:	4628      	mov	r0, r5
  401d08:	4798      	blx	r3
        mlen -= r;
  401d0a:	1b3f      	subs	r7, r7, r4
        m += r;
  401d0c:	4426      	add	r6, r4
  401d0e:	e788      	b.n	401c22 <keccak_absorb+0x1a>
        t[i] = m[i];
  401d10:	f816 0b01 	ldrb.w	r0, [r6], #1
  401d14:	f803 0b01 	strb.w	r0, [r3], #1
    for (i = 0; i < mlen; ++i) {
  401d18:	e78d      	b.n	401c36 <keccak_absorb+0x2e>
  401d1a:	bf00      	nop
  401d1c:	0040278d 	.word	0x0040278d
  401d20:	00400b75 	.word	0x00400b75

00401d24 <shake256_inc_init>:

void shake128_inc_ctx_release(shake128incctx *state) {
    free(state->ctx);
}

void shake256_inc_init(shake256incctx *state) {
  401d24:	b510      	push	{r4, lr}
    state->ctx = malloc(PQC_SHAKEINCCTX_BYTES);
  401d26:	4b06      	ldr	r3, [pc, #24]	@ (401d40 <shake256_inc_init+0x1c>)
void shake256_inc_init(shake256incctx *state) {
  401d28:	4604      	mov	r4, r0
    state->ctx = malloc(PQC_SHAKEINCCTX_BYTES);
  401d2a:	20d0      	movs	r0, #208	@ 0xd0
  401d2c:	4798      	blx	r3
  401d2e:	6020      	str	r0, [r4, #0]
    if (state->ctx == NULL) {
  401d30:	b910      	cbnz	r0, 401d38 <shake256_inc_init+0x14>
        exit(111);
  401d32:	4b04      	ldr	r3, [pc, #16]	@ (401d44 <shake256_inc_init+0x20>)
  401d34:	206f      	movs	r0, #111	@ 0x6f
  401d36:	4798      	blx	r3
    }
    keccak_inc_init(state->ctx);
}
  401d38:	e8bd 4010 	ldmia.w	sp!, {r4, lr}
    keccak_inc_init(state->ctx);
  401d3c:	4b02      	ldr	r3, [pc, #8]	@ (401d48 <shake256_inc_init+0x24>)
  401d3e:	4718      	bx	r3
  401d40:	00402965 	.word	0x00402965
  401d44:	00402985 	.word	0x00402985
  401d48:	004019c5 	.word	0x004019c5

00401d4c <shake256_inc_absorb>:

void shake256_inc_absorb(shake256incctx *state, const uint8_t *input, size_t inlen) {
  401d4c:	b410      	push	{r4}
    keccak_inc_absorb(state->ctx, SHAKE256_RATE, input, inlen);
  401d4e:	4c04      	ldr	r4, [pc, #16]	@ (401d60 <shake256_inc_absorb+0x14>)
  401d50:	6800      	ldr	r0, [r0, #0]
void shake256_inc_absorb(shake256incctx *state, const uint8_t *input, size_t inlen) {
  401d52:	4613      	mov	r3, r2
    keccak_inc_absorb(state->ctx, SHAKE256_RATE, input, inlen);
  401d54:	46a4      	mov	ip, r4
  401d56:	460a      	mov	r2, r1
}
  401d58:	bc10      	pop	{r4}
    keccak_inc_absorb(state->ctx, SHAKE256_RATE, input, inlen);
  401d5a:	2188      	movs	r1, #136	@ 0x88
  401d5c:	4760      	bx	ip
  401d5e:	bf00      	nop
  401d60:	004019e1 	.word	0x004019e1

00401d64 <shake256_inc_finalize>:

void shake256_inc_finalize(shake256incctx *state) {
    keccak_inc_finalize(state->ctx, SHAKE256_RATE, 0x1F);
  401d64:	6800      	ldr	r0, [r0, #0]
  401d66:	4b02      	ldr	r3, [pc, #8]	@ (401d70 <shake256_inc_finalize+0xc>)
  401d68:	221f      	movs	r2, #31
  401d6a:	2188      	movs	r1, #136	@ 0x88
  401d6c:	4718      	bx	r3
  401d6e:	bf00      	nop
  401d70:	00401ae1 	.word	0x00401ae1

00401d74 <shake256_inc_squeeze>:
}

void shake256_inc_squeeze(uint8_t *output, size_t outlen, shake256incctx *state) {
  401d74:	b410      	push	{r4}
    keccak_inc_squeeze(output, outlen, state->ctx, SHAKE256_RATE);
  401d76:	4c03      	ldr	r4, [pc, #12]	@ (401d84 <shake256_inc_squeeze+0x10>)
  401d78:	6812      	ldr	r2, [r2, #0]
  401d7a:	46a4      	mov	ip, r4
  401d7c:	2388      	movs	r3, #136	@ 0x88
}
  401d7e:	bc10      	pop	{r4}
    keccak_inc_squeeze(output, outlen, state->ctx, SHAKE256_RATE);
  401d80:	4760      	bx	ip
  401d82:	bf00      	nop
  401d84:	00401b35 	.word	0x00401b35

00401d88 <shake256_inc_ctx_release>:
    }
    memcpy(dest->ctx, src->ctx, PQC_SHAKEINCCTX_BYTES);
}

void shake256_inc_ctx_release(shake256incctx *state) {
    free(state->ctx);
  401d88:	6800      	ldr	r0, [r0, #0]
  401d8a:	4b01      	ldr	r3, [pc, #4]	@ (401d90 <shake256_inc_ctx_release+0x8>)
  401d8c:	4718      	bx	r3
  401d8e:	bf00      	nop
  401d90:	00402975 	.word	0x00402975

00401d94 <sha3_256>:
 *
 * Arguments:   - uint8_t *output:      pointer to output
 *              - const uint8_t *input: pointer to input
 *              - size_t inlen:   length of input in bytes
 **************************************************/
void sha3_256(uint8_t *output, const uint8_t *input, size_t inlen) {
  401d94:	b530      	push	{r4, r5, lr}
  401d96:	b0d7      	sub	sp, #348	@ 0x15c
  401d98:	4613      	mov	r3, r2
    uint64_t s[25];
    uint8_t t[SHA3_256_RATE];

    /* Absorb input */
    keccak_absorb(s, SHA3_256_RATE, input, inlen, 0x06);
  401d9a:	2206      	movs	r2, #6
  401d9c:	4d0d      	ldr	r5, [pc, #52]	@ (401dd4 <sha3_256+0x40>)
  401d9e:	9200      	str	r2, [sp, #0]
void sha3_256(uint8_t *output, const uint8_t *input, size_t inlen) {
  401da0:	4604      	mov	r4, r0
    keccak_absorb(s, SHA3_256_RATE, input, inlen, 0x06);
  401da2:	460a      	mov	r2, r1
  401da4:	a824      	add	r0, sp, #144	@ 0x90
  401da6:	2188      	movs	r1, #136	@ 0x88
  401da8:	47a8      	blx	r5

    /* Squeeze output */
    keccak_squeezeblocks(t, 1, s, SHA3_256_RATE);
  401daa:	4d0b      	ldr	r5, [pc, #44]	@ (401dd8 <sha3_256+0x44>)
  401dac:	2388      	movs	r3, #136	@ 0x88
  401dae:	aa24      	add	r2, sp, #144	@ 0x90
  401db0:	2101      	movs	r1, #1
  401db2:	a802      	add	r0, sp, #8
  401db4:	47a8      	blx	r5

    for (size_t i = 0; i < 32; i++) {
        output[i] = t[i];
  401db6:	aa02      	add	r2, sp, #8
  401db8:	4623      	mov	r3, r4
  401dba:	ad0a      	add	r5, sp, #40	@ 0x28
  401dbc:	4614      	mov	r4, r2
  401dbe:	cc03      	ldmia	r4!, {r0, r1}
  401dc0:	42ac      	cmp	r4, r5
  401dc2:	6018      	str	r0, [r3, #0]
  401dc4:	6059      	str	r1, [r3, #4]
  401dc6:	4622      	mov	r2, r4
  401dc8:	f103 0308 	add.w	r3, r3, #8
  401dcc:	d1f6      	bne.n	401dbc <sha3_256+0x28>
    }
}
  401dce:	b057      	add	sp, #348	@ 0x15c
  401dd0:	bd30      	pop	{r4, r5, pc}
  401dd2:	bf00      	nop
  401dd4:	00401c09 	.word	0x00401c09
  401dd8:	00401961 	.word	0x00401961

00401ddc <sha3_512>:
 *
 * Arguments:   - uint8_t *output:      pointer to output
 *              - const uint8_t *input: pointer to input
 *              - size_t inlen:   length of input in bytes
 **************************************************/
void sha3_512(uint8_t *output, const uint8_t *input, size_t inlen) {
  401ddc:	b530      	push	{r4, r5, lr}
  401dde:	b0c7      	sub	sp, #284	@ 0x11c
  401de0:	4613      	mov	r3, r2
    uint64_t s[25];
    uint8_t t[SHA3_512_RATE];

    /* Absorb input */
    keccak_absorb(s, SHA3_512_RATE, input, inlen, 0x06);
  401de2:	2206      	movs	r2, #6
  401de4:	4d0d      	ldr	r5, [pc, #52]	@ (401e1c <sha3_512+0x40>)
  401de6:	9200      	str	r2, [sp, #0]
void sha3_512(uint8_t *output, const uint8_t *input, size_t inlen) {
  401de8:	4604      	mov	r4, r0
    keccak_absorb(s, SHA3_512_RATE, input, inlen, 0x06);
  401dea:	460a      	mov	r2, r1
  401dec:	a814      	add	r0, sp, #80	@ 0x50
  401dee:	2148      	movs	r1, #72	@ 0x48
  401df0:	47a8      	blx	r5

    /* Squeeze output */
    keccak_squeezeblocks(t, 1, s, SHA3_512_RATE);
  401df2:	4d0b      	ldr	r5, [pc, #44]	@ (401e20 <sha3_512+0x44>)
  401df4:	2348      	movs	r3, #72	@ 0x48
  401df6:	aa14      	add	r2, sp, #80	@ 0x50
  401df8:	2101      	movs	r1, #1
  401dfa:	a802      	add	r0, sp, #8
  401dfc:	47a8      	blx	r5

    for (size_t i = 0; i < 64; i++) {
        output[i] = t[i];
  401dfe:	aa02      	add	r2, sp, #8
  401e00:	4623      	mov	r3, r4
  401e02:	ad12      	add	r5, sp, #72	@ 0x48
  401e04:	4614      	mov	r4, r2
  401e06:	cc03      	ldmia	r4!, {r0, r1}
  401e08:	42ac      	cmp	r4, r5
  401e0a:	6018      	str	r0, [r3, #0]
  401e0c:	6059      	str	r1, [r3, #4]
  401e0e:	4622      	mov	r2, r4
  401e10:	f103 0308 	add.w	r3, r3, #8
  401e14:	d1f6      	bne.n	401e04 <sha3_512+0x28>
    }
}
  401e16:	b047      	add	sp, #284	@ 0x11c
  401e18:	bd30      	pop	{r4, r5, pc}
  401e1a:	bf00      	nop
  401e1c:	00401c09 	.word	0x00401c09
  401e20:	00401961 	.word	0x00401961

00401e24 <ss_crc>:


// 0xA6 formerly 
#define CW_CRC 0x4D 
uint8_t ss_crc(uint8_t *buf, uint8_t len)
{
  401e24:	b510      	push	{r4, lr}
  401e26:	4602      	mov	r2, r0
	unsigned int k = 0;
	uint8_t crc = 0x00;
	while (len--) {
  401e28:	4401      	add	r1, r0
	uint8_t crc = 0x00;
  401e2a:	2000      	movs	r0, #0
	while (len--) {
  401e2c:	428a      	cmp	r2, r1
  401e2e:	d100      	bne.n	401e32 <ss_crc+0xe>
			crc = crc & 0x80 ? (crc << 1) ^ CW_CRC: crc << 1;
		}
	}
	return crc;

}
  401e30:	bd10      	pop	{r4, pc}
		crc ^= *buf++;
  401e32:	f812 3b01 	ldrb.w	r3, [r2], #1
  401e36:	2408      	movs	r4, #8
  401e38:	4058      	eors	r0, r3
			crc = crc & 0x80 ? (crc << 1) ^ CW_CRC: crc << 1;
  401e3a:	b243      	sxtb	r3, r0
  401e3c:	2b00      	cmp	r3, #0
  401e3e:	bfba      	itte	lt
  401e40:	005b      	lsllt	r3, r3, #1
  401e42:	f083 034d 	eorlt.w	r3, r3, #77	@ 0x4d
  401e46:	0043      	lslge	r3, r0, #1
		for (k = 0; k < 8; k++) {
  401e48:	3c01      	subs	r4, #1
			crc = crc & 0x80 ? (crc << 1) ^ CW_CRC: crc << 1;
  401e4a:	b2d8      	uxtb	r0, r3
		for (k = 0; k < 8; k++) {
  401e4c:	d1f5      	bne.n	401e3a <ss_crc+0x16>
  401e4e:	e7ed      	b.n	401e2c <ss_crc+0x8>

00401e50 <stuff_data>:
    return 0x00;

}

uint8_t stuff_data(uint8_t *buf, uint8_t len)
{
  401e50:	b530      	push	{r4, r5, lr}
	uint8_t i = 1;
	uint8_t last = 0;
  401e52:	2200      	movs	r2, #0
  401e54:	4604      	mov	r4, r0
	uint8_t i = 1;
  401e56:	2301      	movs	r3, #1
	for (; i < len; i++) {
  401e58:	428b      	cmp	r3, r1
  401e5a:	d301      	bcc.n	401e60 <stuff_data+0x10>
			buf[last] = i - last;
			last = i;
		}
	}
	return 0x00;
}
  401e5c:	2000      	movs	r0, #0
  401e5e:	bd30      	pop	{r4, r5, pc}
		if (buf[i] == FRAME_BYTE) {
  401e60:	f814 5f01 	ldrb.w	r5, [r4, #1]!
  401e64:	b915      	cbnz	r5, 401e6c <stuff_data+0x1c>
			buf[last] = i - last;
  401e66:	1a9d      	subs	r5, r3, r2
  401e68:	5485      	strb	r5, [r0, r2]
			last = i;
  401e6a:	461a      	mov	r2, r3
	for (; i < len; i++) {
  401e6c:	3301      	adds	r3, #1
  401e6e:	b2db      	uxtb	r3, r3
  401e70:	e7f2      	b.n	401e58 <stuff_data+0x8>

00401e72 <unstuff_data>:

uint8_t unstuff_data(uint8_t *buf, uint8_t len)
{
  401e72:	b530      	push	{r4, r5, lr}
	uint8_t next = buf[0];
  401e74:	7804      	ldrb	r4, [r0, #0]
	buf[0] = 0x00;
  401e76:	2500      	movs	r5, #0
{
  401e78:	4602      	mov	r2, r0
	buf[0] = 0x00;
  401e7a:	7005      	strb	r5, [r0, #0]
	uint8_t next = buf[0];
  401e7c:	4620      	mov	r0, r4
	//len -= 1;
	uint8_t tmp = next;
	while ((next < len) && tmp != 0) {
  401e7e:	4288      	cmp	r0, r1
  401e80:	d200      	bcs.n	401e84 <unstuff_data+0x12>
  401e82:	b904      	cbnz	r4, 401e86 <unstuff_data+0x14>
		tmp = buf[next];
		buf[next] = FRAME_BYTE;
		next += tmp;
	}
	return next;
}
  401e84:	bd30      	pop	{r4, r5, pc}
		tmp = buf[next];
  401e86:	5c14      	ldrb	r4, [r2, r0]
		buf[next] = FRAME_BYTE;
  401e88:	5415      	strb	r5, [r2, r0]
		next += tmp;
  401e8a:	1903      	adds	r3, r0, r4
  401e8c:	b2d8      	uxtb	r0, r3
  401e8e:	e7f6      	b.n	401e7e <unstuff_data+0xc>

00401e90 <simpleserial_addcmd>:
	simpleserial_addcmd('v', 0, check_version);
    simpleserial_addcmd('w', 0, ss_get_commands);
}

int simpleserial_addcmd(char c, unsigned int len, uint8_t (*fp)(uint8_t, uint8_t, uint8_t, uint8_t*))
{
  401e90:	b5f8      	push	{r3, r4, r5, r6, r7, lr}
	if(num_commands >= MAX_SS_CMDS) {
  401e92:	4d0c      	ldr	r5, [pc, #48]	@ (401ec4 <simpleserial_addcmd+0x34>)
  401e94:	682b      	ldr	r3, [r5, #0]
  401e96:	2b1f      	cmp	r3, #31
  401e98:	dd04      	ble.n	401ea4 <simpleserial_addcmd+0x14>
		putch('a');
  401e9a:	2061      	movs	r0, #97	@ 0x61
		return 1;
	}

	if(len >= MAX_SS_LEN) {
		putch('b');
  401e9c:	4b0a      	ldr	r3, [pc, #40]	@ (401ec8 <simpleserial_addcmd+0x38>)
  401e9e:	4798      	blx	r3
		return 1;
  401ea0:	2001      	movs	r0, #1
	commands[num_commands].len = len;
	commands[num_commands].fp  = fp;
	num_commands++;

	return 0;
}
  401ea2:	bdf8      	pop	{r3, r4, r5, r6, r7, pc}
	if(len >= MAX_SS_LEN) {
  401ea4:	29f8      	cmp	r1, #248	@ 0xf8
  401ea6:	d901      	bls.n	401eac <simpleserial_addcmd+0x1c>
		putch('b');
  401ea8:	2062      	movs	r0, #98	@ 0x62
  401eaa:	e7f7      	b.n	401e9c <simpleserial_addcmd+0xc>
	commands[num_commands].c   = c;
  401eac:	4f07      	ldr	r7, [pc, #28]	@ (401ecc <simpleserial_addcmd+0x3c>)
  401eae:	240c      	movs	r4, #12
  401eb0:	435c      	muls	r4, r3
  401eb2:	193e      	adds	r6, r7, r4
	num_commands++;
  401eb4:	3301      	adds	r3, #1
	commands[num_commands].c   = c;
  401eb6:	5538      	strb	r0, [r7, r4]
	commands[num_commands].fp  = fp;
  401eb8:	e9c6 1201 	strd	r1, r2, [r6, #4]
	num_commands++;
  401ebc:	602b      	str	r3, [r5, #0]
	return 0;
  401ebe:	2000      	movs	r0, #0
  401ec0:	e7ef      	b.n	401ea2 <simpleserial_addcmd+0x12>
  401ec2:	bf00      	nop
  401ec4:	20000f58 	.word	0x20000f58
  401ec8:	00402245 	.word	0x00402245
  401ecc:	20000dd8 	.word	0x20000dd8

00401ed0 <simpleserial_init>:
{
  401ed0:	b510      	push	{r4, lr}
	simpleserial_addcmd('v', 0, check_version);
  401ed2:	4c06      	ldr	r4, [pc, #24]	@ (401eec <simpleserial_init+0x1c>)
  401ed4:	4a06      	ldr	r2, [pc, #24]	@ (401ef0 <simpleserial_init+0x20>)
  401ed6:	2100      	movs	r1, #0
  401ed8:	2076      	movs	r0, #118	@ 0x76
  401eda:	47a0      	blx	r4
    simpleserial_addcmd('w', 0, ss_get_commands);
  401edc:	4623      	mov	r3, r4
  401ede:	4a05      	ldr	r2, [pc, #20]	@ (401ef4 <simpleserial_init+0x24>)
}
  401ee0:	e8bd 4010 	ldmia.w	sp!, {r4, lr}
    simpleserial_addcmd('w', 0, ss_get_commands);
  401ee4:	2100      	movs	r1, #0
  401ee6:	2077      	movs	r0, #119	@ 0x77
  401ee8:	4718      	bx	r3
  401eea:	bf00      	nop
  401eec:	00401e91 	.word	0x00401e91
  401ef0:	00401f65 	.word	0x00401f65
  401ef4:	00401f85 	.word	0x00401f85

00401ef8 <simpleserial_put>:
	simpleserial_put('e', 0x01, &err);
	return;
}

void simpleserial_put(char c, uint8_t size, uint8_t* output)
{
  401ef8:	b5f0      	push	{r4, r5, r6, r7, lr}
  401efa:	460d      	mov	r5, r1
  401efc:	b0c1      	sub	sp, #260	@ 0x104
    if (!output) return;
  401efe:	b31a      	cbz	r2, 401f48 <simpleserial_put+0x50>
	uint8_t data_buf[MAX_SS_LEN+5];
	data_buf[0] = 0x00;
  401f00:	2300      	movs	r3, #0
	data_buf[1] = c;
	data_buf[2] = size;
  401f02:	f88d 1002 	strb.w	r1, [sp, #2]
	data_buf[0] = 0x00;
  401f06:	466c      	mov	r4, sp
  401f08:	f88d 3000 	strb.w	r3, [sp]
	data_buf[1] = c;
  401f0c:	f88d 0001 	strb.w	r0, [sp, #1]
	int i = 0;
	for (; i < size; i++) {
  401f10:	f10d 0102 	add.w	r1, sp, #2
  401f14:	429d      	cmp	r5, r3
  401f16:	dc19      	bgt.n	401f4c <simpleserial_put+0x54>
		data_buf[i + 3] = output[i];
	}
	data_buf[i + 3] = ss_crc(data_buf+1, size+2);
  401f18:	1ca9      	adds	r1, r5, #2
  401f1a:	4b0f      	ldr	r3, [pc, #60]	@ (401f58 <simpleserial_put+0x60>)
  401f1c:	b2c9      	uxtb	r1, r1
  401f1e:	f10d 0001 	add.w	r0, sp, #1
  401f22:	4798      	blx	r3
  401f24:	1963      	adds	r3, r4, r5
	data_buf[i + 4] = 0x00;
  401f26:	1d2f      	adds	r7, r5, #4
	stuff_data(data_buf, i + 5);
  401f28:	1d69      	adds	r1, r5, #5
	data_buf[i + 3] = ss_crc(data_buf+1, size+2);
  401f2a:	70d8      	strb	r0, [r3, #3]
	data_buf[i + 4] = 0x00;
  401f2c:	2600      	movs	r6, #0
	stuff_data(data_buf, i + 5);
  401f2e:	4b0b      	ldr	r3, [pc, #44]	@ (401f5c <simpleserial_put+0x64>)
	data_buf[i + 4] = 0x00;
  401f30:	55e6      	strb	r6, [r4, r7]
	stuff_data(data_buf, i + 5);
  401f32:	b2c9      	uxtb	r1, r1
  401f34:	4620      	mov	r0, r4
  401f36:	4798      	blx	r3
	for (int i = 0; i < size + 5; i++) {
  401f38:	4635      	mov	r5, r6
		putch(data_buf[i]);
  401f3a:	4e09      	ldr	r6, [pc, #36]	@ (401f60 <simpleserial_put+0x68>)
  401f3c:	f814 0b01 	ldrb.w	r0, [r4], #1
	for (int i = 0; i < size + 5; i++) {
  401f40:	3501      	adds	r5, #1
		putch(data_buf[i]);
  401f42:	47b0      	blx	r6
	for (int i = 0; i < size + 5; i++) {
  401f44:	42af      	cmp	r7, r5
  401f46:	daf9      	bge.n	401f3c <simpleserial_put+0x44>
	}
}
  401f48:	b041      	add	sp, #260	@ 0x104
  401f4a:	bdf0      	pop	{r4, r5, r6, r7, pc}
		data_buf[i + 3] = output[i];
  401f4c:	5cd0      	ldrb	r0, [r2, r3]
  401f4e:	f801 0f01 	strb.w	r0, [r1, #1]!
	for (; i < size; i++) {
  401f52:	3301      	adds	r3, #1
  401f54:	e7de      	b.n	401f14 <simpleserial_put+0x1c>
  401f56:	bf00      	nop
  401f58:	00401e25 	.word	0x00401e25
  401f5c:	00401e51 	.word	0x00401e51
  401f60:	00402245 	.word	0x00402245

00401f64 <check_version>:
{
  401f64:	b507      	push	{r0, r1, r2, lr}
	uint8_t ver = SS_VER;
  401f66:	2303      	movs	r3, #3
  401f68:	f88d 3007 	strb.w	r3, [sp, #7]
	simpleserial_put('r', 1, &ver);
  401f6c:	f10d 0207 	add.w	r2, sp, #7
  401f70:	4b03      	ldr	r3, [pc, #12]	@ (401f80 <check_version+0x1c>)
  401f72:	2101      	movs	r1, #1
  401f74:	2072      	movs	r0, #114	@ 0x72
  401f76:	4798      	blx	r3
}
  401f78:	2000      	movs	r0, #0
  401f7a:	b003      	add	sp, #12
  401f7c:	f85d fb04 	ldr.w	pc, [sp], #4
  401f80:	00401ef9 	.word	0x00401ef9

00401f84 <ss_get_commands>:
{
  401f84:	b530      	push	{r4, r5, lr}
    for (uint8_t i = 0; i < (num_commands & 0xFF); i++) {
  401f86:	4b0d      	ldr	r3, [pc, #52]	@ (401fbc <ss_get_commands+0x38>)
        cmd_chars[i] = commands[i].c;
  401f88:	480d      	ldr	r0, [pc, #52]	@ (401fc0 <ss_get_commands+0x3c>)
    for (uint8_t i = 0; i < (num_commands & 0xFF); i++) {
  401f8a:	7819      	ldrb	r1, [r3, #0]
{
  401f8c:	b089      	sub	sp, #36	@ 0x24
    for (uint8_t i = 0; i < (num_commands & 0xFF); i++) {
  401f8e:	2200      	movs	r2, #0
        cmd_chars[i] = commands[i].c;
  401f90:	240c      	movs	r4, #12
    for (uint8_t i = 0; i < (num_commands & 0xFF); i++) {
  401f92:	b2d3      	uxtb	r3, r2
  401f94:	428b      	cmp	r3, r1
  401f96:	f102 0201 	add.w	r2, r2, #1
  401f9a:	db06      	blt.n	401faa <ss_get_commands+0x26>
    simpleserial_put('r', num_commands & 0xFF, (void *)cmd_chars);
  401f9c:	4b09      	ldr	r3, [pc, #36]	@ (401fc4 <ss_get_commands+0x40>)
  401f9e:	466a      	mov	r2, sp
  401fa0:	2072      	movs	r0, #114	@ 0x72
  401fa2:	4798      	blx	r3
}
  401fa4:	2000      	movs	r0, #0
  401fa6:	b009      	add	sp, #36	@ 0x24
  401fa8:	bd30      	pop	{r4, r5, pc}
        cmd_chars[i] = commands[i].c;
  401faa:	f103 0520 	add.w	r5, r3, #32
  401fae:	4363      	muls	r3, r4
  401fb0:	446d      	add	r5, sp
  401fb2:	5cc3      	ldrb	r3, [r0, r3]
  401fb4:	f805 3c20 	strb.w	r3, [r5, #-32]
    for (uint8_t i = 0; i < (num_commands & 0xFF); i++) {
  401fb8:	e7eb      	b.n	401f92 <ss_get_commands+0xe>
  401fba:	bf00      	nop
  401fbc:	20000f58 	.word	0x20000f58
  401fc0:	20000dd8 	.word	0x20000dd8
  401fc4:	00401ef9 	.word	0x00401ef9

00401fc8 <simpleserial_get>:
{
  401fc8:	e92d 47f0 	stmdb	sp!, {r4, r5, r6, r7, r8, r9, sl, lr}
  401fcc:	b0c0      	sub	sp, #256	@ 0x100
	uint8_t err = 0;
  401fce:	2400      	movs	r4, #0
  401fd0:	ad01      	add	r5, sp, #4
		data_buf[i] = getch(); //PTR, cmd, scmd, len
  401fd2:	f8df 90e0 	ldr.w	r9, [pc, #224]	@ 4020b4 <simpleserial_get+0xec>
	uint8_t err = 0;
  401fd6:	f88d 4003 	strb.w	r4, [sp, #3]
	for (int i = 0; i < 4; i++) {
  401fda:	462f      	mov	r7, r5
		data_buf[i] = getch(); //PTR, cmd, scmd, len
  401fdc:	47c8      	blx	r9
  401fde:	f805 0b01 	strb.w	r0, [r5], #1
		if (data_buf[i] == FRAME_BYTE) {
  401fe2:	b958      	cbnz	r0, 401ffc <simpleserial_get+0x34>
			goto ERROR;
  401fe4:	2005      	movs	r0, #5
			err = SS_ERR_FRAME_BYTE;
  401fe6:	f88d 0003 	strb.w	r0, [sp, #3]
	simpleserial_put('e', 0x01, &err);
  401fea:	4b33      	ldr	r3, [pc, #204]	@ (4020b8 <simpleserial_get+0xf0>)
  401fec:	f10d 0203 	add.w	r2, sp, #3
  401ff0:	2101      	movs	r1, #1
  401ff2:	2065      	movs	r0, #101	@ 0x65
  401ff4:	4798      	blx	r3
}
  401ff6:	b040      	add	sp, #256	@ 0x100
  401ff8:	e8bd 87f0 	ldmia.w	sp!, {r4, r5, r6, r7, r8, r9, sl, pc}
	for (int i = 0; i < 4; i++) {
  401ffc:	3401      	adds	r4, #1
  401ffe:	2c04      	cmp	r4, #4
  402000:	d1ec      	bne.n	401fdc <simpleserial_get+0x14>
	uint8_t next_frame = unstuff_data(data_buf, 4);
  402002:	4621      	mov	r1, r4
  402004:	f8df 80b4 	ldr.w	r8, [pc, #180]	@ 4020bc <simpleserial_get+0xf4>
  402008:	4638      	mov	r0, r7
  40200a:	47c0      	blx	r8
	for(c = 0; c < num_commands; c++)
  40200c:	4b2c      	ldr	r3, [pc, #176]	@ (4020c0 <simpleserial_get+0xf8>)
		if(commands[c].c == data_buf[1])
  40200e:	f89d 1005 	ldrb.w	r1, [sp, #5]
	for(c = 0; c < num_commands; c++)
  402012:	681a      	ldr	r2, [r3, #0]
	uint8_t next_frame = unstuff_data(data_buf, 4);
  402014:	4605      	mov	r5, r0
		if(commands[c].c == data_buf[1])
  402016:	482b      	ldr	r0, [pc, #172]	@ (4020c4 <simpleserial_get+0xfc>)
	for(c = 0; c < num_commands; c++)
  402018:	2300      	movs	r3, #0
		if(commands[c].c == data_buf[1])
  40201a:	f04f 0c0c 	mov.w	ip, #12
	for(c = 0; c < num_commands; c++)
  40201e:	b2de      	uxtb	r6, r3
  402020:	4296      	cmp	r6, r2
  402022:	db02      	blt.n	40202a <simpleserial_get+0x62>
	if (c == num_commands) {
  402024:	d108      	bne.n	402038 <simpleserial_get+0x70>
  402026:	2001      	movs	r0, #1
  402028:	e7dd      	b.n	401fe6 <simpleserial_get+0x1e>
		if(commands[c].c == data_buf[1])
  40202a:	fb0c fe06 	mul.w	lr, ip, r6
  40202e:	3301      	adds	r3, #1
  402030:	f810 e00e 	ldrb.w	lr, [r0, lr]
  402034:	458e      	cmp	lr, r1
  402036:	d1f2      	bne.n	40201e <simpleserial_get+0x56>
	if ((data_buf[3] + 5) < next_frame) {
  402038:	f89d 3007 	ldrb.w	r3, [sp, #7]
  40203c:	3305      	adds	r3, #5
  40203e:	42ab      	cmp	r3, r5
  402040:	da06      	bge.n	402050 <simpleserial_get+0x88>
		goto ERROR;
  402042:	2004      	movs	r0, #4
  402044:	e7cf      	b.n	401fe6 <simpleserial_get+0x1e>
		data_buf[i] = getch();
  402046:	47c8      	blx	r9
  402048:	5538      	strb	r0, [r7, r4]
		if (data_buf[i] == FRAME_BYTE) {
  40204a:	2800      	cmp	r0, #0
  40204c:	d0ca      	beq.n	401fe4 <simpleserial_get+0x1c>
	for (; i < data_buf[3] + 5; i++) {
  40204e:	3401      	adds	r4, #1
  402050:	f89d 3007 	ldrb.w	r3, [sp, #7]
  402054:	3304      	adds	r3, #4
  402056:	42a3      	cmp	r3, r4
  402058:	daf5      	bge.n	402046 <simpleserial_get+0x7e>
	data_buf[i] = getch();
  40205a:	47c8      	blx	r9
  40205c:	f504 7380 	add.w	r3, r4, #256	@ 0x100
  402060:	eb0d 0a03 	add.w	sl, sp, r3
  402064:	f80a 0cfc 	strb.w	r0, [sl, #-252]
	if (data_buf[i] != FRAME_BYTE) {
  402068:	2800      	cmp	r0, #0
  40206a:	d1ea      	bne.n	402042 <simpleserial_get+0x7a>
	unstuff_data(data_buf + next_frame, i - next_frame + 1);
  40206c:	f1c5 0301 	rsb	r3, r5, #1
  402070:	fa53 f184 	uxtab	r1, r3, r4
  402074:	b2c9      	uxtb	r1, r1
  402076:	fa5f f984 	uxtb.w	r9, r4
  40207a:	1978      	adds	r0, r7, r5
  40207c:	47c0      	blx	r8
	uint8_t crc = ss_crc(data_buf+1, i-2);
  40207e:	f1a9 0102 	sub.w	r1, r9, #2
  402082:	4b11      	ldr	r3, [pc, #68]	@ (4020c8 <simpleserial_get+0x100>)
  402084:	b2c9      	uxtb	r1, r1
  402086:	f10d 0005 	add.w	r0, sp, #5
  40208a:	4798      	blx	r3
	if (crc != data_buf[i-1]) {
  40208c:	f81a 3cfd 	ldrb.w	r3, [sl, #-253]
  402090:	4283      	cmp	r3, r0
  402092:	d10d      	bne.n	4020b0 <simpleserial_get+0xe8>
	err = commands[c].fp(data_buf[1], data_buf[2], data_buf[3], data_buf+4);
  402094:	4b0b      	ldr	r3, [pc, #44]	@ (4020c4 <simpleserial_get+0xfc>)
  402096:	f89d 1006 	ldrb.w	r1, [sp, #6]
  40209a:	f89d 0005 	ldrb.w	r0, [sp, #5]
  40209e:	220c      	movs	r2, #12
  4020a0:	fb02 3306 	mla	r3, r2, r6, r3
  4020a4:	f89d 2007 	ldrb.w	r2, [sp, #7]
  4020a8:	689c      	ldr	r4, [r3, #8]
  4020aa:	ab02      	add	r3, sp, #8
  4020ac:	47a0      	blx	r4
  4020ae:	e79a      	b.n	401fe6 <simpleserial_get+0x1e>
  4020b0:	2002      	movs	r0, #2
  4020b2:	e798      	b.n	401fe6 <simpleserial_get+0x1e>
  4020b4:	00402261 	.word	0x00402261
  4020b8:	00401ef9 	.word	0x00401ef9
  4020bc:	00401e73 	.word	0x00401e73
  4020c0:	20000f58 	.word	0x20000f58
  4020c4:	20000dd8 	.word	0x20000dd8
  4020c8:	00401e25 	.word	0x00401e25

004020cc <Dummy_Handler>:
/**
 * \brief Default interrupt handler for unused IRQs.
 */
void Dummy_Handler(void)
{
	while (1) {
  4020cc:	e7fe      	b.n	4020cc <Dummy_Handler>
  4020ce:	0000      	movs	r0, r0

004020d0 <Reset_Handler>:
{
  4020d0:	b508      	push	{r3, lr}
	if (pSrc > pDest) {
  4020d2:	4a15      	ldr	r2, [pc, #84]	@ (402128 <Reset_Handler+0x58>)
  4020d4:	4b15      	ldr	r3, [pc, #84]	@ (40212c <Reset_Handler+0x5c>)
  4020d6:	429a      	cmp	r2, r3
  4020d8:	d915      	bls.n	402106 <Reset_Handler+0x36>
		for (; pDest < &_erelocate;) {
  4020da:	4915      	ldr	r1, [pc, #84]	@ (402130 <Reset_Handler+0x60>)
  4020dc:	428b      	cmp	r3, r1
  4020de:	d30d      	bcc.n	4020fc <Reset_Handler+0x2c>

    No Operation does nothing. This instruction can be used for code alignment purposes.
 */
__attribute__( ( always_inline ) ) __STATIC_INLINE void __NOP(void)
{
  __ASM volatile ("nop");
  4020e0:	bf00      	nop
	for (pDest = &_szero; pDest < &_ezero;) {
  4020e2:	4b14      	ldr	r3, [pc, #80]	@ (402134 <Reset_Handler+0x64>)
  4020e4:	4a14      	ldr	r2, [pc, #80]	@ (402138 <Reset_Handler+0x68>)
		*pDest++ = 0;
  4020e6:	2100      	movs	r1, #0
	for (pDest = &_szero; pDest < &_ezero;) {
  4020e8:	4293      	cmp	r3, r2
  4020ea:	d31a      	bcc.n	402122 <Reset_Handler+0x52>
	SCB->VTOR = ((uint32_t) pSrc);
  4020ec:	4b13      	ldr	r3, [pc, #76]	@ (40213c <Reset_Handler+0x6c>)
  4020ee:	4a14      	ldr	r2, [pc, #80]	@ (402140 <Reset_Handler+0x70>)
  4020f0:	609a      	str	r2, [r3, #8]
	__libc_init_array();
  4020f2:	4b14      	ldr	r3, [pc, #80]	@ (402144 <Reset_Handler+0x74>)
  4020f4:	4798      	blx	r3
	main();
  4020f6:	4b14      	ldr	r3, [pc, #80]	@ (402148 <Reset_Handler+0x78>)
  4020f8:	4798      	blx	r3
	while (1);
  4020fa:	e7fe      	b.n	4020fa <Reset_Handler+0x2a>
			*pDest++ = *pSrc++;
  4020fc:	f852 0b04 	ldr.w	r0, [r2], #4
  402100:	f843 0b04 	str.w	r0, [r3], #4
  402104:	e7ea      	b.n	4020dc <Reset_Handler+0xc>
	} else if (pSrc < pDest) {
  402106:	d2eb      	bcs.n	4020e0 <Reset_Handler+0x10>
		uint32_t nb_bytes = (uint32_t)&_erelocate - (uint32_t)&_srelocate;
  402108:	4909      	ldr	r1, [pc, #36]	@ (402130 <Reset_Handler+0x60>)
		pSrc = (uint32_t*)((uint32_t)pSrc + nb_bytes) - 1;
  40210a:	1f10      	subs	r0, r2, #4
		uint32_t nb_bytes = (uint32_t)&_erelocate - (uint32_t)&_srelocate;
  40210c:	1acb      	subs	r3, r1, r3
		pSrc = (uint32_t*)((uint32_t)pSrc + nb_bytes) - 1;
  40210e:	4403      	add	r3, r0
		for (;nb_bytes;nb_bytes -= 4) {
  402110:	f1c2 0204 	rsb	r2, r2, #4
  402114:	42d3      	cmn	r3, r2
  402116:	d0e3      	beq.n	4020e0 <Reset_Handler+0x10>
			*pDest-- = *pSrc--;
  402118:	f853 0904 	ldr.w	r0, [r3], #-4
  40211c:	f841 0d04 	str.w	r0, [r1, #-4]!
		for (;nb_bytes;nb_bytes -= 4) {
  402120:	e7f8      	b.n	402114 <Reset_Handler+0x44>
		*pDest++ = 0;
  402122:	f843 1b04 	str.w	r1, [r3], #4
  402126:	e7df      	b.n	4020e8 <Reset_Handler+0x18>
  402128:	00402ea8 	.word	0x00402ea8
  40212c:	20000000 	.word	0x20000000
  402130:	20000054 	.word	0x20000054
  402134:	20000054 	.word	0x20000054
  402138:	200010ac 	.word	0x200010ac
  40213c:	e000ed00 	.word	0xe000ed00
  402140:	00400000 	.word	0x00400000
  402144:	0040273d 	.word	0x0040273d
  402148:	00400551 	.word	0x00400551

0040214c <platform_init>:
#include "sysclk.h"
#include "gpio.h"

void platform_init(void)
{
	WDT->WDT_MR = WDT_MR_WDDIS;
  40214c:	4b18      	ldr	r3, [pc, #96]	@ (4021b0 <platform_init+0x64>)
  40214e:	f44f 4200 	mov.w	r2, #32768	@ 0x8000
{
  402152:	b570      	push	{r4, r5, r6, lr}
 *
 * \param ul_id Id (number) of the peripheral clock.
 */
static inline void sysclk_enable_peripheral_clock(uint32_t ul_id)
{
	pmc_enable_periph_clk(ul_id);
  402154:	2000      	movs	r0, #0
	WDT->WDT_MR = WDT_MR_WDDIS;
  402156:	655a      	str	r2, [r3, #84]	@ 0x54
  402158:	4c16      	ldr	r4, [pc, #88]	@ (4021b4 <platform_init+0x68>)
    sysclk_enable_peripheral_clock(ID_SUPC);
    sysclk_enable_peripheral_clock(ID_RSTC);
    sysclk_enable_peripheral_clock(ID_PMC);
    pmc_set_writeprotect(0);
    system_init_flash(CHIP_FREQ_CPU_MAX);
  40215a:	4d17      	ldr	r5, [pc, #92]	@ (4021b8 <platform_init+0x6c>)
	case OSC_MAINCK_4M_RC:
	case OSC_MAINCK_8M_RC:
	case OSC_MAINCK_12M_RC:
	case OSC_MAINCK_XTAL:
	case OSC_MAINCK_BYPASS:
		return pmc_osc_is_ready_mainck();
  40215c:	4e17      	ldr	r6, [pc, #92]	@ (4021bc <platform_init+0x70>)
  40215e:	47a0      	blx	r4
  402160:	2001      	movs	r0, #1
  402162:	47a0      	blx	r4
  402164:	2005      	movs	r0, #5
  402166:	47a0      	blx	r4
    pmc_set_writeprotect(0);
  402168:	4b15      	ldr	r3, [pc, #84]	@ (4021c0 <platform_init+0x74>)
  40216a:	2000      	movs	r0, #0
  40216c:	4798      	blx	r3
    system_init_flash(CHIP_FREQ_CPU_MAX);
  40216e:	4815      	ldr	r0, [pc, #84]	@ (4021c4 <platform_init+0x78>)
  402170:	47a8      	blx	r5
    pmc_switch_mck_to_sclk(SYSCLK_PRES_1);
  402172:	4b15      	ldr	r3, [pc, #84]	@ (4021c8 <platform_init+0x7c>)
  402174:	2000      	movs	r0, #0
  402176:	4798      	blx	r3
		pmc_switch_mainck_to_xtal(PMC_OSC_BYPASS,
  402178:	4b14      	ldr	r3, [pc, #80]	@ (4021cc <platform_init+0x80>)
  40217a:	213e      	movs	r1, #62	@ 0x3e
  40217c:	2001      	movs	r0, #1
  40217e:	4798      	blx	r3
		return pmc_osc_is_ready_mainck();
  402180:	47b0      	blx	r6
 *
 * \param id A number identifying the oscillator to wait for.
 */
static inline void osc_wait_ready(uint8_t id)
{
	while (!osc_is_ready(id)) {
  402182:	2800      	cmp	r0, #0
  402184:	d0fc      	beq.n	402180 <platform_init+0x34>
    osc_enable(OSC_MAINCK_BYPASS);
    osc_wait_ready(OSC_MAINCK_BYPASS);
    pmc_switch_mck_to_mainck(SYSCLK_PRES_1);
  402186:	4b12      	ldr	r3, [pc, #72]	@ (4021d0 <platform_init+0x84>)
  402188:	2000      	movs	r0, #0
  40218a:	4798      	blx	r3
    SystemCoreClockUpdate();
  40218c:	4b11      	ldr	r3, [pc, #68]	@ (4021d4 <platform_init+0x88>)
  40218e:	4798      	blx	r3
    system_init_flash(7.37E6);
  402190:	4811      	ldr	r0, [pc, #68]	@ (4021d8 <platform_init+0x8c>)
  402192:	47a8      	blx	r5
    EFC0->EEFC_FMR &= ~(0b100 << 24); // disable code loop optimizations (causes trace desyncs)
  402194:	4a11      	ldr	r2, [pc, #68]	@ (4021dc <platform_init+0x90>)
  402196:	6813      	ldr	r3, [r2, #0]
  402198:	f023 6380 	bic.w	r3, r3, #67108864	@ 0x4000000
  40219c:	6013      	str	r3, [r2, #0]
  40219e:	200b      	movs	r0, #11
  4021a0:	47a0      	blx	r4
    //     gpio_configure_pin(PIO_PA16_IDX, PIO_OUTPUT_1 | PIO_DEFAULT);
    //     for (volatile uint32_t i = 0; i < 100000; i++) {
    //     }
    // }
    // gpio_configure_pin(PIO_PA10_IDX, PIO_PERIPH_A | PIO_DEFAULT);
}
  4021a2:	e8bd 4070 	ldmia.w	sp!, {r4, r5, r6, lr}
    gpio_configure_pin(PIO_PA15_IDX, PIO_OUTPUT_1 | PIO_DEFAULT);
  4021a6:	4b0e      	ldr	r3, [pc, #56]	@ (4021e0 <platform_init+0x94>)
  4021a8:	f04f 5160 	mov.w	r1, #939524096	@ 0x38000000
  4021ac:	200f      	movs	r0, #15
  4021ae:	4718      	bx	r3
  4021b0:	400e1400 	.word	0x400e1400
  4021b4:	004026e5 	.word	0x004026e5
  4021b8:	004025a1 	.word	0x004025a1
  4021bc:	004026d5 	.word	0x004026d5
  4021c0:	00402721 	.word	0x00402721
  4021c4:	07270e00 	.word	0x07270e00
  4021c8:	00402605 	.word	0x00402605
  4021cc:	00402689 	.word	0x00402689
  4021d0:	00402645 	.word	0x00402645
  4021d4:	004024d5 	.word	0x004024d5
  4021d8:	00707510 	.word	0x00707510
  4021dc:	400e0a00 	.word	0x400e0a00
  4021e0:	00402431 	.word	0x00402431

004021e4 <init_uart>:

void init_uart(void)
{
  4021e4:	b51f      	push	{r0, r1, r2, r3, r4, lr}
    #if SS_VER == SS_VER_2_1
        uopts.ul_baudrate = 230400;
    #else
        uopts.ul_baudrate = 38400;
    #endif
    uopts.ul_mck = 7.45E6; //overestimate clock a little to avoid large baud error from calc rounding down, 38400/7.37E6 results in baud of 41k, not 38400
  4021e6:	4b0f      	ldr	r3, [pc, #60]	@ (402224 <init_uart+0x40>)


    uart_init(UART0, &uopts);
    uart_enable_rx(UART0);
    uart_enable_tx(UART0);
    gpio_configure_pin(PIO_PA9_IDX, PIO_PERIPH_A | PIO_DEFAULT | PIO_PULLUP);
  4021e8:	4c0f      	ldr	r4, [pc, #60]	@ (402228 <init_uart+0x44>)
    uopts.ul_mck = 7.45E6; //overestimate clock a little to avoid large baud error from calc rounding down, 38400/7.37E6 results in baud of 41k, not 38400
  4021ea:	f44f 3261 	mov.w	r2, #230400	@ 0x38400
  4021ee:	e9cd 3201 	strd	r3, r2, [sp, #4]
    uopts.ul_mode = (0x00 << 14) | (0x04 << 9);
  4021f2:	f44f 6300 	mov.w	r3, #2048	@ 0x800
  4021f6:	9303      	str	r3, [sp, #12]
  4021f8:	2008      	movs	r0, #8
  4021fa:	4b0c      	ldr	r3, [pc, #48]	@ (40222c <init_uart+0x48>)
  4021fc:	4798      	blx	r3
    uart_init(UART0, &uopts);
  4021fe:	a901      	add	r1, sp, #4
  402200:	4b0b      	ldr	r3, [pc, #44]	@ (402230 <init_uart+0x4c>)
  402202:	480c      	ldr	r0, [pc, #48]	@ (402234 <init_uart+0x50>)
  402204:	4798      	blx	r3
    uart_enable_rx(UART0);
  402206:	480b      	ldr	r0, [pc, #44]	@ (402234 <init_uart+0x50>)
  402208:	4b0b      	ldr	r3, [pc, #44]	@ (402238 <init_uart+0x54>)
  40220a:	4798      	blx	r3
    uart_enable_tx(UART0);
  40220c:	4b0b      	ldr	r3, [pc, #44]	@ (40223c <init_uart+0x58>)
  40220e:	4809      	ldr	r0, [pc, #36]	@ (402234 <init_uart+0x50>)
  402210:	4798      	blx	r3
    gpio_configure_pin(PIO_PA9_IDX, PIO_PERIPH_A | PIO_DEFAULT | PIO_PULLUP);
  402212:	490b      	ldr	r1, [pc, #44]	@ (402240 <init_uart+0x5c>)
  402214:	2009      	movs	r0, #9
  402216:	47a0      	blx	r4
    gpio_configure_pin(PIO_PA10_IDX, PIO_PERIPH_A | PIO_DEFAULT);
  402218:	f04f 6100 	mov.w	r1, #134217728	@ 0x8000000
  40221c:	200a      	movs	r0, #10
  40221e:	47a0      	blx	r4
}
  402220:	b004      	add	sp, #16
  402222:	bd10      	pop	{r4, pc}
  402224:	0071ad90 	.word	0x0071ad90
  402228:	00402431 	.word	0x00402431
  40222c:	004026e5 	.word	0x004026e5
  402230:	004022e1 	.word	0x004022e1
  402234:	400e0600 	.word	0x400e0600
  402238:	0040231b 	.word	0x0040231b
  40223c:	00402315 	.word	0x00402315
  402240:	08000001 	.word	0x08000001

00402244 <putch>:

void putch(char c)
{
  402244:	b538      	push	{r3, r4, r5, lr}
    // while (!uart_is_tx_buf_end(UART0));
    while(uart_write(UART0, c));
  402246:	4d04      	ldr	r5, [pc, #16]	@ (402258 <putch+0x14>)
{
  402248:	4604      	mov	r4, r0
    while(uart_write(UART0, c));
  40224a:	4804      	ldr	r0, [pc, #16]	@ (40225c <putch+0x18>)
  40224c:	4621      	mov	r1, r4
  40224e:	47a8      	blx	r5
  402250:	2800      	cmp	r0, #0
  402252:	d1fa      	bne.n	40224a <putch+0x6>
}
  402254:	bd38      	pop	{r3, r4, r5, pc}
  402256:	bf00      	nop
  402258:	00402321 	.word	0x00402321
  40225c:	400e0600 	.word	0x400e0600

00402260 <getch>:

char getch(void)
{
  402260:	b513      	push	{r0, r1, r4, lr}
    uint8_t c;
    while(uart_read(UART0, &c));
  402262:	4c05      	ldr	r4, [pc, #20]	@ (402278 <getch+0x18>)
  402264:	4805      	ldr	r0, [pc, #20]	@ (40227c <getch+0x1c>)
  402266:	f10d 0107 	add.w	r1, sp, #7
  40226a:	47a0      	blx	r4
  40226c:	2800      	cmp	r0, #0
  40226e:	d1f9      	bne.n	402264 <getch+0x4>
    return c;
}
  402270:	f89d 0007 	ldrb.w	r0, [sp, #7]
  402274:	b002      	add	sp, #8
  402276:	bd10      	pop	{r4, pc}
  402278:	0040232f 	.word	0x0040232f
  40227c:	400e0600 	.word	0x400e0600

00402280 <trigger_setup>:

void trigger_setup(void)
{
  402280:	b510      	push	{r4, lr}
  402282:	4b05      	ldr	r3, [pc, #20]	@ (402298 <trigger_setup+0x18>)
  402284:	200b      	movs	r0, #11
  402286:	4798      	blx	r3
    sysclk_enable_peripheral_clock(ID_PIOA);
    gpio_configure_pin(PIO_PA7_IDX, PIO_OUTPUT_0 | PIO_DEFAULT);
}
  402288:	e8bd 4010 	ldmia.w	sp!, {r4, lr}
    gpio_configure_pin(PIO_PA7_IDX, PIO_OUTPUT_0 | PIO_DEFAULT);
  40228c:	4b03      	ldr	r3, [pc, #12]	@ (40229c <trigger_setup+0x1c>)
  40228e:	f04f 5140 	mov.w	r1, #805306368	@ 0x30000000
  402292:	2007      	movs	r0, #7
  402294:	4718      	bx	r3
  402296:	bf00      	nop
  402298:	004026e5 	.word	0x004026e5
  40229c:	00402431 	.word	0x00402431

004022a0 <trigger_low>:

void trigger_low(void)
{
  4022a0:	b510      	push	{r4, lr}
    gpio_set_pin_low(PIO_PA7_IDX);
  4022a2:	4b05      	ldr	r3, [pc, #20]	@ (4022b8 <trigger_low+0x18>)
  4022a4:	2007      	movs	r0, #7
  4022a6:	4798      	blx	r3
    gpio_configure_pin(PIO_PA7_IDX, PIO_OUTPUT_0 | PIO_DEFAULT);
}
  4022a8:	e8bd 4010 	ldmia.w	sp!, {r4, lr}
    gpio_configure_pin(PIO_PA7_IDX, PIO_OUTPUT_0 | PIO_DEFAULT);
  4022ac:	4b03      	ldr	r3, [pc, #12]	@ (4022bc <trigger_low+0x1c>)
  4022ae:	f04f 5140 	mov.w	r1, #805306368	@ 0x30000000
  4022b2:	2007      	movs	r0, #7
  4022b4:	4718      	bx	r3
  4022b6:	bf00      	nop
  4022b8:	00402417 	.word	0x00402417
  4022bc:	00402431 	.word	0x00402431

004022c0 <trigger_high>:

void trigger_high(void)
{
  4022c0:	b510      	push	{r4, lr}
    gpio_set_pin_high(PIO_PA7_IDX);
  4022c2:	4b05      	ldr	r3, [pc, #20]	@ (4022d8 <trigger_high+0x18>)
  4022c4:	2007      	movs	r0, #7
  4022c6:	4798      	blx	r3
    gpio_configure_pin(PIO_PA7_IDX, PIO_OUTPUT_1 | PIO_DEFAULT);
  4022c8:	e8bd 4010 	ldmia.w	sp!, {r4, lr}
    gpio_configure_pin(PIO_PA7_IDX, PIO_OUTPUT_1 | PIO_DEFAULT);
  4022cc:	4b03      	ldr	r3, [pc, #12]	@ (4022dc <trigger_high+0x1c>)
  4022ce:	f04f 5160 	mov.w	r1, #939524096	@ 0x38000000
  4022d2:	2007      	movs	r0, #7
  4022d4:	4718      	bx	r3
  4022d6:	bf00      	nop
  4022d8:	004023ff 	.word	0x004023ff
  4022dc:	00402431 	.word	0x00402431

004022e0 <uart_init>:
uint32_t uart_init(Uart *p_uart, const sam_uart_opt_t *p_uart_opt)
{
	uint32_t cd = 0;

	/* Reset and disable receiver & transmitter */
	p_uart->UART_CR = UART_CR_RSTRX | UART_CR_RSTTX
  4022e0:	23ac      	movs	r3, #172	@ 0xac
{
  4022e2:	b510      	push	{r4, lr}
	p_uart->UART_CR = UART_CR_RSTRX | UART_CR_RSTTX
  4022e4:	6003      	str	r3, [r0, #0]
			| UART_CR_RXDIS | UART_CR_TXDIS;

	/* Check and configure baudrate */
	/* Asynchronous, no oversampling */
	cd = (p_uart_opt->ul_mck / p_uart_opt->ul_baudrate) / UART_MCK_DIV;
  4022e6:	e9d1 3200 	ldrd	r3, r2, [r1]
  4022ea:	fbb3 f3f2 	udiv	r3, r3, r2
  4022ee:	091b      	lsrs	r3, r3, #4
	if (cd < UART_MCK_DIV_MIN_FACTOR || cd > UART_MCK_DIV_MAX_FACTOR)
  4022f0:	1e5c      	subs	r4, r3, #1
  4022f2:	f64f 72fe 	movw	r2, #65534	@ 0xfffe
  4022f6:	4294      	cmp	r4, r2
  4022f8:	d80a      	bhi.n	402310 <uart_init+0x30>
		return 1;

	p_uart->UART_BRGR = cd;
  4022fa:	6203      	str	r3, [r0, #32]
	/* Configure mode */
	p_uart->UART_MR = p_uart_opt->ul_mode;
  4022fc:	688b      	ldr	r3, [r1, #8]
  4022fe:	6043      	str	r3, [r0, #4]

#if (!SAMV71 && !SAMV70 && !SAME70 && !SAMS70)
	/* Disable PDC channel */
	p_uart->UART_PTCR = UART_PTCR_RXTDIS | UART_PTCR_TXTDIS;
  402300:	f240 2302 	movw	r3, #514	@ 0x202
  402304:	f8c0 3120 	str.w	r3, [r0, #288]	@ 0x120
#endif

	/* Enable receiver and transmitter */
	p_uart->UART_CR = UART_CR_RXEN | UART_CR_TXEN;
  402308:	2350      	movs	r3, #80	@ 0x50
  40230a:	6003      	str	r3, [r0, #0]

	return 0;
  40230c:	2000      	movs	r0, #0
}
  40230e:	bd10      	pop	{r4, pc}
		return 1;
  402310:	2001      	movs	r0, #1
  402312:	e7fc      	b.n	40230e <uart_init+0x2e>

00402314 <uart_enable_tx>:
 * \param p_uart Pointer to a UART instance.
 */
void uart_enable_tx(Uart *p_uart)
{
	/* Enable transmitter */
	p_uart->UART_CR = UART_CR_TXEN;
  402314:	2340      	movs	r3, #64	@ 0x40
  402316:	6003      	str	r3, [r0, #0]
}
  402318:	4770      	bx	lr

0040231a <uart_enable_rx>:
 * \param p_uart Pointer to a UART instance.
 */
void uart_enable_rx(Uart *p_uart)
{
	/* Enable receiver */
	p_uart->UART_CR = UART_CR_RXEN;
  40231a:	2310      	movs	r3, #16
  40231c:	6003      	str	r3, [r0, #0]
}
  40231e:	4770      	bx	lr

00402320 <uart_write>:
 * \retval 1 I/O Failure, UART is not ready.
 */
uint32_t uart_write(Uart *p_uart, const uint8_t uc_data)
{
	/* Check if the transmitter is ready */
	if (!(p_uart->UART_SR & UART_SR_TXRDY))
  402320:	6943      	ldr	r3, [r0, #20]
  402322:	079b      	lsls	r3, r3, #30
		return 1;

	/* Send character */
	p_uart->UART_THR = uc_data;
  402324:	bf46      	itte	mi
  402326:	61c1      	strmi	r1, [r0, #28]
	return 0;
  402328:	2000      	movmi	r0, #0
		return 1;
  40232a:	2001      	movpl	r0, #1
}
  40232c:	4770      	bx	lr

0040232e <uart_read>:
 * \retval 1 I/O Failure, UART is not ready.
 */
uint32_t uart_read(Uart *p_uart, uint8_t *puc_data)
{
	/* Check if the receiver is ready */
	if ((p_uart->UART_SR & UART_SR_RXRDY) == 0)
  40232e:	6943      	ldr	r3, [r0, #20]
  402330:	07db      	lsls	r3, r3, #31
		return 1;

	/* Read character */
	*puc_data = (uint8_t) p_uart->UART_RHR;
  402332:	bf43      	ittte	mi
  402334:	6983      	ldrmi	r3, [r0, #24]
  402336:	700b      	strbmi	r3, [r1, #0]
	return 0;
  402338:	2000      	movmi	r0, #0
		return 1;
  40233a:	2001      	movpl	r0, #1
}
  40233c:	4770      	bx	lr

0040233e <pio_set_peripheral>:

	/* Disable interrupts on the pin(s) */
	p_pio->PIO_IDR = ul_mask;

#if (SAM3S || SAM3N || SAM4S || SAM4E || SAM4N || SAM4C || SAMG || SAM4CP || SAM4CM || SAMV71 || SAMV70 || SAME70 || SAMS70)
	switch (ul_type) {
  40233e:	f1b1 5fc0 	cmp.w	r1, #402653184	@ 0x18000000
	p_pio->PIO_IDR = ul_mask;
  402342:	6442      	str	r2, [r0, #68]	@ 0x44
	switch (ul_type) {
  402344:	d026      	beq.n	402394 <pio_set_peripheral+0x56>
  402346:	d807      	bhi.n	402358 <pio_set_peripheral+0x1a>
  402348:	f1b1 6f00 	cmp.w	r1, #134217728	@ 0x8000000
  40234c:	d011      	beq.n	402372 <pio_set_peripheral+0x34>
  40234e:	f1b1 5f80 	cmp.w	r1, #268435456	@ 0x10000000
  402352:	d01c      	beq.n	40238e <pio_set_peripheral+0x50>
  402354:	b9c9      	cbnz	r1, 40238a <pio_set_peripheral+0x4c>
  402356:	4770      	bx	lr
  402358:	f1b1 5f00 	cmp.w	r1, #536870912	@ 0x20000000
  40235c:	d023      	beq.n	4023a6 <pio_set_peripheral+0x68>
  40235e:	d314      	bcc.n	40238a <pio_set_peripheral+0x4c>
  402360:	f1b1 5f40 	cmp.w	r1, #805306368	@ 0x30000000
  402364:	d012      	beq.n	40238c <pio_set_peripheral+0x4e>
  402366:	f021 5180 	bic.w	r1, r1, #268435456	@ 0x10000000
  40236a:	f1b1 5f20 	cmp.w	r1, #671088640	@ 0x28000000
  40236e:	d10c      	bne.n	40238a <pio_set_peripheral+0x4c>
  402370:	4770      	bx	lr
	case PIO_PERIPH_A:
		ul_sr = p_pio->PIO_ABCDSR[0];
  402372:	6f01      	ldr	r1, [r0, #112]	@ 0x70
		p_pio->PIO_ABCDSR[0] &= (~ul_mask & ul_sr);
  402374:	6f03      	ldr	r3, [r0, #112]	@ 0x70
  402376:	400b      	ands	r3, r1
  402378:	ea23 0302 	bic.w	r3, r3, r2
		ul_sr = p_pio->PIO_ABCDSR[1];
		p_pio->PIO_ABCDSR[1] &= (~ul_mask & ul_sr);
		break;
	case PIO_PERIPH_B:
		ul_sr = p_pio->PIO_ABCDSR[0];
		p_pio->PIO_ABCDSR[0] = (ul_mask | ul_sr);
  40237c:	6703      	str	r3, [r0, #112]	@ 0x70

		ul_sr = p_pio->PIO_ABCDSR[1];
  40237e:	6f41      	ldr	r1, [r0, #116]	@ 0x74
		p_pio->PIO_ABCDSR[1] &= (~ul_mask & ul_sr);
  402380:	6f43      	ldr	r3, [r0, #116]	@ 0x74
  402382:	400b      	ands	r3, r1
  402384:	ea23 0302 	bic.w	r3, r3, r2
	case PIO_PERIPH_D:
		ul_sr = p_pio->PIO_ABCDSR[0];
		p_pio->PIO_ABCDSR[0] = (ul_mask | ul_sr);

		ul_sr = p_pio->PIO_ABCDSR[1];
		p_pio->PIO_ABCDSR[1] = (ul_mask | ul_sr);
  402388:	6743      	str	r3, [r0, #116]	@ 0x74
#else
#error "Unsupported device"
#endif

	/* Remove the pins from under the control of PIO */
	p_pio->PIO_PDR = ul_mask;
  40238a:	6042      	str	r2, [r0, #4]
}
  40238c:	4770      	bx	lr
		ul_sr = p_pio->PIO_ABCDSR[0];
  40238e:	6f03      	ldr	r3, [r0, #112]	@ 0x70
		p_pio->PIO_ABCDSR[0] = (ul_mask | ul_sr);
  402390:	4313      	orrs	r3, r2
  402392:	e7f3      	b.n	40237c <pio_set_peripheral+0x3e>
		ul_sr = p_pio->PIO_ABCDSR[0];
  402394:	6f01      	ldr	r1, [r0, #112]	@ 0x70
		p_pio->PIO_ABCDSR[0] &= (~ul_mask & ul_sr);
  402396:	6f03      	ldr	r3, [r0, #112]	@ 0x70
  402398:	400b      	ands	r3, r1
  40239a:	ea23 0302 	bic.w	r3, r3, r2
		p_pio->PIO_ABCDSR[0] = (ul_mask | ul_sr);
  40239e:	6703      	str	r3, [r0, #112]	@ 0x70
		ul_sr = p_pio->PIO_ABCDSR[1];
  4023a0:	6f43      	ldr	r3, [r0, #116]	@ 0x74
		p_pio->PIO_ABCDSR[1] = (ul_mask | ul_sr);
  4023a2:	4313      	orrs	r3, r2
  4023a4:	e7f0      	b.n	402388 <pio_set_peripheral+0x4a>
		ul_sr = p_pio->PIO_ABCDSR[0];
  4023a6:	6f03      	ldr	r3, [r0, #112]	@ 0x70
		p_pio->PIO_ABCDSR[0] = (ul_mask | ul_sr);
  4023a8:	4313      	orrs	r3, r2
  4023aa:	e7f8      	b.n	40239e <pio_set_peripheral+0x60>

004023ac <pio_set_input>:
	if (ul_pull_up_enable) {
  4023ac:	07d3      	lsls	r3, r2, #31
 * \param p_pio Pointer to a PIO instance.
 * \param ul_mask Interrupt sources bit map.
 */
void pio_disable_interrupt(Pio *p_pio, const uint32_t ul_mask)
{
	p_pio->PIO_IDR = ul_mask;
  4023ae:	6441      	str	r1, [r0, #68]	@ 0x44
		p_pio->PIO_PUER = ul_mask;
  4023b0:	bf4c      	ite	mi
  4023b2:	6641      	strmi	r1, [r0, #100]	@ 0x64
		p_pio->PIO_PUDR = ul_mask;
  4023b4:	6601      	strpl	r1, [r0, #96]	@ 0x60
	if (ul_attribute & (PIO_DEGLITCH | PIO_DEBOUNCE)) {
  4023b6:	f012 0f0a 	tst.w	r2, #10
  4023ba:	d007      	beq.n	4023cc <pio_set_input+0x20>
	if (ul_attribute & PIO_DEGLITCH) {
  4023bc:	0793      	lsls	r3, r2, #30
		p_pio->PIO_IFER = ul_mask;
  4023be:	6201      	str	r1, [r0, #32]
	if (ul_attribute & PIO_DEGLITCH) {
  4023c0:	d408      	bmi.n	4023d4 <pio_set_input+0x28>
		if (ul_attribute & PIO_DEBOUNCE) {
  4023c2:	0713      	lsls	r3, r2, #28
			p_pio->PIO_IFSCER = ul_mask;
  4023c4:	bf48      	it	mi
  4023c6:	f8c0 1084 	strmi.w	r1, [r0, #132]	@ 0x84
  4023ca:	e000      	b.n	4023ce <pio_set_input+0x22>
		p_pio->PIO_IFDR = ul_mask;
  4023cc:	6241      	str	r1, [r0, #36]	@ 0x24
	p_pio->PIO_ODR = ul_mask;
  4023ce:	6141      	str	r1, [r0, #20]
	p_pio->PIO_PER = ul_mask;
  4023d0:	6001      	str	r1, [r0, #0]
}
  4023d2:	4770      	bx	lr
		p_pio->PIO_IFSCDR = ul_mask;
  4023d4:	f8c0 1080 	str.w	r1, [r0, #128]	@ 0x80
  4023d8:	e7f9      	b.n	4023ce <pio_set_input+0x22>

004023da <pio_set_output>:
{
  4023da:	b510      	push	{r4, lr}
  4023dc:	9c02      	ldr	r4, [sp, #8]
	p_pio->PIO_IDR = ul_mask;
  4023de:	6441      	str	r1, [r0, #68]	@ 0x44
	if (ul_pull_up_enable) {
  4023e0:	b13c      	cbz	r4, 4023f2 <pio_set_output+0x18>
		p_pio->PIO_PUER = ul_mask;
  4023e2:	6641      	str	r1, [r0, #100]	@ 0x64
	if (ul_multidrive_enable) {
  4023e4:	b13b      	cbz	r3, 4023f6 <pio_set_output+0x1c>
		p_pio->PIO_MDER = ul_mask;
  4023e6:	6501      	str	r1, [r0, #80]	@ 0x50
	if (ul_default_level) {
  4023e8:	b13a      	cbz	r2, 4023fa <pio_set_output+0x20>
		p_pio->PIO_SODR = ul_mask;
  4023ea:	6301      	str	r1, [r0, #48]	@ 0x30
	p_pio->PIO_OER = ul_mask;
  4023ec:	6101      	str	r1, [r0, #16]
	p_pio->PIO_PER = ul_mask;
  4023ee:	6001      	str	r1, [r0, #0]
}
  4023f0:	bd10      	pop	{r4, pc}
		p_pio->PIO_PUDR = ul_mask;
  4023f2:	6601      	str	r1, [r0, #96]	@ 0x60
  4023f4:	e7f6      	b.n	4023e4 <pio_set_output+0xa>
		p_pio->PIO_MDDR = ul_mask;
  4023f6:	6541      	str	r1, [r0, #84]	@ 0x54
  4023f8:	e7f6      	b.n	4023e8 <pio_set_output+0xe>
		p_pio->PIO_CODR = ul_mask;
  4023fa:	6341      	str	r1, [r0, #52]	@ 0x34
  4023fc:	e7f6      	b.n	4023ec <pio_set_output+0x12>

004023fe <pio_set_pin_high>:
		p_pio = PIOC;
	} else {
		p_pio = (Pio *)((uint32_t)PIOA + (PIO_DELTA * (ul_pin >> 5)));
	}
#else
	p_pio = (Pio *)((uint32_t)PIOA + (PIO_DELTA * (ul_pin >> 5)));
  4023fe:	0943      	lsrs	r3, r0, #5
  402400:	f503 1300 	add.w	r3, r3, #2097152	@ 0x200000
  402404:	f203 7307 	addw	r3, r3, #1799	@ 0x707
  402408:	025b      	lsls	r3, r3, #9
	p_pio->PIO_SODR = 1 << (ul_pin & 0x1F);
  40240a:	f000 001f 	and.w	r0, r0, #31
  40240e:	2201      	movs	r2, #1
  402410:	4082      	lsls	r2, r0
  402412:	631a      	str	r2, [r3, #48]	@ 0x30
}
  402414:	4770      	bx	lr

00402416 <pio_set_pin_low>:
	p_pio = (Pio *)((uint32_t)PIOA + (PIO_DELTA * (ul_pin >> 5)));
  402416:	0943      	lsrs	r3, r0, #5
  402418:	f503 1300 	add.w	r3, r3, #2097152	@ 0x200000
  40241c:	f203 7307 	addw	r3, r3, #1799	@ 0x707
  402420:	025b      	lsls	r3, r3, #9
	p_pio->PIO_CODR = 1 << (ul_pin & 0x1F);
  402422:	f000 001f 	and.w	r0, r0, #31
  402426:	2201      	movs	r2, #1
  402428:	4082      	lsls	r2, r0
  40242a:	635a      	str	r2, [r3, #52]	@ 0x34
}
  40242c:	4770      	bx	lr
  40242e:	0000      	movs	r0, r0

00402430 <pio_configure_pin>:
{
  402430:	b537      	push	{r0, r1, r2, r4, r5, lr}
  402432:	4604      	mov	r4, r0
	p_pio = (Pio *)((uint32_t)PIOA + (PIO_DELTA * (ul_pin >> 5)));
  402434:	0940      	lsrs	r0, r0, #5
{
  402436:	460d      	mov	r5, r1
	p_pio = (Pio *)((uint32_t)PIOA + (PIO_DELTA * (ul_pin >> 5)));
  402438:	f500 1000 	add.w	r0, r0, #2097152	@ 0x200000
	switch (ul_flags & PIO_TYPE_Msk) {
  40243c:	f001 41f0 	and.w	r1, r1, #2013265920	@ 0x78000000
	p_pio = (Pio *)((uint32_t)PIOA + (PIO_DELTA * (ul_pin >> 5)));
  402440:	f200 7007 	addw	r0, r0, #1799	@ 0x707
	switch (ul_flags & PIO_TYPE_Msk) {
  402444:	f1b1 5f00 	cmp.w	r1, #536870912	@ 0x20000000
	p_pio = (Pio *)((uint32_t)PIOA + (PIO_DELTA * (ul_pin >> 5)));
  402448:	ea4f 2040 	mov.w	r0, r0, lsl #9
	switch (ul_flags & PIO_TYPE_Msk) {
  40244c:	d01f      	beq.n	40248e <pio_configure_pin+0x5e>
  40244e:	d80b      	bhi.n	402468 <pio_configure_pin+0x38>
  402450:	f1b1 5f80 	cmp.w	r1, #268435456	@ 0x10000000
  402454:	d01b      	beq.n	40248e <pio_configure_pin+0x5e>
  402456:	f1b1 5fc0 	cmp.w	r1, #402653184	@ 0x18000000
  40245a:	d018      	beq.n	40248e <pio_configure_pin+0x5e>
  40245c:	f1b1 6f00 	cmp.w	r1, #134217728	@ 0x8000000
  402460:	d015      	beq.n	40248e <pio_configure_pin+0x5e>
  402462:	2000      	movs	r0, #0
}
  402464:	b003      	add	sp, #12
  402466:	bd30      	pop	{r4, r5, pc}
	switch (ul_flags & PIO_TYPE_Msk) {
  402468:	f005 43e0 	and.w	r3, r5, #1879048192	@ 0x70000000
  40246c:	f1b3 5f40 	cmp.w	r3, #805306368	@ 0x30000000
  402470:	d017      	beq.n	4024a2 <pio_configure_pin+0x72>
  402472:	f1b1 5f20 	cmp.w	r1, #671088640	@ 0x28000000
  402476:	d1f4      	bne.n	402462 <pio_configure_pin+0x32>
		pio_set_input(p_pio, (1 << (ul_pin & 0x1F)), ul_flags);
  402478:	f004 041f 	and.w	r4, r4, #31
  40247c:	2101      	movs	r1, #1
  40247e:	4b12      	ldr	r3, [pc, #72]	@ (4024c8 <pio_configure_pin+0x98>)
  402480:	462a      	mov	r2, r5
  402482:	40a1      	lsls	r1, r4
  402484:	4798      	blx	r3
		break;
  402486:	e000      	b.n	40248a <pio_configure_pin+0x5a>
		p_pio->PIO_PUDR = ul_mask;
  402488:	6602      	str	r2, [r0, #96]	@ 0x60
	return 1;
  40248a:	2001      	movs	r0, #1
  40248c:	e7ea      	b.n	402464 <pio_configure_pin+0x34>
		pio_set_peripheral(p_pio, PIO_PERIPH_D, (1 << (ul_pin & 0x1F)));
  40248e:	f004 041f 	and.w	r4, r4, #31
  402492:	2201      	movs	r2, #1
  402494:	40a2      	lsls	r2, r4
  402496:	4b0d      	ldr	r3, [pc, #52]	@ (4024cc <pio_configure_pin+0x9c>)
  402498:	4798      	blx	r3
	if (ul_pull_up_enable) {
  40249a:	07ec      	lsls	r4, r5, #31
  40249c:	d5f4      	bpl.n	402488 <pio_configure_pin+0x58>
		p_pio->PIO_PUER = ul_mask;
  40249e:	6642      	str	r2, [r0, #100]	@ 0x64
  4024a0:	e7f3      	b.n	40248a <pio_configure_pin+0x5a>
				((ul_flags & PIO_TYPE_PIO_OUTPUT_1)
  4024a2:	f005 5260 	and.w	r2, r5, #939524096	@ 0x38000000
		pio_set_output(p_pio, (1 << (ul_pin & 0x1F)),
  4024a6:	f102 4148 	add.w	r1, r2, #3355443200	@ 0xc8000000
  4024aa:	424a      	negs	r2, r1
  4024ac:	f005 0301 	and.w	r3, r5, #1
  4024b0:	f004 041f 	and.w	r4, r4, #31
  4024b4:	414a      	adcs	r2, r1
  4024b6:	2101      	movs	r1, #1
  4024b8:	9300      	str	r3, [sp, #0]
  4024ba:	40a1      	lsls	r1, r4
  4024bc:	f3c5 0380 	ubfx	r3, r5, #2, #1
  4024c0:	4c03      	ldr	r4, [pc, #12]	@ (4024d0 <pio_configure_pin+0xa0>)
  4024c2:	47a0      	blx	r4
		break;
  4024c4:	e7e1      	b.n	40248a <pio_configure_pin+0x5a>
  4024c6:	bf00      	nop
  4024c8:	004023ad 	.word	0x004023ad
  4024cc:	0040233f 	.word	0x0040233f
  4024d0:	004023db 	.word	0x004023db

004024d4 <SystemCoreClockUpdate>:

/**
 * \brief Get Core Clock Frequency.
 */
void SystemCoreClockUpdate( void )
{
  4024d4:	b510      	push	{r4, lr}
	/* Determine clock frequency according to clock register values */
	switch ( PMC->PMC_MCKR & (uint32_t) PMC_MCKR_CSS_Msk ) {
  4024d6:	4a2c      	ldr	r2, [pc, #176]	@ (402588 <SystemCoreClockUpdate+0xb4>)
  4024d8:	4b2c      	ldr	r3, [pc, #176]	@ (40258c <SystemCoreClockUpdate+0xb8>)
  4024da:	6b11      	ldr	r1, [r2, #48]	@ 0x30
  4024dc:	f001 0103 	and.w	r1, r1, #3
  4024e0:	2901      	cmp	r1, #1
  4024e2:	d02a      	beq.n	40253a <SystemCoreClockUpdate+0x66>
  4024e4:	3902      	subs	r1, #2
  4024e6:	2901      	cmp	r1, #1
  4024e8:	d81d      	bhi.n	402526 <SystemCoreClockUpdate+0x52>
		}
		break;
		
	case PMC_MCKR_CSS_PLLA_CLK:	/* PLLA clock */
	case PMC_MCKR_CSS_PLLB_CLK:	/* PLLB clock */
			if ( PMC->CKGR_MOR & CKGR_MOR_MOSCSEL ) {
  4024ea:	6a11      	ldr	r1, [r2, #32]
  4024ec:	01cc      	lsls	r4, r1, #7
  4024ee:	d448      	bmi.n	402582 <SystemCoreClockUpdate+0xae>
				SystemCoreClock = CHIP_FREQ_XTAL;
			} else {
				SystemCoreClock = CHIP_FREQ_MAINCK_RC_4MHZ;
  4024f0:	4927      	ldr	r1, [pc, #156]	@ (402590 <SystemCoreClockUpdate+0xbc>)
  4024f2:	6019      	str	r1, [r3, #0]
				
				switch ( PMC->CKGR_MOR & CKGR_MOR_MOSCRCF_Msk ) {
  4024f4:	6a11      	ldr	r1, [r2, #32]
  4024f6:	f001 0170 	and.w	r1, r1, #112	@ 0x70
  4024fa:	2910      	cmp	r1, #16
  4024fc:	d03e      	beq.n	40257c <SystemCoreClockUpdate+0xa8>
  4024fe:	2920      	cmp	r1, #32
  402500:	d03f      	beq.n	402582 <SystemCoreClockUpdate+0xae>
				default:
					break;
				}
			}
			
			if ( (uint32_t)(PMC->PMC_MCKR & (uint32_t) PMC_MCKR_CSS_Msk) ==
  402502:	6b10      	ldr	r0, [r2, #48]	@ 0x30
					PMC_MCKR_CSS_PLLA_CLK ) {
				SystemCoreClock *= ((((PMC->CKGR_PLLAR) & CKGR_PLLAR_MULA_Msk)
  402504:	6819      	ldr	r1, [r3, #0]
			if ( (uint32_t)(PMC->PMC_MCKR & (uint32_t) PMC_MCKR_CSS_Msk) ==
  402506:	f000 0003 	and.w	r0, r0, #3
  40250a:	2802      	cmp	r0, #2
				SystemCoreClock *= ((((PMC->CKGR_PLLAR) & CKGR_PLLAR_MULA_Msk)
  40250c:	bf0b      	itete	eq
  40250e:	6a94      	ldreq	r4, [r2, #40]	@ 0x28
						>> CKGR_PLLAR_MULA_Pos) + 1U);
				SystemCoreClock /= ((((PMC->CKGR_PLLAR) & CKGR_PLLAR_DIVA_Msk)
						>> CKGR_PLLAR_DIVA_Pos));
			} else {
				SystemCoreClock *= ((((PMC->CKGR_PLLBR) & CKGR_PLLBR_MULB_Msk)
  402510:	6ad4      	ldrne	r4, [r2, #44]	@ 0x2c
				SystemCoreClock /= ((((PMC->CKGR_PLLAR) & CKGR_PLLAR_DIVA_Msk)
  402512:	6a90      	ldreq	r0, [r2, #40]	@ 0x28
						>> CKGR_PLLBR_MULB_Pos) + 1U);
				SystemCoreClock /= ((((PMC->CKGR_PLLBR) & CKGR_PLLBR_DIVB_Msk)
  402514:	6ad0      	ldrne	r0, [r2, #44]	@ 0x2c
						>> CKGR_PLLBR_MULB_Pos) + 1U);
  402516:	f3c4 440a 	ubfx	r4, r4, #16, #11
				SystemCoreClock *= ((((PMC->CKGR_PLLBR) & CKGR_PLLBR_MULB_Msk)
  40251a:	fb04 1101 	mla	r1, r4, r1, r1
						>> CKGR_PLLBR_DIVB_Pos));
  40251e:	b2c0      	uxtb	r0, r0
				SystemCoreClock /= ((((PMC->CKGR_PLLBR) & CKGR_PLLBR_DIVB_Msk)
  402520:	fbb1 f1f0 	udiv	r1, r1, r0
  402524:	e007      	b.n	402536 <SystemCoreClockUpdate+0x62>
			if ( SUPC->SUPC_SR & SUPC_SR_OSCSEL ) {
  402526:	491b      	ldr	r1, [pc, #108]	@ (402594 <SystemCoreClockUpdate+0xc0>)
  402528:	6a49      	ldr	r1, [r1, #36]	@ 0x24
  40252a:	0608      	lsls	r0, r1, #24
				SystemCoreClock = CHIP_FREQ_XTAL_32K;
  40252c:	bf4c      	ite	mi
  40252e:	f44f 4100 	movmi.w	r1, #32768	@ 0x8000
				SystemCoreClock = CHIP_FREQ_SLCK_RC;
  402532:	f44f 41fa 	movpl.w	r1, #32000	@ 0x7d00
				SystemCoreClock /= ((((PMC->CKGR_PLLBR) & CKGR_PLLBR_DIVB_Msk)
  402536:	6019      	str	r1, [r3, #0]
  402538:	e00d      	b.n	402556 <SystemCoreClockUpdate+0x82>
		if ( PMC->CKGR_MOR & CKGR_MOR_MOSCSEL ) {
  40253a:	6a11      	ldr	r1, [r2, #32]
  40253c:	01c9      	lsls	r1, r1, #7
  40253e:	d501      	bpl.n	402544 <SystemCoreClockUpdate+0x70>
				SystemCoreClock = CHIP_FREQ_MAINCK_RC_12MHZ;
  402540:	4915      	ldr	r1, [pc, #84]	@ (402598 <SystemCoreClockUpdate+0xc4>)
  402542:	e7f8      	b.n	402536 <SystemCoreClockUpdate+0x62>
			SystemCoreClock = CHIP_FREQ_MAINCK_RC_4MHZ;
  402544:	4912      	ldr	r1, [pc, #72]	@ (402590 <SystemCoreClockUpdate+0xbc>)
  402546:	6019      	str	r1, [r3, #0]
			switch ( PMC->CKGR_MOR & CKGR_MOR_MOSCRCF_Msk ) {
  402548:	6a11      	ldr	r1, [r2, #32]
  40254a:	f001 0170 	and.w	r1, r1, #112	@ 0x70
  40254e:	2910      	cmp	r1, #16
  402550:	d012      	beq.n	402578 <SystemCoreClockUpdate+0xa4>
  402552:	2920      	cmp	r1, #32
  402554:	d0f4      	beq.n	402540 <SystemCoreClockUpdate+0x6c>
		
	default:
		break;
	}

	if ( (PMC->PMC_MCKR & PMC_MCKR_PRES_Msk) == PMC_MCKR_PRES_CLK_3 ) {
  402556:	6b10      	ldr	r0, [r2, #48]	@ 0x30
		SystemCoreClock /= 3U;
  402558:	6819      	ldr	r1, [r3, #0]
	if ( (PMC->PMC_MCKR & PMC_MCKR_PRES_Msk) == PMC_MCKR_PRES_CLK_3 ) {
  40255a:	f000 0070 	and.w	r0, r0, #112	@ 0x70
  40255e:	2870      	cmp	r0, #112	@ 0x70
	} else {
		SystemCoreClock >>=
			((PMC->PMC_MCKR & PMC_MCKR_PRES_Msk) >> PMC_MCKR_PRES_Pos);
  402560:	bf1b      	ittet	ne
  402562:	6b12      	ldrne	r2, [r2, #48]	@ 0x30
  402564:	f3c2 1202 	ubfxne	r2, r2, #4, #3
		SystemCoreClock /= 3U;
  402568:	2203      	moveq	r2, #3
		SystemCoreClock >>=
  40256a:	fa21 f202 	lsrne.w	r2, r1, r2
		SystemCoreClock /= 3U;
  40256e:	bf08      	it	eq
  402570:	fbb1 f2f2 	udiveq	r2, r1, r2
		SystemCoreClock >>=
  402574:	601a      	str	r2, [r3, #0]
	}
}
  402576:	bd10      	pop	{r4, pc}
				SystemCoreClock = CHIP_FREQ_MAINCK_RC_8MHZ;
  402578:	4908      	ldr	r1, [pc, #32]	@ (40259c <SystemCoreClockUpdate+0xc8>)
  40257a:	e7dc      	b.n	402536 <SystemCoreClockUpdate+0x62>
					SystemCoreClock = CHIP_FREQ_MAINCK_RC_8MHZ;
  40257c:	4907      	ldr	r1, [pc, #28]	@ (40259c <SystemCoreClockUpdate+0xc8>)
					SystemCoreClock = CHIP_FREQ_MAINCK_RC_12MHZ;
  40257e:	6019      	str	r1, [r3, #0]
					break;
  402580:	e7bf      	b.n	402502 <SystemCoreClockUpdate+0x2e>
					SystemCoreClock = CHIP_FREQ_MAINCK_RC_12MHZ;
  402582:	4905      	ldr	r1, [pc, #20]	@ (402598 <SystemCoreClockUpdate+0xc4>)
  402584:	e7fb      	b.n	40257e <SystemCoreClockUpdate+0xaa>
  402586:	bf00      	nop
  402588:	400e0400 	.word	0x400e0400
  40258c:	20000000 	.word	0x20000000
  402590:	003d0900 	.word	0x003d0900
  402594:	400e1400 	.word	0x400e1400
  402598:	00b71b00 	.word	0x00b71b00
  40259c:	007a1200 	.word	0x007a1200

004025a0 <system_init_flash>:
 */
void system_init_flash( uint32_t ul_clk )
{
  /* Set FWS for embedded Flash access according to operating frequency */
#if !defined(ID_EFC1)
	if ( ul_clk < CHIP_FREQ_FWS_0 ) {
  4025a0:	4b0e      	ldr	r3, [pc, #56]	@ (4025dc <system_init_flash+0x3c>)
  4025a2:	4298      	cmp	r0, r3
  4025a4:	4b0e      	ldr	r3, [pc, #56]	@ (4025e0 <system_init_flash+0x40>)
  4025a6:	d803      	bhi.n	4025b0 <system_init_flash+0x10>
		EFC0->EEFC_FMR = EEFC_FMR_FWS(0)|EEFC_FMR_CLOE;
  4025a8:	f04f 6280 	mov.w	r2, #67108864	@ 0x4000000
					EFC0->EEFC_FMR = EEFC_FMR_FWS(3)|EEFC_FMR_CLOE;
				} else {
					if ( ul_clk < CHIP_FREQ_FWS_4 ) {
					EFC0->EEFC_FMR = EEFC_FMR_FWS(4)|EEFC_FMR_CLOE;
					} else {
					EFC0->EEFC_FMR = EEFC_FMR_FWS(5)|EEFC_FMR_CLOE;
  4025ac:	601a      	str	r2, [r3, #0]
				}
			}
		}
	}
#endif
}
  4025ae:	4770      	bx	lr
		if ( ul_clk < CHIP_FREQ_FWS_1 ) {
  4025b0:	4a0c      	ldr	r2, [pc, #48]	@ (4025e4 <system_init_flash+0x44>)
  4025b2:	4290      	cmp	r0, r2
  4025b4:	d201      	bcs.n	4025ba <system_init_flash+0x1a>
			EFC0->EEFC_FMR = EEFC_FMR_FWS(1)|EEFC_FMR_CLOE;
  4025b6:	4a0c      	ldr	r2, [pc, #48]	@ (4025e8 <system_init_flash+0x48>)
  4025b8:	e7f8      	b.n	4025ac <system_init_flash+0xc>
			if ( ul_clk < CHIP_FREQ_FWS_2 ) {
  4025ba:	4a0c      	ldr	r2, [pc, #48]	@ (4025ec <system_init_flash+0x4c>)
  4025bc:	4290      	cmp	r0, r2
  4025be:	d201      	bcs.n	4025c4 <system_init_flash+0x24>
				EFC0->EEFC_FMR = EEFC_FMR_FWS(2)|EEFC_FMR_CLOE;
  4025c0:	4a0b      	ldr	r2, [pc, #44]	@ (4025f0 <system_init_flash+0x50>)
  4025c2:	e7f3      	b.n	4025ac <system_init_flash+0xc>
				if ( ul_clk < CHIP_FREQ_FWS_3 ) {
  4025c4:	4a0b      	ldr	r2, [pc, #44]	@ (4025f4 <system_init_flash+0x54>)
  4025c6:	4290      	cmp	r0, r2
  4025c8:	d801      	bhi.n	4025ce <system_init_flash+0x2e>
					EFC0->EEFC_FMR = EEFC_FMR_FWS(3)|EEFC_FMR_CLOE;
  4025ca:	4a0b      	ldr	r2, [pc, #44]	@ (4025f8 <system_init_flash+0x58>)
  4025cc:	e7ee      	b.n	4025ac <system_init_flash+0xc>
					if ( ul_clk < CHIP_FREQ_FWS_4 ) {
  4025ce:	4a0b      	ldr	r2, [pc, #44]	@ (4025fc <system_init_flash+0x5c>)
  4025d0:	4290      	cmp	r0, r2
					EFC0->EEFC_FMR = EEFC_FMR_FWS(5)|EEFC_FMR_CLOE;
  4025d2:	bf8c      	ite	hi
  4025d4:	4a0a      	ldrhi	r2, [pc, #40]	@ (402600 <system_init_flash+0x60>)
					EFC0->EEFC_FMR = EEFC_FMR_FWS(4)|EEFC_FMR_CLOE;
  4025d6:	f04f 2204 	movls.w	r2, #67109888	@ 0x4000400
					EFC0->EEFC_FMR = EEFC_FMR_FWS(5)|EEFC_FMR_CLOE;
  4025da:	e7e7      	b.n	4025ac <system_init_flash+0xc>
  4025dc:	01312cff 	.word	0x01312cff
  4025e0:	400e0a00 	.word	0x400e0a00
  4025e4:	02625a00 	.word	0x02625a00
  4025e8:	04000100 	.word	0x04000100
  4025ec:	03938700 	.word	0x03938700
  4025f0:	04000200 	.word	0x04000200
  4025f4:	04c4b3ff 	.word	0x04c4b3ff
  4025f8:	04000300 	.word	0x04000300
  4025fc:	05f5e0ff 	.word	0x05f5e0ff
  402600:	04000500 	.word	0x04000500

00402604 <pmc_switch_mck_to_sclk>:
 */
uint32_t pmc_switch_mck_to_sclk(uint32_t ul_pres)
{
	uint32_t ul_timeout;

	PMC->PMC_MCKR = (PMC->PMC_MCKR & (~PMC_MCKR_CSS_Msk)) |
  402604:	4b0e      	ldr	r3, [pc, #56]	@ (402640 <pmc_switch_mck_to_sclk+0x3c>)
  402606:	6b1a      	ldr	r2, [r3, #48]	@ 0x30
  402608:	f022 0203 	bic.w	r2, r2, #3
  40260c:	631a      	str	r2, [r3, #48]	@ 0x30
			PMC_MCKR_CSS_SLOW_CLK;
	for (ul_timeout = PMC_TIMEOUT; !(PMC->PMC_SR & PMC_SR_MCKRDY);
  40260e:	f640 0201 	movw	r2, #2049	@ 0x801
  402612:	6e99      	ldr	r1, [r3, #104]	@ 0x68
  402614:	0709      	lsls	r1, r1, #28
  402616:	d50b      	bpl.n	402630 <pmc_switch_mck_to_sclk+0x2c>
		if (ul_timeout == 0) {
			return 1;
		}
	}

	PMC->PMC_MCKR = (PMC->PMC_MCKR & (~PMC_MCKR_PRES_Msk)) | ul_pres;
  402618:	6b1a      	ldr	r2, [r3, #48]	@ 0x30
  40261a:	f022 0270 	bic.w	r2, r2, #112	@ 0x70
  40261e:	4310      	orrs	r0, r2
  402620:	6318      	str	r0, [r3, #48]	@ 0x30
	for (ul_timeout = PMC_TIMEOUT; !(PMC->PMC_SR & PMC_SR_MCKRDY);
  402622:	f640 0201 	movw	r2, #2049	@ 0x801
  402626:	6e99      	ldr	r1, [r3, #104]	@ 0x68
  402628:	0709      	lsls	r1, r1, #28
  40262a:	d505      	bpl.n	402638 <pmc_switch_mck_to_sclk+0x34>
		if (ul_timeout == 0) {
			return 1;
		}
	}

	return 0;
  40262c:	2000      	movs	r0, #0
}
  40262e:	4770      	bx	lr
		if (ul_timeout == 0) {
  402630:	3a01      	subs	r2, #1
  402632:	d1ee      	bne.n	402612 <pmc_switch_mck_to_sclk+0xe>
			return 1;
  402634:	2001      	movs	r0, #1
  402636:	4770      	bx	lr
		if (ul_timeout == 0) {
  402638:	3a01      	subs	r2, #1
  40263a:	d1f4      	bne.n	402626 <pmc_switch_mck_to_sclk+0x22>
  40263c:	e7fa      	b.n	402634 <pmc_switch_mck_to_sclk+0x30>
  40263e:	bf00      	nop
  402640:	400e0400 	.word	0x400e0400

00402644 <pmc_switch_mck_to_mainck>:
 */
uint32_t pmc_switch_mck_to_mainck(uint32_t ul_pres)
{
	uint32_t ul_timeout;

	PMC->PMC_MCKR = (PMC->PMC_MCKR & (~PMC_MCKR_CSS_Msk)) |
  402644:	4b0f      	ldr	r3, [pc, #60]	@ (402684 <pmc_switch_mck_to_mainck+0x40>)
  402646:	6b1a      	ldr	r2, [r3, #48]	@ 0x30
  402648:	f022 0203 	bic.w	r2, r2, #3
  40264c:	f042 0201 	orr.w	r2, r2, #1
  402650:	631a      	str	r2, [r3, #48]	@ 0x30
			PMC_MCKR_CSS_MAIN_CLK;
	for (ul_timeout = PMC_TIMEOUT; !(PMC->PMC_SR & PMC_SR_MCKRDY);
  402652:	f640 0201 	movw	r2, #2049	@ 0x801
  402656:	6e99      	ldr	r1, [r3, #104]	@ 0x68
  402658:	0709      	lsls	r1, r1, #28
  40265a:	d50b      	bpl.n	402674 <pmc_switch_mck_to_mainck+0x30>
		if (ul_timeout == 0) {
			return 1;
		}
	}

	PMC->PMC_MCKR = (PMC->PMC_MCKR & (~PMC_MCKR_PRES_Msk)) | ul_pres;
  40265c:	6b1a      	ldr	r2, [r3, #48]	@ 0x30
  40265e:	f022 0270 	bic.w	r2, r2, #112	@ 0x70
  402662:	4310      	orrs	r0, r2
  402664:	6318      	str	r0, [r3, #48]	@ 0x30
	for (ul_timeout = PMC_TIMEOUT; !(PMC->PMC_SR & PMC_SR_MCKRDY);
  402666:	f640 0201 	movw	r2, #2049	@ 0x801
  40266a:	6e99      	ldr	r1, [r3, #104]	@ 0x68
  40266c:	0709      	lsls	r1, r1, #28
  40266e:	d505      	bpl.n	40267c <pmc_switch_mck_to_mainck+0x38>
		if (ul_timeout == 0) {
			return 1;
		}
	}

	return 0;
  402670:	2000      	movs	r0, #0
}
  402672:	4770      	bx	lr
		if (ul_timeout == 0) {
  402674:	3a01      	subs	r2, #1
  402676:	d1ee      	bne.n	402656 <pmc_switch_mck_to_mainck+0x12>
			return 1;
  402678:	2001      	movs	r0, #1
  40267a:	4770      	bx	lr
		if (ul_timeout == 0) {
  40267c:	3a01      	subs	r2, #1
  40267e:	d1f4      	bne.n	40266a <pmc_switch_mck_to_mainck+0x26>
  402680:	e7fa      	b.n	402678 <pmc_switch_mck_to_mainck+0x34>
  402682:	bf00      	nop
  402684:	400e0400 	.word	0x400e0400

00402688 <pmc_switch_mainck_to_xtal>:
 */
void pmc_switch_mainck_to_xtal(uint32_t ul_bypass,
		uint32_t ul_xtal_startup_time)
{
	/* Enable Main Xtal oscillator */
	if (ul_bypass) {
  402688:	4a0f      	ldr	r2, [pc, #60]	@ (4026c8 <pmc_switch_mainck_to_xtal+0x40>)
  40268a:	b130      	cbz	r0, 40269a <pmc_switch_mainck_to_xtal+0x12>
		PMC->CKGR_MOR = (PMC->CKGR_MOR & ~CKGR_MOR_MOSCXTEN) |
  40268c:	6a13      	ldr	r3, [r2, #32]
				CKGR_MOR_KEY_PASSWD | CKGR_MOR_MOSCXTBY |
  40268e:	490f      	ldr	r1, [pc, #60]	@ (4026cc <pmc_switch_mainck_to_xtal+0x44>)
  402690:	4019      	ands	r1, r3
  402692:	4b0f      	ldr	r3, [pc, #60]	@ (4026d0 <pmc_switch_mainck_to_xtal+0x48>)
  402694:	430b      	orrs	r3, r1
				CKGR_MOR_KEY_PASSWD | CKGR_MOR_MOSCXTEN |
				CKGR_MOR_MOSCXTST(ul_xtal_startup_time);
		/* Wait the Xtal to stabilize */
		while (!(PMC->PMC_SR & PMC_SR_MOSCXTS));

		PMC->CKGR_MOR |= CKGR_MOR_KEY_PASSWD | CKGR_MOR_MOSCSEL;
  402696:	6213      	str	r3, [r2, #32]
	}
}
  402698:	4770      	bx	lr
		PMC->CKGR_MOR = (PMC->CKGR_MOR & ~CKGR_MOR_MOSCXTBY) |
  40269a:	6a10      	ldr	r0, [r2, #32]
				CKGR_MOR_MOSCXTST(ul_xtal_startup_time);
  40269c:	020b      	lsls	r3, r1, #8
				CKGR_MOR_KEY_PASSWD | CKGR_MOR_MOSCXTEN |
  40269e:	f420 115c 	bic.w	r1, r0, #3604480	@ 0x370000
				CKGR_MOR_MOSCXTST(ul_xtal_startup_time);
  4026a2:	b29b      	uxth	r3, r3
				CKGR_MOR_KEY_PASSWD | CKGR_MOR_MOSCXTEN |
  4026a4:	f021 0103 	bic.w	r1, r1, #3
  4026a8:	430b      	orrs	r3, r1
  4026aa:	f443 135c 	orr.w	r3, r3, #3604480	@ 0x370000
  4026ae:	f043 0301 	orr.w	r3, r3, #1
		PMC->CKGR_MOR = (PMC->CKGR_MOR & ~CKGR_MOR_MOSCXTBY) |
  4026b2:	6213      	str	r3, [r2, #32]
		while (!(PMC->PMC_SR & PMC_SR_MOSCXTS));
  4026b4:	6e93      	ldr	r3, [r2, #104]	@ 0x68
  4026b6:	07db      	lsls	r3, r3, #31
  4026b8:	d5fc      	bpl.n	4026b4 <pmc_switch_mainck_to_xtal+0x2c>
		PMC->CKGR_MOR |= CKGR_MOR_KEY_PASSWD | CKGR_MOR_MOSCSEL;
  4026ba:	6a13      	ldr	r3, [r2, #32]
  4026bc:	f043 739b 	orr.w	r3, r3, #20316160	@ 0x1360000
  4026c0:	f443 3380 	orr.w	r3, r3, #65536	@ 0x10000
  4026c4:	e7e7      	b.n	402696 <pmc_switch_mainck_to_xtal+0xe>
  4026c6:	bf00      	nop
  4026c8:	400e0400 	.word	0x400e0400
  4026cc:	fec8fffc 	.word	0xfec8fffc
  4026d0:	01370002 	.word	0x01370002

004026d4 <pmc_osc_is_ready_mainck>:
 * \retval 1 Xtal is ready.
 * \retval 0 Xtal is not ready.
 */
uint32_t pmc_osc_is_ready_mainck(void)
{
	return PMC->PMC_SR & PMC_SR_MOSCSELS;
  4026d4:	4b02      	ldr	r3, [pc, #8]	@ (4026e0 <pmc_osc_is_ready_mainck+0xc>)
  4026d6:	6e98      	ldr	r0, [r3, #104]	@ 0x68
}
  4026d8:	f400 3080 	and.w	r0, r0, #65536	@ 0x10000
  4026dc:	4770      	bx	lr
  4026de:	bf00      	nop
  4026e0:	400e0400 	.word	0x400e0400

004026e4 <pmc_enable_periph_clk>:
	PMC->PMC_PCR = ul_id & 0x7F;
	pcr = PMC->PMC_PCR | PMC_PCR_EN | PMC_PCR_CMD;
	PMC->PMC_PCR = pcr;
	return 0;
#else
	if (ul_id > MAX_PERIPH_ID) {
  4026e4:	2822      	cmp	r0, #34	@ 0x22
  4026e6:	d816      	bhi.n	402716 <pmc_enable_periph_clk+0x32>
		return 1;
	}

	if (ul_id < 32) {
  4026e8:	281f      	cmp	r0, #31
  4026ea:	4a0c      	ldr	r2, [pc, #48]	@ (40271c <pmc_enable_periph_clk+0x38>)
  4026ec:	f04f 0301 	mov.w	r3, #1
  4026f0:	d807      	bhi.n	402702 <pmc_enable_periph_clk+0x1e>
		if ((PMC->PMC_PCSR0 & (1u << ul_id)) != (1u << ul_id)) {
  4026f2:	6991      	ldr	r1, [r2, #24]
  4026f4:	4083      	lsls	r3, r0
  4026f6:	ea33 0101 	bics.w	r1, r3, r1
			PMC->PMC_PCER0 = 1 << ul_id;
  4026fa:	bf18      	it	ne
  4026fc:	6113      	strne	r3, [r2, #16]
			PMC->PMC_PCER1 = 1 << ul_id;
		}
#endif
	}

	return 0;
  4026fe:	2000      	movs	r0, #0
  402700:	4770      	bx	lr
		if ((PMC->PMC_PCSR1 & (1u << ul_id)) != (1u << ul_id)) {
  402702:	f8d2 1108 	ldr.w	r1, [r2, #264]	@ 0x108
		ul_id -= 32;
  402706:	3820      	subs	r0, #32
		if ((PMC->PMC_PCSR1 & (1u << ul_id)) != (1u << ul_id)) {
  402708:	4083      	lsls	r3, r0
  40270a:	ea33 0101 	bics.w	r1, r3, r1
  40270e:	d0f6      	beq.n	4026fe <pmc_enable_periph_clk+0x1a>
			PMC->PMC_PCER1 = 1 << ul_id;
  402710:	f8c2 3100 	str.w	r3, [r2, #256]	@ 0x100
  402714:	e7f3      	b.n	4026fe <pmc_enable_periph_clk+0x1a>
		return 1;
  402716:	2001      	movs	r0, #1
#endif /* defined(REG_PMC_PCR) && !SAMG55 */
}
  402718:	4770      	bx	lr
  40271a:	bf00      	nop
  40271c:	400e0400 	.word	0x400e0400

00402720 <pmc_set_writeprotect>:
 *
 * \param ul_enable 1 to enable, 0 to disable.
 */
void pmc_set_writeprotect(uint32_t ul_enable)
{
	if (ul_enable) {
  402720:	4b03      	ldr	r3, [pc, #12]	@ (402730 <pmc_set_writeprotect+0x10>)
  402722:	b118      	cbz	r0, 40272c <pmc_set_writeprotect+0xc>
		PMC->PMC_WPMR = PMC_WPMR_WPKEY_PASSWD | PMC_WPMR_WPEN;
  402724:	4a03      	ldr	r2, [pc, #12]	@ (402734 <pmc_set_writeprotect+0x14>)
	} else {
		PMC->PMC_WPMR = PMC_WPMR_WPKEY_PASSWD;
  402726:	f8c3 20e4 	str.w	r2, [r3, #228]	@ 0xe4
	}
}
  40272a:	4770      	bx	lr
		PMC->PMC_WPMR = PMC_WPMR_WPKEY_PASSWD;
  40272c:	4a02      	ldr	r2, [pc, #8]	@ (402738 <pmc_set_writeprotect+0x18>)
  40272e:	e7fa      	b.n	402726 <pmc_set_writeprotect+0x6>
  402730:	400e0400 	.word	0x400e0400
  402734:	504d4301 	.word	0x504d4301
  402738:	504d4300 	.word	0x504d4300

0040273c <__libc_init_array>:
  40273c:	b570      	push	{r4, r5, r6, lr}
  40273e:	4b0f      	ldr	r3, [pc, #60]	@ (40277c <__libc_init_array+0x40>)
  402740:	4d0f      	ldr	r5, [pc, #60]	@ (402780 <__libc_init_array+0x44>)
  402742:	42ab      	cmp	r3, r5
  402744:	eba3 0605 	sub.w	r6, r3, r5
  402748:	d007      	beq.n	40275a <__libc_init_array+0x1e>
  40274a:	10b6      	asrs	r6, r6, #2
  40274c:	2400      	movs	r4, #0
  40274e:	f855 3b04 	ldr.w	r3, [r5], #4
  402752:	3401      	adds	r4, #1
  402754:	4798      	blx	r3
  402756:	42a6      	cmp	r6, r4
  402758:	d8f9      	bhi.n	40274e <__libc_init_array+0x12>
  40275a:	f000 fb91 	bl	402e80 <_init>
  40275e:	4d09      	ldr	r5, [pc, #36]	@ (402784 <__libc_init_array+0x48>)
  402760:	4b09      	ldr	r3, [pc, #36]	@ (402788 <__libc_init_array+0x4c>)
  402762:	1b5e      	subs	r6, r3, r5
  402764:	42ab      	cmp	r3, r5
  402766:	ea4f 06a6 	mov.w	r6, r6, asr #2
  40276a:	d006      	beq.n	40277a <__libc_init_array+0x3e>
  40276c:	2400      	movs	r4, #0
  40276e:	f855 3b04 	ldr.w	r3, [r5], #4
  402772:	3401      	adds	r4, #1
  402774:	4798      	blx	r3
  402776:	42a6      	cmp	r6, r4
  402778:	d8f9      	bhi.n	40276e <__libc_init_array+0x32>
  40277a:	bd70      	pop	{r4, r5, r6, pc}
  40277c:	00402e8c 	.word	0x00402e8c
  402780:	00402e8c 	.word	0x00402e8c
  402784:	00402e8c 	.word	0x00402e8c
  402788:	00402e90 	.word	0x00402e90

0040278c <memset>:
  40278c:	0783      	lsls	r3, r0, #30
  40278e:	b530      	push	{r4, r5, lr}
  402790:	d047      	beq.n	402822 <memset+0x96>
  402792:	1e54      	subs	r4, r2, #1
  402794:	2a00      	cmp	r2, #0
  402796:	d03e      	beq.n	402816 <memset+0x8a>
  402798:	b2ca      	uxtb	r2, r1
  40279a:	4603      	mov	r3, r0
  40279c:	e001      	b.n	4027a2 <memset+0x16>
  40279e:	3c01      	subs	r4, #1
  4027a0:	d339      	bcc.n	402816 <memset+0x8a>
  4027a2:	f803 2b01 	strb.w	r2, [r3], #1
  4027a6:	079d      	lsls	r5, r3, #30
  4027a8:	d1f9      	bne.n	40279e <memset+0x12>
  4027aa:	2c03      	cmp	r4, #3
  4027ac:	d92c      	bls.n	402808 <memset+0x7c>
  4027ae:	b2cd      	uxtb	r5, r1
  4027b0:	eb05 2505 	add.w	r5, r5, r5, lsl #8
  4027b4:	2c0f      	cmp	r4, #15
  4027b6:	eb05 4505 	add.w	r5, r5, r5, lsl #16
  4027ba:	d935      	bls.n	402828 <memset+0x9c>
  4027bc:	f1a4 0210 	sub.w	r2, r4, #16
  4027c0:	f022 0c0f 	bic.w	ip, r2, #15
  4027c4:	f103 0e10 	add.w	lr, r3, #16
  4027c8:	44e6      	add	lr, ip
  4027ca:	ea4f 1c12 	mov.w	ip, r2, lsr #4
  4027ce:	461a      	mov	r2, r3
  4027d0:	e9c2 5500 	strd	r5, r5, [r2]
  4027d4:	e9c2 5502 	strd	r5, r5, [r2, #8]
  4027d8:	3210      	adds	r2, #16
  4027da:	4572      	cmp	r2, lr
  4027dc:	d1f8      	bne.n	4027d0 <memset+0x44>
  4027de:	f10c 0201 	add.w	r2, ip, #1
  4027e2:	f014 0f0c 	tst.w	r4, #12
  4027e6:	eb03 1202 	add.w	r2, r3, r2, lsl #4
  4027ea:	f004 0c0f 	and.w	ip, r4, #15
  4027ee:	d013      	beq.n	402818 <memset+0x8c>
  4027f0:	f1ac 0304 	sub.w	r3, ip, #4
  4027f4:	f023 0303 	bic.w	r3, r3, #3
  4027f8:	3304      	adds	r3, #4
  4027fa:	4413      	add	r3, r2
  4027fc:	f842 5b04 	str.w	r5, [r2], #4
  402800:	4293      	cmp	r3, r2
  402802:	d1fb      	bne.n	4027fc <memset+0x70>
  402804:	f00c 0403 	and.w	r4, ip, #3
  402808:	b12c      	cbz	r4, 402816 <memset+0x8a>
  40280a:	b2c9      	uxtb	r1, r1
  40280c:	441c      	add	r4, r3
  40280e:	f803 1b01 	strb.w	r1, [r3], #1
  402812:	42a3      	cmp	r3, r4
  402814:	d1fb      	bne.n	40280e <memset+0x82>
  402816:	bd30      	pop	{r4, r5, pc}
  402818:	4664      	mov	r4, ip
  40281a:	4613      	mov	r3, r2
  40281c:	2c00      	cmp	r4, #0
  40281e:	d1f4      	bne.n	40280a <memset+0x7e>
  402820:	e7f9      	b.n	402816 <memset+0x8a>
  402822:	4603      	mov	r3, r0
  402824:	4614      	mov	r4, r2
  402826:	e7c0      	b.n	4027aa <memset+0x1e>
  402828:	461a      	mov	r2, r3
  40282a:	46a4      	mov	ip, r4
  40282c:	e7e0      	b.n	4027f0 <memset+0x64>
  40282e:	bf00      	nop

00402830 <memcpy>:
  402830:	4684      	mov	ip, r0
  402832:	ea41 0300 	orr.w	r3, r1, r0
  402836:	f013 0303 	ands.w	r3, r3, #3
  40283a:	d16d      	bne.n	402918 <memcpy+0xe8>
  40283c:	3a40      	subs	r2, #64	@ 0x40
  40283e:	d341      	bcc.n	4028c4 <memcpy+0x94>
  402840:	f851 3b04 	ldr.w	r3, [r1], #4
  402844:	f840 3b04 	str.w	r3, [r0], #4
  402848:	f851 3b04 	ldr.w	r3, [r1], #4
  40284c:	f840 3b04 	str.w	r3, [r0], #4
  402850:	f851 3b04 	ldr.w	r3, [r1], #4
  402854:	f840 3b04 	str.w	r3, [r0], #4
  402858:	f851 3b04 	ldr.w	r3, [r1], #4
  40285c:	f840 3b04 	str.w	r3, [r0], #4
  402860:	f851 3b04 	ldr.w	r3, [r1], #4
  402864:	f840 3b04 	str.w	r3, [r0], #4
  402868:	f851 3b04 	ldr.w	r3, [r1], #4
  40286c:	f840 3b04 	str.w	r3, [r0], #4
  402870:	f851 3b04 	ldr.w	r3, [r1], #4
  402874:	f840 3b04 	str.w	r3, [r0], #4
  402878:	f851 3b04 	ldr.w	r3, [r1], #4
  40287c:	f840 3b04 	str.w	r3, [r0], #4
  402880:	f851 3b04 	ldr.w	r3, [r1], #4
  402884:	f840 3b04 	str.w	r3, [r0], #4
  402888:	f851 3b04 	ldr.w	r3, [r1], #4
  40288c:	f840 3b04 	str.w	r3, [r0], #4
  402890:	f851 3b04 	ldr.w	r3, [r1], #4
  402894:	f840 3b04 	str.w	r3, [r0], #4
  402898:	f851 3b04 	ldr.w	r3, [r1], #4
  40289c:	f840 3b04 	str.w	r3, [r0], #4
  4028a0:	f851 3b04 	ldr.w	r3, [r1], #4
  4028a4:	f840 3b04 	str.w	r3, [r0], #4
  4028a8:	f851 3b04 	ldr.w	r3, [r1], #4
  4028ac:	f840 3b04 	str.w	r3, [r0], #4
  4028b0:	f851 3b04 	ldr.w	r3, [r1], #4
  4028b4:	f840 3b04 	str.w	r3, [r0], #4
  4028b8:	f851 3b04 	ldr.w	r3, [r1], #4
  4028bc:	f840 3b04 	str.w	r3, [r0], #4
  4028c0:	3a40      	subs	r2, #64	@ 0x40
  4028c2:	d2bd      	bcs.n	402840 <memcpy+0x10>
  4028c4:	3230      	adds	r2, #48	@ 0x30
  4028c6:	d311      	bcc.n	4028ec <memcpy+0xbc>
  4028c8:	f851 3b04 	ldr.w	r3, [r1], #4
  4028cc:	f840 3b04 	str.w	r3, [r0], #4
  4028d0:	f851 3b04 	ldr.w	r3, [r1], #4
  4028d4:	f840 3b04 	str.w	r3, [r0], #4
  4028d8:	f851 3b04 	ldr.w	r3, [r1], #4
  4028dc:	f840 3b04 	str.w	r3, [r0], #4
  4028e0:	f851 3b04 	ldr.w	r3, [r1], #4
  4028e4:	f840 3b04 	str.w	r3, [r0], #4
  4028e8:	3a10      	subs	r2, #16
  4028ea:	d2ed      	bcs.n	4028c8 <memcpy+0x98>
  4028ec:	320c      	adds	r2, #12
  4028ee:	d305      	bcc.n	4028fc <memcpy+0xcc>
  4028f0:	f851 3b04 	ldr.w	r3, [r1], #4
  4028f4:	f840 3b04 	str.w	r3, [r0], #4
  4028f8:	3a04      	subs	r2, #4
  4028fa:	d2f9      	bcs.n	4028f0 <memcpy+0xc0>
  4028fc:	3204      	adds	r2, #4
  4028fe:	d008      	beq.n	402912 <memcpy+0xe2>
  402900:	07d2      	lsls	r2, r2, #31
  402902:	bf1c      	itt	ne
  402904:	f811 3b01 	ldrbne.w	r3, [r1], #1
  402908:	f800 3b01 	strbne.w	r3, [r0], #1
  40290c:	d301      	bcc.n	402912 <memcpy+0xe2>
  40290e:	880b      	ldrh	r3, [r1, #0]
  402910:	8003      	strh	r3, [r0, #0]
  402912:	4660      	mov	r0, ip
  402914:	4770      	bx	lr
  402916:	bf00      	nop
  402918:	2a08      	cmp	r2, #8
  40291a:	d313      	bcc.n	402944 <memcpy+0x114>
  40291c:	078b      	lsls	r3, r1, #30
  40291e:	d08d      	beq.n	40283c <memcpy+0xc>
  402920:	f010 0303 	ands.w	r3, r0, #3
  402924:	d08a      	beq.n	40283c <memcpy+0xc>
  402926:	f1c3 0304 	rsb	r3, r3, #4
  40292a:	1ad2      	subs	r2, r2, r3
  40292c:	07db      	lsls	r3, r3, #31
  40292e:	bf1c      	itt	ne
  402930:	f811 3b01 	ldrbne.w	r3, [r1], #1
  402934:	f800 3b01 	strbne.w	r3, [r0], #1
  402938:	d380      	bcc.n	40283c <memcpy+0xc>
  40293a:	f831 3b02 	ldrh.w	r3, [r1], #2
  40293e:	f820 3b02 	strh.w	r3, [r0], #2
  402942:	e77b      	b.n	40283c <memcpy+0xc>
  402944:	3a04      	subs	r2, #4
  402946:	d3d9      	bcc.n	4028fc <memcpy+0xcc>
  402948:	3a01      	subs	r2, #1
  40294a:	f811 3b01 	ldrb.w	r3, [r1], #1
  40294e:	f800 3b01 	strb.w	r3, [r0], #1
  402952:	d2f9      	bcs.n	402948 <memcpy+0x118>
  402954:	780b      	ldrb	r3, [r1, #0]
  402956:	7003      	strb	r3, [r0, #0]
  402958:	784b      	ldrb	r3, [r1, #1]
  40295a:	7043      	strb	r3, [r0, #1]
  40295c:	788b      	ldrb	r3, [r1, #2]
  40295e:	7083      	strb	r3, [r0, #2]
  402960:	4660      	mov	r0, ip
  402962:	4770      	bx	lr

00402964 <malloc>:
  402964:	4b02      	ldr	r3, [pc, #8]	@ (402970 <malloc+0xc>)
  402966:	4601      	mov	r1, r0
  402968:	6818      	ldr	r0, [r3, #0]
  40296a:	f000 b841 	b.w	4029f0 <_malloc_r>
  40296e:	bf00      	nop
  402970:	20000004 	.word	0x20000004

00402974 <free>:
  402974:	4b02      	ldr	r3, [pc, #8]	@ (402980 <free+0xc>)
  402976:	4601      	mov	r1, r0
  402978:	6818      	ldr	r0, [r3, #0]
  40297a:	f000 b8b9 	b.w	402af0 <_free_r>
  40297e:	bf00      	nop
  402980:	20000004 	.word	0x20000004

00402984 <exit>:
  402984:	b508      	push	{r3, lr}
  402986:	4b06      	ldr	r3, [pc, #24]	@ (4029a0 <exit+0x1c>)
  402988:	4604      	mov	r4, r0
  40298a:	b113      	cbz	r3, 402992 <exit+0xe>
  40298c:	2100      	movs	r1, #0
  40298e:	f000 f923 	bl	402bd8 <__call_exitprocs>
  402992:	4b04      	ldr	r3, [pc, #16]	@ (4029a4 <exit+0x20>)
  402994:	681b      	ldr	r3, [r3, #0]
  402996:	b103      	cbz	r3, 40299a <exit+0x16>
  402998:	4798      	blx	r3
  40299a:	4620      	mov	r0, r4
  40299c:	f000 f98c 	bl	402cb8 <_exit>
  4029a0:	00402bd9 	.word	0x00402bd9
  4029a4:	20001094 	.word	0x20001094

004029a8 <sbrk_aligned>:
  4029a8:	b570      	push	{r4, r5, r6, lr}
  4029aa:	4e10      	ldr	r6, [pc, #64]	@ (4029ec <sbrk_aligned+0x44>)
  4029ac:	6833      	ldr	r3, [r6, #0]
  4029ae:	4605      	mov	r5, r0
  4029b0:	460c      	mov	r4, r1
  4029b2:	b1b3      	cbz	r3, 4029e2 <sbrk_aligned+0x3a>
  4029b4:	4621      	mov	r1, r4
  4029b6:	4628      	mov	r0, r5
  4029b8:	f000 f8fc 	bl	402bb4 <_sbrk_r>
  4029bc:	1c43      	adds	r3, r0, #1
  4029be:	d00c      	beq.n	4029da <sbrk_aligned+0x32>
  4029c0:	1cc4      	adds	r4, r0, #3
  4029c2:	f024 0403 	bic.w	r4, r4, #3
  4029c6:	42a0      	cmp	r0, r4
  4029c8:	d005      	beq.n	4029d6 <sbrk_aligned+0x2e>
  4029ca:	1a21      	subs	r1, r4, r0
  4029cc:	4628      	mov	r0, r5
  4029ce:	f000 f8f1 	bl	402bb4 <_sbrk_r>
  4029d2:	3001      	adds	r0, #1
  4029d4:	d001      	beq.n	4029da <sbrk_aligned+0x32>
  4029d6:	4620      	mov	r0, r4
  4029d8:	bd70      	pop	{r4, r5, r6, pc}
  4029da:	f04f 34ff 	mov.w	r4, #4294967295	@ 0xffffffff
  4029de:	4620      	mov	r0, r4
  4029e0:	bd70      	pop	{r4, r5, r6, pc}
  4029e2:	4619      	mov	r1, r3
  4029e4:	f000 f8e6 	bl	402bb4 <_sbrk_r>
  4029e8:	6030      	str	r0, [r6, #0]
  4029ea:	e7e3      	b.n	4029b4 <sbrk_aligned+0xc>
  4029ec:	20001098 	.word	0x20001098

004029f0 <_malloc_r>:
  4029f0:	e92d 43f8 	stmdb	sp!, {r3, r4, r5, r6, r7, r8, r9, lr}
  4029f4:	1ccd      	adds	r5, r1, #3
  4029f6:	f025 0503 	bic.w	r5, r5, #3
  4029fa:	3508      	adds	r5, #8
  4029fc:	2d0c      	cmp	r5, #12
  4029fe:	bf38      	it	cc
  402a00:	250c      	movcc	r5, #12
  402a02:	2d00      	cmp	r5, #0
  402a04:	4606      	mov	r6, r0
  402a06:	db18      	blt.n	402a3a <_malloc_r+0x4a>
  402a08:	42a9      	cmp	r1, r5
  402a0a:	d816      	bhi.n	402a3a <_malloc_r+0x4a>
  402a0c:	f8df 80dc 	ldr.w	r8, [pc, #220]	@ 402aec <_malloc_r+0xfc>
  402a10:	f000 f8cc 	bl	402bac <__malloc_lock>
  402a14:	f8d8 2004 	ldr.w	r2, [r8, #4]
  402a18:	b1a2      	cbz	r2, 402a44 <_malloc_r+0x54>
  402a1a:	4614      	mov	r4, r2
  402a1c:	e003      	b.n	402a26 <_malloc_r+0x36>
  402a1e:	6863      	ldr	r3, [r4, #4]
  402a20:	4622      	mov	r2, r4
  402a22:	b17b      	cbz	r3, 402a44 <_malloc_r+0x54>
  402a24:	461c      	mov	r4, r3
  402a26:	6823      	ldr	r3, [r4, #0]
  402a28:	1b5b      	subs	r3, r3, r5
  402a2a:	d4f8      	bmi.n	402a1e <_malloc_r+0x2e>
  402a2c:	2b0b      	cmp	r3, #11
  402a2e:	d81f      	bhi.n	402a70 <_malloc_r+0x80>
  402a30:	4294      	cmp	r4, r2
  402a32:	6863      	ldr	r3, [r4, #4]
  402a34:	d054      	beq.n	402ae0 <_malloc_r+0xf0>
  402a36:	6053      	str	r3, [r2, #4]
  402a38:	e00c      	b.n	402a54 <_malloc_r+0x64>
  402a3a:	230c      	movs	r3, #12
  402a3c:	6033      	str	r3, [r6, #0]
  402a3e:	2000      	movs	r0, #0
  402a40:	e8bd 83f8 	ldmia.w	sp!, {r3, r4, r5, r6, r7, r8, r9, pc}
  402a44:	4629      	mov	r1, r5
  402a46:	4630      	mov	r0, r6
  402a48:	f7ff ffae 	bl	4029a8 <sbrk_aligned>
  402a4c:	1c43      	adds	r3, r0, #1
  402a4e:	4604      	mov	r4, r0
  402a50:	d019      	beq.n	402a86 <_malloc_r+0x96>
  402a52:	6005      	str	r5, [r0, #0]
  402a54:	4630      	mov	r0, r6
  402a56:	f000 f8ab 	bl	402bb0 <__malloc_unlock>
  402a5a:	f104 000b 	add.w	r0, r4, #11
  402a5e:	1d23      	adds	r3, r4, #4
  402a60:	f020 0007 	bic.w	r0, r0, #7
  402a64:	1ac2      	subs	r2, r0, r3
  402a66:	bf1c      	itt	ne
  402a68:	1a1b      	subne	r3, r3, r0
  402a6a:	50a3      	strne	r3, [r4, r2]
  402a6c:	e8bd 83f8 	ldmia.w	sp!, {r3, r4, r5, r6, r7, r8, r9, pc}
  402a70:	1961      	adds	r1, r4, r5
  402a72:	4294      	cmp	r4, r2
  402a74:	6025      	str	r5, [r4, #0]
  402a76:	bf14      	ite	ne
  402a78:	6051      	strne	r1, [r2, #4]
  402a7a:	f8c8 1004 	streq.w	r1, [r8, #4]
  402a7e:	5163      	str	r3, [r4, r5]
  402a80:	6863      	ldr	r3, [r4, #4]
  402a82:	604b      	str	r3, [r1, #4]
  402a84:	e7e6      	b.n	402a54 <_malloc_r+0x64>
  402a86:	f8d8 7004 	ldr.w	r7, [r8, #4]
  402a8a:	b31f      	cbz	r7, 402ad4 <_malloc_r+0xe4>
  402a8c:	463c      	mov	r4, r7
  402a8e:	687f      	ldr	r7, [r7, #4]
  402a90:	2f00      	cmp	r7, #0
  402a92:	d1fb      	bne.n	402a8c <_malloc_r+0x9c>
  402a94:	6823      	ldr	r3, [r4, #0]
  402a96:	4639      	mov	r1, r7
  402a98:	4630      	mov	r0, r6
  402a9a:	eb04 0903 	add.w	r9, r4, r3
  402a9e:	f000 f889 	bl	402bb4 <_sbrk_r>
  402aa2:	4581      	cmp	r9, r0
  402aa4:	d116      	bne.n	402ad4 <_malloc_r+0xe4>
  402aa6:	6823      	ldr	r3, [r4, #0]
  402aa8:	1aed      	subs	r5, r5, r3
  402aaa:	4629      	mov	r1, r5
  402aac:	4630      	mov	r0, r6
  402aae:	f7ff ff7b 	bl	4029a8 <sbrk_aligned>
  402ab2:	3001      	adds	r0, #1
  402ab4:	d00e      	beq.n	402ad4 <_malloc_r+0xe4>
  402ab6:	6823      	ldr	r3, [r4, #0]
  402ab8:	f8d8 2004 	ldr.w	r2, [r8, #4]
  402abc:	442b      	add	r3, r5
  402abe:	6023      	str	r3, [r4, #0]
  402ac0:	6853      	ldr	r3, [r2, #4]
  402ac2:	b183      	cbz	r3, 402ae6 <_malloc_r+0xf6>
  402ac4:	42a3      	cmp	r3, r4
  402ac6:	d003      	beq.n	402ad0 <_malloc_r+0xe0>
  402ac8:	461a      	mov	r2, r3
  402aca:	685b      	ldr	r3, [r3, #4]
  402acc:	429c      	cmp	r4, r3
  402ace:	d1fb      	bne.n	402ac8 <_malloc_r+0xd8>
  402ad0:	2300      	movs	r3, #0
  402ad2:	e7b0      	b.n	402a36 <_malloc_r+0x46>
  402ad4:	230c      	movs	r3, #12
  402ad6:	6033      	str	r3, [r6, #0]
  402ad8:	4630      	mov	r0, r6
  402ada:	f000 f869 	bl	402bb0 <__malloc_unlock>
  402ade:	e7ae      	b.n	402a3e <_malloc_r+0x4e>
  402ae0:	f8c8 3004 	str.w	r3, [r8, #4]
  402ae4:	e7b6      	b.n	402a54 <_malloc_r+0x64>
  402ae6:	f8c8 7004 	str.w	r7, [r8, #4]
  402aea:	e7b3      	b.n	402a54 <_malloc_r+0x64>
  402aec:	20001098 	.word	0x20001098

00402af0 <_free_r>:
  402af0:	2900      	cmp	r1, #0
  402af2:	d050      	beq.n	402b96 <_free_r+0xa6>
  402af4:	b538      	push	{r3, r4, r5, lr}
  402af6:	f851 3c04 	ldr.w	r3, [r1, #-4]
  402afa:	1f0c      	subs	r4, r1, #4
  402afc:	2b00      	cmp	r3, #0
  402afe:	bfb8      	it	lt
  402b00:	18e4      	addlt	r4, r4, r3
  402b02:	4605      	mov	r5, r0
  402b04:	f000 f852 	bl	402bac <__malloc_lock>
  402b08:	4a27      	ldr	r2, [pc, #156]	@ (402ba8 <_free_r+0xb8>)
  402b0a:	6813      	ldr	r3, [r2, #0]
  402b0c:	b12b      	cbz	r3, 402b1a <_free_r+0x2a>
  402b0e:	42a3      	cmp	r3, r4
  402b10:	d90c      	bls.n	402b2c <_free_r+0x3c>
  402b12:	6821      	ldr	r1, [r4, #0]
  402b14:	1860      	adds	r0, r4, r1
  402b16:	4283      	cmp	r3, r0
  402b18:	d02c      	beq.n	402b74 <_free_r+0x84>
  402b1a:	6063      	str	r3, [r4, #4]
  402b1c:	4628      	mov	r0, r5
  402b1e:	6014      	str	r4, [r2, #0]
  402b20:	e8bd 4038 	ldmia.w	sp!, {r3, r4, r5, lr}
  402b24:	f000 b844 	b.w	402bb0 <__malloc_unlock>
  402b28:	42a3      	cmp	r3, r4
  402b2a:	d80f      	bhi.n	402b4c <_free_r+0x5c>
  402b2c:	461a      	mov	r2, r3
  402b2e:	685b      	ldr	r3, [r3, #4]
  402b30:	2b00      	cmp	r3, #0
  402b32:	d1f9      	bne.n	402b28 <_free_r+0x38>
  402b34:	6811      	ldr	r1, [r2, #0]
  402b36:	1850      	adds	r0, r2, r1
  402b38:	4284      	cmp	r4, r0
  402b3a:	d017      	beq.n	402b6c <_free_r+0x7c>
  402b3c:	d32c      	bcc.n	402b98 <_free_r+0xa8>
  402b3e:	6063      	str	r3, [r4, #4]
  402b40:	6054      	str	r4, [r2, #4]
  402b42:	4628      	mov	r0, r5
  402b44:	e8bd 4038 	ldmia.w	sp!, {r3, r4, r5, lr}
  402b48:	f000 b832 	b.w	402bb0 <__malloc_unlock>
  402b4c:	6811      	ldr	r1, [r2, #0]
  402b4e:	1850      	adds	r0, r2, r1
  402b50:	42a0      	cmp	r0, r4
  402b52:	d014      	beq.n	402b7e <_free_r+0x8e>
  402b54:	d820      	bhi.n	402b98 <_free_r+0xa8>
  402b56:	6821      	ldr	r1, [r4, #0]
  402b58:	1860      	adds	r0, r4, r1
  402b5a:	4283      	cmp	r3, r0
  402b5c:	d1ef      	bne.n	402b3e <_free_r+0x4e>
  402b5e:	6818      	ldr	r0, [r3, #0]
  402b60:	685b      	ldr	r3, [r3, #4]
  402b62:	4408      	add	r0, r1
  402b64:	e9c4 0300 	strd	r0, r3, [r4]
  402b68:	6054      	str	r4, [r2, #4]
  402b6a:	e7ea      	b.n	402b42 <_free_r+0x52>
  402b6c:	6823      	ldr	r3, [r4, #0]
  402b6e:	440b      	add	r3, r1
  402b70:	6013      	str	r3, [r2, #0]
  402b72:	e7e6      	b.n	402b42 <_free_r+0x52>
  402b74:	6818      	ldr	r0, [r3, #0]
  402b76:	685b      	ldr	r3, [r3, #4]
  402b78:	4408      	add	r0, r1
  402b7a:	6020      	str	r0, [r4, #0]
  402b7c:	e7cd      	b.n	402b1a <_free_r+0x2a>
  402b7e:	6820      	ldr	r0, [r4, #0]
  402b80:	4401      	add	r1, r0
  402b82:	1850      	adds	r0, r2, r1
  402b84:	4283      	cmp	r3, r0
  402b86:	6011      	str	r1, [r2, #0]
  402b88:	d1db      	bne.n	402b42 <_free_r+0x52>
  402b8a:	e9d3 0400 	ldrd	r0, r4, [r3]
  402b8e:	4401      	add	r1, r0
  402b90:	e9c2 1400 	strd	r1, r4, [r2]
  402b94:	e7d5      	b.n	402b42 <_free_r+0x52>
  402b96:	4770      	bx	lr
  402b98:	230c      	movs	r3, #12
  402b9a:	602b      	str	r3, [r5, #0]
  402b9c:	4628      	mov	r0, r5
  402b9e:	e8bd 4038 	ldmia.w	sp!, {r3, r4, r5, lr}
  402ba2:	f000 b805 	b.w	402bb0 <__malloc_unlock>
  402ba6:	bf00      	nop
  402ba8:	2000109c 	.word	0x2000109c

00402bac <__malloc_lock>:
  402bac:	4770      	bx	lr
  402bae:	bf00      	nop

00402bb0 <__malloc_unlock>:
  402bb0:	4770      	bx	lr
  402bb2:	bf00      	nop

00402bb4 <_sbrk_r>:
  402bb4:	b538      	push	{r3, r4, r5, lr}
  402bb6:	4d07      	ldr	r5, [pc, #28]	@ (402bd4 <_sbrk_r+0x20>)
  402bb8:	2200      	movs	r2, #0
  402bba:	4604      	mov	r4, r0
  402bbc:	4608      	mov	r0, r1
  402bbe:	602a      	str	r2, [r5, #0]
  402bc0:	f000 f86c 	bl	402c9c <_sbrk>
  402bc4:	1c43      	adds	r3, r0, #1
  402bc6:	d000      	beq.n	402bca <_sbrk_r+0x16>
  402bc8:	bd38      	pop	{r3, r4, r5, pc}
  402bca:	682b      	ldr	r3, [r5, #0]
  402bcc:	2b00      	cmp	r3, #0
  402bce:	d0fb      	beq.n	402bc8 <_sbrk_r+0x14>
  402bd0:	6023      	str	r3, [r4, #0]
  402bd2:	bd38      	pop	{r3, r4, r5, pc}
  402bd4:	200010a4 	.word	0x200010a4

00402bd8 <__call_exitprocs>:
  402bd8:	e92d 4ff0 	stmdb	sp!, {r4, r5, r6, r7, r8, r9, sl, fp, lr}
  402bdc:	f8df 90b8 	ldr.w	r9, [pc, #184]	@ 402c98 <__call_exitprocs+0xc0>
  402be0:	f8d9 6000 	ldr.w	r6, [r9]
  402be4:	b083      	sub	sp, #12
  402be6:	2e00      	cmp	r6, #0
  402be8:	d034      	beq.n	402c54 <__call_exitprocs+0x7c>
  402bea:	4688      	mov	r8, r1
  402bec:	9001      	str	r0, [sp, #4]
  402bee:	6875      	ldr	r5, [r6, #4]
  402bf0:	f8d6 7088 	ldr.w	r7, [r6, #136]	@ 0x88
  402bf4:	1e6c      	subs	r4, r5, #1
  402bf6:	d42d      	bmi.n	402c54 <__call_exitprocs+0x7c>
  402bf8:	3501      	adds	r5, #1
  402bfa:	eb06 0585 	add.w	r5, r6, r5, lsl #2
  402bfe:	f107 0b80 	add.w	fp, r7, #128	@ 0x80
  402c02:	f1b8 0f00 	cmp.w	r8, #0
  402c06:	d128      	bne.n	402c5a <__call_exitprocs+0x82>
  402c08:	6873      	ldr	r3, [r6, #4]
  402c0a:	682a      	ldr	r2, [r5, #0]
  402c0c:	3b01      	subs	r3, #1
  402c0e:	42a3      	cmp	r3, r4
  402c10:	bf16      	itet	ne
  402c12:	2300      	movne	r3, #0
  402c14:	6074      	streq	r4, [r6, #4]
  402c16:	602b      	strne	r3, [r5, #0]
  402c18:	b1ba      	cbz	r2, 402c4a <__call_exitprocs+0x72>
  402c1a:	f8d6 a004 	ldr.w	sl, [r6, #4]
  402c1e:	b36f      	cbz	r7, 402c7c <__call_exitprocs+0xa4>
  402c20:	f8d7 1100 	ldr.w	r1, [r7, #256]	@ 0x100
  402c24:	2301      	movs	r3, #1
  402c26:	40a3      	lsls	r3, r4
  402c28:	420b      	tst	r3, r1
  402c2a:	d027      	beq.n	402c7c <__call_exitprocs+0xa4>
  402c2c:	f8d7 0104 	ldr.w	r0, [r7, #260]	@ 0x104
  402c30:	f857 1024 	ldr.w	r1, [r7, r4, lsl #2]
  402c34:	4203      	tst	r3, r0
  402c36:	d12b      	bne.n	402c90 <__call_exitprocs+0xb8>
  402c38:	9801      	ldr	r0, [sp, #4]
  402c3a:	4790      	blx	r2
  402c3c:	6873      	ldr	r3, [r6, #4]
  402c3e:	f8d9 2000 	ldr.w	r2, [r9]
  402c42:	4553      	cmp	r3, sl
  402c44:	d120      	bne.n	402c88 <__call_exitprocs+0xb0>
  402c46:	42b2      	cmp	r2, r6
  402c48:	d11e      	bne.n	402c88 <__call_exitprocs+0xb0>
  402c4a:	3c01      	subs	r4, #1
  402c4c:	1c63      	adds	r3, r4, #1
  402c4e:	f1a5 0504 	sub.w	r5, r5, #4
  402c52:	d1d6      	bne.n	402c02 <__call_exitprocs+0x2a>
  402c54:	b003      	add	sp, #12
  402c56:	e8bd 8ff0 	ldmia.w	sp!, {r4, r5, r6, r7, r8, r9, sl, fp, pc}
  402c5a:	b157      	cbz	r7, 402c72 <__call_exitprocs+0x9a>
  402c5c:	f85b 3024 	ldr.w	r3, [fp, r4, lsl #2]
  402c60:	4543      	cmp	r3, r8
  402c62:	d0d1      	beq.n	402c08 <__call_exitprocs+0x30>
  402c64:	3c01      	subs	r4, #1
  402c66:	1c62      	adds	r2, r4, #1
  402c68:	f1a5 0504 	sub.w	r5, r5, #4
  402c6c:	d0f2      	beq.n	402c54 <__call_exitprocs+0x7c>
  402c6e:	2f00      	cmp	r7, #0
  402c70:	d1f4      	bne.n	402c5c <__call_exitprocs+0x84>
  402c72:	3c01      	subs	r4, #1
  402c74:	d3ee      	bcc.n	402c54 <__call_exitprocs+0x7c>
  402c76:	3c01      	subs	r4, #1
  402c78:	d2fb      	bcs.n	402c72 <__call_exitprocs+0x9a>
  402c7a:	e7eb      	b.n	402c54 <__call_exitprocs+0x7c>
  402c7c:	4790      	blx	r2
  402c7e:	6873      	ldr	r3, [r6, #4]
  402c80:	f8d9 2000 	ldr.w	r2, [r9]
  402c84:	4553      	cmp	r3, sl
  402c86:	d0de      	beq.n	402c46 <__call_exitprocs+0x6e>
  402c88:	2a00      	cmp	r2, #0
  402c8a:	d0e3      	beq.n	402c54 <__call_exitprocs+0x7c>
  402c8c:	4616      	mov	r6, r2
  402c8e:	e7ae      	b.n	402bee <__call_exitprocs+0x16>
  402c90:	4608      	mov	r0, r1
  402c92:	4790      	blx	r2
  402c94:	e7d2      	b.n	402c3c <__call_exitprocs+0x64>
  402c96:	bf00      	nop
  402c98:	200010a0 	.word	0x200010a0

00402c9c <_sbrk>:
  402c9c:	4a04      	ldr	r2, [pc, #16]	@ (402cb0 <_sbrk+0x14>)
  402c9e:	4905      	ldr	r1, [pc, #20]	@ (402cb4 <_sbrk+0x18>)
  402ca0:	6813      	ldr	r3, [r2, #0]
  402ca2:	2b00      	cmp	r3, #0
  402ca4:	bf08      	it	eq
  402ca6:	460b      	moveq	r3, r1
  402ca8:	4418      	add	r0, r3
  402caa:	6010      	str	r0, [r2, #0]
  402cac:	4618      	mov	r0, r3
  402cae:	4770      	bx	lr
  402cb0:	200010a8 	.word	0x200010a8
  402cb4:	200020b0 	.word	0x200020b0

00402cb8 <_exit>:
  402cb8:	e7fe      	b.n	402cb8 <_exit>
  402cba:	bf00      	nop

00402cbc <PQCLEAN_MLKEM512_CLEAN_zetas>:
  402cbc:	fbec fd0a fe99 fa13 05d5 058e 011f 00ca     ................
  402ccc:	ff55 026e 0629 00b6 03c2 fb4e fa3e 05bc     U.n.).....N.>...
  402cdc:	023d fad3 0108 017f fcc3 05b2 f9be ff7e     =.............~.
  402cec:	fd57 03f9 02dc 0260 f9fa 019b ff33 f9dd     W.....`.....3...
  402cfc:	04c7 028c fdd8 03f7 faf3 05d3 fee6 f9f8     ................
  402d0c:	0204 fff8 fec0 fd66 f9ae fb76 007e 05bd     ......f...v.~...
  402d1c:	fcab ffa6 fef1 033e 006b fa73 ff09 fc49     ......>.k.s...I.
  402d2c:	fe72 03c1 fa1c fd2b 01c0 fbd7 02a5 fb05     r.....+.........
  402d3c:	fbb1 01ae 022b 034b fb1d 0367 060e 0069     ....+.K...g...i.
  402d4c:	01a6 024b 00b1 ff15 fedd fe34 0626 0675     ..K.......4.&.u.
  402d5c:	ff0a 030a 0487 ff6d fcf7 05cb fda6 045f     ......m......._.
  402d6c:	f9ca 0284 fc98 015d 01a2 0149 ff64 ffb5     ......]...I.d...
  402d7c:	0331 0449 025b 0262 052a fafb fa47 0180     1.I.[.b.*...G...
  402d8c:	fb41 ff78 04c2 fac9 fc96 00dc fb5d f985     A.x.........]...
  402d9c:	fb5f fa06 fb02 031a fa1a fcaa fc9a 01de     _...............
  402dac:	ff94 fecc 03e4 03df 03be fa4c 05f2 065c     ..........L...\.
  402dbc:	0000 0000                                   ....

00402dc0 <KeccakF_RoundConstants>:
  402dc0:	0001 0000 0000 0000 8082 0000 0000 0000     ................
  402dd0:	808a 0000 0000 8000 8000 8000 0000 8000     ................
  402de0:	808b 0000 0000 0000 0001 8000 0000 0000     ................
  402df0:	8081 8000 0000 8000 8009 0000 0000 8000     ................
  402e00:	008a 0000 0000 0000 0088 0000 0000 0000     ................
  402e10:	8009 8000 0000 0000 000a 8000 0000 0000     ................
  402e20:	808b 8000 0000 0000 008b 0000 0000 8000     ................
  402e30:	8089 0000 0000 8000 8003 0000 0000 8000     ................
  402e40:	8002 0000 0000 8000 0080 0000 0000 8000     ................
  402e50:	800a 0000 0000 0000 000a 8000 0000 8000     ................
  402e60:	8081 8000 0000 8000 8080 0000 0000 8000     ................
  402e70:	0001 8000 0000 0000 8008 8000 0000 8000     ................

00402e80 <_init>:
  402e80:	b5f8      	push	{r3, r4, r5, r6, r7, lr}
  402e82:	bf00      	nop
  402e84:	bcf8      	pop	{r3, r4, r5, r6, r7}
  402e86:	bc08      	pop	{r3}
  402e88:	469e      	mov	lr, r3
  402e8a:	4770      	bx	lr

00402e8c <__frame_dummy_init_array_entry>:
  402e8c:	0135 0040                                   5.@.

00402e90 <_fini>:
  402e90:	b5f8      	push	{r3, r4, r5, r6, r7, lr}
  402e92:	bf00      	nop
  402e94:	bcf8      	pop	{r3, r4, r5, r6, r7}
  402e96:	bc08      	pop	{r3}
  402e98:	469e      	mov	lr, r3
  402e9a:	4770      	bx	lr

00402e9c <__do_global_dtors_aux_fini_array_entry>:
  402e9c:	010d 0040                                   ..@.
