   1              	 .cpu cortex-m4
   2              	 .arch armv7e-m
   3              	 .fpu softvfp
   4              	 .eabi_attribute 20,1
   5              	 .eabi_attribute 21,1
   6              	 .eabi_attribute 23,3
   7              	 .eabi_attribute 24,1
   8              	 .eabi_attribute 25,1
   9              	 .eabi_attribute 26,1
  10              	 .eabi_attribute 30,4
  11              	 .eabi_attribute 34,1
  12              	 .eabi_attribute 18,4
  13              	 .file "aes.c"
  14              	 .text
  15              	.Ltext0:
  16              	 .cfi_sections .debug_frame
  17              	 .file 1 ".././crypto/tiny-AES128-C/aes.c"
  18              	 .section .text.KeyExpansion,"ax",%progbits
  19              	 .align 1
  20              	 .syntax unified
  21              	 .thumb
  22              	 .thumb_func
  24              	KeyExpansion:
  25              	.LFB2:
   1:.././crypto/tiny-AES128-C/aes.c **** /* This AES-128 comes from https://github.com/kokke/tiny-AES128-C which is released into public dom
   2:.././crypto/tiny-AES128-C/aes.c **** 
   3:.././crypto/tiny-AES128-C/aes.c **** /*
   4:.././crypto/tiny-AES128-C/aes.c **** 
   5:.././crypto/tiny-AES128-C/aes.c **** This is an implementation of the AES128 algorithm, specifically ECB and CBC mode.
   6:.././crypto/tiny-AES128-C/aes.c **** 
   7:.././crypto/tiny-AES128-C/aes.c **** The implementation is verified against the test vectors in:
   8:.././crypto/tiny-AES128-C/aes.c ****   National Institute of Standards and Technology Special Publication 800-38A 2001 ED
   9:.././crypto/tiny-AES128-C/aes.c **** 
  10:.././crypto/tiny-AES128-C/aes.c **** ECB-AES128
  11:.././crypto/tiny-AES128-C/aes.c **** ----------
  12:.././crypto/tiny-AES128-C/aes.c **** 
  13:.././crypto/tiny-AES128-C/aes.c ****   plain-text:
  14:.././crypto/tiny-AES128-C/aes.c ****     6bc1bee22e409f96e93d7e117393172a
  15:.././crypto/tiny-AES128-C/aes.c ****     ae2d8a571e03ac9c9eb76fac45af8e51
  16:.././crypto/tiny-AES128-C/aes.c ****     30c81c46a35ce411e5fbc1191a0a52ef
  17:.././crypto/tiny-AES128-C/aes.c ****     f69f2445df4f9b17ad2b417be66c3710
  18:.././crypto/tiny-AES128-C/aes.c **** 
  19:.././crypto/tiny-AES128-C/aes.c ****   key:
  20:.././crypto/tiny-AES128-C/aes.c ****     2b7e151628aed2a6abf7158809cf4f3c
  21:.././crypto/tiny-AES128-C/aes.c **** 
  22:.././crypto/tiny-AES128-C/aes.c ****   resulting cipher
  23:.././crypto/tiny-AES128-C/aes.c ****     3ad77bb40d7a3660a89ecaf32466ef97 
  24:.././crypto/tiny-AES128-C/aes.c ****     f5d3d58503b9699de785895a96fdbaaf 
  25:.././crypto/tiny-AES128-C/aes.c ****     43b1cd7f598ece23881b00e3ed030688 
  26:.././crypto/tiny-AES128-C/aes.c ****     7b0c785e27e8ad3f8223207104725dd4 
  27:.././crypto/tiny-AES128-C/aes.c **** 
  28:.././crypto/tiny-AES128-C/aes.c **** 
  29:.././crypto/tiny-AES128-C/aes.c **** NOTE:   String length must be evenly divisible by 16byte (str_len % 16 == 0)
  30:.././crypto/tiny-AES128-C/aes.c ****         You should pad the end of the string with zeros if this is not the case.
  31:.././crypto/tiny-AES128-C/aes.c **** 
  32:.././crypto/tiny-AES128-C/aes.c **** */
  33:.././crypto/tiny-AES128-C/aes.c **** 
  34:.././crypto/tiny-AES128-C/aes.c **** 
  35:.././crypto/tiny-AES128-C/aes.c **** /*****************************************************************************/
  36:.././crypto/tiny-AES128-C/aes.c **** /* Includes:                                                                 */
  37:.././crypto/tiny-AES128-C/aes.c **** /*****************************************************************************/
  38:.././crypto/tiny-AES128-C/aes.c **** #include <stdint.h>
  39:.././crypto/tiny-AES128-C/aes.c **** #include <string.h> // CBC mode, for memset
  40:.././crypto/tiny-AES128-C/aes.c **** #include "aes.h"
  41:.././crypto/tiny-AES128-C/aes.c **** 
  42:.././crypto/tiny-AES128-C/aes.c **** 
  43:.././crypto/tiny-AES128-C/aes.c **** /*****************************************************************************/
  44:.././crypto/tiny-AES128-C/aes.c **** /* Defines:                                                                  */
  45:.././crypto/tiny-AES128-C/aes.c **** /*****************************************************************************/
  46:.././crypto/tiny-AES128-C/aes.c **** // The number of columns comprising a state in AES. This is a constant in AES. Value=4
  47:.././crypto/tiny-AES128-C/aes.c **** #define Nb 4
  48:.././crypto/tiny-AES128-C/aes.c **** // The number of 32 bit words in a key.
  49:.././crypto/tiny-AES128-C/aes.c **** #define Nk 4
  50:.././crypto/tiny-AES128-C/aes.c **** // Key length in bytes [128 bit]
  51:.././crypto/tiny-AES128-C/aes.c **** #define KEYLEN 16
  52:.././crypto/tiny-AES128-C/aes.c **** // The number of rounds in AES Cipher.
  53:.././crypto/tiny-AES128-C/aes.c **** #define Nr 10
  54:.././crypto/tiny-AES128-C/aes.c **** 
  55:.././crypto/tiny-AES128-C/aes.c **** // jcallan@github points out that declaring Multiply as a function 
  56:.././crypto/tiny-AES128-C/aes.c **** // reduces code size considerably with the Keil ARM compiler.
  57:.././crypto/tiny-AES128-C/aes.c **** // See this link for more information: https://github.com/kokke/tiny-AES128-C/pull/3
  58:.././crypto/tiny-AES128-C/aes.c **** #ifndef MULTIPLY_AS_A_FUNCTION
  59:.././crypto/tiny-AES128-C/aes.c ****   #define MULTIPLY_AS_A_FUNCTION 0
  60:.././crypto/tiny-AES128-C/aes.c **** #endif
  61:.././crypto/tiny-AES128-C/aes.c **** 
  62:.././crypto/tiny-AES128-C/aes.c **** 
  63:.././crypto/tiny-AES128-C/aes.c **** /*****************************************************************************/
  64:.././crypto/tiny-AES128-C/aes.c **** /* Private variables:                                                        */
  65:.././crypto/tiny-AES128-C/aes.c **** /*****************************************************************************/
  66:.././crypto/tiny-AES128-C/aes.c **** // state - array holding the intermediate results during decryption.
  67:.././crypto/tiny-AES128-C/aes.c **** typedef uint8_t state_t[4][4];
  68:.././crypto/tiny-AES128-C/aes.c **** static state_t* state;
  69:.././crypto/tiny-AES128-C/aes.c **** 
  70:.././crypto/tiny-AES128-C/aes.c **** // The array that stores the round keys.
  71:.././crypto/tiny-AES128-C/aes.c **** static uint8_t RoundKey[176];
  72:.././crypto/tiny-AES128-C/aes.c **** 
  73:.././crypto/tiny-AES128-C/aes.c **** static uint8_t input_save[16];
  74:.././crypto/tiny-AES128-C/aes.c **** 
  75:.././crypto/tiny-AES128-C/aes.c **** // The Key input to the AES Program
  76:.././crypto/tiny-AES128-C/aes.c **** static uint8_t* Key;
  77:.././crypto/tiny-AES128-C/aes.c **** 
  78:.././crypto/tiny-AES128-C/aes.c **** // The lookup-tables are marked const so they can be placed in read-only storage instead of RAM
  79:.././crypto/tiny-AES128-C/aes.c **** // The numbers below can be computed dynamically trading ROM for RAM - 
  80:.././crypto/tiny-AES128-C/aes.c **** // This can be useful in (embedded) bootloader applications, where ROM is often limited.
  81:.././crypto/tiny-AES128-C/aes.c **** AES_CONST_VAR uint8_t sbox[256] =   {
  82:.././crypto/tiny-AES128-C/aes.c ****   //0     1    2      3     4    5     6     7      8    9     A      B    C     D     E     F
  83:.././crypto/tiny-AES128-C/aes.c ****   0x63, 0x7c, 0x77, 0x7b, 0xf2, 0x6b, 0x6f, 0xc5, 0x30, 0x01, 0x67, 0x2b, 0xfe, 0xd7, 0xab, 0x76,
  84:.././crypto/tiny-AES128-C/aes.c ****   0xca, 0x82, 0xc9, 0x7d, 0xfa, 0x59, 0x47, 0xf0, 0xad, 0xd4, 0xa2, 0xaf, 0x9c, 0xa4, 0x72, 0xc0,
  85:.././crypto/tiny-AES128-C/aes.c ****   0xb7, 0xfd, 0x93, 0x26, 0x36, 0x3f, 0xf7, 0xcc, 0x34, 0xa5, 0xe5, 0xf1, 0x71, 0xd8, 0x31, 0x15,
  86:.././crypto/tiny-AES128-C/aes.c ****   0x04, 0xc7, 0x23, 0xc3, 0x18, 0x96, 0x05, 0x9a, 0x07, 0x12, 0x80, 0xe2, 0xeb, 0x27, 0xb2, 0x75,
  87:.././crypto/tiny-AES128-C/aes.c ****   0x09, 0x83, 0x2c, 0x1a, 0x1b, 0x6e, 0x5a, 0xa0, 0x52, 0x3b, 0xd6, 0xb3, 0x29, 0xe3, 0x2f, 0x84,
  88:.././crypto/tiny-AES128-C/aes.c ****   0x53, 0xd1, 0x00, 0xed, 0x20, 0xfc, 0xb1, 0x5b, 0x6a, 0xcb, 0xbe, 0x39, 0x4a, 0x4c, 0x58, 0xcf,
  89:.././crypto/tiny-AES128-C/aes.c ****   0xd0, 0xef, 0xaa, 0xfb, 0x43, 0x4d, 0x33, 0x85, 0x45, 0xf9, 0x02, 0x7f, 0x50, 0x3c, 0x9f, 0xa8,
  90:.././crypto/tiny-AES128-C/aes.c ****   0x51, 0xa3, 0x40, 0x8f, 0x92, 0x9d, 0x38, 0xf5, 0xbc, 0xb6, 0xda, 0x21, 0x10, 0xff, 0xf3, 0xd2,
  91:.././crypto/tiny-AES128-C/aes.c ****   0xcd, 0x0c, 0x13, 0xec, 0x5f, 0x97, 0x44, 0x17, 0xc4, 0xa7, 0x7e, 0x3d, 0x64, 0x5d, 0x19, 0x73,
  92:.././crypto/tiny-AES128-C/aes.c ****   0x60, 0x81, 0x4f, 0xdc, 0x22, 0x2a, 0x90, 0x88, 0x46, 0xee, 0xb8, 0x14, 0xde, 0x5e, 0x0b, 0xdb,
  93:.././crypto/tiny-AES128-C/aes.c ****   0xe0, 0x32, 0x3a, 0x0a, 0x49, 0x06, 0x24, 0x5c, 0xc2, 0xd3, 0xac, 0x62, 0x91, 0x95, 0xe4, 0x79,
  94:.././crypto/tiny-AES128-C/aes.c ****   0xe7, 0xc8, 0x37, 0x6d, 0x8d, 0xd5, 0x4e, 0xa9, 0x6c, 0x56, 0xf4, 0xea, 0x65, 0x7a, 0xae, 0x08,
  95:.././crypto/tiny-AES128-C/aes.c ****   0xba, 0x78, 0x25, 0x2e, 0x1c, 0xa6, 0xb4, 0xc6, 0xe8, 0xdd, 0x74, 0x1f, 0x4b, 0xbd, 0x8b, 0x8a,
  96:.././crypto/tiny-AES128-C/aes.c ****   0x70, 0x3e, 0xb5, 0x66, 0x48, 0x03, 0xf6, 0x0e, 0x61, 0x35, 0x57, 0xb9, 0x86, 0xc1, 0x1d, 0x9e,
  97:.././crypto/tiny-AES128-C/aes.c ****   0xe1, 0xf8, 0x98, 0x11, 0x69, 0xd9, 0x8e, 0x94, 0x9b, 0x1e, 0x87, 0xe9, 0xce, 0x55, 0x28, 0xdf,
  98:.././crypto/tiny-AES128-C/aes.c ****   0x8c, 0xa1, 0x89, 0x0d, 0xbf, 0xe6, 0x42, 0x68, 0x41, 0x99, 0x2d, 0x0f, 0xb0, 0x54, 0xbb, 0x16 };
  99:.././crypto/tiny-AES128-C/aes.c **** 
 100:.././crypto/tiny-AES128-C/aes.c **** AES_CONST_VAR uint8_t rsbox[256] =
 101:.././crypto/tiny-AES128-C/aes.c **** { 0x52, 0x09, 0x6a, 0xd5, 0x30, 0x36, 0xa5, 0x38, 0xbf, 0x40, 0xa3, 0x9e, 0x81, 0xf3, 0xd7, 0xfb,
 102:.././crypto/tiny-AES128-C/aes.c ****   0x7c, 0xe3, 0x39, 0x82, 0x9b, 0x2f, 0xff, 0x87, 0x34, 0x8e, 0x43, 0x44, 0xc4, 0xde, 0xe9, 0xcb,
 103:.././crypto/tiny-AES128-C/aes.c ****   0x54, 0x7b, 0x94, 0x32, 0xa6, 0xc2, 0x23, 0x3d, 0xee, 0x4c, 0x95, 0x0b, 0x42, 0xfa, 0xc3, 0x4e,
 104:.././crypto/tiny-AES128-C/aes.c ****   0x08, 0x2e, 0xa1, 0x66, 0x28, 0xd9, 0x24, 0xb2, 0x76, 0x5b, 0xa2, 0x49, 0x6d, 0x8b, 0xd1, 0x25,
 105:.././crypto/tiny-AES128-C/aes.c ****   0x72, 0xf8, 0xf6, 0x64, 0x86, 0x68, 0x98, 0x16, 0xd4, 0xa4, 0x5c, 0xcc, 0x5d, 0x65, 0xb6, 0x92,
 106:.././crypto/tiny-AES128-C/aes.c ****   0x6c, 0x70, 0x48, 0x50, 0xfd, 0xed, 0xb9, 0xda, 0x5e, 0x15, 0x46, 0x57, 0xa7, 0x8d, 0x9d, 0x84,
 107:.././crypto/tiny-AES128-C/aes.c ****   0x90, 0xd8, 0xab, 0x00, 0x8c, 0xbc, 0xd3, 0x0a, 0xf7, 0xe4, 0x58, 0x05, 0xb8, 0xb3, 0x45, 0x06,
 108:.././crypto/tiny-AES128-C/aes.c ****   0xd0, 0x2c, 0x1e, 0x8f, 0xca, 0x3f, 0x0f, 0x02, 0xc1, 0xaf, 0xbd, 0x03, 0x01, 0x13, 0x8a, 0x6b,
 109:.././crypto/tiny-AES128-C/aes.c ****   0x3a, 0x91, 0x11, 0x41, 0x4f, 0x67, 0xdc, 0xea, 0x97, 0xf2, 0xcf, 0xce, 0xf0, 0xb4, 0xe6, 0x73,
 110:.././crypto/tiny-AES128-C/aes.c ****   0x96, 0xac, 0x74, 0x22, 0xe7, 0xad, 0x35, 0x85, 0xe2, 0xf9, 0x37, 0xe8, 0x1c, 0x75, 0xdf, 0x6e,
 111:.././crypto/tiny-AES128-C/aes.c ****   0x47, 0xf1, 0x1a, 0x71, 0x1d, 0x29, 0xc5, 0x89, 0x6f, 0xb7, 0x62, 0x0e, 0xaa, 0x18, 0xbe, 0x1b,
 112:.././crypto/tiny-AES128-C/aes.c ****   0xfc, 0x56, 0x3e, 0x4b, 0xc6, 0xd2, 0x79, 0x20, 0x9a, 0xdb, 0xc0, 0xfe, 0x78, 0xcd, 0x5a, 0xf4,
 113:.././crypto/tiny-AES128-C/aes.c ****   0x1f, 0xdd, 0xa8, 0x33, 0x88, 0x07, 0xc7, 0x31, 0xb1, 0x12, 0x10, 0x59, 0x27, 0x80, 0xec, 0x5f,
 114:.././crypto/tiny-AES128-C/aes.c ****   0x60, 0x51, 0x7f, 0xa9, 0x19, 0xb5, 0x4a, 0x0d, 0x2d, 0xe5, 0x7a, 0x9f, 0x93, 0xc9, 0x9c, 0xef,
 115:.././crypto/tiny-AES128-C/aes.c ****   0xa0, 0xe0, 0x3b, 0x4d, 0xae, 0x2a, 0xf5, 0xb0, 0xc8, 0xeb, 0xbb, 0x3c, 0x83, 0x53, 0x99, 0x61,
 116:.././crypto/tiny-AES128-C/aes.c ****   0x17, 0x2b, 0x04, 0x7e, 0xba, 0x77, 0xd6, 0x26, 0xe1, 0x69, 0x14, 0x63, 0x55, 0x21, 0x0c, 0x7d };
 117:.././crypto/tiny-AES128-C/aes.c **** 
 118:.././crypto/tiny-AES128-C/aes.c **** 
 119:.././crypto/tiny-AES128-C/aes.c **** // The round constant word array, Rcon[i], contains the values given by 
 120:.././crypto/tiny-AES128-C/aes.c **** // x to th e power (i-1) being powers of x (x is denoted as {02}) in the field GF(2^8)
 121:.././crypto/tiny-AES128-C/aes.c **** // Note that i starts at 1, not 0).
 122:.././crypto/tiny-AES128-C/aes.c **** AES_CONST_VAR uint8_t Rcon[11] = {
 123:.././crypto/tiny-AES128-C/aes.c ****   0x8d, 0x01, 0x02, 0x04, 0x08, 0x10, 0x20, 0x40, 0x80, 0x1b, 0x36
 124:.././crypto/tiny-AES128-C/aes.c **** };
 125:.././crypto/tiny-AES128-C/aes.c **** 
 126:.././crypto/tiny-AES128-C/aes.c **** 
 127:.././crypto/tiny-AES128-C/aes.c **** /*****************************************************************************/
 128:.././crypto/tiny-AES128-C/aes.c **** /* Private functions:                                                        */
 129:.././crypto/tiny-AES128-C/aes.c **** /*****************************************************************************/
 130:.././crypto/tiny-AES128-C/aes.c **** static uint8_t getSBoxValue(uint8_t num)
 131:.././crypto/tiny-AES128-C/aes.c **** {
 132:.././crypto/tiny-AES128-C/aes.c ****   return sbox[num];
 133:.././crypto/tiny-AES128-C/aes.c **** }
 134:.././crypto/tiny-AES128-C/aes.c **** 
 135:.././crypto/tiny-AES128-C/aes.c **** static uint8_t getSBoxInvert(uint8_t num)
 136:.././crypto/tiny-AES128-C/aes.c **** {
 137:.././crypto/tiny-AES128-C/aes.c ****   return rsbox[num];
 138:.././crypto/tiny-AES128-C/aes.c **** }
 139:.././crypto/tiny-AES128-C/aes.c **** 
 140:.././crypto/tiny-AES128-C/aes.c **** // This function produces Nb(Nr+1) round keys. The round keys are used in each round to decrypt the
 141:.././crypto/tiny-AES128-C/aes.c **** static void KeyExpansion(void)
 142:.././crypto/tiny-AES128-C/aes.c **** {
  26              	 .loc 1 142 1 view-0
  27              	 .cfi_startproc
  28              	 
  29              	 
 143:.././crypto/tiny-AES128-C/aes.c ****   uint32_t i, j, k;
  30              	 .loc 1 143 3 view .LVU1
 144:.././crypto/tiny-AES128-C/aes.c ****   uint8_t tempa[4]; // Used for the column/row operations
  31              	 .loc 1 144 3 view .LVU2
 145:.././crypto/tiny-AES128-C/aes.c ****   
 146:.././crypto/tiny-AES128-C/aes.c ****   // The first round key is the key itself.
 147:.././crypto/tiny-AES128-C/aes.c ****   for(i = 0; i < Nk; ++i)
  32              	 .loc 1 147 3 view .LVU3
  33              	.LVL0:
  34              	 .loc 1 147 16 discriminator 1 view .LVU4
 142:.././crypto/tiny-AES128-C/aes.c ****   uint32_t i, j, k;
  35              	 .loc 1 142 1 is_stmt 0 view .LVU5
  36 0000 73B5     	 push {r0,r1,r4,r5,r6,lr}
  37              	.LCFI0:
  38              	 .cfi_def_cfa_offset 24
  39              	 .cfi_offset 4,-16
  40              	 .cfi_offset 5,-12
  41              	 .cfi_offset 6,-8
  42              	 .cfi_offset 14,-4
 148:.././crypto/tiny-AES128-C/aes.c ****   {
 149:.././crypto/tiny-AES128-C/aes.c ****     RoundKey[(i * 4) + 0] = Key[(i * 4) + 0];
  43              	 .loc 1 149 32 view .LVU6
  44 0002 274B     	 ldr r3,.L9
  45 0004 274A     	 ldr r2,.L9+4
  46 0006 1B68     	 ldr r3,[r3]
  47 0008 03F11001 	 add r1,r3,#16
  48              	.LVL1:
  49              	.L2:
  50              	 .loc 1 149 5 is_stmt 1 view .LVU7
  51              	 .loc 1 149 32 is_stmt 0 view .LVU8
  52 000c 1878     	 ldrb r0,[r3]
  53              	 .loc 1 149 27 view .LVU9
  54 000e 1070     	 strb r0,[r2]
 150:.././crypto/tiny-AES128-C/aes.c ****     RoundKey[(i * 4) + 1] = Key[(i * 4) + 1];
  55              	 .loc 1 150 5 is_stmt 1 view .LVU10
  56              	 .loc 1 150 32 is_stmt 0 view .LVU11
  57 0010 5878     	 ldrb r0,[r3,#1]
  58              	 .loc 1 150 27 view .LVU12
  59 0012 5070     	 strb r0,[r2,#1]
 151:.././crypto/tiny-AES128-C/aes.c ****     RoundKey[(i * 4) + 2] = Key[(i * 4) + 2];
  60              	 .loc 1 151 5 is_stmt 1 view .LVU13
  61              	 .loc 1 151 32 is_stmt 0 view .LVU14
  62 0014 9878     	 ldrb r0,[r3,#2]
  63              	 .loc 1 151 27 view .LVU15
  64 0016 9070     	 strb r0,[r2,#2]
 152:.././crypto/tiny-AES128-C/aes.c ****     RoundKey[(i * 4) + 3] = Key[(i * 4) + 3];
  65              	 .loc 1 152 5 is_stmt 1 view .LVU16
  66              	 .loc 1 152 32 is_stmt 0 view .LVU17
  67 0018 D878     	 ldrb r0,[r3,#3]
  68              	 .loc 1 152 27 view .LVU18
  69 001a D070     	 strb r0,[r2,#3]
 147:.././crypto/tiny-AES128-C/aes.c ****   {
  70              	 .loc 1 147 22 is_stmt 1 discriminator 3 view .LVU19
 147:.././crypto/tiny-AES128-C/aes.c ****   {
  71              	 .loc 1 147 16 discriminator 1 view .LVU20
  72 001c 0433     	 adds r3,r3,#4
  73 001e 8B42     	 cmp r3,r1
  74 0020 02F10402 	 add r2,r2,#4
  75 0024 F2D1     	 bne .L2
  76 0026 204B     	 ldr r3,.L9+8
  77              	.LBB14:
  78              	.LBB15:
 132:.././crypto/tiny-AES128-C/aes.c **** }
  79              	 .loc 1 132 14 is_stmt 0 view .LVU21
  80 0028 2048     	 ldr r0,.L9+12
  81              	.LBE15:
  82              	.LBE14:
 153:.././crypto/tiny-AES128-C/aes.c ****   }
 154:.././crypto/tiny-AES128-C/aes.c **** 
 155:.././crypto/tiny-AES128-C/aes.c ****   // All other round keys are found from the previous round keys.
 156:.././crypto/tiny-AES128-C/aes.c ****   for(; (i < (Nb * (Nr + 1))); ++i)
 157:.././crypto/tiny-AES128-C/aes.c ****   {
 158:.././crypto/tiny-AES128-C/aes.c ****     for(j = 0; j < 4; ++j)
 159:.././crypto/tiny-AES128-C/aes.c ****     {
 160:.././crypto/tiny-AES128-C/aes.c ****       tempa[j]=RoundKey[(i-1) * 4 + j];
 161:.././crypto/tiny-AES128-C/aes.c ****     }
 162:.././crypto/tiny-AES128-C/aes.c ****     if (i % Nk == 0)
 163:.././crypto/tiny-AES128-C/aes.c ****     {
 164:.././crypto/tiny-AES128-C/aes.c ****       // This function rotates the 4 bytes in a word to the left once.
 165:.././crypto/tiny-AES128-C/aes.c ****       // [a0,a1,a2,a3] becomes [a1,a2,a3,a0]
 166:.././crypto/tiny-AES128-C/aes.c **** 
 167:.././crypto/tiny-AES128-C/aes.c ****       // Function RotWord()
 168:.././crypto/tiny-AES128-C/aes.c ****       {
 169:.././crypto/tiny-AES128-C/aes.c ****         k = tempa[0];
 170:.././crypto/tiny-AES128-C/aes.c ****         tempa[0] = tempa[1];
 171:.././crypto/tiny-AES128-C/aes.c ****         tempa[1] = tempa[2];
 172:.././crypto/tiny-AES128-C/aes.c ****         tempa[2] = tempa[3];
 173:.././crypto/tiny-AES128-C/aes.c ****         tempa[3] = k;
 174:.././crypto/tiny-AES128-C/aes.c ****       }
 175:.././crypto/tiny-AES128-C/aes.c **** 
 176:.././crypto/tiny-AES128-C/aes.c ****       // SubWord() is a function that takes a four-byte input word and 
 177:.././crypto/tiny-AES128-C/aes.c ****       // applies the S-box to each of the four bytes to produce an output word.
 178:.././crypto/tiny-AES128-C/aes.c **** 
 179:.././crypto/tiny-AES128-C/aes.c ****       // Function Subword()
 180:.././crypto/tiny-AES128-C/aes.c ****       {
 181:.././crypto/tiny-AES128-C/aes.c ****         tempa[0] = getSBoxValue(tempa[0]);
 182:.././crypto/tiny-AES128-C/aes.c ****         tempa[1] = getSBoxValue(tempa[1]);
 183:.././crypto/tiny-AES128-C/aes.c ****         tempa[2] = getSBoxValue(tempa[2]);
 184:.././crypto/tiny-AES128-C/aes.c ****         tempa[3] = getSBoxValue(tempa[3]);
 185:.././crypto/tiny-AES128-C/aes.c ****       }
 186:.././crypto/tiny-AES128-C/aes.c **** 
 187:.././crypto/tiny-AES128-C/aes.c ****       tempa[0] =  tempa[0] ^ Rcon[i/Nk];
  83              	 .loc 1 187 34 view .LVU22
  84 002a 214C     	 ldr r4,.L9+16
 147:.././crypto/tiny-AES128-C/aes.c ****   {
  85              	 .loc 1 147 16 discriminator 1 view .LVU23
  86 002c 0421     	 movs r1,#4
  87              	.L3:
  88              	.LVL2:
 158:.././crypto/tiny-AES128-C/aes.c ****     {
  89              	 .loc 1 158 18 is_stmt 1 discriminator 1 view .LVU24
 160:.././crypto/tiny-AES128-C/aes.c ****     }
  90              	 .loc 1 160 15 is_stmt 0 view .LVU25
  91 002e 1A68     	 ldr r2,[r3]
  92 0030 0192     	 str r2,[sp,#4]
  93              	.LVL3:
 162:.././crypto/tiny-AES128-C/aes.c ****     {
  94              	 .loc 1 162 5 is_stmt 1 view .LVU26
 162:.././crypto/tiny-AES128-C/aes.c ****     {
  95              	 .loc 1 162 8 is_stmt 0 view .LVU27
  96 0032 8D07     	 lsls r5,r1,#30
  97 0034 14D1     	 bne .L6
 169:.././crypto/tiny-AES128-C/aes.c ****         tempa[0] = tempa[1];
  98              	 .loc 1 169 9 is_stmt 1 view .LVU28
  99              	.LVL4:
 170:.././crypto/tiny-AES128-C/aes.c ****         tempa[1] = tempa[2];
 100              	 .loc 1 170 9 view .LVU29
 171:.././crypto/tiny-AES128-C/aes.c ****         tempa[2] = tempa[3];
 101              	 .loc 1 171 9 view .LVU30
 172:.././crypto/tiny-AES128-C/aes.c ****         tempa[3] = k;
 102              	 .loc 1 172 9 view .LVU31
 173:.././crypto/tiny-AES128-C/aes.c ****       }
 103              	 .loc 1 173 9 view .LVU32
 181:.././crypto/tiny-AES128-C/aes.c ****         tempa[1] = getSBoxValue(tempa[1]);
 104              	 .loc 1 181 9 view .LVU33
 105              	.LBB19:
 106              	.LBI14:
 130:.././crypto/tiny-AES128-C/aes.c **** {
 107              	 .loc 1 130 16 view .LVU34
 108              	.LBB16:
 132:.././crypto/tiny-AES128-C/aes.c **** }
 109              	 .loc 1 132 3 view .LVU35
 110              	.LBE16:
 111              	.LBE19:
 112              	.LBB20:
 113              	.LBB21:
 132:.././crypto/tiny-AES128-C/aes.c **** }
 114              	 .loc 1 132 14 is_stmt 0 view .LVU36
 115 0036 C2F30746 	 ubfx r6,r2,#16,#8
 116              	.LBE21:
 117              	.LBE20:
 118              	.LBB23:
 119              	.LBB17:
 120 003a C2F30725 	 ubfx r5,r2,#8,#8
 121              	.LBE17:
 122              	.LBE23:
 182:.././crypto/tiny-AES128-C/aes.c ****         tempa[2] = getSBoxValue(tempa[2]);
 123              	 .loc 1 182 18 discriminator 1 view .LVU37
 124 003e 865D     	 ldrb r6,[r0,r6]
 125 0040 8DF80560 	 strb r6,[sp,#5]
 126              	.LVL5:
 127              	.LBB24:
 128              	.LBB25:
 132:.././crypto/tiny-AES128-C/aes.c **** }
 129              	 .loc 1 132 14 view .LVU38
 130 0044 160E     	 lsrs r6,r2,#24
 131              	.LBE25:
 132              	.LBE24:
 133              	.LBB27:
 134              	.LBB28:
 135 0046 D2B2     	 uxtb r2,r2
 136              	.LBE28:
 137              	.LBE27:
 138              	.LBB30:
 139              	.LBB18:
 140 0048 455D     	 ldrb r5,[r0,r5]
 141              	.LVL6:
 132:.././crypto/tiny-AES128-C/aes.c **** }
 142              	 .loc 1 132 14 view .LVU39
 143              	.LBE18:
 144              	.LBE30:
 182:.././crypto/tiny-AES128-C/aes.c ****         tempa[2] = getSBoxValue(tempa[2]);
 145              	 .loc 1 182 9 is_stmt 1 view .LVU40
 146              	.LBB31:
 147              	.LBI20:
 130:.././crypto/tiny-AES128-C/aes.c **** {
 148              	 .loc 1 130 16 view .LVU41
 149              	.LBB22:
 132:.././crypto/tiny-AES128-C/aes.c **** }
 150              	 .loc 1 132 3 view .LVU42
 132:.././crypto/tiny-AES128-C/aes.c **** }
 151              	 .loc 1 132 3 is_stmt 0 view .LVU43
 152              	.LBE22:
 153              	.LBE31:
 183:.././crypto/tiny-AES128-C/aes.c ****         tempa[3] = getSBoxValue(tempa[3]);
 154              	 .loc 1 183 9 is_stmt 1 view .LVU44
 155              	.LBB32:
 156              	.LBI24:
 130:.././crypto/tiny-AES128-C/aes.c **** {
 157              	 .loc 1 130 16 view .LVU45
 158              	.LBB26:
 132:.././crypto/tiny-AES128-C/aes.c **** }
 159              	 .loc 1 132 3 view .LVU46
 132:.././crypto/tiny-AES128-C/aes.c **** }
 160              	 .loc 1 132 3 is_stmt 0 view .LVU47
 161              	.LBE26:
 162              	.LBE32:
 184:.././crypto/tiny-AES128-C/aes.c ****       }
 163              	 .loc 1 184 18 discriminator 1 view .LVU48
 164 004a 825C     	 ldrb r2,[r0,r2]
 165 004c 8DF80720 	 strb r2,[sp,#7]
 166              	 .loc 1 187 36 view .LVU49
 167 0050 8A08     	 lsrs r2,r1,#2
 183:.././crypto/tiny-AES128-C/aes.c ****         tempa[3] = getSBoxValue(tempa[3]);
 168              	 .loc 1 183 18 discriminator 1 view .LVU50
 169 0052 865D     	 ldrb r6,[r0,r6]
 170              	 .loc 1 187 16 view .LVU51
 171 0054 A25C     	 ldrb r2,[r4,r2]
 183:.././crypto/tiny-AES128-C/aes.c ****         tempa[3] = getSBoxValue(tempa[3]);
 172              	 .loc 1 183 18 discriminator 1 view .LVU52
 173 0056 8DF80660 	 strb r6,[sp,#6]
 184:.././crypto/tiny-AES128-C/aes.c ****       }
 174              	 .loc 1 184 9 is_stmt 1 view .LVU53
 175              	.LVL7:
 176              	.LBB33:
 177              	.LBI27:
 130:.././crypto/tiny-AES128-C/aes.c **** {
 178              	 .loc 1 130 16 view .LVU54
 179              	.LBB29:
 132:.././crypto/tiny-AES128-C/aes.c **** }
 180              	 .loc 1 132 3 view .LVU55
 132:.././crypto/tiny-AES128-C/aes.c **** }
 181              	 .loc 1 132 3 is_stmt 0 view .LVU56
 182              	.LBE29:
 183              	.LBE33:
 184              	 .loc 1 187 7 is_stmt 1 view .LVU57
 185              	 .loc 1 187 16 is_stmt 0 view .LVU58
 186 005a 6A40     	 eors r2,r2,r5
 187 005c 8DF80420 	 strb r2,[sp,#4]
 188              	.LVL8:
 189              	.L6:
 188:.././crypto/tiny-AES128-C/aes.c ****     }
 189:.././crypto/tiny-AES128-C/aes.c ****     else if (Nk > 6 && i % Nk == 4)
 190:.././crypto/tiny-AES128-C/aes.c ****     {
 191:.././crypto/tiny-AES128-C/aes.c ****       // Function Subword()
 192:.././crypto/tiny-AES128-C/aes.c ****       {
 193:.././crypto/tiny-AES128-C/aes.c ****         tempa[0] = getSBoxValue(tempa[0]);
 194:.././crypto/tiny-AES128-C/aes.c ****         tempa[1] = getSBoxValue(tempa[1]);
 195:.././crypto/tiny-AES128-C/aes.c ****         tempa[2] = getSBoxValue(tempa[2]);
 196:.././crypto/tiny-AES128-C/aes.c ****         tempa[3] = getSBoxValue(tempa[3]);
 197:.././crypto/tiny-AES128-C/aes.c ****       }
 198:.././crypto/tiny-AES128-C/aes.c ****     }
 199:.././crypto/tiny-AES128-C/aes.c ****     RoundKey[i * 4 + 0] = RoundKey[(i - Nk) * 4 + 0] ^ tempa[0];
 190              	 .loc 1 199 5 is_stmt 1 view .LVU59
 191              	 .loc 1 199 25 is_stmt 0 view .LVU60
 192 0060 13F80C2C 	 ldrb r2,[r3,#-12]
 193 0064 9DF80450 	 ldrb r5,[sp,#4]
 194 0068 6A40     	 eors r2,r2,r5
 195 006a 1A71     	 strb r2,[r3,#4]
 200:.././crypto/tiny-AES128-C/aes.c ****     RoundKey[i * 4 + 1] = RoundKey[(i - Nk) * 4 + 1] ^ tempa[1];
 196              	 .loc 1 200 5 is_stmt 1 view .LVU61
 197              	 .loc 1 200 25 is_stmt 0 view .LVU62
 198 006c 9DF80550 	 ldrb r5,[sp,#5]
 199 0070 13F80B2C 	 ldrb r2,[r3,#-11]
 200 0074 6A40     	 eors r2,r2,r5
 201 0076 5A71     	 strb r2,[r3,#5]
 201:.././crypto/tiny-AES128-C/aes.c ****     RoundKey[i * 4 + 2] = RoundKey[(i - Nk) * 4 + 2] ^ tempa[2];
 202              	 .loc 1 201 5 is_stmt 1 view .LVU63
 203              	 .loc 1 201 25 is_stmt 0 view .LVU64
 204 0078 9DF80650 	 ldrb r5,[sp,#6]
 205 007c 13F80A2C 	 ldrb r2,[r3,#-10]
 206 0080 6A40     	 eors r2,r2,r5
 207 0082 9A71     	 strb r2,[r3,#6]
 202:.././crypto/tiny-AES128-C/aes.c ****     RoundKey[i * 4 + 3] = RoundKey[(i - Nk) * 4 + 3] ^ tempa[3];
 208              	 .loc 1 202 5 is_stmt 1 view .LVU65
 209              	 .loc 1 202 25 is_stmt 0 view .LVU66
 210 0084 9DF80750 	 ldrb r5,[sp,#7]
 211 0088 13F8092C 	 ldrb r2,[r3,#-9]
 156:.././crypto/tiny-AES128-C/aes.c ****   {
 212              	 .loc 1 156 32 view .LVU67
 213 008c 0131     	 adds r1,r1,#1
 214              	.LVL9:
 215              	 .loc 1 202 25 view .LVU68
 216 008e 6A40     	 eors r2,r2,r5
 156:.././crypto/tiny-AES128-C/aes.c ****   {
 217              	 .loc 1 156 12 discriminator 1 view .LVU69
 218 0090 2C29     	 cmp r1,#44
 219              	 .loc 1 202 25 view .LVU70
 220 0092 DA71     	 strb r2,[r3,#7]
 156:.././crypto/tiny-AES128-C/aes.c ****   {
 221              	 .loc 1 156 32 is_stmt 1 view .LVU71
 222              	.LVL10:
 156:.././crypto/tiny-AES128-C/aes.c ****   {
 223              	 .loc 1 156 12 discriminator 1 view .LVU72
 224 0094 03F10403 	 add r3,r3,#4
 225 0098 C9D1     	 bne .L3
 203:.././crypto/tiny-AES128-C/aes.c ****   }
 204:.././crypto/tiny-AES128-C/aes.c **** }
 226              	 .loc 1 204 1 is_stmt 0 view .LVU73
 227 009a 02B0     	 add sp,sp,#8
 228              	.LCFI1:
 229              	 .cfi_def_cfa_offset 16
 230              	 
 231 009c 70BD     	 pop {r4,r5,r6,pc}
 232              	.L10:
 233 009e 00BF     	 .align 2
 234              	.L9:
 235 00a0 00000000 	 .word Key
 236 00a4 00000000 	 .word RoundKey
 237 00a8 0C000000 	 .word RoundKey+12
 238 00ac 00000000 	 .word sbox
 239 00b0 00000000 	 .word Rcon
 240              	 .cfi_endproc
 241              	.LFE2:
 243              	 .section .text.AddRoundKey,"ax",%progbits
 244              	 .align 1
 245              	 .syntax unified
 246              	 .thumb
 247              	 .thumb_func
 249              	AddRoundKey:
 250              	.LVL11:
 251              	.LFB3:
 205:.././crypto/tiny-AES128-C/aes.c **** 
 206:.././crypto/tiny-AES128-C/aes.c **** // This function adds the round key to state.
 207:.././crypto/tiny-AES128-C/aes.c **** // The round key is added to the state by an XOR function.
 208:.././crypto/tiny-AES128-C/aes.c **** static void AddRoundKey(uint8_t round)
 209:.././crypto/tiny-AES128-C/aes.c **** {
 252              	 .loc 1 209 1 is_stmt 1 view-0
 253              	 .cfi_startproc
 254              	 
 255              	 
 210:.././crypto/tiny-AES128-C/aes.c ****   uint8_t i,j;
 256              	 .loc 1 210 3 view .LVU75
 211:.././crypto/tiny-AES128-C/aes.c ****   for(i=0;i<4;++i)
 257              	 .loc 1 211 3 view .LVU76
 258              	 .loc 1 211 12 discriminator 1 view .LVU77
 209:.././crypto/tiny-AES128-C/aes.c ****   uint8_t i,j;
 259              	 .loc 1 209 1 is_stmt 0 view .LVU78
 260 0000 F0B5     	 push {r4,r5,r6,r7,lr}
 261              	.LCFI2:
 262              	 .cfi_def_cfa_offset 20
 263              	 .cfi_offset 4,-20
 264              	 .cfi_offset 5,-16
 265              	 .cfi_offset 6,-12
 266              	 .cfi_offset 7,-8
 267              	 .cfi_offset 14,-4
 212:.././crypto/tiny-AES128-C/aes.c ****   {
 213:.././crypto/tiny-AES128-C/aes.c ****     for(j = 0; j < 4; ++j)
 214:.././crypto/tiny-AES128-C/aes.c ****     {
 215:.././crypto/tiny-AES128-C/aes.c ****       (*state)[i][j] ^= RoundKey[round * Nb * 4 + i * Nb + j];
 268              	 .loc 1 215 8 view .LVU79
 269 0002 0A4B     	 ldr r3,.L16
 270 0004 0A4D     	 ldr r5,.L16+4
 271 0006 1B68     	 ldr r3,[r3]
 272 0008 0001     	 lsls r0,r0,#4
 273              	.LVL12:
 274              	 .loc 1 215 8 view .LVU80
 275 000a 03F11006 	 add r6,r3,#16
 276              	.LVL13:
 277              	.L12:
 213:.././crypto/tiny-AES128-C/aes.c ****     {
 278              	 .loc 1 213 18 is_stmt 1 discriminator 1 view .LVU81
 279 000e 4119     	 adds r1,r0,r5
 280 0010 1C1D     	 adds r4,r3,#4
 281              	.LVL14:
 282              	.L13:
 283              	 .loc 1 215 7 view .LVU82
 284              	 .loc 1 215 18 is_stmt 0 view .LVU83
 285 0012 1A78     	 ldrb r2,[r3]
 286              	 .loc 1 215 33 view .LVU84
 287 0014 11F8017B 	 ldrb r7,[r1],#1
 288              	 .loc 1 215 22 view .LVU85
 289 0018 7A40     	 eors r2,r2,r7
 290 001a 03F8012B 	 strb r2,[r3],#1
 213:.././crypto/tiny-AES128-C/aes.c ****     {
 291              	 .loc 1 213 23 is_stmt 1 discriminator 3 view .LVU86
 213:.././crypto/tiny-AES128-C/aes.c ****     {
 292              	 .loc 1 213 18 discriminator 1 view .LVU87
 293 001e A342     	 cmp r3,r4
 294 0020 F7D1     	 bne .L13
 211:.././crypto/tiny-AES128-C/aes.c ****   {
 295              	 .loc 1 211 15 discriminator 2 view .LVU88
 296              	.LVL15:
 211:.././crypto/tiny-AES128-C/aes.c ****   {
 297              	 .loc 1 211 12 discriminator 1 view .LVU89
 298 0022 9E42     	 cmp r6,r3
 299 0024 00F10400 	 add r0,r0,#4
 300 0028 F1D1     	 bne .L12
 216:.././crypto/tiny-AES128-C/aes.c ****     }
 217:.././crypto/tiny-AES128-C/aes.c ****   }
 218:.././crypto/tiny-AES128-C/aes.c **** }
 301              	 .loc 1 218 1 is_stmt 0 view .LVU90
 302 002a F0BD     	 pop {r4,r5,r6,r7,pc}
 303              	.L17:
 304              	 .align 2
 305              	.L16:
 306 002c 00000000 	 .word state
 307 0030 00000000 	 .word RoundKey
 308              	 .cfi_endproc
 309              	.LFE3:
 311              	 .section .text.SubBytes,"ax",%progbits
 312              	 .align 1
 313              	 .syntax unified
 314              	 .thumb
 315              	 .thumb_func
 317              	SubBytes:
 318              	.LFB4:
 219:.././crypto/tiny-AES128-C/aes.c **** 
 220:.././crypto/tiny-AES128-C/aes.c **** // The SubBytes Function Substitutes the values in the
 221:.././crypto/tiny-AES128-C/aes.c **** // state matrix with values in an S-box.
 222:.././crypto/tiny-AES128-C/aes.c **** static void SubBytes(void)
 223:.././crypto/tiny-AES128-C/aes.c **** {
 319              	 .loc 1 223 1 is_stmt 1 view-0
 320              	 .cfi_startproc
 321              	 
 322              	 
 224:.././crypto/tiny-AES128-C/aes.c ****   uint8_t i, j;
 323              	 .loc 1 224 3 view .LVU92
 225:.././crypto/tiny-AES128-C/aes.c ****   for(i = 0; i < 4; ++i)
 324              	 .loc 1 225 3 view .LVU93
 325              	.LVL16:
 326              	 .loc 1 225 16 discriminator 1 view .LVU94
 223:.././crypto/tiny-AES128-C/aes.c ****   uint8_t i, j;
 327              	 .loc 1 223 1 is_stmt 0 view .LVU95
 328 0000 10B5     	 push {r4,lr}
 329              	.LCFI3:
 330              	 .cfi_def_cfa_offset 8
 331              	 .cfi_offset 4,-8
 332              	 .cfi_offset 14,-4
 226:.././crypto/tiny-AES128-C/aes.c ****   {
 227:.././crypto/tiny-AES128-C/aes.c ****     for(j = 0; j < 4; ++j)
 228:.././crypto/tiny-AES128-C/aes.c ****     {
 229:.././crypto/tiny-AES128-C/aes.c ****       #ifdef JITTER_2
 230:.././crypto/tiny-AES128-C/aes.c ****       if (input_save[4*i+j] & 0x01) {
 231:.././crypto/tiny-AES128-C/aes.c ****         volatile int i = 1;
 232:.././crypto/tiny-AES128-C/aes.c ****         i+=1;
 233:.././crypto/tiny-AES128-C/aes.c ****       }
 234:.././crypto/tiny-AES128-C/aes.c ****       #endif
 235:.././crypto/tiny-AES128-C/aes.c ****       #ifdef JITTER_2
 236:.././crypto/tiny-AES128-C/aes.c ****       if (input_save[4*i+j] & 0x02) {
 237:.././crypto/tiny-AES128-C/aes.c ****         volatile int i = 1;
 238:.././crypto/tiny-AES128-C/aes.c ****         i+=1;
 239:.././crypto/tiny-AES128-C/aes.c ****       }
 240:.././crypto/tiny-AES128-C/aes.c ****       #endif
 241:.././crypto/tiny-AES128-C/aes.c ****       (*state)[j][i] = getSBoxValue((*state)[j][i]);
 333              	 .loc 1 241 38 view .LVU96
 334 0002 084B     	 ldr r3,.L23
 335              	.LBB34:
 336              	.LBB35:
 132:.././crypto/tiny-AES128-C/aes.c **** }
 337              	 .loc 1 132 14 view .LVU97
 338 0004 0848     	 ldr r0,.L23+4
 339 0006 1B68     	 ldr r3,[r3]
 340 0008 191D     	 adds r1,r3,#4
 341              	.LVL17:
 342              	.L19:
 132:.././crypto/tiny-AES128-C/aes.c **** }
 343              	 .loc 1 132 14 view .LVU98
 344              	.LBE35:
 345              	.LBE34:
 227:.././crypto/tiny-AES128-C/aes.c ****     {
 346              	 .loc 1 227 18 is_stmt 1 discriminator 1 view .LVU99
 223:.././crypto/tiny-AES128-C/aes.c ****   uint8_t i, j;
 347              	 .loc 1 223 1 is_stmt 0 view .LVU100
 348 000a 0022     	 movs r2,#0
 349              	.LVL18:
 350              	.L20:
 351              	 .loc 1 241 7 is_stmt 1 view .LVU101
 352              	.LBB37:
 353              	.LBI34:
 130:.././crypto/tiny-AES128-C/aes.c **** {
 354              	 .loc 1 130 16 view .LVU102
 355              	.LBB36:
 132:.././crypto/tiny-AES128-C/aes.c **** }
 356              	 .loc 1 132 3 view .LVU103
 132:.././crypto/tiny-AES128-C/aes.c **** }
 357              	 .loc 1 132 14 is_stmt 0 view .LVU104
 358 000c 13F82240 	 ldrb r4,[r3,r2,lsl#2]
 359 0010 045D     	 ldrb r4,[r0,r4]
 360              	.LVL19:
 132:.././crypto/tiny-AES128-C/aes.c **** }
 361              	 .loc 1 132 14 view .LVU105
 362              	.LBE36:
 363              	.LBE37:
 364              	 .loc 1 241 22 discriminator 1 view .LVU106
 365 0012 03F82240 	 strb r4,[r3,r2,lsl#2]
 227:.././crypto/tiny-AES128-C/aes.c ****     {
 366              	 .loc 1 227 23 is_stmt 1 discriminator 3 view .LVU107
 367              	.LVL20:
 227:.././crypto/tiny-AES128-C/aes.c ****     {
 368              	 .loc 1 227 18 discriminator 1 view .LVU108
 369 0016 0132     	 adds r2,r2,#1
 370              	.LVL21:
 227:.././crypto/tiny-AES128-C/aes.c ****     {
 371              	 .loc 1 227 18 is_stmt 0 discriminator 1 view .LVU109
 372 0018 042A     	 cmp r2,#4
 373 001a F7D1     	 bne .L20
 225:.././crypto/tiny-AES128-C/aes.c ****   {
 374              	 .loc 1 225 21 is_stmt 1 discriminator 2 view .LVU110
 375              	.LVL22:
 225:.././crypto/tiny-AES128-C/aes.c ****   {
 376              	 .loc 1 225 16 discriminator 1 view .LVU111
 377 001c 0133     	 adds r3,r3,#1
 378              	.LVL23:
 225:.././crypto/tiny-AES128-C/aes.c ****   {
 379              	 .loc 1 225 16 is_stmt 0 discriminator 1 view .LVU112
 380 001e 8B42     	 cmp r3,r1
 381 0020 F3D1     	 bne .L19
 242:.././crypto/tiny-AES128-C/aes.c ****     }
 243:.././crypto/tiny-AES128-C/aes.c ****   }
 244:.././crypto/tiny-AES128-C/aes.c **** }
 382              	 .loc 1 244 1 view .LVU113
 383 0022 10BD     	 pop {r4,pc}
 384              	.L24:
 385              	 .align 2
 386              	.L23:
 387 0024 00000000 	 .word state
 388 0028 00000000 	 .word sbox
 389              	 .cfi_endproc
 390              	.LFE4:
 392              	 .section .text.ShiftRows,"ax",%progbits
 393              	 .align 1
 394              	 .syntax unified
 395              	 .thumb
 396              	 .thumb_func
 398              	ShiftRows:
 399              	.LFB5:
 245:.././crypto/tiny-AES128-C/aes.c **** 
 246:.././crypto/tiny-AES128-C/aes.c **** // The ShiftRows() function shifts the rows in the state to the left.
 247:.././crypto/tiny-AES128-C/aes.c **** // Each row is shifted with different offset.
 248:.././crypto/tiny-AES128-C/aes.c **** // Offset = Row number. So the first row is not shifted.
 249:.././crypto/tiny-AES128-C/aes.c **** static void ShiftRows(void)
 250:.././crypto/tiny-AES128-C/aes.c **** {
 400              	 .loc 1 250 1 is_stmt 1 view-0
 401              	 .cfi_startproc
 402              	 
 403              	 
 404              	 
 251:.././crypto/tiny-AES128-C/aes.c ****   uint8_t temp;
 405              	 .loc 1 251 3 view .LVU115
 252:.././crypto/tiny-AES128-C/aes.c **** 
 253:.././crypto/tiny-AES128-C/aes.c ****   // Rotate first row 1 columns to left  
 254:.././crypto/tiny-AES128-C/aes.c ****       #ifdef JITTER_2
 255:.././crypto/tiny-AES128-C/aes.c ****       if (input_save[1] & 0x01) {
 256:.././crypto/tiny-AES128-C/aes.c ****         volatile int i = 0;
 257:.././crypto/tiny-AES128-C/aes.c ****         i += 1;
 258:.././crypto/tiny-AES128-C/aes.c ****       }
 259:.././crypto/tiny-AES128-C/aes.c ****       if (input_save[2] & 0x02) {
 260:.././crypto/tiny-AES128-C/aes.c ****         volatile int i = 0;
 261:.././crypto/tiny-AES128-C/aes.c ****         i += 1;
 262:.././crypto/tiny-AES128-C/aes.c ****       }
 263:.././crypto/tiny-AES128-C/aes.c ****       #endif
 264:.././crypto/tiny-AES128-C/aes.c ****   #ifdef JITTER_2
 265:.././crypto/tiny-AES128-C/aes.c ****   #endif
 266:.././crypto/tiny-AES128-C/aes.c ****   temp           = (*state)[0][1];
 406              	 .loc 1 266 3 view .LVU116
 407              	 .loc 1 266 21 is_stmt 0 view .LVU117
 408 0000 0D4B     	 ldr r3,.L26
 409 0002 1B68     	 ldr r3,[r3]
 267:.././crypto/tiny-AES128-C/aes.c ****   (*state)[0][1] = (*state)[1][1];
 410              	 .loc 1 267 18 view .LVU118
 411 0004 5979     	 ldrb r1,[r3,#5]
 266:.././crypto/tiny-AES128-C/aes.c ****   (*state)[0][1] = (*state)[1][1];
 412              	 .loc 1 266 18 view .LVU119
 413 0006 5A78     	 ldrb r2,[r3,#1]
 414              	.LVL24:
 415              	 .loc 1 267 3 is_stmt 1 view .LVU120
 416              	 .loc 1 267 18 is_stmt 0 view .LVU121
 417 0008 5970     	 strb r1,[r3,#1]
 268:.././crypto/tiny-AES128-C/aes.c ****   (*state)[1][1] = (*state)[2][1];
 418              	 .loc 1 268 3 is_stmt 1 view .LVU122
 419              	 .loc 1 268 18 is_stmt 0 view .LVU123
 420 000a 597A     	 ldrb r1,[r3,#9]
 421 000c 5971     	 strb r1,[r3,#5]
 269:.././crypto/tiny-AES128-C/aes.c ****   (*state)[2][1] = (*state)[3][1];
 422              	 .loc 1 269 3 is_stmt 1 view .LVU124
 423              	 .loc 1 269 18 is_stmt 0 view .LVU125
 424 000e 597B     	 ldrb r1,[r3,#13]
 425 0010 5972     	 strb r1,[r3,#9]
 270:.././crypto/tiny-AES128-C/aes.c ****   (*state)[3][1] = temp;
 426              	 .loc 1 270 3 is_stmt 1 view .LVU126
 271:.././crypto/tiny-AES128-C/aes.c **** 
 272:.././crypto/tiny-AES128-C/aes.c ****   // Rotate second row 2 columns to left  
 273:.././crypto/tiny-AES128-C/aes.c ****       #ifdef JITTER_2
 274:.././crypto/tiny-AES128-C/aes.c ****       if (input_save[4] & 0x01) {
 275:.././crypto/tiny-AES128-C/aes.c ****         volatile int i = 0;
 276:.././crypto/tiny-AES128-C/aes.c ****         i += 1;
 277:.././crypto/tiny-AES128-C/aes.c ****       }
 278:.././crypto/tiny-AES128-C/aes.c ****       if (input_save[10] & 0x02) {
 279:.././crypto/tiny-AES128-C/aes.c ****         volatile int i = 0;
 280:.././crypto/tiny-AES128-C/aes.c ****         i += 1;
 281:.././crypto/tiny-AES128-C/aes.c ****       }
 282:.././crypto/tiny-AES128-C/aes.c ****       #endif
 283:.././crypto/tiny-AES128-C/aes.c ****   #ifdef JITTER_2
 284:.././crypto/tiny-AES128-C/aes.c ****   #endif
 285:.././crypto/tiny-AES128-C/aes.c ****   temp           = (*state)[0][2];
 286:.././crypto/tiny-AES128-C/aes.c ****   (*state)[0][2] = (*state)[2][2];
 427              	 .loc 1 286 18 is_stmt 0 view .LVU127
 428 0012 997A     	 ldrb r1,[r3,#10]
 270:.././crypto/tiny-AES128-C/aes.c ****   (*state)[3][1] = temp;
 429              	 .loc 1 270 18 view .LVU128
 430 0014 5A73     	 strb r2,[r3,#13]
 285:.././crypto/tiny-AES128-C/aes.c ****   (*state)[0][2] = (*state)[2][2];
 431              	 .loc 1 285 3 is_stmt 1 view .LVU129
 285:.././crypto/tiny-AES128-C/aes.c ****   (*state)[0][2] = (*state)[2][2];
 432              	 .loc 1 285 18 is_stmt 0 view .LVU130
 433 0016 9A78     	 ldrb r2,[r3,#2]
 434              	.LVL25:
 435              	 .loc 1 286 3 is_stmt 1 view .LVU131
 436              	 .loc 1 286 18 is_stmt 0 view .LVU132
 437 0018 9970     	 strb r1,[r3,#2]
 287:.././crypto/tiny-AES128-C/aes.c ****   (*state)[2][2] = temp;
 438              	 .loc 1 287 3 is_stmt 1 view .LVU133
 288:.././crypto/tiny-AES128-C/aes.c ****   // Rotate second row 2 columns to left  
 289:.././crypto/tiny-AES128-C/aes.c ****   #ifdef JITTER_2
 290:.././crypto/tiny-AES128-C/aes.c ****   #endif
 291:.././crypto/tiny-AES128-C/aes.c ****       #ifdef JITTER_2
 292:.././crypto/tiny-AES128-C/aes.c ****       if (input_save[5] & 0x01) {
 293:.././crypto/tiny-AES128-C/aes.c ****         volatile int i = 0;
 294:.././crypto/tiny-AES128-C/aes.c ****         i += 1;
 295:.././crypto/tiny-AES128-C/aes.c ****       }
 296:.././crypto/tiny-AES128-C/aes.c ****       if (input_save[8] & 0x02) {
 297:.././crypto/tiny-AES128-C/aes.c ****         volatile int i = 0;
 298:.././crypto/tiny-AES128-C/aes.c ****         i += 1;
 299:.././crypto/tiny-AES128-C/aes.c ****       }
 300:.././crypto/tiny-AES128-C/aes.c ****       #endif
 301:.././crypto/tiny-AES128-C/aes.c **** 
 302:.././crypto/tiny-AES128-C/aes.c ****   temp       = (*state)[1][2];
 303:.././crypto/tiny-AES128-C/aes.c ****   (*state)[1][2] = (*state)[3][2];
 439              	 .loc 1 303 18 is_stmt 0 view .LVU134
 440 001a 997B     	 ldrb r1,[r3,#14]
 287:.././crypto/tiny-AES128-C/aes.c ****   (*state)[2][2] = temp;
 441              	 .loc 1 287 18 view .LVU135
 442 001c 9A72     	 strb r2,[r3,#10]
 302:.././crypto/tiny-AES128-C/aes.c ****   (*state)[1][2] = (*state)[3][2];
 443              	 .loc 1 302 3 is_stmt 1 view .LVU136
 302:.././crypto/tiny-AES128-C/aes.c ****   (*state)[1][2] = (*state)[3][2];
 444              	 .loc 1 302 14 is_stmt 0 view .LVU137
 445 001e 9A79     	 ldrb r2,[r3,#6]
 446              	.LVL26:
 447              	 .loc 1 303 3 is_stmt 1 view .LVU138
 448              	 .loc 1 303 18 is_stmt 0 view .LVU139
 449 0020 9971     	 strb r1,[r3,#6]
 304:.././crypto/tiny-AES128-C/aes.c ****   (*state)[3][2] = temp;
 450              	 .loc 1 304 3 is_stmt 1 view .LVU140
 305:.././crypto/tiny-AES128-C/aes.c **** 
 306:.././crypto/tiny-AES128-C/aes.c ****   // Rotate second row 2 columns to left  
 307:.././crypto/tiny-AES128-C/aes.c ****       #ifdef JITTER_2
 308:.././crypto/tiny-AES128-C/aes.c ****       if (input_save[0] & 0x01) {
 309:.././crypto/tiny-AES128-C/aes.c ****         volatile int i = 0;
 310:.././crypto/tiny-AES128-C/aes.c ****         i += 1;
 311:.././crypto/tiny-AES128-C/aes.c ****       }
 312:.././crypto/tiny-AES128-C/aes.c ****       if (input_save[3] & 0x02) {
 313:.././crypto/tiny-AES128-C/aes.c ****         volatile int i = 0;
 314:.././crypto/tiny-AES128-C/aes.c ****         i += 1;
 315:.././crypto/tiny-AES128-C/aes.c ****       }
 316:.././crypto/tiny-AES128-C/aes.c ****       #endif
 317:.././crypto/tiny-AES128-C/aes.c ****   #ifdef JITTER_2
 318:.././crypto/tiny-AES128-C/aes.c ****   #endif
 319:.././crypto/tiny-AES128-C/aes.c ****   // Rotate third row 3 columns to left
 320:.././crypto/tiny-AES128-C/aes.c ****   temp       = (*state)[0][3];
 321:.././crypto/tiny-AES128-C/aes.c ****   (*state)[0][3] = (*state)[3][3];
 451              	 .loc 1 321 18 is_stmt 0 view .LVU141
 452 0022 D97B     	 ldrb r1,[r3,#15]
 304:.././crypto/tiny-AES128-C/aes.c ****   (*state)[3][2] = temp;
 453              	 .loc 1 304 18 view .LVU142
 454 0024 9A73     	 strb r2,[r3,#14]
 320:.././crypto/tiny-AES128-C/aes.c ****   (*state)[0][3] = (*state)[3][3];
 455              	 .loc 1 320 3 is_stmt 1 view .LVU143
 320:.././crypto/tiny-AES128-C/aes.c ****   (*state)[0][3] = (*state)[3][3];
 456              	 .loc 1 320 14 is_stmt 0 view .LVU144
 457 0026 DA78     	 ldrb r2,[r3,#3]
 458              	.LVL27:
 459              	 .loc 1 321 3 is_stmt 1 view .LVU145
 460              	 .loc 1 321 18 is_stmt 0 view .LVU146
 461 0028 D970     	 strb r1,[r3,#3]
 322:.././crypto/tiny-AES128-C/aes.c ****   (*state)[3][3] = (*state)[2][3];
 462              	 .loc 1 322 3 is_stmt 1 view .LVU147
 463              	 .loc 1 322 18 is_stmt 0 view .LVU148
 464 002a D97A     	 ldrb r1,[r3,#11]
 465 002c D973     	 strb r1,[r3,#15]
 323:.././crypto/tiny-AES128-C/aes.c ****   (*state)[2][3] = (*state)[1][3];
 466              	 .loc 1 323 3 is_stmt 1 view .LVU149
 467              	 .loc 1 323 18 is_stmt 0 view .LVU150
 468 002e D979     	 ldrb r1,[r3,#7]
 469 0030 D972     	 strb r1,[r3,#11]
 324:.././crypto/tiny-AES128-C/aes.c ****   (*state)[1][3] = temp;
 470              	 .loc 1 324 3 is_stmt 1 view .LVU151
 471              	 .loc 1 324 18 is_stmt 0 view .LVU152
 472 0032 DA71     	 strb r2,[r3,#7]
 325:.././crypto/tiny-AES128-C/aes.c **** }
 473              	 .loc 1 325 1 view .LVU153
 474 0034 7047     	 bx lr
 475              	.L27:
 476 0036 00BF     	 .align 2
 477              	.L26:
 478 0038 00000000 	 .word state
 479              	 .cfi_endproc
 480              	.LFE5:
 482              	 .section .text.xtime,"ax",%progbits
 483              	 .align 1
 484              	 .syntax unified
 485              	 .thumb
 486              	 .thumb_func
 488              	xtime:
 489              	.LVL28:
 490              	.LFB6:
 326:.././crypto/tiny-AES128-C/aes.c **** 
 327:.././crypto/tiny-AES128-C/aes.c **** static uint8_t xtime(uint8_t x)
 328:.././crypto/tiny-AES128-C/aes.c **** {
 491              	 .loc 1 328 1 is_stmt 1 view-0
 492              	 .cfi_startproc
 493              	 
 494              	 
 495              	 
 329:.././crypto/tiny-AES128-C/aes.c ****   return ((x<<1) ^ (((x>>7) & 1) * 0x1b));
 496              	 .loc 1 329 3 view .LVU155
 497              	 .loc 1 329 18 is_stmt 0 view .LVU156
 498 0000 C309     	 lsrs r3,r0,#7
 499 0002 03EB4303 	 add r3,r3,r3,lsl#1
 500 0006 03EBC303 	 add r3,r3,r3,lsl#3
 501 000a 83EA4000 	 eor r0,r3,r0,lsl#1
 502              	.LVL29:
 330:.././crypto/tiny-AES128-C/aes.c **** }
 503              	 .loc 1 330 1 view .LVU157
 504 000e C0B2     	 uxtb r0,r0
 505 0010 7047     	 bx lr
 506              	 .cfi_endproc
 507              	.LFE6:
 509              	 .section .text.InvSubBytes,"ax",%progbits
 510              	 .align 1
 511              	 .syntax unified
 512              	 .thumb
 513              	 .thumb_func
 515              	InvSubBytes:
 516              	.LFB9:
 331:.././crypto/tiny-AES128-C/aes.c **** 
 332:.././crypto/tiny-AES128-C/aes.c **** // MixColumns function mixes the columns of the state matrix
 333:.././crypto/tiny-AES128-C/aes.c **** static void MixColumns(void)
 334:.././crypto/tiny-AES128-C/aes.c **** {
 335:.././crypto/tiny-AES128-C/aes.c ****   uint8_t i;
 336:.././crypto/tiny-AES128-C/aes.c ****   uint8_t Tmp,Tm,t;
 337:.././crypto/tiny-AES128-C/aes.c ****   for(i = 0; i < 4; ++i)
 338:.././crypto/tiny-AES128-C/aes.c ****   {  
 339:.././crypto/tiny-AES128-C/aes.c ****       #ifdef JITTER_2
 340:.././crypto/tiny-AES128-C/aes.c ****       if (input_save[4*i] & 0x01) {
 341:.././crypto/tiny-AES128-C/aes.c ****         volatile int i = 0;
 342:.././crypto/tiny-AES128-C/aes.c ****         i += 1;
 343:.././crypto/tiny-AES128-C/aes.c ****       }
 344:.././crypto/tiny-AES128-C/aes.c ****       if (input_save[4*i] & 0x02) {
 345:.././crypto/tiny-AES128-C/aes.c ****         volatile int i = 0;
 346:.././crypto/tiny-AES128-C/aes.c ****         i += 1;
 347:.././crypto/tiny-AES128-C/aes.c ****       }
 348:.././crypto/tiny-AES128-C/aes.c ****       #endif
 349:.././crypto/tiny-AES128-C/aes.c ****     t   = (*state)[i][0];
 350:.././crypto/tiny-AES128-C/aes.c ****     Tmp = (*state)[i][0] ^ (*state)[i][1] ^ (*state)[i][2] ^ (*state)[i][3] ;
 351:.././crypto/tiny-AES128-C/aes.c ****     Tm  = (*state)[i][0] ^ (*state)[i][1] ; Tm = xtime(Tm);  (*state)[i][0] ^= Tm ^ Tmp ;
 352:.././crypto/tiny-AES128-C/aes.c ****     Tm  = (*state)[i][1] ^ (*state)[i][2] ; Tm = xtime(Tm);  (*state)[i][1] ^= Tm ^ Tmp ;
 353:.././crypto/tiny-AES128-C/aes.c ****     Tm  = (*state)[i][2] ^ (*state)[i][3] ; Tm = xtime(Tm);  (*state)[i][2] ^= Tm ^ Tmp ;
 354:.././crypto/tiny-AES128-C/aes.c ****     Tm  = (*state)[i][3] ^ t ;        Tm = xtime(Tm);  (*state)[i][3] ^= Tm ^ Tmp ;
 355:.././crypto/tiny-AES128-C/aes.c ****   }
 356:.././crypto/tiny-AES128-C/aes.c **** }
 357:.././crypto/tiny-AES128-C/aes.c **** 
 358:.././crypto/tiny-AES128-C/aes.c **** // Multiply is used to multiply numbers in the field GF(2^8)
 359:.././crypto/tiny-AES128-C/aes.c **** #if MULTIPLY_AS_A_FUNCTION
 360:.././crypto/tiny-AES128-C/aes.c **** static uint8_t Multiply(uint8_t x, uint8_t y)
 361:.././crypto/tiny-AES128-C/aes.c **** {
 362:.././crypto/tiny-AES128-C/aes.c ****   return (((y & 1) * x) ^
 363:.././crypto/tiny-AES128-C/aes.c ****        ((y>>1 & 1) * xtime(x)) ^
 364:.././crypto/tiny-AES128-C/aes.c ****        ((y>>2 & 1) * xtime(xtime(x))) ^
 365:.././crypto/tiny-AES128-C/aes.c ****        ((y>>3 & 1) * xtime(xtime(xtime(x)))) ^
 366:.././crypto/tiny-AES128-C/aes.c ****        ((y>>4 & 1) * xtime(xtime(xtime(xtime(x))))));
 367:.././crypto/tiny-AES128-C/aes.c ****   }
 368:.././crypto/tiny-AES128-C/aes.c **** #else
 369:.././crypto/tiny-AES128-C/aes.c **** #define Multiply(x, y)                                \
 370:.././crypto/tiny-AES128-C/aes.c ****       (  ((y & 1) * x) ^                              \
 371:.././crypto/tiny-AES128-C/aes.c ****       ((y>>1 & 1) * xtime(x)) ^                       \
 372:.././crypto/tiny-AES128-C/aes.c ****       ((y>>2 & 1) * xtime(xtime(x))) ^                \
 373:.././crypto/tiny-AES128-C/aes.c ****       ((y>>3 & 1) * xtime(xtime(xtime(x)))) ^         \
 374:.././crypto/tiny-AES128-C/aes.c ****       ((y>>4 & 1) * xtime(xtime(xtime(xtime(x))))))   \
 375:.././crypto/tiny-AES128-C/aes.c **** 
 376:.././crypto/tiny-AES128-C/aes.c **** #endif
 377:.././crypto/tiny-AES128-C/aes.c **** 
 378:.././crypto/tiny-AES128-C/aes.c **** // MixColumns function mixes the columns of the state matrix.
 379:.././crypto/tiny-AES128-C/aes.c **** // The method used to multiply may be difficult to understand for the inexperienced.
 380:.././crypto/tiny-AES128-C/aes.c **** // Please use the references to gain more information.
 381:.././crypto/tiny-AES128-C/aes.c **** static void InvMixColumns(void)
 382:.././crypto/tiny-AES128-C/aes.c **** {
 383:.././crypto/tiny-AES128-C/aes.c ****   int i;
 384:.././crypto/tiny-AES128-C/aes.c ****   uint8_t a,b,c,d;
 385:.././crypto/tiny-AES128-C/aes.c ****   for(i=0;i<4;++i)
 386:.././crypto/tiny-AES128-C/aes.c ****   { 
 387:.././crypto/tiny-AES128-C/aes.c ****     a = (*state)[i][0];
 388:.././crypto/tiny-AES128-C/aes.c ****     b = (*state)[i][1];
 389:.././crypto/tiny-AES128-C/aes.c ****     c = (*state)[i][2];
 390:.././crypto/tiny-AES128-C/aes.c ****     d = (*state)[i][3];
 391:.././crypto/tiny-AES128-C/aes.c **** 
 392:.././crypto/tiny-AES128-C/aes.c ****     (*state)[i][0] = Multiply(a, 0x0e) ^ Multiply(b, 0x0b) ^ Multiply(c, 0x0d) ^ Multiply(d, 0x09);
 393:.././crypto/tiny-AES128-C/aes.c ****     (*state)[i][1] = Multiply(a, 0x09) ^ Multiply(b, 0x0e) ^ Multiply(c, 0x0b) ^ Multiply(d, 0x0d);
 394:.././crypto/tiny-AES128-C/aes.c ****     (*state)[i][2] = Multiply(a, 0x0d) ^ Multiply(b, 0x09) ^ Multiply(c, 0x0e) ^ Multiply(d, 0x0b);
 395:.././crypto/tiny-AES128-C/aes.c ****     (*state)[i][3] = Multiply(a, 0x0b) ^ Multiply(b, 0x0d) ^ Multiply(c, 0x09) ^ Multiply(d, 0x0e);
 396:.././crypto/tiny-AES128-C/aes.c ****   }
 397:.././crypto/tiny-AES128-C/aes.c **** }
 398:.././crypto/tiny-AES128-C/aes.c **** 
 399:.././crypto/tiny-AES128-C/aes.c **** 
 400:.././crypto/tiny-AES128-C/aes.c **** // The SubBytes Function Substitutes the values in the
 401:.././crypto/tiny-AES128-C/aes.c **** // state matrix with values in an S-box.
 402:.././crypto/tiny-AES128-C/aes.c **** static void InvSubBytes(void)
 403:.././crypto/tiny-AES128-C/aes.c **** {
 517              	 .loc 1 403 1 is_stmt 1 view-0
 518              	 .cfi_startproc
 519              	 
 520              	 
 404:.././crypto/tiny-AES128-C/aes.c ****   uint8_t i,j;
 521              	 .loc 1 404 3 view .LVU159
 405:.././crypto/tiny-AES128-C/aes.c ****   for(i=0;i<4;++i)
 522              	 .loc 1 405 3 view .LVU160
 523              	.LVL30:
 524              	 .loc 1 405 12 discriminator 1 view .LVU161
 403:.././crypto/tiny-AES128-C/aes.c ****   uint8_t i,j;
 525              	 .loc 1 403 1 is_stmt 0 view .LVU162
 526 0000 10B5     	 push {r4,lr}
 527              	.LCFI4:
 528              	 .cfi_def_cfa_offset 8
 529              	 .cfi_offset 4,-8
 530              	 .cfi_offset 14,-4
 406:.././crypto/tiny-AES128-C/aes.c ****   {
 407:.././crypto/tiny-AES128-C/aes.c ****     for(j=0;j<4;++j)
 408:.././crypto/tiny-AES128-C/aes.c ****     {
 409:.././crypto/tiny-AES128-C/aes.c ****       (*state)[j][i] = getSBoxInvert((*state)[j][i]);
 531              	 .loc 1 409 39 view .LVU163
 532 0002 084B     	 ldr r3,.L34
 533              	.LBB38:
 534              	.LBB39:
 137:.././crypto/tiny-AES128-C/aes.c **** }
 535              	 .loc 1 137 15 view .LVU164
 536 0004 0848     	 ldr r0,.L34+4
 537 0006 1B68     	 ldr r3,[r3]
 538 0008 191D     	 adds r1,r3,#4
 539              	.LVL31:
 540              	.L30:
 137:.././crypto/tiny-AES128-C/aes.c **** }
 541              	 .loc 1 137 15 view .LVU165
 542              	.LBE39:
 543              	.LBE38:
 407:.././crypto/tiny-AES128-C/aes.c ****     {
 544              	 .loc 1 407 14 is_stmt 1 discriminator 1 view .LVU166
 403:.././crypto/tiny-AES128-C/aes.c ****   uint8_t i,j;
 545              	 .loc 1 403 1 is_stmt 0 view .LVU167
 546 000a 0022     	 movs r2,#0
 547              	.LVL32:
 548              	.L31:
 549              	 .loc 1 409 7 is_stmt 1 view .LVU168
 550              	.LBB41:
 551              	.LBI38:
 135:.././crypto/tiny-AES128-C/aes.c **** {
 552              	 .loc 1 135 16 view .LVU169
 553              	.LBB40:
 137:.././crypto/tiny-AES128-C/aes.c **** }
 554              	 .loc 1 137 3 view .LVU170
 137:.././crypto/tiny-AES128-C/aes.c **** }
 555              	 .loc 1 137 15 is_stmt 0 view .LVU171
 556 000c 13F82240 	 ldrb r4,[r3,r2,lsl#2]
 557 0010 045D     	 ldrb r4,[r0,r4]
 558              	.LVL33:
 137:.././crypto/tiny-AES128-C/aes.c **** }
 559              	 .loc 1 137 15 view .LVU172
 560              	.LBE40:
 561              	.LBE41:
 562              	 .loc 1 409 22 discriminator 1 view .LVU173
 563 0012 03F82240 	 strb r4,[r3,r2,lsl#2]
 407:.././crypto/tiny-AES128-C/aes.c ****     {
 564              	 .loc 1 407 17 is_stmt 1 discriminator 3 view .LVU174
 565              	.LVL34:
 407:.././crypto/tiny-AES128-C/aes.c ****     {
 566              	 .loc 1 407 14 discriminator 1 view .LVU175
 567 0016 0132     	 adds r2,r2,#1
 568              	.LVL35:
 407:.././crypto/tiny-AES128-C/aes.c ****     {
 569              	 .loc 1 407 14 is_stmt 0 discriminator 1 view .LVU176
 570 0018 042A     	 cmp r2,#4
 571 001a F7D1     	 bne .L31
 405:.././crypto/tiny-AES128-C/aes.c ****   {
 572              	 .loc 1 405 15 is_stmt 1 discriminator 2 view .LVU177
 573              	.LVL36:
 405:.././crypto/tiny-AES128-C/aes.c ****   {
 574              	 .loc 1 405 12 discriminator 1 view .LVU178
 575 001c 0133     	 adds r3,r3,#1
 576              	.LVL37:
 405:.././crypto/tiny-AES128-C/aes.c ****   {
 577              	 .loc 1 405 12 is_stmt 0 discriminator 1 view .LVU179
 578 001e 8B42     	 cmp r3,r1
 579 0020 F3D1     	 bne .L30
 410:.././crypto/tiny-AES128-C/aes.c ****     }
 411:.././crypto/tiny-AES128-C/aes.c ****   }
 412:.././crypto/tiny-AES128-C/aes.c **** }
 580              	 .loc 1 412 1 view .LVU180
 581 0022 10BD     	 pop {r4,pc}
 582              	.L35:
 583              	 .align 2
 584              	.L34:
 585 0024 00000000 	 .word state
 586 0028 00000000 	 .word rsbox
 587              	 .cfi_endproc
 588              	.LFE9:
 590              	 .section .text.InvShiftRows,"ax",%progbits
 591              	 .align 1
 592              	 .syntax unified
 593              	 .thumb
 594              	 .thumb_func
 596              	InvShiftRows:
 597              	.LFB10:
 413:.././crypto/tiny-AES128-C/aes.c **** 
 414:.././crypto/tiny-AES128-C/aes.c **** static void InvShiftRows(void)
 415:.././crypto/tiny-AES128-C/aes.c **** {
 598              	 .loc 1 415 1 is_stmt 1 view-0
 599              	 .cfi_startproc
 600              	 
 601              	 
 602              	 
 416:.././crypto/tiny-AES128-C/aes.c ****   uint8_t temp;
 603              	 .loc 1 416 3 view .LVU182
 417:.././crypto/tiny-AES128-C/aes.c **** 
 418:.././crypto/tiny-AES128-C/aes.c ****   // Rotate first row 1 columns to right  
 419:.././crypto/tiny-AES128-C/aes.c ****   temp=(*state)[3][1];
 604              	 .loc 1 419 3 view .LVU183
 605              	 .loc 1 419 9 is_stmt 0 view .LVU184
 606 0000 0D4B     	 ldr r3,.L37
 607 0002 1B68     	 ldr r3,[r3]
 420:.././crypto/tiny-AES128-C/aes.c ****   (*state)[3][1]=(*state)[2][1];
 608              	 .loc 1 420 17 view .LVU185
 609 0004 597A     	 ldrb r1,[r3,#9]
 419:.././crypto/tiny-AES128-C/aes.c ****   (*state)[3][1]=(*state)[2][1];
 610              	 .loc 1 419 7 view .LVU186
 611 0006 5A7B     	 ldrb r2,[r3,#13]
 612              	.LVL38:
 613              	 .loc 1 420 3 is_stmt 1 view .LVU187
 614              	 .loc 1 420 17 is_stmt 0 view .LVU188
 615 0008 5973     	 strb r1,[r3,#13]
 421:.././crypto/tiny-AES128-C/aes.c ****   (*state)[2][1]=(*state)[1][1];
 616              	 .loc 1 421 3 is_stmt 1 view .LVU189
 617              	 .loc 1 421 17 is_stmt 0 view .LVU190
 618 000a 5979     	 ldrb r1,[r3,#5]
 619 000c 5972     	 strb r1,[r3,#9]
 422:.././crypto/tiny-AES128-C/aes.c ****   (*state)[1][1]=(*state)[0][1];
 620              	 .loc 1 422 3 is_stmt 1 view .LVU191
 621              	 .loc 1 422 17 is_stmt 0 view .LVU192
 622 000e 5978     	 ldrb r1,[r3,#1]
 623 0010 5971     	 strb r1,[r3,#5]
 423:.././crypto/tiny-AES128-C/aes.c ****   (*state)[0][1]=temp;
 624              	 .loc 1 423 3 is_stmt 1 view .LVU193
 424:.././crypto/tiny-AES128-C/aes.c **** 
 425:.././crypto/tiny-AES128-C/aes.c ****   // Rotate second row 2 columns to right 
 426:.././crypto/tiny-AES128-C/aes.c ****   temp=(*state)[0][2];
 427:.././crypto/tiny-AES128-C/aes.c ****   (*state)[0][2]=(*state)[2][2];
 625              	 .loc 1 427 17 is_stmt 0 view .LVU194
 626 0012 997A     	 ldrb r1,[r3,#10]
 423:.././crypto/tiny-AES128-C/aes.c ****   (*state)[0][1]=temp;
 627              	 .loc 1 423 17 view .LVU195
 628 0014 5A70     	 strb r2,[r3,#1]
 426:.././crypto/tiny-AES128-C/aes.c ****   (*state)[0][2]=(*state)[2][2];
 629              	 .loc 1 426 3 is_stmt 1 view .LVU196
 426:.././crypto/tiny-AES128-C/aes.c ****   (*state)[0][2]=(*state)[2][2];
 630              	 .loc 1 426 7 is_stmt 0 view .LVU197
 631 0016 9A78     	 ldrb r2,[r3,#2]
 632              	.LVL39:
 633              	 .loc 1 427 3 is_stmt 1 view .LVU198
 634              	 .loc 1 427 17 is_stmt 0 view .LVU199
 635 0018 9970     	 strb r1,[r3,#2]
 428:.././crypto/tiny-AES128-C/aes.c ****   (*state)[2][2]=temp;
 636              	 .loc 1 428 3 is_stmt 1 view .LVU200
 429:.././crypto/tiny-AES128-C/aes.c **** 
 430:.././crypto/tiny-AES128-C/aes.c ****   temp=(*state)[1][2];
 431:.././crypto/tiny-AES128-C/aes.c ****   (*state)[1][2]=(*state)[3][2];
 637              	 .loc 1 431 17 is_stmt 0 view .LVU201
 638 001a 997B     	 ldrb r1,[r3,#14]
 428:.././crypto/tiny-AES128-C/aes.c ****   (*state)[2][2]=temp;
 639              	 .loc 1 428 17 view .LVU202
 640 001c 9A72     	 strb r2,[r3,#10]
 430:.././crypto/tiny-AES128-C/aes.c ****   (*state)[1][2]=(*state)[3][2];
 641              	 .loc 1 430 3 is_stmt 1 view .LVU203
 430:.././crypto/tiny-AES128-C/aes.c ****   (*state)[1][2]=(*state)[3][2];
 642              	 .loc 1 430 7 is_stmt 0 view .LVU204
 643 001e 9A79     	 ldrb r2,[r3,#6]
 644              	.LVL40:
 645              	 .loc 1 431 3 is_stmt 1 view .LVU205
 646              	 .loc 1 431 17 is_stmt 0 view .LVU206
 647 0020 9971     	 strb r1,[r3,#6]
 432:.././crypto/tiny-AES128-C/aes.c ****   (*state)[3][2]=temp;
 648              	 .loc 1 432 3 is_stmt 1 view .LVU207
 433:.././crypto/tiny-AES128-C/aes.c **** 
 434:.././crypto/tiny-AES128-C/aes.c ****   // Rotate third row 3 columns to right
 435:.././crypto/tiny-AES128-C/aes.c ****   temp=(*state)[0][3];
 436:.././crypto/tiny-AES128-C/aes.c ****   (*state)[0][3]=(*state)[1][3];
 649              	 .loc 1 436 17 is_stmt 0 view .LVU208
 650 0022 D979     	 ldrb r1,[r3,#7]
 432:.././crypto/tiny-AES128-C/aes.c ****   (*state)[3][2]=temp;
 651              	 .loc 1 432 17 view .LVU209
 652 0024 9A73     	 strb r2,[r3,#14]
 435:.././crypto/tiny-AES128-C/aes.c ****   (*state)[0][3]=(*state)[1][3];
 653              	 .loc 1 435 3 is_stmt 1 view .LVU210
 435:.././crypto/tiny-AES128-C/aes.c ****   (*state)[0][3]=(*state)[1][3];
 654              	 .loc 1 435 7 is_stmt 0 view .LVU211
 655 0026 DA78     	 ldrb r2,[r3,#3]
 656              	.LVL41:
 657              	 .loc 1 436 3 is_stmt 1 view .LVU212
 658              	 .loc 1 436 17 is_stmt 0 view .LVU213
 659 0028 D970     	 strb r1,[r3,#3]
 437:.././crypto/tiny-AES128-C/aes.c ****   (*state)[1][3]=(*state)[2][3];
 660              	 .loc 1 437 3 is_stmt 1 view .LVU214
 661              	 .loc 1 437 17 is_stmt 0 view .LVU215
 662 002a D97A     	 ldrb r1,[r3,#11]
 663 002c D971     	 strb r1,[r3,#7]
 438:.././crypto/tiny-AES128-C/aes.c ****   (*state)[2][3]=(*state)[3][3];
 664              	 .loc 1 438 3 is_stmt 1 view .LVU216
 665              	 .loc 1 438 17 is_stmt 0 view .LVU217
 666 002e D97B     	 ldrb r1,[r3,#15]
 667 0030 D972     	 strb r1,[r3,#11]
 439:.././crypto/tiny-AES128-C/aes.c ****   (*state)[3][3]=temp;
 668              	 .loc 1 439 3 is_stmt 1 view .LVU218
 669              	 .loc 1 439 17 is_stmt 0 view .LVU219
 670 0032 DA73     	 strb r2,[r3,#15]
 440:.././crypto/tiny-AES128-C/aes.c **** }
 671              	 .loc 1 440 1 view .LVU220
 672 0034 7047     	 bx lr
 673              	.L38:
 674 0036 00BF     	 .align 2
 675              	.L37:
 676 0038 00000000 	 .word state
 677              	 .cfi_endproc
 678              	.LFE10:
 680              	 .section .text.Cipher,"ax",%progbits
 681              	 .align 1
 682              	 .syntax unified
 683              	 .thumb
 684              	 .thumb_func
 686              	Cipher:
 687              	.LFB11:
 441:.././crypto/tiny-AES128-C/aes.c **** 
 442:.././crypto/tiny-AES128-C/aes.c **** 
 443:.././crypto/tiny-AES128-C/aes.c **** // Cipher is the main function that encrypts the PlainText.
 444:.././crypto/tiny-AES128-C/aes.c **** static void Cipher(void)
 445:.././crypto/tiny-AES128-C/aes.c **** {
 688              	 .loc 1 445 1 is_stmt 1 view-0
 689              	 .cfi_startproc
 690              	 
 691              	 
 446:.././crypto/tiny-AES128-C/aes.c ****   uint8_t round = 0;
 692              	 .loc 1 446 3 view .LVU222
 693              	.LVL42:
 447:.././crypto/tiny-AES128-C/aes.c **** 
 448:.././crypto/tiny-AES128-C/aes.c ****   // Add the First round key to the state before starting the rounds.
 449:.././crypto/tiny-AES128-C/aes.c ****   AddRoundKey(0); 
 694              	 .loc 1 449 3 view .LVU223
 445:.././crypto/tiny-AES128-C/aes.c ****   uint8_t round = 0;
 695              	 .loc 1 445 1 is_stmt 0 view .LVU224
 696 0000 2DE9F04F 	 push {r4,r5,r6,r7,r8,r9,r10,fp,lr}
 697              	.LCFI5:
 698              	 .cfi_def_cfa_offset 36
 699              	 .cfi_offset 4,-36
 700              	 .cfi_offset 5,-32
 701              	 .cfi_offset 6,-28
 702              	 .cfi_offset 7,-24
 703              	 .cfi_offset 8,-20
 704              	 .cfi_offset 9,-16
 705              	 .cfi_offset 10,-12
 706              	 .cfi_offset 11,-8
 707              	 .cfi_offset 14,-4
 708 0004 85B0     	 sub sp,sp,#20
 709              	.LCFI6:
 710              	 .cfi_def_cfa_offset 56
 711              	 .loc 1 449 3 view .LVU225
 712 0006 244D     	 ldr r5,.L44
 450:.././crypto/tiny-AES128-C/aes.c ****   
 451:.././crypto/tiny-AES128-C/aes.c ****   // There will be Nr rounds.
 452:.././crypto/tiny-AES128-C/aes.c ****   // The first Nr-1 rounds are identical.
 453:.././crypto/tiny-AES128-C/aes.c ****   // These Nr-1 rounds are executed in the loop below.
 454:.././crypto/tiny-AES128-C/aes.c ****   for(round = 1; round < Nr; ++round)
 455:.././crypto/tiny-AES128-C/aes.c ****   {
 456:.././crypto/tiny-AES128-C/aes.c ****     SubBytes();
 713              	 .loc 1 456 5 view .LVU226
 714 0008 DFF89090 	 ldr r9,.L44+4
 457:.././crypto/tiny-AES128-C/aes.c ****     ShiftRows();
 715              	 .loc 1 457 5 view .LVU227
 716 000c DFF89080 	 ldr r8,.L44+8
 449:.././crypto/tiny-AES128-C/aes.c ****   
 717              	 .loc 1 449 3 view .LVU228
 718 0010 0020     	 movs r0,#0
 719 0012 A847     	 blx r5
 720              	.LVL43:
 454:.././crypto/tiny-AES128-C/aes.c ****   {
 721              	 .loc 1 454 3 is_stmt 1 view .LVU229
 454:.././crypto/tiny-AES128-C/aes.c ****   {
 722              	 .loc 1 454 24 discriminator 1 view .LVU230
 454:.././crypto/tiny-AES128-C/aes.c ****   {
 723              	 .loc 1 454 13 is_stmt 0 view .LVU231
 724 0014 0124     	 movs r4,#1
 725 0016 0195     	 str r5,[sp,#4]
 726              	.LVL44:
 727              	.L41:
 456:.././crypto/tiny-AES128-C/aes.c ****     ShiftRows();
 728              	 .loc 1 456 5 is_stmt 1 view .LVU232
 729 0018 C847     	 blx r9
 730              	.LVL45:
 731              	 .loc 1 457 5 view .LVU233
 732 001a C047     	 blx r8
 733              	.LVL46:
 458:.././crypto/tiny-AES128-C/aes.c ****     MixColumns();
 734              	 .loc 1 458 5 view .LVU234
 735              	.LBB44:
 736              	.LBI44:
 333:.././crypto/tiny-AES128-C/aes.c **** {
 737              	 .loc 1 333 13 view .LVU235
 738              	.LBB45:
 335:.././crypto/tiny-AES128-C/aes.c ****   uint8_t Tmp,Tm,t;
 739              	 .loc 1 335 3 view .LVU236
 336:.././crypto/tiny-AES128-C/aes.c ****   for(i = 0; i < 4; ++i)
 740              	 .loc 1 336 3 view .LVU237
 337:.././crypto/tiny-AES128-C/aes.c ****   {  
 741              	 .loc 1 337 3 view .LVU238
 337:.././crypto/tiny-AES128-C/aes.c ****   {  
 742              	 .loc 1 337 16 discriminator 1 view .LVU239
 349:.././crypto/tiny-AES128-C/aes.c ****     Tmp = (*state)[i][0] ^ (*state)[i][1] ^ (*state)[i][2] ^ (*state)[i][3] ;
 743              	 .loc 1 349 12 is_stmt 0 view .LVU240
 744 001c 214B     	 ldr r3,.L44+12
 351:.././crypto/tiny-AES128-C/aes.c ****     Tm  = (*state)[i][1] ^ (*state)[i][2] ; Tm = xtime(Tm);  (*state)[i][1] ^= Tm ^ Tmp ;
 745              	 .loc 1 351 50 view .LVU241
 746 001e DFF888A0 	 ldr r10,.L44+16
 747 0022 1A68     	 ldr r2,[r3]
 748 0024 02F11003 	 add r3,r2,#16
 749 0028 0293     	 str r3,[sp,#8]
 750              	.LVL47:
 751              	.L40:
 349:.././crypto/tiny-AES128-C/aes.c ****     Tmp = (*state)[i][0] ^ (*state)[i][1] ^ (*state)[i][2] ^ (*state)[i][3] ;
 752              	 .loc 1 349 5 is_stmt 1 view .LVU242
 349:.././crypto/tiny-AES128-C/aes.c ****     Tmp = (*state)[i][0] ^ (*state)[i][1] ^ (*state)[i][2] ^ (*state)[i][3] ;
 753              	 .loc 1 349 9 is_stmt 0 view .LVU243
 754 002a 92F800B0 	 ldrb fp,[r2]
 755              	.LVL48:
 350:.././crypto/tiny-AES128-C/aes.c ****     Tm  = (*state)[i][0] ^ (*state)[i][1] ; Tm = xtime(Tm);  (*state)[i][0] ^= Tm ^ Tmp ;
 756              	 .loc 1 350 5 is_stmt 1 view .LVU244
 350:.././crypto/tiny-AES128-C/aes.c ****     Tm  = (*state)[i][0] ^ (*state)[i][1] ; Tm = xtime(Tm);  (*state)[i][0] ^= Tm ^ Tmp ;
 757              	 .loc 1 350 39 is_stmt 0 view .LVU245
 758 002e 5578     	 ldrb r5,[r2,#1]
 350:.././crypto/tiny-AES128-C/aes.c ****     Tm  = (*state)[i][0] ^ (*state)[i][1] ; Tm = xtime(Tm);  (*state)[i][0] ^= Tm ^ Tmp ;
 759              	 .loc 1 350 56 view .LVU246
 760 0030 9178     	 ldrb r1,[r2,#2]
 350:.././crypto/tiny-AES128-C/aes.c ****     Tm  = (*state)[i][0] ^ (*state)[i][1] ; Tm = xtime(Tm);  (*state)[i][0] ^= Tm ^ Tmp ;
 761              	 .loc 1 350 73 view .LVU247
 762 0032 D778     	 ldrb r7,[r2,#3]
 350:.././crypto/tiny-AES128-C/aes.c ****     Tm  = (*state)[i][0] ^ (*state)[i][1] ; Tm = xtime(Tm);  (*state)[i][0] ^= Tm ^ Tmp ;
 763              	 .loc 1 350 9 view .LVU248
 764 0034 8BEA0500 	 eor r0,fp,r5
 765 0038 81EA0703 	 eor r3,r1,r7
 766 003c 80EA0306 	 eor r6,r0,r3
 767 0040 0393     	 str r3,[sp,#12]
 768              	.LVL49:
 351:.././crypto/tiny-AES128-C/aes.c ****     Tm  = (*state)[i][1] ^ (*state)[i][2] ; Tm = xtime(Tm);  (*state)[i][1] ^= Tm ^ Tmp ;
 769              	 .loc 1 351 5 is_stmt 1 view .LVU249
 351:.././crypto/tiny-AES128-C/aes.c ****     Tm  = (*state)[i][1] ^ (*state)[i][2] ; Tm = xtime(Tm);  (*state)[i][1] ^= Tm ^ Tmp ;
 770              	 .loc 1 351 45 view .LVU250
 351:.././crypto/tiny-AES128-C/aes.c ****     Tm  = (*state)[i][1] ^ (*state)[i][2] ; Tm = xtime(Tm);  (*state)[i][1] ^= Tm ^ Tmp ;
 771              	 .loc 1 351 50 is_stmt 0 view .LVU251
 772 0042 D047     	 blx r10
 773              	.LVL50:
 351:.././crypto/tiny-AES128-C/aes.c ****     Tm  = (*state)[i][1] ^ (*state)[i][2] ; Tm = xtime(Tm);  (*state)[i][1] ^= Tm ^ Tmp ;
 774              	 .loc 1 351 62 is_stmt 1 discriminator 1 view .LVU252
 351:.././crypto/tiny-AES128-C/aes.c ****     Tm  = (*state)[i][1] ^ (*state)[i][2] ; Tm = xtime(Tm);  (*state)[i][1] ^= Tm ^ Tmp ;
 775              	 .loc 1 351 77 is_stmt 0 discriminator 1 view .LVU253
 776 0044 8BEA0000 	 eor r0,fp,r0
 777              	.LVL51:
 351:.././crypto/tiny-AES128-C/aes.c ****     Tm  = (*state)[i][1] ^ (*state)[i][2] ; Tm = xtime(Tm);  (*state)[i][1] ^= Tm ^ Tmp ;
 778              	 .loc 1 351 77 discriminator 1 view .LVU254
 779 0048 7040     	 eors r0,r0,r6
 780 004a 1070     	 strb r0,[r2]
 352:.././crypto/tiny-AES128-C/aes.c ****     Tm  = (*state)[i][2] ^ (*state)[i][3] ; Tm = xtime(Tm);  (*state)[i][2] ^= Tm ^ Tmp ;
 781              	 .loc 1 352 5 is_stmt 1 view .LVU255
 782              	.LVL52:
 352:.././crypto/tiny-AES128-C/aes.c ****     Tm  = (*state)[i][2] ^ (*state)[i][3] ; Tm = xtime(Tm);  (*state)[i][2] ^= Tm ^ Tmp ;
 783              	 .loc 1 352 45 view .LVU256
 352:.././crypto/tiny-AES128-C/aes.c ****     Tm  = (*state)[i][2] ^ (*state)[i][3] ; Tm = xtime(Tm);  (*state)[i][2] ^= Tm ^ Tmp ;
 784              	 .loc 1 352 50 is_stmt 0 view .LVU257
 785 004c 85EA0100 	 eor r0,r5,r1
 786              	.LVL53:
 352:.././crypto/tiny-AES128-C/aes.c ****     Tm  = (*state)[i][2] ^ (*state)[i][3] ; Tm = xtime(Tm);  (*state)[i][2] ^= Tm ^ Tmp ;
 787              	 .loc 1 352 50 view .LVU258
 788 0050 D047     	 blx r10
 789              	.LVL54:
 352:.././crypto/tiny-AES128-C/aes.c ****     Tm  = (*state)[i][2] ^ (*state)[i][3] ; Tm = xtime(Tm);  (*state)[i][2] ^= Tm ^ Tmp ;
 790              	 .loc 1 352 62 is_stmt 1 discriminator 1 view .LVU259
 353:.././crypto/tiny-AES128-C/aes.c ****     Tm  = (*state)[i][3] ^ t ;        Tm = xtime(Tm);  (*state)[i][3] ^= Tm ^ Tmp ;
 791              	 .loc 1 353 50 is_stmt 0 view .LVU260
 792 0052 039B     	 ldr r3,[sp,#12]
 352:.././crypto/tiny-AES128-C/aes.c ****     Tm  = (*state)[i][2] ^ (*state)[i][3] ; Tm = xtime(Tm);  (*state)[i][2] ^= Tm ^ Tmp ;
 793              	 .loc 1 352 77 discriminator 1 view .LVU261
 794 0054 4540     	 eors r5,r5,r0
 795 0056 7540     	 eors r5,r5,r6
 796 0058 5570     	 strb r5,[r2,#1]
 353:.././crypto/tiny-AES128-C/aes.c ****     Tm  = (*state)[i][3] ^ t ;        Tm = xtime(Tm);  (*state)[i][3] ^= Tm ^ Tmp ;
 797              	 .loc 1 353 5 is_stmt 1 view .LVU262
 798              	.LVL55:
 353:.././crypto/tiny-AES128-C/aes.c ****     Tm  = (*state)[i][3] ^ t ;        Tm = xtime(Tm);  (*state)[i][3] ^= Tm ^ Tmp ;
 799              	 .loc 1 353 45 view .LVU263
 353:.././crypto/tiny-AES128-C/aes.c ****     Tm  = (*state)[i][3] ^ t ;        Tm = xtime(Tm);  (*state)[i][3] ^= Tm ^ Tmp ;
 800              	 .loc 1 353 50 is_stmt 0 view .LVU264
 801 005a 1846     	 mov r0,r3
 802 005c D047     	 blx r10
 803              	.LVL56:
 353:.././crypto/tiny-AES128-C/aes.c ****     Tm  = (*state)[i][3] ^ t ;        Tm = xtime(Tm);  (*state)[i][3] ^= Tm ^ Tmp ;
 804              	 .loc 1 353 62 is_stmt 1 discriminator 1 view .LVU265
 353:.././crypto/tiny-AES128-C/aes.c ****     Tm  = (*state)[i][3] ^ t ;        Tm = xtime(Tm);  (*state)[i][3] ^= Tm ^ Tmp ;
 805              	 .loc 1 353 77 is_stmt 0 discriminator 1 view .LVU266
 806 005e 4140     	 eors r1,r1,r0
 807 0060 7140     	 eors r1,r1,r6
 808 0062 9170     	 strb r1,[r2,#2]
 354:.././crypto/tiny-AES128-C/aes.c ****   }
 809              	 .loc 1 354 5 is_stmt 1 view .LVU267
 810              	.LVL57:
 354:.././crypto/tiny-AES128-C/aes.c ****   }
 811              	 .loc 1 354 39 view .LVU268
 354:.././crypto/tiny-AES128-C/aes.c ****   }
 812              	 .loc 1 354 44 is_stmt 0 view .LVU269
 813 0064 8BEA0700 	 eor r0,fp,r7
 814              	.LVL58:
 354:.././crypto/tiny-AES128-C/aes.c ****   }
 815              	 .loc 1 354 44 view .LVU270
 816 0068 D047     	 blx r10
 817              	.LVL59:
 354:.././crypto/tiny-AES128-C/aes.c ****   }
 818              	 .loc 1 354 56 is_stmt 1 discriminator 1 view .LVU271
 354:.././crypto/tiny-AES128-C/aes.c ****   }
 819              	 .loc 1 354 71 is_stmt 0 discriminator 1 view .LVU272
 820 006a 4740     	 eors r7,r7,r0
 337:.././crypto/tiny-AES128-C/aes.c ****   {  
 821              	 .loc 1 337 16 discriminator 1 view .LVU273
 822 006c 029B     	 ldr r3,[sp,#8]
 354:.././crypto/tiny-AES128-C/aes.c ****   }
 823              	 .loc 1 354 71 discriminator 1 view .LVU274
 824 006e 7E40     	 eors r6,r6,r7
 825              	.LVL60:
 354:.././crypto/tiny-AES128-C/aes.c ****   }
 826              	 .loc 1 354 71 discriminator 1 view .LVU275
 827 0070 D670     	 strb r6,[r2,#3]
 337:.././crypto/tiny-AES128-C/aes.c ****   {  
 828              	 .loc 1 337 21 is_stmt 1 discriminator 3 view .LVU276
 829              	.LVL61:
 337:.././crypto/tiny-AES128-C/aes.c ****   {  
 830              	 .loc 1 337 16 discriminator 1 view .LVU277
 831 0072 0432     	 adds r2,r2,#4
 832              	.LVL62:
 337:.././crypto/tiny-AES128-C/aes.c ****   {  
 833              	 .loc 1 337 16 is_stmt 0 discriminator 1 view .LVU278
 834 0074 9342     	 cmp r3,r2
 835 0076 D8D1     	 bne .L40
 836              	.LVL63:
 337:.././crypto/tiny-AES128-C/aes.c ****   {  
 837              	 .loc 1 337 16 discriminator 1 view .LVU279
 838              	.LBE45:
 839              	.LBE44:
 459:.././crypto/tiny-AES128-C/aes.c ****     AddRoundKey(round);
 840              	 .loc 1 459 5 is_stmt 1 view .LVU280
 841 0078 2046     	 mov r0,r4
 454:.././crypto/tiny-AES128-C/aes.c ****   {
 842              	 .loc 1 454 30 is_stmt 0 discriminator 3 view .LVU281
 843 007a 0134     	 adds r4,r4,#1
 844              	.LVL64:
 845              	 .loc 1 459 5 view .LVU282
 846 007c 019B     	 ldr r3,[sp,#4]
 454:.././crypto/tiny-AES128-C/aes.c ****   {
 847              	 .loc 1 454 30 discriminator 3 view .LVU283
 848 007e E4B2     	 uxtb r4,r4
 849              	 .loc 1 459 5 view .LVU284
 850 0080 9847     	 blx r3
 851              	.LVL65:
 454:.././crypto/tiny-AES128-C/aes.c ****   {
 852              	 .loc 1 454 30 is_stmt 1 discriminator 3 view .LVU285
 454:.././crypto/tiny-AES128-C/aes.c ****   {
 853              	 .loc 1 454 24 discriminator 1 view .LVU286
 854 0082 0A2C     	 cmp r4,#10
 855 0084 C8D1     	 bne .L41
 460:.././crypto/tiny-AES128-C/aes.c ****   }
 461:.././crypto/tiny-AES128-C/aes.c ****   
 462:.././crypto/tiny-AES128-C/aes.c ****   // The last round is given below.
 463:.././crypto/tiny-AES128-C/aes.c ****   // The MixColumns function is not here in the last round.
 464:.././crypto/tiny-AES128-C/aes.c ****   SubBytes();
 856              	 .loc 1 464 3 view .LVU287
 857 0086 054B     	 ldr r3,.L44+4
 858 0088 9847     	 blx r3
 859              	.LVL66:
 465:.././crypto/tiny-AES128-C/aes.c ****   ShiftRows();
 860              	 .loc 1 465 3 view .LVU288
 861 008a C047     	 blx r8
 862              	.LVL67:
 466:.././crypto/tiny-AES128-C/aes.c ****   AddRoundKey(Nr);
 863              	 .loc 1 466 3 view .LVU289
 864 008c 019B     	 ldr r3,[sp,#4]
 865 008e 2046     	 mov r0,r4
 467:.././crypto/tiny-AES128-C/aes.c **** }
 866              	 .loc 1 467 1 is_stmt 0 view .LVU290
 867 0090 05B0     	 add sp,sp,#20
 868              	.LCFI7:
 869              	 .cfi_def_cfa_offset 36
 870              	 
 871 0092 BDE8F04F 	 pop {r4,r5,r6,r7,r8,r9,r10,fp,lr}
 872              	.LCFI8:
 873              	 .cfi_restore 14
 874              	 .cfi_restore 11
 875              	 .cfi_restore 10
 876              	 .cfi_restore 9
 877              	 .cfi_restore 8
 878              	 .cfi_restore 7
 879              	 .cfi_restore 6
 880              	 .cfi_restore 5
 881              	 .cfi_restore 4
 882              	 .cfi_def_cfa_offset 0
 883              	.LVL68:
 466:.././crypto/tiny-AES128-C/aes.c ****   AddRoundKey(Nr);
 884              	 .loc 1 466 3 view .LVU291
 885 0096 1847     	 bx r3
 886              	.LVL69:
 887              	.L45:
 466:.././crypto/tiny-AES128-C/aes.c ****   AddRoundKey(Nr);
 888              	 .loc 1 466 3 view .LVU292
 889              	 .align 2
 890              	.L44:
 891 0098 00000000 	 .word AddRoundKey
 892 009c 00000000 	 .word SubBytes
 893 00a0 00000000 	 .word ShiftRows
 894 00a4 00000000 	 .word state
 895 00a8 00000000 	 .word xtime
 896              	 .cfi_endproc
 897              	.LFE11:
 899              	 .section .text.BlockCopy,"ax",%progbits
 900              	 .align 1
 901              	 .syntax unified
 902              	 .thumb
 903              	 .thumb_func
 905              	BlockCopy:
 906              	.LVL70:
 907              	.LFB13:
 468:.././crypto/tiny-AES128-C/aes.c **** 
 469:.././crypto/tiny-AES128-C/aes.c **** static void InvCipher(void)
 470:.././crypto/tiny-AES128-C/aes.c **** {
 471:.././crypto/tiny-AES128-C/aes.c ****   uint8_t round=0;
 472:.././crypto/tiny-AES128-C/aes.c **** 
 473:.././crypto/tiny-AES128-C/aes.c ****   // Add the First round key to the state before starting the rounds.
 474:.././crypto/tiny-AES128-C/aes.c ****   AddRoundKey(Nr); 
 475:.././crypto/tiny-AES128-C/aes.c **** 
 476:.././crypto/tiny-AES128-C/aes.c ****   // There will be Nr rounds.
 477:.././crypto/tiny-AES128-C/aes.c ****   // The first Nr-1 rounds are identical.
 478:.././crypto/tiny-AES128-C/aes.c ****   // These Nr-1 rounds are executed in the loop below.
 479:.././crypto/tiny-AES128-C/aes.c ****   for(round=Nr-1;round>0;round--)
 480:.././crypto/tiny-AES128-C/aes.c ****   {
 481:.././crypto/tiny-AES128-C/aes.c ****     InvShiftRows();
 482:.././crypto/tiny-AES128-C/aes.c ****     InvSubBytes();
 483:.././crypto/tiny-AES128-C/aes.c ****     AddRoundKey(round);
 484:.././crypto/tiny-AES128-C/aes.c ****     InvMixColumns();
 485:.././crypto/tiny-AES128-C/aes.c ****   }
 486:.././crypto/tiny-AES128-C/aes.c ****   
 487:.././crypto/tiny-AES128-C/aes.c ****   // The last round is given below.
 488:.././crypto/tiny-AES128-C/aes.c ****   // The MixColumns function is not here in the last round.
 489:.././crypto/tiny-AES128-C/aes.c ****   InvShiftRows();
 490:.././crypto/tiny-AES128-C/aes.c ****   InvSubBytes();
 491:.././crypto/tiny-AES128-C/aes.c ****   AddRoundKey(0);
 492:.././crypto/tiny-AES128-C/aes.c **** }
 493:.././crypto/tiny-AES128-C/aes.c **** 
 494:.././crypto/tiny-AES128-C/aes.c **** static void BlockCopy(uint8_t* output, const uint8_t* input)
 495:.././crypto/tiny-AES128-C/aes.c **** {
 908              	 .loc 1 495 1 is_stmt 1 view-0
 909              	 .cfi_startproc
 910              	 
 911              	 
 912              	 
 496:.././crypto/tiny-AES128-C/aes.c ****   uint8_t i;
 913              	 .loc 1 496 3 view .LVU294
 497:.././crypto/tiny-AES128-C/aes.c ****   for (i=0;i<KEYLEN;++i)
 914              	 .loc 1 497 3 view .LVU295
 915              	 .loc 1 497 13 discriminator 1 view .LVU296
 916 0000 4B1E     	 subs r3,r1,#1
 917 0002 0138     	 subs r0,r0,#1
 918              	.LVL71:
 919              	 .loc 1 497 13 is_stmt 0 discriminator 1 view .LVU297
 920 0004 0F31     	 adds r1,r1,#15
 921              	.LVL72:
 922              	.L47:
 498:.././crypto/tiny-AES128-C/aes.c ****   {
 499:.././crypto/tiny-AES128-C/aes.c ****     output[i] = input[i];
 923              	 .loc 1 499 5 is_stmt 1 view .LVU298
 924              	 .loc 1 499 22 is_stmt 0 view .LVU299
 925 0006 13F8012F 	 ldrb r2,[r3,#1]!
 926              	.LVL73:
 927              	 .loc 1 499 15 view .LVU300
 928 000a 00F8012F 	 strb r2,[r0,#1]!
 497:.././crypto/tiny-AES128-C/aes.c ****   for (i=0;i<KEYLEN;++i)
 929              	 .loc 1 497 21 is_stmt 1 discriminator 3 view .LVU301
 930              	.LVL74:
 497:.././crypto/tiny-AES128-C/aes.c ****   for (i=0;i<KEYLEN;++i)
 931              	 .loc 1 497 13 discriminator 1 view .LVU302
 932 000e 8B42     	 cmp r3,r1
 933 0010 F9D1     	 bne .L47
 500:.././crypto/tiny-AES128-C/aes.c ****   }
 501:.././crypto/tiny-AES128-C/aes.c **** }
 934              	 .loc 1 501 1 is_stmt 0 view .LVU303
 935 0012 7047     	 bx lr
 936              	 .cfi_endproc
 937              	.LFE13:
 939              	 .section .text.AES128_ECB_indp_setkey,"ax",%progbits
 940              	 .align 1
 941              	 .global AES128_ECB_indp_setkey
 942              	 .syntax unified
 943              	 .thumb
 944              	 .thumb_func
 946              	AES128_ECB_indp_setkey:
 947              	.LVL75:
 948              	.LFB14:
 502:.././crypto/tiny-AES128-C/aes.c **** 
 503:.././crypto/tiny-AES128-C/aes.c **** 
 504:.././crypto/tiny-AES128-C/aes.c **** 
 505:.././crypto/tiny-AES128-C/aes.c **** /*****************************************************************************/
 506:.././crypto/tiny-AES128-C/aes.c **** /* Public functions:                                                         */
 507:.././crypto/tiny-AES128-C/aes.c **** /*****************************************************************************/
 508:.././crypto/tiny-AES128-C/aes.c **** 
 509:.././crypto/tiny-AES128-C/aes.c **** void AES128_ECB_indp_setkey(uint8_t* key)
 510:.././crypto/tiny-AES128-C/aes.c **** {
 949              	 .loc 1 510 1 is_stmt 1 view-0
 950              	 .cfi_startproc
 951              	 
 952              	 
 953              	 
 511:.././crypto/tiny-AES128-C/aes.c ****   Key = key;
 954              	 .loc 1 511 3 view .LVU305
 955              	 .loc 1 511 7 is_stmt 0 view .LVU306
 956 0000 014B     	 ldr r3,.L50
 957 0002 1860     	 str r0,[r3]
 512:.././crypto/tiny-AES128-C/aes.c ****   KeyExpansion();
 958              	 .loc 1 512 3 is_stmt 1 view .LVU307
 959 0004 014B     	 ldr r3,.L50+4
 960 0006 1847     	 bx r3
 961              	.LVL76:
 962              	.L51:
 963              	 .loc 1 512 3 is_stmt 0 view .LVU308
 964              	 .align 2
 965              	.L50:
 966 0008 00000000 	 .word Key
 967 000c 00000000 	 .word KeyExpansion
 968              	 .cfi_endproc
 969              	.LFE14:
 971              	 .section .text.AES128_ECB_indp_crypto,"ax",%progbits
 972              	 .align 1
 973              	 .global AES128_ECB_indp_crypto
 974              	 .syntax unified
 975              	 .thumb
 976              	 .thumb_func
 978              	AES128_ECB_indp_crypto:
 979              	.LVL77:
 980              	.LFB15:
 513:.././crypto/tiny-AES128-C/aes.c **** }
 514:.././crypto/tiny-AES128-C/aes.c **** 
 515:.././crypto/tiny-AES128-C/aes.c **** void AES128_ECB_indp_crypto(uint8_t* input)
 516:.././crypto/tiny-AES128-C/aes.c **** {
 981              	 .loc 1 516 1 is_stmt 1 view-0
 982              	 .cfi_startproc
 983              	 
 984              	 
 517:.././crypto/tiny-AES128-C/aes.c ****   state = (state_t*)input;
 985              	 .loc 1 517 3 view .LVU310
 516:.././crypto/tiny-AES128-C/aes.c ****   state = (state_t*)input;
 986              	 .loc 1 516 1 is_stmt 0 view .LVU311
 987 0000 10B5     	 push {r4,lr}
 988              	.LCFI9:
 989              	 .cfi_def_cfa_offset 8
 990              	 .cfi_offset 4,-8
 991              	 .cfi_offset 14,-4
 992              	 .loc 1 517 9 view .LVU312
 993 0002 054B     	 ldr r3,.L53
 516:.././crypto/tiny-AES128-C/aes.c ****   state = (state_t*)input;
 994              	 .loc 1 516 1 view .LVU313
 995 0004 0146     	 mov r1,r0
 996              	 .loc 1 517 9 view .LVU314
 997 0006 1860     	 str r0,[r3]
 518:.././crypto/tiny-AES128-C/aes.c ****   BlockCopy(input_save, input);
 998              	 .loc 1 518 3 is_stmt 1 view .LVU315
 999 0008 044B     	 ldr r3,.L53+4
 1000 000a 0548     	 ldr r0,.L53+8
 1001              	.LVL78:
 1002              	 .loc 1 518 3 is_stmt 0 view .LVU316
 1003 000c 9847     	 blx r3
 1004              	.LVL79:
 519:.././crypto/tiny-AES128-C/aes.c ****   Cipher();
 1005              	 .loc 1 519 3 is_stmt 1 view .LVU317
 520:.././crypto/tiny-AES128-C/aes.c **** }
 1006              	 .loc 1 520 1 is_stmt 0 view .LVU318
 1007 000e BDE81040 	 pop {r4,lr}
 1008              	.LCFI10:
 1009              	 .cfi_restore 14
 1010              	 .cfi_restore 4
 1011              	 .cfi_def_cfa_offset 0
 519:.././crypto/tiny-AES128-C/aes.c ****   Cipher();
 1012              	 .loc 1 519 3 view .LVU319
 1013 0012 044B     	 ldr r3,.L53+12
 1014 0014 1847     	 bx r3
 1015              	.LVL80:
 1016              	.L54:
 1017 0016 00BF     	 .align 2
 1018              	.L53:
 1019 0018 00000000 	 .word state
 1020 001c 00000000 	 .word BlockCopy
 1021 0020 00000000 	 .word input_save
 1022 0024 00000000 	 .word Cipher
 1023              	 .cfi_endproc
 1024              	.LFE15:
 1026              	 .section .text.AES128_ECB_encrypt,"ax",%progbits
 1027              	 .align 1
 1028              	 .global AES128_ECB_encrypt
 1029              	 .syntax unified
 1030              	 .thumb
 1031              	 .thumb_func
 1033              	AES128_ECB_encrypt:
 1034              	.LVL81:
 1035              	.LFB16:
 521:.././crypto/tiny-AES128-C/aes.c **** 
 522:.././crypto/tiny-AES128-C/aes.c **** void AES128_ECB_encrypt(uint8_t* input, uint8_t* key, uint8_t* output)
 523:.././crypto/tiny-AES128-C/aes.c **** {
 1036              	 .loc 1 523 1 is_stmt 1 view-0
 1037              	 .cfi_startproc
 1038              	 
 1039              	 
 524:.././crypto/tiny-AES128-C/aes.c ****   // Copy input to output, and work in-memory on output
 525:.././crypto/tiny-AES128-C/aes.c ****   BlockCopy(output, input);
 1040              	 .loc 1 525 3 view .LVU321
 523:.././crypto/tiny-AES128-C/aes.c ****   // Copy input to output, and work in-memory on output
 1041              	 .loc 1 523 1 is_stmt 0 view .LVU322
 1042 0000 70B5     	 push {r4,r5,r6,lr}
 1043              	.LCFI11:
 1044              	 .cfi_def_cfa_offset 16
 1045              	 .cfi_offset 4,-16
 1046              	 .cfi_offset 5,-12
 1047              	 .cfi_offset 6,-8
 1048              	 .cfi_offset 14,-4
 1049              	 .loc 1 525 3 view .LVU323
 1050 0002 084B     	 ldr r3,.L56
 523:.././crypto/tiny-AES128-C/aes.c ****   // Copy input to output, and work in-memory on output
 1051              	 .loc 1 523 1 view .LVU324
 1052 0004 0D46     	 mov r5,r1
 1053              	 .loc 1 525 3 view .LVU325
 1054 0006 0146     	 mov r1,r0
 1055              	.LVL82:
 1056              	 .loc 1 525 3 view .LVU326
 1057 0008 1046     	 mov r0,r2
 1058              	.LVL83:
 523:.././crypto/tiny-AES128-C/aes.c ****   // Copy input to output, and work in-memory on output
 1059              	 .loc 1 523 1 view .LVU327
 1060 000a 1446     	 mov r4,r2
 1061              	 .loc 1 525 3 view .LVU328
 1062 000c 9847     	 blx r3
 1063              	.LVL84:
 526:.././crypto/tiny-AES128-C/aes.c ****   state = (state_t*)output;
 1064              	 .loc 1 526 3 is_stmt 1 view .LVU329
 1065              	 .loc 1 526 9 is_stmt 0 view .LVU330
 1066 000e 064B     	 ldr r3,.L56+4
 1067 0010 1C60     	 str r4,[r3]
 527:.././crypto/tiny-AES128-C/aes.c **** 
 528:.././crypto/tiny-AES128-C/aes.c ****   Key = key;
 1068              	 .loc 1 528 3 is_stmt 1 view .LVU331
 1069              	 .loc 1 528 7 is_stmt 0 view .LVU332
 1070 0012 064B     	 ldr r3,.L56+8
 1071 0014 1D60     	 str r5,[r3]
 529:.././crypto/tiny-AES128-C/aes.c ****   KeyExpansion();
 1072              	 .loc 1 529 3 is_stmt 1 view .LVU333
 1073 0016 064B     	 ldr r3,.L56+12
 1074 0018 9847     	 blx r3
 1075              	.LVL85:
 530:.././crypto/tiny-AES128-C/aes.c **** 
 531:.././crypto/tiny-AES128-C/aes.c ****   // The next function call encrypts the PlainText with the Key using AES algorithm.
 532:.././crypto/tiny-AES128-C/aes.c ****   Cipher();
 1076              	 .loc 1 532 3 view .LVU334
 533:.././crypto/tiny-AES128-C/aes.c **** }
 1077              	 .loc 1 533 1 is_stmt 0 view .LVU335
 1078 001a BDE87040 	 pop {r4,r5,r6,lr}
 1079              	.LCFI12:
 1080              	 .cfi_restore 14
 1081              	 .cfi_restore 6
 1082              	 .cfi_restore 5
 1083              	 .cfi_restore 4
 1084              	 .cfi_def_cfa_offset 0
 1085              	.LVL86:
 532:.././crypto/tiny-AES128-C/aes.c **** }
 1086              	 .loc 1 532 3 view .LVU336
 1087 001e 054B     	 ldr r3,.L56+16
 1088 0020 1847     	 bx r3
 1089              	.LVL87:
 1090              	.L57:
 1091 0022 00BF     	 .align 2
 1092              	.L56:
 1093 0024 00000000 	 .word BlockCopy
 1094 0028 00000000 	 .word state
 1095 002c 00000000 	 .word Key
 1096 0030 00000000 	 .word KeyExpansion
 1097 0034 00000000 	 .word Cipher
 1098              	 .cfi_endproc
 1099              	.LFE16:
 1101              	 .section .text.AES128_ECB_decrypt,"ax",%progbits
 1102              	 .align 1
 1103              	 .global AES128_ECB_decrypt
 1104              	 .syntax unified
 1105              	 .thumb
 1106              	 .thumb_func
 1108              	AES128_ECB_decrypt:
 1109              	.LVL88:
 1110              	.LFB17:
 534:.././crypto/tiny-AES128-C/aes.c **** 
 535:.././crypto/tiny-AES128-C/aes.c **** void AES128_ECB_decrypt(uint8_t* input, uint8_t* key, uint8_t *output)
 536:.././crypto/tiny-AES128-C/aes.c **** {
 1111              	 .loc 1 536 1 is_stmt 1 view-0
 1112              	 .cfi_startproc
 1113              	 
 1114              	 
 537:.././crypto/tiny-AES128-C/aes.c ****   // Copy input to output, and work in-memory on output
 538:.././crypto/tiny-AES128-C/aes.c ****   BlockCopy(output, input);
 1115              	 .loc 1 538 3 view .LVU338
 536:.././crypto/tiny-AES128-C/aes.c ****   // Copy input to output, and work in-memory on output
 1116              	 .loc 1 536 1 is_stmt 0 view .LVU339
 1117 0000 2DE9F04F 	 push {r4,r5,r6,r7,r8,r9,r10,fp,lr}
 1118              	.LCFI13:
 1119              	 .cfi_def_cfa_offset 36
 1120              	 .cfi_offset 4,-36
 1121              	 .cfi_offset 5,-32
 1122              	 .cfi_offset 6,-28
 1123              	 .cfi_offset 7,-24
 1124              	 .cfi_offset 8,-20
 1125              	 .cfi_offset 9,-16
 1126              	 .cfi_offset 10,-12
 1127              	 .cfi_offset 11,-8
 1128              	 .cfi_offset 14,-4
 1129 0004 8DB0     	 sub sp,sp,#52
 1130              	.LCFI14:
 1131              	 .cfi_def_cfa_offset 88
 536:.././crypto/tiny-AES128-C/aes.c ****   // Copy input to output, and work in-memory on output
 1132              	 .loc 1 536 1 view .LVU340
 1133 0006 0C46     	 mov r4,r1
 1134              	 .loc 1 538 3 view .LVU341
 1135 0008 534B     	 ldr r3,.L63
 536:.././crypto/tiny-AES128-C/aes.c ****   // Copy input to output, and work in-memory on output
 1136              	 .loc 1 536 1 view .LVU342
 1137 000a 0392     	 str r2,[sp,#12]
 1138              	 .loc 1 538 3 view .LVU343
 1139 000c 0146     	 mov r1,r0
 1140              	.LVL89:
 1141              	 .loc 1 538 3 view .LVU344
 1142 000e 1046     	 mov r0,r2
 1143              	.LVL90:
 1144              	 .loc 1 538 3 view .LVU345
 1145 0010 9847     	 blx r3
 1146              	.LVL91:
 539:.././crypto/tiny-AES128-C/aes.c ****   state = (state_t*)output;
 1147              	 .loc 1 539 3 is_stmt 1 view .LVU346
 1148              	 .loc 1 539 9 is_stmt 0 view .LVU347
 1149 0012 524B     	 ldr r3,.L63+4
 1150 0014 039A     	 ldr r2,[sp,#12]
 1151 0016 1A60     	 str r2,[r3]
 540:.././crypto/tiny-AES128-C/aes.c **** 
 541:.././crypto/tiny-AES128-C/aes.c ****   // The KeyExpansion routine must be called before encryption.
 542:.././crypto/tiny-AES128-C/aes.c ****   Key = key;
 1152              	 .loc 1 542 3 is_stmt 1 view .LVU348
 1153              	 .loc 1 542 7 is_stmt 0 view .LVU349
 1154 0018 514B     	 ldr r3,.L63+8
 1155 001a 1C60     	 str r4,[r3]
 543:.././crypto/tiny-AES128-C/aes.c ****   KeyExpansion();
 1156              	 .loc 1 543 3 is_stmt 1 view .LVU350
 1157 001c 514B     	 ldr r3,.L63+12
 1158              	.LBB50:
 1159              	.LBB51:
 474:.././crypto/tiny-AES128-C/aes.c **** 
 1160              	 .loc 1 474 3 is_stmt 0 view .LVU351
 1161 001e 524C     	 ldr r4,.L63+16
 1162              	.LVL92:
 474:.././crypto/tiny-AES128-C/aes.c **** 
 1163              	 .loc 1 474 3 view .LVU352
 1164              	.LBE51:
 1165              	.LBE50:
 1166              	 .loc 1 543 3 view .LVU353
 1167 0020 9847     	 blx r3
 1168              	.LVL93:
 544:.././crypto/tiny-AES128-C/aes.c **** 
 545:.././crypto/tiny-AES128-C/aes.c ****   InvCipher();
 1169              	 .loc 1 545 3 is_stmt 1 view .LVU354
 1170              	.LBB58:
 1171              	.LBI50:
 469:.././crypto/tiny-AES128-C/aes.c **** {
 1172              	 .loc 1 469 13 view .LVU355
 1173              	.LBB56:
 471:.././crypto/tiny-AES128-C/aes.c **** 
 1174              	 .loc 1 471 3 view .LVU356
 474:.././crypto/tiny-AES128-C/aes.c **** 
 1175              	 .loc 1 474 3 view .LVU357
 1176 0022 0A20     	 movs r0,#10
 1177 0024 A047     	 blx r4
 1178              	.LVL94:
 479:.././crypto/tiny-AES128-C/aes.c ****   {
 1179              	 .loc 1 479 3 view .LVU358
 479:.././crypto/tiny-AES128-C/aes.c ****   {
 1180              	 .loc 1 479 23 discriminator 1 view .LVU359
 479:.././crypto/tiny-AES128-C/aes.c ****   {
 1181              	 .loc 1 479 12 is_stmt 0 view .LVU360
 1182 0026 0923     	 movs r3,#9
 1183 0028 0093     	 str r3,[sp]
 483:.././crypto/tiny-AES128-C/aes.c ****     InvMixColumns();
 1184              	 .loc 1 483 5 view .LVU361
 1185 002a 0A94     	 str r4,[sp,#40]
 1186              	.LVL95:
 1187              	.L60:
 481:.././crypto/tiny-AES128-C/aes.c ****     InvSubBytes();
 1188              	 .loc 1 481 5 is_stmt 1 view .LVU362
 1189 002c 4F4B     	 ldr r3,.L63+20
 1190              	.LBB52:
 1191              	.LBB53:
 392:.././crypto/tiny-AES128-C/aes.c ****     (*state)[i][1] = Multiply(a, 0x09) ^ Multiply(b, 0x0e) ^ Multiply(c, 0x0b) ^ Multiply(d, 0x0d);
 1192              	 .loc 1 392 22 is_stmt 0 view .LVU363
 1193 002e 504C     	 ldr r4,.L63+24
 1194              	.LBE53:
 1195              	.LBE52:
 481:.././crypto/tiny-AES128-C/aes.c ****     InvSubBytes();
 1196              	 .loc 1 481 5 view .LVU364
 1197 0030 9847     	 blx r3
 1198              	.LVL96:
 482:.././crypto/tiny-AES128-C/aes.c ****     AddRoundKey(round);
 1199              	 .loc 1 482 5 is_stmt 1 view .LVU365
 1200 0032 504B     	 ldr r3,.L63+28
 1201 0034 9847     	 blx r3
 1202              	.LVL97:
 483:.././crypto/tiny-AES128-C/aes.c ****     InvMixColumns();
 1203              	 .loc 1 483 5 view .LVU366
 1204 0036 0A9B     	 ldr r3,[sp,#40]
 1205 0038 0098     	 ldr r0,[sp]
 1206 003a 9847     	 blx r3
 1207              	.LVL98:
 484:.././crypto/tiny-AES128-C/aes.c ****   }
 1208              	 .loc 1 484 5 view .LVU367
 1209              	.LBB55:
 1210              	.LBI52:
 381:.././crypto/tiny-AES128-C/aes.c **** {
 1211              	 .loc 1 381 13 view .LVU368
 1212              	.LBB54:
 383:.././crypto/tiny-AES128-C/aes.c ****   uint8_t a,b,c,d;
 1213              	 .loc 1 383 3 view .LVU369
 384:.././crypto/tiny-AES128-C/aes.c ****   for(i=0;i<4;++i)
 1214              	 .loc 1 384 3 view .LVU370
 385:.././crypto/tiny-AES128-C/aes.c ****   { 
 1215              	 .loc 1 385 3 view .LVU371
 385:.././crypto/tiny-AES128-C/aes.c ****   { 
 1216              	 .loc 1 385 12 discriminator 1 view .LVU372
 1217 003c 039D     	 ldr r5,[sp,#12]
 1218 003e 2B46     	 mov r3,r5
 1219 0040 1033     	 adds r3,r3,#16
 1220 0042 0993     	 str r3,[sp,#36]
 1221              	.LVL99:
 1222              	.L59:
 387:.././crypto/tiny-AES128-C/aes.c ****     b = (*state)[i][1];
 1223              	 .loc 1 387 5 view .LVU373
 387:.././crypto/tiny-AES128-C/aes.c ****     b = (*state)[i][1];
 1224              	 .loc 1 387 7 is_stmt 0 view .LVU374
 1225 0044 2B78     	 ldrb r3,[r5]
 1226 0046 0193     	 str r3,[sp,#4]
 1227              	.LVL100:
 388:.././crypto/tiny-AES128-C/aes.c ****     c = (*state)[i][2];
 1228              	 .loc 1 388 5 is_stmt 1 view .LVU375
 392:.././crypto/tiny-AES128-C/aes.c ****     (*state)[i][1] = Multiply(a, 0x09) ^ Multiply(b, 0x0e) ^ Multiply(c, 0x0b) ^ Multiply(d, 0x0d);
 1229              	 .loc 1 392 22 is_stmt 0 view .LVU376
 1230 0048 0198     	 ldr r0,[sp,#4]
 388:.././crypto/tiny-AES128-C/aes.c ****     c = (*state)[i][2];
 1231              	 .loc 1 388 7 view .LVU377
 1232 004a 6B78     	 ldrb r3,[r5,#1]
 1233 004c 0293     	 str r3,[sp,#8]
 1234              	.LVL101:
 389:.././crypto/tiny-AES128-C/aes.c ****     d = (*state)[i][3];
 1235              	 .loc 1 389 5 is_stmt 1 view .LVU378
 392:.././crypto/tiny-AES128-C/aes.c ****     (*state)[i][1] = Multiply(a, 0x09) ^ Multiply(b, 0x0e) ^ Multiply(c, 0x0b) ^ Multiply(d, 0x0d);
 1236              	 .loc 1 392 22 is_stmt 0 view .LVU379
 1237 004e A047     	 blx r4
 1238              	.LVL102:
 1239 0050 0490     	 str r0,[sp,#16]
 392:.././crypto/tiny-AES128-C/aes.c ****     (*state)[i][1] = Multiply(a, 0x09) ^ Multiply(b, 0x0e) ^ Multiply(c, 0x0b) ^ Multiply(d, 0x0d);
 1240              	 .loc 1 392 22 discriminator 1 view .LVU380
 1241 0052 A047     	 blx r4
 1242              	.LVL103:
 1243 0054 0590     	 str r0,[sp,#20]
 392:.././crypto/tiny-AES128-C/aes.c ****     (*state)[i][1] = Multiply(a, 0x09) ^ Multiply(b, 0x0e) ^ Multiply(c, 0x0b) ^ Multiply(d, 0x0d);
 1244              	 .loc 1 392 22 discriminator 2 view .LVU381
 1245 0056 A047     	 blx r4
 1246              	.LVL104:
 1247 0058 8246     	 mov r10,r0
 392:.././crypto/tiny-AES128-C/aes.c ****     (*state)[i][1] = Multiply(a, 0x09) ^ Multiply(b, 0x0e) ^ Multiply(c, 0x0b) ^ Multiply(d, 0x0d);
 1248              	 .loc 1 392 42 discriminator 4 view .LVU382
 1249 005a 0298     	 ldr r0,[sp,#8]
 389:.././crypto/tiny-AES128-C/aes.c ****     d = (*state)[i][3];
 1250              	 .loc 1 389 7 view .LVU383
 1251 005c 95F80280 	 ldrb r8,[r5,#2]
 1252              	.LVL105:
 390:.././crypto/tiny-AES128-C/aes.c **** 
 1253              	 .loc 1 390 5 is_stmt 1 view .LVU384
 390:.././crypto/tiny-AES128-C/aes.c **** 
 1254              	 .loc 1 390 7 is_stmt 0 view .LVU385
 1255 0060 95F803B0 	 ldrb fp,[r5,#3]
 1256              	.LVL106:
 392:.././crypto/tiny-AES128-C/aes.c ****     (*state)[i][1] = Multiply(a, 0x09) ^ Multiply(b, 0x0e) ^ Multiply(c, 0x0b) ^ Multiply(d, 0x0d);
 1257              	 .loc 1 392 5 is_stmt 1 view .LVU386
 392:.././crypto/tiny-AES128-C/aes.c ****     (*state)[i][1] = Multiply(a, 0x09) ^ Multiply(b, 0x0e) ^ Multiply(c, 0x0b) ^ Multiply(d, 0x0d);
 1258              	 .loc 1 392 42 is_stmt 0 discriminator 4 view .LVU387
 1259 0064 A047     	 blx r4
 1260              	.LVL107:
 1261 0066 0246     	 mov r2,r0
 392:.././crypto/tiny-AES128-C/aes.c ****     (*state)[i][1] = Multiply(a, 0x09) ^ Multiply(b, 0x0e) ^ Multiply(c, 0x0b) ^ Multiply(d, 0x0d);
 1262              	 .loc 1 392 42 discriminator 7 view .LVU388
 1263 0068 A047     	 blx r4
 1264              	.LVL108:
 1265 006a 0690     	 str r0,[sp,#24]
 392:.././crypto/tiny-AES128-C/aes.c ****     (*state)[i][1] = Multiply(a, 0x09) ^ Multiply(b, 0x0e) ^ Multiply(c, 0x0b) ^ Multiply(d, 0x0d);
 1266              	 .loc 1 392 42 discriminator 8 view .LVU389
 1267 006c A047     	 blx r4
 1268              	.LVL109:
 1269 006e 0746     	 mov r7,r0
 392:.././crypto/tiny-AES128-C/aes.c ****     (*state)[i][1] = Multiply(a, 0x09) ^ Multiply(b, 0x0e) ^ Multiply(c, 0x0b) ^ Multiply(d, 0x0d);
 1270              	 .loc 1 392 62 discriminator 11 view .LVU390
 1271 0070 4046     	 mov r0,r8
 1272 0072 A047     	 blx r4
 1273              	.LVL110:
 1274 0074 0B90     	 str r0,[sp,#44]
 392:.././crypto/tiny-AES128-C/aes.c ****     (*state)[i][1] = Multiply(a, 0x09) ^ Multiply(b, 0x0e) ^ Multiply(c, 0x0b) ^ Multiply(d, 0x0d);
 1275              	 .loc 1 392 62 discriminator 12 view .LVU391
 1276 0076 A047     	 blx r4
 1277              	.LVL111:
 1278 0078 0790     	 str r0,[sp,#28]
 392:.././crypto/tiny-AES128-C/aes.c ****     (*state)[i][1] = Multiply(a, 0x09) ^ Multiply(b, 0x0e) ^ Multiply(c, 0x0b) ^ Multiply(d, 0x0d);
 1279              	 .loc 1 392 62 discriminator 13 view .LVU392
 1280 007a A047     	 blx r4
 1281              	.LVL112:
 1282 007c 0646     	 mov r6,r0
 392:.././crypto/tiny-AES128-C/aes.c ****     (*state)[i][1] = Multiply(a, 0x09) ^ Multiply(b, 0x0e) ^ Multiply(c, 0x0b) ^ Multiply(d, 0x0d);
 1283              	 .loc 1 392 82 discriminator 16 view .LVU393
 1284 007e 5846     	 mov r0,fp
 1285 0080 A047     	 blx r4
 1286              	.LVL113:
 1287 0082 0890     	 str r0,[sp,#32]
 392:.././crypto/tiny-AES128-C/aes.c ****     (*state)[i][1] = Multiply(a, 0x09) ^ Multiply(b, 0x0e) ^ Multiply(c, 0x0b) ^ Multiply(d, 0x0d);
 1288              	 .loc 1 392 82 discriminator 19 view .LVU394
 1289 0084 A047     	 blx r4
 1290              	.LVL114:
 1291 0086 8146     	 mov r9,r0
 392:.././crypto/tiny-AES128-C/aes.c ****     (*state)[i][1] = Multiply(a, 0x09) ^ Multiply(b, 0x0e) ^ Multiply(c, 0x0b) ^ Multiply(d, 0x0d);
 1292              	 .loc 1 392 82 discriminator 20 view .LVU395
 1293 0088 A047     	 blx r4
 1294              	.LVL115:
 392:.././crypto/tiny-AES128-C/aes.c ****     (*state)[i][1] = Multiply(a, 0x09) ^ Multiply(b, 0x0e) ^ Multiply(c, 0x0b) ^ Multiply(d, 0x0d);
 1295              	 .loc 1 392 80 discriminator 40 view .LVU396
 1296 008a DDE90431 	 ldrd r3,r1,[sp,#16]
 1297 008e 83EA010C 	 eor ip,r3,r1
 1298 0092 8AEA0C0C 	 eor ip,r10,ip
 1299 0096 079B     	 ldr r3,[sp,#28]
 393:.././crypto/tiny-AES128-C/aes.c ****     (*state)[i][2] = Multiply(a, 0x0d) ^ Multiply(b, 0x09) ^ Multiply(c, 0x0e) ^ Multiply(d, 0x0b);
 1300              	 .loc 1 393 80 discriminator 40 view .LVU397
 1301 0098 0199     	 ldr r1,[sp,#4]
 392:.././crypto/tiny-AES128-C/aes.c ****     (*state)[i][1] = Multiply(a, 0x09) ^ Multiply(b, 0x0e) ^ Multiply(c, 0x0b) ^ Multiply(d, 0x0d);
 1302              	 .loc 1 392 80 discriminator 40 view .LVU398
 1303 009a 82EA0C0C 	 eor ip,r2,ip
 1304 009e 87EA0C0C 	 eor ip,r7,ip
 1305 00a2 83EA0C0C 	 eor ip,r3,ip
 1306 00a6 86EA0C0C 	 eor ip,r6,ip
 1307 00aa 029B     	 ldr r3,[sp,#8]
 1308 00ac 80EA0C0C 	 eor ip,r0,ip
 1309 00b0 83EA0C0C 	 eor ip,r3,ip
 393:.././crypto/tiny-AES128-C/aes.c ****     (*state)[i][2] = Multiply(a, 0x0d) ^ Multiply(b, 0x09) ^ Multiply(c, 0x0e) ^ Multiply(d, 0x0b);
 1310              	 .loc 1 393 80 discriminator 40 view .LVU399
 1311 00b4 069B     	 ldr r3,[sp,#24]
 1312 00b6 8AEA0202 	 eor r2,r10,r2
 1313 00ba 5A40     	 eors r2,r2,r3
 1314 00bc 0B9B     	 ldr r3,[sp,#44]
 1315 00be 7A40     	 eors r2,r2,r7
 1316 00c0 5A40     	 eors r2,r2,r3
 1317 00c2 7240     	 eors r2,r2,r6
 1318 00c4 89EA0202 	 eor r2,r9,r2
 1319 00c8 4240     	 eors r2,r2,r0
 1320 00ca 4A40     	 eors r2,r2,r1
 1321 00cc 88EA0202 	 eor r2,r8,r2
 1322 00d0 8BEA0202 	 eor r2,fp,r2
 393:.././crypto/tiny-AES128-C/aes.c ****     (*state)[i][2] = Multiply(a, 0x0d) ^ Multiply(b, 0x09) ^ Multiply(c, 0x0e) ^ Multiply(d, 0x0b);
 1323              	 .loc 1 393 20 discriminator 40 view .LVU400
 1324 00d4 6A70     	 strb r2,[r5,#1]
 394:.././crypto/tiny-AES128-C/aes.c ****     (*state)[i][3] = Multiply(a, 0x0b) ^ Multiply(b, 0x0d) ^ Multiply(c, 0x09) ^ Multiply(d, 0x0e);
 1325              	 .loc 1 394 80 discriminator 40 view .LVU401
 1326 00d6 059A     	 ldr r2,[sp,#20]
 1327 00d8 82EA0A02 	 eor r2,r2,r10
 1328 00dc 7A40     	 eors r2,r2,r7
 1329 00de 5340     	 eors r3,r3,r2
 1330 00e0 079A     	 ldr r2,[sp,#28]
 1331 00e2 5340     	 eors r3,r3,r2
 1332 00e4 089A     	 ldr r2,[sp,#32]
 1333 00e6 7340     	 eors r3,r3,r6
 1334 00e8 5340     	 eors r3,r3,r2
 1335 00ea 4340     	 eors r3,r3,r0
 1336 00ec 029A     	 ldr r2,[sp,#8]
 1337 00ee 4B40     	 eors r3,r3,r1
 1338 00f0 5340     	 eors r3,r3,r2
 392:.././crypto/tiny-AES128-C/aes.c ****     (*state)[i][1] = Multiply(a, 0x09) ^ Multiply(b, 0x0e) ^ Multiply(c, 0x0b) ^ Multiply(d, 0x0d);
 1339              	 .loc 1 392 80 discriminator 40 view .LVU402
 1340 00f2 88EA0C0C 	 eor ip,r8,ip
 1341 00f6 8BEA0C0C 	 eor ip,fp,ip
 394:.././crypto/tiny-AES128-C/aes.c ****     (*state)[i][3] = Multiply(a, 0x0b) ^ Multiply(b, 0x0d) ^ Multiply(c, 0x09) ^ Multiply(d, 0x0e);
 1342              	 .loc 1 394 80 discriminator 40 view .LVU403
 1343 00fa 8BEA030B 	 eor fp,fp,r3
 1344              	.LVL116:
 392:.././crypto/tiny-AES128-C/aes.c ****     (*state)[i][1] = Multiply(a, 0x09) ^ Multiply(b, 0x0e) ^ Multiply(c, 0x0b) ^ Multiply(d, 0x0d);
 1345              	 .loc 1 392 20 discriminator 40 view .LVU404
 1346 00fe 85F800C0 	 strb ip,[r5]
 393:.././crypto/tiny-AES128-C/aes.c ****     (*state)[i][2] = Multiply(a, 0x0d) ^ Multiply(b, 0x09) ^ Multiply(c, 0x0e) ^ Multiply(d, 0x0b);
 1347              	 .loc 1 393 5 is_stmt 1 view .LVU405
 394:.././crypto/tiny-AES128-C/aes.c ****     (*state)[i][3] = Multiply(a, 0x0b) ^ Multiply(b, 0x0d) ^ Multiply(c, 0x09) ^ Multiply(d, 0x0e);
 1348              	 .loc 1 394 5 view .LVU406
 394:.././crypto/tiny-AES128-C/aes.c ****     (*state)[i][3] = Multiply(a, 0x0b) ^ Multiply(b, 0x0d) ^ Multiply(c, 0x09) ^ Multiply(d, 0x0e);
 1349              	 .loc 1 394 20 is_stmt 0 discriminator 40 view .LVU407
 1350 0102 85F802B0 	 strb fp,[r5,#2]
 395:.././crypto/tiny-AES128-C/aes.c ****   }
 1351              	 .loc 1 395 5 is_stmt 1 view .LVU408
 395:.././crypto/tiny-AES128-C/aes.c ****   }
 1352              	 .loc 1 395 80 is_stmt 0 discriminator 40 view .LVU409
 1353 0106 049B     	 ldr r3,[sp,#16]
 1354 0108 069A     	 ldr r2,[sp,#24]
 1355 010a 83EA0A03 	 eor r3,r3,r10
 1356 010e 5340     	 eors r3,r3,r2
 1357 0110 5F40     	 eors r7,r7,r3
 1358 0112 089B     	 ldr r3,[sp,#32]
 1359 0114 7E40     	 eors r6,r6,r7
 1360 0116 7340     	 eors r3,r3,r6
 1361 0118 89EA0309 	 eor r9,r9,r3
 1362 011c 80EA0900 	 eor r0,r0,r9
 1363 0120 029B     	 ldr r3,[sp,#8]
 1364 0122 4840     	 eors r0,r0,r1
 1365 0124 4340     	 eors r3,r3,r0
 1366 0126 88EA0303 	 eor r3,r8,r3
 395:.././crypto/tiny-AES128-C/aes.c ****   }
 1367              	 .loc 1 395 20 discriminator 40 view .LVU410
 1368 012a EB70     	 strb r3,[r5,#3]
 385:.././crypto/tiny-AES128-C/aes.c ****   { 
 1369              	 .loc 1 385 15 is_stmt 1 discriminator 3 view .LVU411
 385:.././crypto/tiny-AES128-C/aes.c ****   { 
 1370              	 .loc 1 385 12 discriminator 1 view .LVU412
 1371 012c 099B     	 ldr r3,[sp,#36]
 1372 012e 0435     	 adds r5,r5,#4
 1373 0130 AB42     	 cmp r3,r5
 1374 0132 87D1     	 bne .L59
 1375              	.LVL117:
 385:.././crypto/tiny-AES128-C/aes.c ****   { 
 1376              	 .loc 1 385 12 is_stmt 0 discriminator 1 view .LVU413
 1377              	.LBE54:
 1378              	.LBE55:
 479:.././crypto/tiny-AES128-C/aes.c ****   {
 1379              	 .loc 1 479 31 is_stmt 1 discriminator 3 view .LVU414
 1380 0134 009B     	 ldr r3,[sp]
 1381 0136 03F1FF38 	 add r8,r3,#-1
 1382              	.LVL118:
 479:.././crypto/tiny-AES128-C/aes.c ****   {
 1383              	 .loc 1 479 23 discriminator 1 view .LVU415
 1384 013a 18F0FF03 	 ands r3,r8,#255
 1385 013e 0093     	 str r3,[sp]
 1386 0140 7FF474AF 	 bne .L60
 489:.././crypto/tiny-AES128-C/aes.c ****   InvSubBytes();
 1387              	 .loc 1 489 3 view .LVU416
 1388 0144 094B     	 ldr r3,.L63+20
 1389 0146 9847     	 blx r3
 1390              	.LVL119:
 490:.././crypto/tiny-AES128-C/aes.c ****   AddRoundKey(0);
 1391              	 .loc 1 490 3 view .LVU417
 1392 0148 0A4B     	 ldr r3,.L63+28
 1393 014a 9847     	 blx r3
 1394              	.LVL120:
 491:.././crypto/tiny-AES128-C/aes.c **** }
 1395              	 .loc 1 491 3 view .LVU418
 1396 014c 0098     	 ldr r0,[sp]
 1397 014e 064B     	 ldr r3,.L63+16
 1398              	.LBE56:
 1399              	.LBE58:
 546:.././crypto/tiny-AES128-C/aes.c **** }
 1400              	 .loc 1 546 1 is_stmt 0 view .LVU419
 1401 0150 0DB0     	 add sp,sp,#52
 1402              	.LCFI15:
 1403              	 .cfi_def_cfa_offset 36
 1404              	 
 1405 0152 BDE8F04F 	 pop {r4,r5,r6,r7,r8,r9,r10,fp,lr}
 1406              	.LCFI16:
 1407              	 .cfi_restore 14
 1408              	 .cfi_restore 11
 1409              	 .cfi_restore 10
 1410              	 .cfi_restore 9
 1411              	 .cfi_restore 8
 1412              	 .cfi_restore 7
 1413              	 .cfi_restore 6
 1414              	 .cfi_restore 5
 1415              	 .cfi_restore 4
 1416              	 .cfi_def_cfa_offset 0
 1417              	.LVL121:
 1418              	.LBB59:
 1419              	.LBB57:
 491:.././crypto/tiny-AES128-C/aes.c **** }
 1420              	 .loc 1 491 3 view .LVU420
 1421 0156 1847     	 bx r3
 1422              	.LVL122:
 1423              	.L64:
 1424              	 .align 2
 1425              	.L63:
 1426 0158 00000000 	 .word BlockCopy
 1427 015c 00000000 	 .word state
 1428 0160 00000000 	 .word Key
 1429 0164 00000000 	 .word KeyExpansion
 1430 0168 00000000 	 .word AddRoundKey
 1431 016c 00000000 	 .word InvShiftRows
 1432 0170 00000000 	 .word xtime
 1433 0174 00000000 	 .word InvSubBytes
 1434              	.LBE57:
 1435              	.LBE59:
 1436              	 .cfi_endproc
 1437              	.LFE17:
 1439              	 .global Rcon
 1440              	 .section .data.Rcon,"aw"
 1443              	Rcon:
 1444 0000 8D010204 	 .ascii "\215\001\002\004\010\020 @\200\0336"
 1444      08102040 
 1444      801B36
 1445              	 .global rsbox
 1446              	 .section .data.rsbox,"aw"
 1449              	rsbox:
 1450 0000 52096AD5 	 .ascii "R\011j\32506\2458\277@\243\236\201\363\327\373|\343"
 1450      3036A538 
 1450      BF40A39E 
 1450      81F3D7FB 
 1450      7CE3
 1451 0012 39829B2F 	 .ascii "9\202\233/\377\2074\216CD\304\336\351\313T{\2242\246"
 1451      FF87348E 
 1451      4344C4DE 
 1451      E9CB547B 
 1451      9432A6
 1452 0025 C2233DEE 	 .ascii "\302#=\356L\225\013B\372\303N\010.\241f(\331$\262v["
 1452      4C950B42 
 1452      FAC34E08 
 1452      2EA16628 
 1452      D924B276 
 1453 003a A2496D8B 	 .ascii "\242Im\213\321%r\370\366d\206h\230\026\324\244\\\314"
 1453      D12572F8 
 1453      F6648668 
 1453      9816D4A4 
 1453      5CCC
 1454 004c 5D65B692 	 .ascii "]e\266\222lpHP\375\355\271\332^\025FW\247\215\235\204"
 1454      6C704850 
 1454      FDEDB9DA 
 1454      5E154657 
 1454      A78D9D84 
 1455 0060 90D8AB00 	 .ascii "\220\330\253\000\214\274\323\012\367\344X\005\270\263"
 1455      8CBCD30A 
 1455      F7E45805 
 1455      B8B3
 1456 006e 4506D02C 	 .ascii "E\006\320,\036\217\312?\017\002\301\257\275\003\001"
 1456      1E8FCA3F 
 1456      0F02C1AF 
 1456      BD0301
 1457 007d 138A6B3A 	 .ascii "\023\212k:\221\021AOg\334\352\227\362\317\316\360\264"
 1457      9111414F 
 1457      67DCEA97 
 1457      F2CFCEF0 
 1457      B4
 1458 008e E67396AC 	 .ascii "\346s\226\254t\"\347\2555\205\342\3717\350\034u\337"
 1458      7422E7AD 
 1458      3585E2F9 
 1458      37E81C75 
 1458      DF
 1459 009f 6E47F11A 	 .ascii "nG\361\032q\035)\305\211o\267b\016\252\030\276\033\374"
 1459      711D29C5 
 1459      896FB762 
 1459      0EAA18BE 
 1459      1BFC
 1460 00b1 563E4BC6 	 .ascii "V>K\306\322y \232\333\300\376x\315Z\364\037\335\250"
 1460      D279209A 
 1460      DBC0FE78 
 1460      CD5AF41F 
 1460      DDA8
 1461 00c3 338807C7 	 .ascii "3\210\007\3071\261\022\020Y'\200\354_`Q\177\251\031"
 1461      31B11210 
 1461      592780EC 
 1461      5F60517F 
 1461      A919
 1462 00d5 B54A0D2D 	 .ascii "\265J\015-\345z\237\223\311\234\357\240\340;M\256*\365"
 1462      E57A9F93 
 1462      C99CEFA0 
 1462      E03B4DAE 
 1462      2AF5
 1463 00e7 B0C8EBBB 	 .ascii "\260\310\353\273<\203S\231a\027+\004~\272w\326&\341"
 1463      3C835399 
 1463      61172B04 
 1463      7EBA77D6 
 1463      26E1
 1464 00f9 69146355 	 .ascii "i\024cU!\014}"
 1464      210C7D
 1465              	 .global sbox
 1466              	 .section .data.sbox,"aw"
 1469              	sbox:
 1470 0000 637C777B 	 .ascii "c|w{\362ko\3050\001g+\376\327\253v\312\202\311}\372"
 1470      F26B6FC5 
 1470      3001672B 
 1470      FED7AB76 
 1470      CA82C97D 
 1471 0015 5947F0AD 	 .ascii "YG\360\255\324\242\257\234\244r\300\267\375\223&6?\367"
 1471      D4A2AF9C 
 1471      A472C0B7 
 1471      FD932636 
 1471      3FF7
 1472 0027 CC34A5E5 	 .ascii "\3144\245\345\361q\3301\025\004\307#\303\030\226\005"
 1472      F171D831 
 1472      1504C723 
 1472      C3189605 
 1473 0037 9A071280 	 .ascii "\232\007\022\200\342\353'\262u\011\203,\032\033nZ\240"
 1473      E2EB27B2 
 1473      7509832C 
 1473      1A1B6E5A 
 1473      A0
 1474 0048 523BD6B3 	 .ascii "R;\326\263)\343/\204S\321\000\355 \374\261[j\313\276"
 1474      29E32F84 
 1474      53D100ED 
 1474      20FCB15B 
 1474      6ACBBE
 1475 005b 394A4C58 	 .ascii "9JLX\317\320\357\252\373CM3\205E\371\002\177P<\237\250"
 1475      CFD0EFAA 
 1475      FB434D33 
 1475      8545F902 
 1475      7F503C9F 
 1476 0070 51A3408F 	 .ascii "Q\243@\217\222\2358\365\274\266\332!\020\377\363\322"
 1476      929D38F5 
 1476      BCB6DA21 
 1476      10FFF3D2 
 1477 0080 CD0C13EC 	 .ascii "\315\014\023\354_\227D\027\304\247~=d]\031s`\201O\334"
 1477      5F974417 
 1477      C4A77E3D 
 1477      645D1973 
 1477      60814FDC 
 1478 0094 222A9088 	 .ascii "\"*\220\210F\356\270\024\336^\013\333\3402:\012I\006"
 1478      46EEB814 
 1478      DE5E0BDB 
 1478      E0323A0A 
 1478      4906
 1479 00a6 245CC2D3 	 .ascii "$\\\302\323\254b\221\225\344y\347\3107m\215\325N\251"
 1479      AC629195 
 1479      E479E7C8 
 1479      376D8DD5 
 1479      4EA9
 1480 00b8 6C56F4EA 	 .ascii "lV\364\352ez\256\010\272x%.\034\246\264\306\350\335"
 1480      657AAE08 
 1480      BA78252E 
 1480      1CA6B4C6 
 1480      E8DD
 1481 00ca 741F4BBD 	 .ascii "t\037K\275\213\212p>\265fH\003\366\016a5W\271\206\301"
 1481      8B8A703E 
 1481      B5664803 
 1481      F60E6135 
 1481      57B986C1 
 1482 00de 1D9EE1F8 	 .ascii "\035\236\341\370\230\021i\331\216\224\233\036\207\351"
 1482      981169D9 
 1482      8E949B1E 
 1482      87E9
 1483 00ec CE5528DF 	 .ascii "\316U(\337\214\241\211\015\277\346BhA\231-\017\260T"
 1483      8CA1890D 
 1483      BFE64268 
 1483      41992D0F 
 1483      B054
 1484 00fe BB16     	 .ascii "\273\026"
 1485              	 .section .bss.Key,"aw",%nobits
 1486              	 .align 2
 1489              	Key:
 1490 0000 00000000 	 .space 4
 1491              	 .section .bss.input_save,"aw",%nobits
 1494              	input_save:
 1495 0000 00000000 	 .space 16
 1495      00000000 
 1495      00000000 
 1495      00000000 
 1496              	 .section .bss.RoundKey,"aw",%nobits
 1499              	RoundKey:
 1500 0000 00000000 	 .space 176
 1500      00000000 
 1500      00000000 
 1500      00000000 
 1500      00000000 
 1501              	 .section .bss.state,"aw",%nobits
 1502              	 .align 2
 1505              	state:
 1506 0000 00000000 	 .space 4
 1507              	 .text
 1508              	.Letext0:
 1509              	 .file 2 "/usr/lib/gcc/arm-none-eabi/14.2.1/include/stdint.h"