   1              	 .cpu cortex-m4
   2              	 .arch armv7e-m
   3              	 .fpu softvfp
   4              	 .eabi_attribute 20,1
   5              	 .eabi_attribute 21,1
   6              	 .eabi_attribute 23,3
   7              	 .eabi_attribute 24,1
   8              	 .eabi_attribute 25,1
   9              	 .eabi_attribute 26,1
  10              	 .eabi_attribute 30,4
  11              	 .eabi_attribute 34,1
  12              	 .eabi_attribute 18,4
  13              	 .file "fips202.c"
  14              	 .text
  15              	.Ltext0:
  16              	 .cfi_sections .debug_frame
  17              	 .file 1 "fips202.c"
  18              	 .section .text.KeccakF1600_StatePermute,"ax",%progbits
  19              	 .align 1
  20              	 .syntax unified
  21              	 .thumb
  22              	 .thumb_func
  24              	KeccakF1600_StatePermute:
  25              	.LVL0:
  26              	.LFB2:
   1:fips202.c     **** /* Based on the public domain implementation in
   2:fips202.c     ****  * crypto_hash/keccakc512/simple/ from http://bench.cr.yp.to/supercop.html
   3:fips202.c     ****  * by Ronny Van Keer
   4:fips202.c     ****  * and the public domain "TweetFips202" implementation
   5:fips202.c     ****  * from https://twitter.com/tweetfips202
   6:fips202.c     ****  * by Gilles Van Assche, Daniel J. Bernstein, and Peter Schwabe */
   7:fips202.c     **** 
   8:fips202.c     **** #include <stddef.h>
   9:fips202.c     **** #include <stdint.h>
  10:fips202.c     **** #include <stdlib.h>
  11:fips202.c     **** #include <string.h>
  12:fips202.c     **** 
  13:fips202.c     **** #include "fips202.h"
  14:fips202.c     **** 
  15:fips202.c     **** #define NROUNDS 24
  16:fips202.c     **** #define ROL(a, offset) (((a) << (offset)) ^ ((a) >> (64 - (offset))))
  17:fips202.c     **** 
  18:fips202.c     **** /*************************************************
  19:fips202.c     ****  * Name:        load64
  20:fips202.c     ****  *
  21:fips202.c     ****  * Description: Load 8 bytes into uint64_t in little-endian order
  22:fips202.c     ****  *
  23:fips202.c     ****  * Arguments:   - const uint8_t *x: pointer to input byte array
  24:fips202.c     ****  *
  25:fips202.c     ****  * Returns the loaded 64-bit unsigned integer
  26:fips202.c     ****  **************************************************/
  27:fips202.c     **** static uint64_t load64(const uint8_t *x) {
  28:fips202.c     ****     uint64_t r = 0;
  29:fips202.c     ****     for (size_t i = 0; i < 8; ++i) {
  30:fips202.c     ****         r |= (uint64_t)x[i] << 8 * i;
  31:fips202.c     ****     }
  32:fips202.c     **** 
  33:fips202.c     ****     return r;
  34:fips202.c     **** }
  35:fips202.c     **** 
  36:fips202.c     **** /*************************************************
  37:fips202.c     ****  * Name:        store64
  38:fips202.c     ****  *
  39:fips202.c     ****  * Description: Store a 64-bit integer to a byte array in little-endian order
  40:fips202.c     ****  *
  41:fips202.c     ****  * Arguments:   - uint8_t *x: pointer to the output byte array
  42:fips202.c     ****  *              - uint64_t u: input 64-bit unsigned integer
  43:fips202.c     ****  **************************************************/
  44:fips202.c     **** static void store64(uint8_t *x, uint64_t u) {
  45:fips202.c     ****     for (size_t i = 0; i < 8; ++i) {
  46:fips202.c     ****         x[i] = (uint8_t) (u >> 8 * i);
  47:fips202.c     ****     }
  48:fips202.c     **** }
  49:fips202.c     **** 
  50:fips202.c     **** /* Keccak round constants */
  51:fips202.c     **** static const uint64_t KeccakF_RoundConstants[NROUNDS] = {
  52:fips202.c     ****     0x0000000000000001ULL, 0x0000000000008082ULL,
  53:fips202.c     ****     0x800000000000808aULL, 0x8000000080008000ULL,
  54:fips202.c     ****     0x000000000000808bULL, 0x0000000080000001ULL,
  55:fips202.c     ****     0x8000000080008081ULL, 0x8000000000008009ULL,
  56:fips202.c     ****     0x000000000000008aULL, 0x0000000000000088ULL,
  57:fips202.c     ****     0x0000000080008009ULL, 0x000000008000000aULL,
  58:fips202.c     ****     0x000000008000808bULL, 0x800000000000008bULL,
  59:fips202.c     ****     0x8000000000008089ULL, 0x8000000000008003ULL,
  60:fips202.c     ****     0x8000000000008002ULL, 0x8000000000000080ULL,
  61:fips202.c     ****     0x000000000000800aULL, 0x800000008000000aULL,
  62:fips202.c     ****     0x8000000080008081ULL, 0x8000000000008080ULL,
  63:fips202.c     ****     0x0000000080000001ULL, 0x8000000080008008ULL
  64:fips202.c     **** };
  65:fips202.c     **** 
  66:fips202.c     **** /*************************************************
  67:fips202.c     ****  * Name:        KeccakF1600_StatePermute
  68:fips202.c     ****  *
  69:fips202.c     ****  * Description: The Keccak F1600 Permutation
  70:fips202.c     ****  *
  71:fips202.c     ****  * Arguments:   - uint64_t *state: pointer to input/output Keccak state
  72:fips202.c     ****  **************************************************/
  73:fips202.c     **** static void KeccakF1600_StatePermute(uint64_t *state) {
  27              	 .loc 1 73 55 view-0
  28              	 .cfi_startproc
  29              	 
  30              	 
  74:fips202.c     ****     int round;
  31              	 .loc 1 74 5 view .LVU1
  75:fips202.c     **** 
  76:fips202.c     ****     uint64_t Aba, Abe, Abi, Abo, Abu;
  32              	 .loc 1 76 5 view .LVU2
  77:fips202.c     ****     uint64_t Aga, Age, Agi, Ago, Agu;
  33              	 .loc 1 77 5 view .LVU3
  78:fips202.c     ****     uint64_t Aka, Ake, Aki, Ako, Aku;
  34              	 .loc 1 78 5 view .LVU4
  79:fips202.c     ****     uint64_t Ama, Ame, Ami, Amo, Amu;
  35              	 .loc 1 79 5 view .LVU5
  80:fips202.c     ****     uint64_t Asa, Ase, Asi, Aso, Asu;
  36              	 .loc 1 80 5 view .LVU6
  81:fips202.c     ****     uint64_t BCa, BCe, BCi, BCo, BCu;
  37              	 .loc 1 81 5 view .LVU7
  82:fips202.c     ****     uint64_t Da, De, Di, Do, Du;
  38              	 .loc 1 82 5 view .LVU8
  83:fips202.c     ****     uint64_t Eba, Ebe, Ebi, Ebo, Ebu;
  39              	 .loc 1 83 5 view .LVU9
  84:fips202.c     ****     uint64_t Ega, Ege, Egi, Ego, Egu;
  40              	 .loc 1 84 5 view .LVU10
  85:fips202.c     ****     uint64_t Eka, Eke, Eki, Eko, Eku;
  41              	 .loc 1 85 5 view .LVU11
  86:fips202.c     ****     uint64_t Ema, Eme, Emi, Emo, Emu;
  42              	 .loc 1 86 5 view .LVU12
  87:fips202.c     ****     uint64_t Esa, Ese, Esi, Eso, Esu;
  43              	 .loc 1 87 5 view .LVU13
  88:fips202.c     **** 
  89:fips202.c     ****     // copyFromState(A, state)
  90:fips202.c     ****     Aba = state[0];
  44              	 .loc 1 90 5 view .LVU14
  73:fips202.c     ****     int round;
  45              	 .loc 1 73 55 is_stmt 0 view .LVU15
  46 0000 2DE9F04F 	 push {r4,r5,r6,r7,r8,r9,r10,fp,lr}
  47              	.LCFI0:
  48              	 .cfi_def_cfa_offset 36
  49              	 .cfi_offset 4,-36
  50              	 .cfi_offset 5,-32
  51              	 .cfi_offset 6,-28
  52              	 .cfi_offset 7,-24
  53              	 .cfi_offset 8,-20
  54              	 .cfi_offset 9,-16
  55              	 .cfi_offset 10,-12
  56              	 .cfi_offset 11,-8
  57              	 .cfi_offset 14,-4
  58 0004 BDB0     	 sub sp,sp,#244
  59              	.LCFI1:
  60              	 .cfi_def_cfa_offset 280
  61              	 .loc 1 90 9 view .LVU16
  62 0006 0368     	 ldr r3,[r0]
  63 0008 0A93     	 str r3,[sp,#40]
  64 000a 4368     	 ldr r3,[r0,#4]
  65 000c 0B93     	 str r3,[sp,#44]
  66              	.LVL1:
  91:fips202.c     ****     Abe = state[1];
  67              	 .loc 1 91 5 is_stmt 1 view .LVU17
  68              	 .loc 1 91 9 is_stmt 0 view .LVU18
  69 000e 8368     	 ldr r3,[r0,#8]
  70              	.LVL2:
  71              	 .loc 1 91 9 view .LVU19
  72 0010 0C93     	 str r3,[sp,#48]
  73 0012 C368     	 ldr r3,[r0,#12]
  74 0014 0D93     	 str r3,[sp,#52]
  75              	.LVL3:
  92:fips202.c     ****     Abi = state[2];
  76              	 .loc 1 92 5 is_stmt 1 view .LVU20
  77              	 .loc 1 92 9 is_stmt 0 view .LVU21
  78 0016 0369     	 ldr r3,[r0,#16]
  79              	.LVL4:
  80              	 .loc 1 92 9 view .LVU22
  81 0018 0E93     	 str r3,[sp,#56]
  82 001a 4369     	 ldr r3,[r0,#20]
  83 001c 0F93     	 str r3,[sp,#60]
  84              	.LVL5:
  93:fips202.c     ****     Abo = state[3];
  85              	 .loc 1 93 5 is_stmt 1 view .LVU23
  86              	 .loc 1 93 9 is_stmt 0 view .LVU24
  87 001e 8369     	 ldr r3,[r0,#24]
  88              	.LVL6:
  89              	 .loc 1 93 9 view .LVU25
  90 0020 1093     	 str r3,[sp,#64]
  91 0022 C369     	 ldr r3,[r0,#28]
  92 0024 1193     	 str r3,[sp,#68]
  93              	.LVL7:
  94:fips202.c     ****     Abu = state[4];
  94              	 .loc 1 94 5 is_stmt 1 view .LVU26
  95              	 .loc 1 94 9 is_stmt 0 view .LVU27
  96 0026 036A     	 ldr r3,[r0,#32]
  97              	.LVL8:
  98              	 .loc 1 94 9 view .LVU28
  99 0028 1293     	 str r3,[sp,#72]
 100 002a 436A     	 ldr r3,[r0,#36]
 101 002c 1393     	 str r3,[sp,#76]
 102              	.LVL9:
  95:fips202.c     ****     Aga = state[5];
 103              	 .loc 1 95 5 is_stmt 1 view .LVU29
 104              	 .loc 1 95 9 is_stmt 0 view .LVU30
 105 002e 836A     	 ldr r3,[r0,#40]
 106              	.LVL10:
 107              	 .loc 1 95 9 view .LVU31
 108 0030 1493     	 str r3,[sp,#80]
 109 0032 C36A     	 ldr r3,[r0,#44]
 110 0034 1593     	 str r3,[sp,#84]
 111              	.LVL11:
  96:fips202.c     ****     Age = state[6];
 112              	 .loc 1 96 5 is_stmt 1 view .LVU32
 113              	 .loc 1 96 9 is_stmt 0 view .LVU33
 114 0036 036B     	 ldr r3,[r0,#48]
 115              	.LVL12:
 116              	 .loc 1 96 9 view .LVU34
 117 0038 1693     	 str r3,[sp,#88]
 118 003a 436B     	 ldr r3,[r0,#52]
 119 003c 1793     	 str r3,[sp,#92]
 120              	.LVL13:
  97:fips202.c     ****     Agi = state[7];
 121              	 .loc 1 97 5 is_stmt 1 view .LVU35
 122              	 .loc 1 97 9 is_stmt 0 view .LVU36
 123 003e 836B     	 ldr r3,[r0,#56]
 124              	.LVL14:
 125              	 .loc 1 97 9 view .LVU37
 126 0040 1893     	 str r3,[sp,#96]
 127 0042 C36B     	 ldr r3,[r0,#60]
 128 0044 1993     	 str r3,[sp,#100]
 129              	.LVL15:
  98:fips202.c     ****     Ago = state[8];
 130              	 .loc 1 98 5 is_stmt 1 view .LVU38
 131              	 .loc 1 98 9 is_stmt 0 view .LVU39
 132 0046 036C     	 ldr r3,[r0,#64]
 133              	.LVL16:
 134              	 .loc 1 98 9 view .LVU40
 135 0048 1A93     	 str r3,[sp,#104]
 136 004a 436C     	 ldr r3,[r0,#68]
 137 004c 1B93     	 str r3,[sp,#108]
 138              	.LVL17:
  99:fips202.c     ****     Agu = state[9];
 139              	 .loc 1 99 5 is_stmt 1 view .LVU41
 140              	 .loc 1 99 9 is_stmt 0 view .LVU42
 141 004e 836C     	 ldr r3,[r0,#72]
 142              	.LVL18:
 143              	 .loc 1 99 9 view .LVU43
 144 0050 1C93     	 str r3,[sp,#112]
 145 0052 C36C     	 ldr r3,[r0,#76]
 146 0054 1D93     	 str r3,[sp,#116]
 147              	.LVL19:
 100:fips202.c     ****     Aka = state[10];
 148              	 .loc 1 100 5 is_stmt 1 view .LVU44
 149              	 .loc 1 100 9 is_stmt 0 view .LVU45
 150 0056 036D     	 ldr r3,[r0,#80]
 151              	.LVL20:
 152              	 .loc 1 100 9 view .LVU46
 153 0058 1E93     	 str r3,[sp,#120]
 154 005a 436D     	 ldr r3,[r0,#84]
 155 005c 1F93     	 str r3,[sp,#124]
 156              	.LVL21:
 101:fips202.c     ****     Ake = state[11];
 157              	 .loc 1 101 5 is_stmt 1 view .LVU47
 158              	 .loc 1 101 9 is_stmt 0 view .LVU48
 159 005e 836D     	 ldr r3,[r0,#88]
 160              	.LVL22:
 161              	 .loc 1 101 9 view .LVU49
 162 0060 2093     	 str r3,[sp,#128]
 163 0062 C36D     	 ldr r3,[r0,#92]
 164 0064 2193     	 str r3,[sp,#132]
 165              	.LVL23:
 102:fips202.c     ****     Aki = state[12];
 166              	 .loc 1 102 5 is_stmt 1 view .LVU50
 167              	 .loc 1 102 9 is_stmt 0 view .LVU51
 168 0066 036E     	 ldr r3,[r0,#96]
 169              	.LVL24:
 170              	 .loc 1 102 9 view .LVU52
 171 0068 2293     	 str r3,[sp,#136]
 172 006a 436E     	 ldr r3,[r0,#100]
 173 006c 2393     	 str r3,[sp,#140]
 174              	.LVL25:
 103:fips202.c     ****     Ako = state[13];
 175              	 .loc 1 103 5 is_stmt 1 view .LVU53
 176              	 .loc 1 103 9 is_stmt 0 view .LVU54
 177 006e 836E     	 ldr r3,[r0,#104]
 178              	.LVL26:
 179              	 .loc 1 103 9 view .LVU55
 180 0070 2493     	 str r3,[sp,#144]
 181 0072 C36E     	 ldr r3,[r0,#108]
 182 0074 2593     	 str r3,[sp,#148]
 183              	.LVL27:
 104:fips202.c     ****     Aku = state[14];
 184              	 .loc 1 104 5 is_stmt 1 view .LVU56
 185              	 .loc 1 104 9 is_stmt 0 view .LVU57
 186 0076 036F     	 ldr r3,[r0,#112]
 187              	.LVL28:
 188              	 .loc 1 104 9 view .LVU58
 189 0078 2693     	 str r3,[sp,#152]
 190 007a 436F     	 ldr r3,[r0,#116]
 191 007c 2793     	 str r3,[sp,#156]
 192              	.LVL29:
 105:fips202.c     ****     Ama = state[15];
 193              	 .loc 1 105 5 is_stmt 1 view .LVU59
 194              	 .loc 1 105 9 is_stmt 0 view .LVU60
 195 007e 836F     	 ldr r3,[r0,#120]
 196              	.LVL30:
 197              	 .loc 1 105 9 view .LVU61
 198 0080 2893     	 str r3,[sp,#160]
 199 0082 C36F     	 ldr r3,[r0,#124]
 200 0084 2993     	 str r3,[sp,#164]
 201              	.LVL31:
 106:fips202.c     ****     Ame = state[16];
 202              	 .loc 1 106 5 is_stmt 1 view .LVU62
 203              	 .loc 1 106 9 is_stmt 0 view .LVU63
 204 0086 D0F88030 	 ldr r3,[r0,#128]
 205              	.LVL32:
 206              	 .loc 1 106 9 view .LVU64
 207 008a 2A93     	 str r3,[sp,#168]
 208 008c D0F88430 	 ldr r3,[r0,#132]
 209 0090 2B93     	 str r3,[sp,#172]
 210              	.LVL33:
 107:fips202.c     ****     Ami = state[17];
 211              	 .loc 1 107 5 is_stmt 1 view .LVU65
 212              	 .loc 1 107 9 is_stmt 0 view .LVU66
 213 0092 D0F88830 	 ldr r3,[r0,#136]
 214              	.LVL34:
 215              	 .loc 1 107 9 view .LVU67
 216 0096 2C93     	 str r3,[sp,#176]
 217 0098 D0F88C30 	 ldr r3,[r0,#140]
 218 009c 2D93     	 str r3,[sp,#180]
 219              	.LVL35:
 108:fips202.c     ****     Amo = state[18];
 220              	 .loc 1 108 5 is_stmt 1 view .LVU68
 221              	 .loc 1 108 9 is_stmt 0 view .LVU69
 222 009e D0F89030 	 ldr r3,[r0,#144]
 223              	.LVL36:
 224              	 .loc 1 108 9 view .LVU70
 225 00a2 2E93     	 str r3,[sp,#184]
 226 00a4 D0F89430 	 ldr r3,[r0,#148]
 227 00a8 2F93     	 str r3,[sp,#188]
 228              	.LVL37:
 109:fips202.c     ****     Amu = state[19];
 229              	 .loc 1 109 5 is_stmt 1 view .LVU71
 230              	 .loc 1 109 9 is_stmt 0 view .LVU72
 231 00aa D0F89830 	 ldr r3,[r0,#152]
 232              	.LVL38:
 233              	 .loc 1 109 9 view .LVU73
 234 00ae 3093     	 str r3,[sp,#192]
 235 00b0 D0F89C30 	 ldr r3,[r0,#156]
 236 00b4 3193     	 str r3,[sp,#196]
 237              	.LVL39:
 110:fips202.c     ****     Asa = state[20];
 238              	 .loc 1 110 5 is_stmt 1 view .LVU74
 239              	 .loc 1 110 9 is_stmt 0 view .LVU75
 240 00b6 D0F8A030 	 ldr r3,[r0,#160]
 241              	.LVL40:
 242              	 .loc 1 110 9 view .LVU76
 243 00ba 3293     	 str r3,[sp,#200]
 244 00bc D0F8A430 	 ldr r3,[r0,#164]
 245 00c0 3393     	 str r3,[sp,#204]
 246              	.LVL41:
 111:fips202.c     ****     Ase = state[21];
 247              	 .loc 1 111 5 is_stmt 1 view .LVU77
 248              	 .loc 1 111 9 is_stmt 0 view .LVU78
 249 00c2 D0F8A830 	 ldr r3,[r0,#168]
 250              	.LVL42:
 251              	 .loc 1 111 9 view .LVU79
 252 00c6 3493     	 str r3,[sp,#208]
 253 00c8 D0F8AC30 	 ldr r3,[r0,#172]
 254 00cc 3593     	 str r3,[sp,#212]
 255              	.LVL43:
 112:fips202.c     ****     Asi = state[22];
 256              	 .loc 1 112 5 is_stmt 1 view .LVU80
 257              	 .loc 1 112 9 is_stmt 0 view .LVU81
 258 00ce D0F8B030 	 ldr r3,[r0,#176]
 259              	.LVL44:
 260              	 .loc 1 112 9 view .LVU82
 261 00d2 3693     	 str r3,[sp,#216]
 262 00d4 D0F8B430 	 ldr r3,[r0,#180]
 263 00d8 3793     	 str r3,[sp,#220]
 264              	.LVL45:
 113:fips202.c     ****     Aso = state[23];
 265              	 .loc 1 113 5 is_stmt 1 view .LVU83
 266              	 .loc 1 113 9 is_stmt 0 view .LVU84
 267 00da D0F8B830 	 ldr r3,[r0,#184]
 268              	.LVL46:
 269              	 .loc 1 113 9 view .LVU85
 270 00de 3893     	 str r3,[sp,#224]
 271 00e0 D0F8BC30 	 ldr r3,[r0,#188]
 272 00e4 3993     	 str r3,[sp,#228]
 273              	.LVL47:
 114:fips202.c     ****     Asu = state[24];
 274              	 .loc 1 114 5 is_stmt 1 view .LVU86
 275              	 .loc 1 114 9 is_stmt 0 view .LVU87
 276 00e6 D0F8C030 	 ldr r3,[r0,#192]
 277              	.LVL48:
 278              	 .loc 1 114 9 view .LVU88
 279 00ea 034A     	 ldr r2,.L4
 280 00ec 3A93     	 str r3,[sp,#232]
 281 00ee D0F8C430 	 ldr r3,[r0,#196]
 282              	.LVL49:
 115:fips202.c     **** 
 116:fips202.c     ****     for (round = 0; round < NROUNDS; round += 2) {
 283              	 .loc 1 116 5 is_stmt 1 view .LVU89
 284              	 .loc 1 116 27 discriminator 1 view .LVU90
 285 00f2 0092     	 str r2,[sp]
 286 00f4 02E0     	 b .L5
 287              	.L6:
 288 00f6 00BF     	 .align 2
 289              	.L4:
 290 00f8 00000000 	 .word KeccakF_RoundConstants
 291              	.L5:
 292              	.LVL50:
 293              	.L2:
 117:fips202.c     ****         //    prepareTheta
 118:fips202.c     ****         BCa = Aba ^ Aga ^ Aka ^ Ama ^ Asa;
 294              	 .loc 1 118 9 view .LVU91
 295              	 .loc 1 118 19 is_stmt 0 view .LVU92
 296 00fc 0A9A     	 ldr r2,[sp,#40]
 297 00fe 1499     	 ldr r1,[sp,#80]
 298 0100 82EA0106 	 eor r6,r2,r1
 299 0104 1599     	 ldr r1,[sp,#84]
 300 0106 0B9A     	 ldr r2,[sp,#44]
 301 0108 4A40     	 eors r2,r2,r1
 302              	 .loc 1 118 25 view .LVU93
 303 010a 1E99     	 ldr r1,[sp,#120]
 304 010c 4E40     	 eors r6,r6,r1
 305 010e 1F99     	 ldr r1,[sp,#124]
 306 0110 4A40     	 eors r2,r2,r1
 307              	 .loc 1 118 31 view .LVU94
 308 0112 2899     	 ldr r1,[sp,#160]
 309 0114 4E40     	 eors r6,r6,r1
 310 0116 2999     	 ldr r1,[sp,#164]
 311 0118 4A40     	 eors r2,r2,r1
 312              	 .loc 1 118 13 view .LVU95
 313 011a 3299     	 ldr r1,[sp,#200]
 314 011c 4E40     	 eors r6,r6,r1
 315 011e 3399     	 ldr r1,[sp,#204]
 316 0120 4A40     	 eors r2,r2,r1
 317 0122 0892     	 str r2,[sp,#32]
 318              	.LVL51:
 119:fips202.c     ****         BCe = Abe ^ Age ^ Ake ^ Ame ^ Ase;
 319              	 .loc 1 119 9 is_stmt 1 view .LVU96
 320              	 .loc 1 119 19 is_stmt 0 view .LVU97
 321 0124 1699     	 ldr r1,[sp,#88]
 322 0126 0C9A     	 ldr r2,[sp,#48]
 323              	.LVL52:
 324              	 .loc 1 119 19 view .LVU98
 325 0128 82EA0109 	 eor r9,r2,r1
 326 012c 0D9A     	 ldr r2,[sp,#52]
 327 012e 1799     	 ldr r1,[sp,#92]
 328 0130 82EA0108 	 eor r8,r2,r1
 329              	 .loc 1 119 25 view .LVU99
 330 0134 209A     	 ldr r2,[sp,#128]
 120:fips202.c     ****         BCi = Abi ^ Agi ^ Aki ^ Ami ^ Asi;
 331              	 .loc 1 120 19 view .LVU100
 332 0136 1899     	 ldr r1,[sp,#96]
 119:fips202.c     ****         BCe = Abe ^ Age ^ Ake ^ Ame ^ Ase;
 333              	 .loc 1 119 25 view .LVU101
 334 0138 89EA0209 	 eor r9,r9,r2
 335 013c 219A     	 ldr r2,[sp,#132]
 336 013e 88EA0208 	 eor r8,r8,r2
 119:fips202.c     ****         BCe = Abe ^ Age ^ Ake ^ Ame ^ Ase;
 337              	 .loc 1 119 31 view .LVU102
 338 0142 2A9A     	 ldr r2,[sp,#168]
 339 0144 89EA0209 	 eor r9,r9,r2
 340 0148 2B9A     	 ldr r2,[sp,#172]
 341 014a 88EA0208 	 eor r8,r8,r2
 119:fips202.c     ****         BCe = Abe ^ Age ^ Ake ^ Ame ^ Ase;
 342              	 .loc 1 119 13 view .LVU103
 343 014e 349A     	 ldr r2,[sp,#208]
 344 0150 89EA0209 	 eor r9,r9,r2
 345 0154 359A     	 ldr r2,[sp,#212]
 346 0156 88EA0208 	 eor r8,r8,r2
 347              	.LVL53:
 348              	 .loc 1 120 9 is_stmt 1 view .LVU104
 349              	 .loc 1 120 19 is_stmt 0 view .LVU105
 350 015a 0E9A     	 ldr r2,[sp,#56]
 351 015c 82EA010C 	 eor ip,r2,r1
 352 0160 0F9A     	 ldr r2,[sp,#60]
 353 0162 1999     	 ldr r1,[sp,#100]
 354 0164 82EA0107 	 eor r7,r2,r1
 355              	 .loc 1 120 25 view .LVU106
 356 0168 229A     	 ldr r2,[sp,#136]
 357 016a 2399     	 ldr r1,[sp,#140]
 358 016c 8CEA020C 	 eor ip,ip,r2
 359 0170 4F40     	 eors r7,r7,r1
 360              	 .loc 1 120 31 view .LVU107
 361 0172 2C9A     	 ldr r2,[sp,#176]
 362 0174 2D99     	 ldr r1,[sp,#180]
 363 0176 8CEA020C 	 eor ip,ip,r2
 364 017a 4F40     	 eors r7,r7,r1
 365              	 .loc 1 120 13 view .LVU108
 366 017c 369A     	 ldr r2,[sp,#216]
 367 017e 3799     	 ldr r1,[sp,#220]
 368 0180 8CEA020C 	 eor ip,ip,r2
 369 0184 4F40     	 eors r7,r7,r1
 370              	.LVL54:
 121:fips202.c     ****         BCo = Abo ^ Ago ^ Ako ^ Amo ^ Aso;
 371              	 .loc 1 121 9 is_stmt 1 view .LVU109
 372              	 .loc 1 121 19 is_stmt 0 view .LVU110
 373 0186 109A     	 ldr r2,[sp,#64]
 374 0188 1A99     	 ldr r1,[sp,#104]
 375 018a 82EA0105 	 eor r5,r2,r1
 376 018e 119A     	 ldr r2,[sp,#68]
 377 0190 1B99     	 ldr r1,[sp,#108]
 378 0192 82EA0104 	 eor r4,r2,r1
 379              	 .loc 1 121 25 view .LVU111
 380 0196 2499     	 ldr r1,[sp,#144]
 122:fips202.c     ****         BCu = Abu ^ Agu ^ Aku ^ Amu ^ Asu;
 381              	 .loc 1 122 19 view .LVU112
 382 0198 129A     	 ldr r2,[sp,#72]
 121:fips202.c     ****         BCo = Abo ^ Ago ^ Ako ^ Amo ^ Aso;
 383              	 .loc 1 121 25 view .LVU113
 384 019a 4D40     	 eors r5,r5,r1
 385 019c 2599     	 ldr r1,[sp,#148]
 386 019e 4C40     	 eors r4,r4,r1
 121:fips202.c     ****         BCo = Abo ^ Ago ^ Ako ^ Amo ^ Aso;
 387              	 .loc 1 121 31 view .LVU114
 388 01a0 2E99     	 ldr r1,[sp,#184]
 389 01a2 4D40     	 eors r5,r5,r1
 390 01a4 2F99     	 ldr r1,[sp,#188]
 391 01a6 4C40     	 eors r4,r4,r1
 121:fips202.c     ****         BCo = Abo ^ Ago ^ Ako ^ Amo ^ Aso;
 392              	 .loc 1 121 13 view .LVU115
 393 01a8 3899     	 ldr r1,[sp,#224]
 394 01aa 4D40     	 eors r5,r5,r1
 395 01ac 3999     	 ldr r1,[sp,#228]
 396 01ae 4C40     	 eors r4,r4,r1
 397              	.LVL55:
 398              	 .loc 1 122 9 is_stmt 1 view .LVU116
 399              	 .loc 1 122 19 is_stmt 0 view .LVU117
 400 01b0 1C99     	 ldr r1,[sp,#112]
 401 01b2 82EA010E 	 eor lr,r2,r1
 402 01b6 139A     	 ldr r2,[sp,#76]
 403 01b8 1D99     	 ldr r1,[sp,#116]
 404 01ba 5140     	 eors r1,r1,r2
 405              	 .loc 1 122 25 view .LVU118
 406 01bc 269A     	 ldr r2,[sp,#152]
 407 01be 8EEA020E 	 eor lr,lr,r2
 408 01c2 279A     	 ldr r2,[sp,#156]
 409 01c4 5140     	 eors r1,r1,r2
 410              	 .loc 1 122 31 view .LVU119
 411 01c6 309A     	 ldr r2,[sp,#192]
 412 01c8 8EEA020E 	 eor lr,lr,r2
 413 01cc 319A     	 ldr r2,[sp,#196]
 414 01ce 5140     	 eors r1,r1,r2
 415              	 .loc 1 122 13 view .LVU120
 416 01d0 3A9A     	 ldr r2,[sp,#232]
 123:fips202.c     **** 
 124:fips202.c     ****         // thetaRhoPiChiIotaPrepareTheta(round  , A, E)
 125:fips202.c     ****         Da = BCu ^ ROL(BCe, 1);
 417              	 .loc 1 125 20 view .LVU121
 418 01d2 4FEA490B 	 lsl fp,r9,#1
 122:fips202.c     ****         BCu = Abu ^ Agu ^ Aku ^ Amu ^ Asu;
 419              	 .loc 1 122 13 view .LVU122
 420 01d6 8EEA020E 	 eor lr,lr,r2
 421              	 .loc 1 125 20 view .LVU123
 422 01da 4BEAD87B 	 orr fp,fp,r8,lsr#31
 423 01de 4FEA480A 	 lsl r10,r8,#1
 122:fips202.c     ****         BCu = Abu ^ Agu ^ Aku ^ Amu ^ Asu;
 424              	 .loc 1 122 13 view .LVU124
 425 01e2 5940     	 eors r1,r1,r3
 426              	.LVL56:
 427              	 .loc 1 125 9 is_stmt 1 view .LVU125
 428              	 .loc 1 125 12 is_stmt 0 view .LVU126
 429 01e4 8BEA0E02 	 eor r2,fp,lr
 430              	 .loc 1 125 20 view .LVU127
 431 01e8 4AEAD97A 	 orr r10,r10,r9,lsr#31
 126:fips202.c     ****         De = BCa ^ ROL(BCi, 1);
 432              	 .loc 1 126 20 view .LVU128
 433 01ec 4FEA4C0B 	 lsl fp,ip,#1
 125:fips202.c     ****         De = BCa ^ ROL(BCi, 1);
 434              	 .loc 1 125 12 view .LVU129
 435 01f0 0192     	 str r2,[sp,#4]
 436              	 .loc 1 126 20 view .LVU130
 437 01f2 4BEAD77B 	 orr fp,fp,r7,lsr#31
 125:fips202.c     ****         De = BCa ^ ROL(BCi, 1);
 438              	 .loc 1 125 12 view .LVU131
 439 01f6 8AEA0102 	 eor r2,r10,r1
 440 01fa 0292     	 str r2,[sp,#8]
 441              	.LVL57:
 442              	 .loc 1 126 9 is_stmt 1 view .LVU132
 443              	 .loc 1 126 12 is_stmt 0 view .LVU133
 444 01fc 8BEA0602 	 eor r2,fp,r6
 445              	.LVL58:
 446              	 .loc 1 126 20 view .LVU134
 447 0200 4FEA470A 	 lsl r10,r7,#1
 448              	 .loc 1 126 12 view .LVU135
 449 0204 0392     	 str r2,[sp,#12]
 450 0206 089A     	 ldr r2,[sp,#32]
 451              	 .loc 1 126 20 view .LVU136
 452 0208 4AEADC7A 	 orr r10,r10,ip,lsr#31
 453              	 .loc 1 126 12 view .LVU137
 454 020c 8AEA0202 	 eor r2,r10,r2
 127:fips202.c     ****         Di = BCe ^ ROL(BCo, 1);
 455              	 .loc 1 127 20 view .LVU138
 456 0210 4FEA440A 	 lsl r10,r4,#1
 457 0214 4AEAD57A 	 orr r10,r10,r5,lsr#31
 126:fips202.c     ****         De = BCa ^ ROL(BCi, 1);
 458              	 .loc 1 126 12 view .LVU139
 459 0218 0492     	 str r2,[sp,#16]
 460              	.LVL59:
 461              	 .loc 1 127 9 is_stmt 1 view .LVU140
 462              	 .loc 1 127 12 is_stmt 0 view .LVU141
 463 021a 8AEA0802 	 eor r2,r10,r8
 464              	.LVL60:
 128:fips202.c     ****         Do = BCi ^ ROL(BCu, 1);
 465              	 .loc 1 128 20 view .LVU142
 466 021e 4FEA4E08 	 lsl r8,lr,#1
 467              	.LVL61:
 468              	 .loc 1 128 20 view .LVU143
 469 0222 48EAD178 	 orr r8,r8,r1,lsr#31
 470 0226 4900     	 lsls r1,r1,#1
 471              	.LVL62:
 472              	 .loc 1 128 20 view .LVU144
 473 0228 41EADE71 	 orr r1,r1,lr,lsr#31
 127:fips202.c     ****         Di = BCe ^ ROL(BCo, 1);
 474              	 .loc 1 127 12 view .LVU145
 475 022c 0592     	 str r2,[sp,#20]
 476              	 .loc 1 128 12 view .LVU146
 477 022e 88EA0C02 	 eor r2,r8,ip
 478 0232 0692     	 str r2,[sp,#24]
 479 0234 81EA0702 	 eor r2,r1,r7
 480 0238 0792     	 str r2,[sp,#28]
 129:fips202.c     ****         Du = BCo ^ ROL(BCa, 1);
 481              	 .loc 1 129 20 view .LVU147
 482 023a 089A     	 ldr r2,[sp,#32]
 483 023c 7100     	 lsls r1,r6,#1
 484 023e 41EAD271 	 orr r1,r1,r2,lsr#31
 485 0242 5200     	 lsls r2,r2,#1
 486 0244 42EAD672 	 orr r2,r2,r6,lsr#31
 487              	 .loc 1 129 12 view .LVU148
 488 0248 6940     	 eors r1,r1,r5
 489 024a 6240     	 eors r2,r2,r4
 127:fips202.c     ****         Di = BCe ^ ROL(BCo, 1);
 490              	 .loc 1 127 20 view .LVU149
 491 024c 4FEA450B 	 lsl fp,r5,#1
 492              	 .loc 1 129 12 view .LVU150
 493 0250 0891     	 str r1,[sp,#32]
 494              	.LVL63:
 495              	 .loc 1 129 12 view .LVU151
 496 0252 0992     	 str r2,[sp,#36]
 130:fips202.c     **** 
 131:fips202.c     ****         Aba ^= Da;
 497              	 .loc 1 131 13 view .LVU152
 498 0254 0A99     	 ldr r1,[sp,#40]
 499 0256 019A     	 ldr r2,[sp,#4]
 127:fips202.c     ****         Do = BCi ^ ROL(BCu, 1);
 500              	 .loc 1 127 20 view .LVU153
 501 0258 4BEAD47B 	 orr fp,fp,r4,lsr#31
 127:fips202.c     ****         Do = BCi ^ ROL(BCu, 1);
 502              	 .loc 1 127 12 view .LVU154
 503 025c 8BEA090B 	 eor fp,fp,r9
 504              	.LVL64:
 128:fips202.c     ****         Du = BCo ^ ROL(BCa, 1);
 505              	 .loc 1 128 9 is_stmt 1 view .LVU155
 129:fips202.c     **** 
 506              	 .loc 1 129 9 view .LVU156
 507              	 .loc 1 131 9 view .LVU157
 508              	 .loc 1 131 13 is_stmt 0 view .LVU158
 509 0260 82EA0109 	 eor r9,r2,r1
 510              	.LVL65:
 511              	 .loc 1 131 13 view .LVU159
 512 0264 029A     	 ldr r2,[sp,#8]
 513 0266 0B99     	 ldr r1,[sp,#44]
 132:fips202.c     ****         BCa = Aba;
 133:fips202.c     ****         Age ^= De;
 514              	 .loc 1 133 13 view .LVU160
 515 0268 179C     	 ldr r4,[sp,#92]
 516              	.LVL66:
 134:fips202.c     ****         BCe = ROL(Age, 44);
 135:fips202.c     ****         Aki ^= Di;
 517              	 .loc 1 135 13 view .LVU161
 518 026a 239E     	 ldr r6,[sp,#140]
 519              	.LVL67:
 136:fips202.c     ****         BCi = ROL(Aki, 43);
 137:fips202.c     ****         Amo ^= Do;
 520              	 .loc 1 137 13 view .LVU162
 521 026c 2F9F     	 ldr r7,[sp,#188]
 522              	.LVL68:
 131:fips202.c     ****         BCa = Aba;
 523              	 .loc 1 131 13 view .LVU163
 524 026e 82EA010A 	 eor r10,r2,r1
 525              	.LVL69:
 132:fips202.c     ****         Age ^= De;
 526              	 .loc 1 132 9 is_stmt 1 view .LVU164
 133:fips202.c     ****         BCe = ROL(Age, 44);
 527              	 .loc 1 133 9 view .LVU165
 134:fips202.c     ****         Aki ^= Di;
 528              	 .loc 1 134 9 view .LVU166
 133:fips202.c     ****         BCe = ROL(Age, 44);
 529              	 .loc 1 133 13 is_stmt 0 view .LVU167
 530 0272 039A     	 ldr r2,[sp,#12]
 531 0274 1699     	 ldr r1,[sp,#88]
 532 0276 5140     	 eors r1,r1,r2
 533 0278 049A     	 ldr r2,[sp,#16]
 134:fips202.c     ****         Aki ^= Di;
 534              	 .loc 1 134 13 view .LVU168
 535 027a 0D0D     	 lsrs r5,r1,#20
 536              	.LVL70:
 133:fips202.c     ****         BCe = ROL(Age, 44);
 537              	 .loc 1 133 13 view .LVU169
 538 027c 6240     	 eors r2,r2,r4
 134:fips202.c     ****         Aki ^= Di;
 539              	 .loc 1 134 13 view .LVU170
 540 027e 45EA0235 	 orr r5,r5,r2,lsl#12
 541 0282 120D     	 lsrs r2,r2,#20
 542 0284 42EA0132 	 orr r2,r2,r1,lsl#12
 543              	.LVL71:
 135:fips202.c     ****         BCi = ROL(Aki, 43);
 544              	 .loc 1 135 9 is_stmt 1 view .LVU171
 136:fips202.c     ****         Amo ^= Do;
 545              	 .loc 1 136 9 view .LVU172
 135:fips202.c     ****         BCi = ROL(Aki, 43);
 546              	 .loc 1 135 13 is_stmt 0 view .LVU173
 547 0288 2299     	 ldr r1,[sp,#136]
 548 028a 059C     	 ldr r4,[sp,#20]
 549 028c 8BEA0101 	 eor r1,fp,r1
 550 0290 7440     	 eors r4,r4,r6
 136:fips202.c     ****         Amo ^= Do;
 551              	 .loc 1 136 13 view .LVU174
 552 0292 4FEA5158 	 lsr r8,r1,#21
 553 0296 48EAC428 	 orr r8,r8,r4,lsl#11
 554 029a 640D     	 lsrs r4,r4,#21
 555 029c 44EAC124 	 orr r4,r4,r1,lsl#11
 556              	.LVL72:
 557              	 .loc 1 137 9 is_stmt 1 view .LVU175
 138:fips202.c     ****         BCo = ROL(Amo, 21);
 558              	 .loc 1 138 9 view .LVU176
 137:fips202.c     ****         BCo = ROL(Amo, 21);
 559              	 .loc 1 137 13 is_stmt 0 view .LVU177
 560 02a0 2E9E     	 ldr r6,[sp,#184]
 561 02a2 0699     	 ldr r1,[sp,#24]
 562 02a4 4E40     	 eors r6,r6,r1
 563 02a6 0799     	 ldr r1,[sp,#28]
 564              	 .loc 1 138 13 view .LVU178
 565 02a8 4FEA465E 	 lsl lr,r6,#21
 566              	.LVL73:
 137:fips202.c     ****         BCo = ROL(Amo, 21);
 567              	 .loc 1 137 13 view .LVU179
 568 02ac 7940     	 eors r1,r1,r7
 569              	 .loc 1 138 13 view .LVU180
 570 02ae 4EEAD12E 	 orr lr,lr,r1,lsr#11
 571 02b2 4905     	 lsls r1,r1,#21
 139:fips202.c     ****         Asu ^= Du;
 572              	 .loc 1 139 13 view .LVU181
 573 02b4 3A9F     	 ldr r7,[sp,#232]
 138:fips202.c     ****         BCo = ROL(Amo, 21);
 574              	 .loc 1 138 13 view .LVU182
 575 02b6 41EAD621 	 orr r1,r1,r6,lsr#11
 576              	.LVL74:
 577              	 .loc 1 139 9 is_stmt 1 view .LVU183
 140:fips202.c     ****         BCu = ROL(Asu, 14);
 578              	 .loc 1 140 9 view .LVU184
 139:fips202.c     ****         Asu ^= Du;
 579              	 .loc 1 139 13 is_stmt 0 view .LVU185
 580 02ba 089E     	 ldr r6,[sp,#32]
 581 02bc 7E40     	 eors r6,r6,r7
 582 02be 099F     	 ldr r7,[sp,#36]
 583              	 .loc 1 140 13 view .LVU186
 584 02c0 4FEA863C 	 lsl ip,r6,#14
 139:fips202.c     ****         Asu ^= Du;
 585              	 .loc 1 139 13 view .LVU187
 586 02c4 7B40     	 eors r3,r3,r7
 587              	.LVL75:
 588              	 .loc 1 140 13 view .LVU188
 589 02c6 4CEA934C 	 orr ip,ip,r3,lsr#18
 590 02ca 9B03     	 lsls r3,r3,#14
 591 02cc 43EA9643 	 orr r3,r3,r6,lsr#18
 592              	.LVL76:
 141:fips202.c     ****         Eba = BCa ^ ((~BCe) & BCi);
 593              	 .loc 1 141 9 is_stmt 1 view .LVU189
 142:fips202.c     ****         Eba ^= KeccakF_RoundConstants[round];
 594              	 .loc 1 142 9 view .LVU190
 595              	 .loc 1 142 13 is_stmt 0 view .LVU191
 596 02d0 009E     	 ldr r6,[sp]
 597 02d2 D6E90076 	 ldrd r7,r6,[r6]
 598 02d6 8AEA0606 	 eor r6,r10,r6
 599 02da 0B96     	 str r6,[sp,#44]
 600 02dc 89EA0707 	 eor r7,r9,r7
 601 02e0 28EA0506 	 bic r6,r8,r5
 602 02e4 7E40     	 eors r6,r6,r7
 603 02e6 0B9F     	 ldr r7,[sp,#44]
 604 02e8 0A96     	 str r6,[sp,#40]
 605 02ea 24EA0206 	 bic r6,r4,r2
 606 02ee 7740     	 eors r7,r7,r6
 143:fips202.c     ****         Ebe = BCe ^ ((~BCi) & BCo);
 607              	 .loc 1 143 29 view .LVU192
 608 02f0 21EA0406 	 bic r6,r1,r4
 609              	 .loc 1 143 13 view .LVU193
 610 02f4 5640     	 eors r6,r6,r2
 611 02f6 2396     	 str r6,[sp,#140]
 612              	.LVL77:
 144:fips202.c     ****         Ebi = BCi ^ ((~BCo) & BCu);
 613              	 .loc 1 144 29 view .LVU194
 614 02f8 23EA0106 	 bic r6,r3,r1
 615              	 .loc 1 144 13 view .LVU195
 616 02fc 7440     	 eors r4,r4,r6
 617              	.LVL78:
 145:fips202.c     ****         Ebo = BCo ^ ((~BCu) & BCa);
 146:fips202.c     ****         Ebu = BCu ^ ((~BCa) & BCe);
 618              	 .loc 1 146 29 view .LVU196
 619 02fe 22EA0A02 	 bic r2,r2,r10
 620              	.LVL79:
 142:fips202.c     ****         Ebe = BCe ^ ((~BCi) & BCo);
 621              	 .loc 1 142 13 view .LVU197
 622 0302 0B97     	 str r7,[sp,#44]
 623              	.LVL80:
 143:fips202.c     ****         Ebi = BCi ^ ((~BCo) & BCu);
 624              	 .loc 1 143 9 is_stmt 1 view .LVU198
 144:fips202.c     ****         Ebo = BCo ^ ((~BCu) & BCa);
 625              	 .loc 1 144 9 view .LVU199
 143:fips202.c     ****         Ebi = BCi ^ ((~BCo) & BCu);
 626              	 .loc 1 143 29 is_stmt 0 view .LVU200
 627 0304 2EEA0807 	 bic r7,lr,r8
 628              	.LVL81:
 143:fips202.c     ****         Ebi = BCi ^ ((~BCo) & BCu);
 629              	 .loc 1 143 13 view .LVU201
 630 0308 6F40     	 eors r7,r7,r5
 144:fips202.c     ****         Ebo = BCo ^ ((~BCu) & BCa);
 631              	 .loc 1 144 13 view .LVU202
 632 030a 3B94     	 str r4,[sp,#236]
 633              	.LVL82:
 145:fips202.c     ****         Ebu = BCu ^ ((~BCa) & BCe);
 634              	 .loc 1 145 9 is_stmt 1 view .LVU203
 145:fips202.c     ****         Ebu = BCu ^ ((~BCa) & BCe);
 635              	 .loc 1 145 29 is_stmt 0 view .LVU204
 636 030c 2AEA0304 	 bic r4,r10,r3
 637              	.LVL83:
 638              	 .loc 1 146 13 view .LVU205
 639 0310 5340     	 eors r3,r3,r2
 640              	.LVL84:
 145:fips202.c     ****         Ebu = BCu ^ ((~BCa) & BCe);
 641              	 .loc 1 145 29 view .LVU206
 642 0312 29EA0C06 	 bic r6,r9,ip
 145:fips202.c     ****         Ebu = BCu ^ ((~BCa) & BCe);
 643              	 .loc 1 145 13 view .LVU207
 644 0316 6140     	 eors r1,r1,r4
 645              	.LVL85:
 646              	 .loc 1 146 29 view .LVU208
 647 0318 25EA0905 	 bic r5,r5,r9
 648              	.LVL86:
 147:fips202.c     **** 
 148:fips202.c     ****         Abo ^= Do;
 649              	 .loc 1 148 13 view .LVU209
 650 031c 109A     	 ldr r2,[sp,#64]
 143:fips202.c     ****         Ebi = BCi ^ ((~BCo) & BCu);
 651              	 .loc 1 143 13 view .LVU210
 652 031e 2297     	 str r7,[sp,#136]
 653              	.LVL87:
 146:fips202.c     **** 
 654              	 .loc 1 146 13 view .LVU211
 655 0320 2F93     	 str r3,[sp,#188]
 656              	.LVL88:
 144:fips202.c     ****         Ebo = BCo ^ ((~BCu) & BCa);
 657              	 .loc 1 144 29 view .LVU212
 658 0322 2CEA0E07 	 bic r7,ip,lr
 659              	 .loc 1 148 13 view .LVU213
 660 0326 069B     	 ldr r3,[sp,#24]
 145:fips202.c     ****         Ebu = BCu ^ ((~BCa) & BCe);
 661              	 .loc 1 145 13 view .LVU214
 662 0328 1791     	 str r1,[sp,#92]
 663              	.LVL89:
 146:fips202.c     **** 
 664              	 .loc 1 146 9 is_stmt 1 view .LVU215
 665              	 .loc 1 148 9 view .LVU216
 149:fips202.c     ****         BCa = ROL(Abo, 28);
 666              	 .loc 1 149 9 view .LVU217
 144:fips202.c     ****         Ebo = BCo ^ ((~BCu) & BCa);
 667              	 .loc 1 144 13 is_stmt 0 view .LVU218
 668 032a 87EA0807 	 eor r7,r7,r8
 146:fips202.c     **** 
 669              	 .loc 1 146 13 view .LVU219
 670 032e 85EA0C01 	 eor r1,r5,ip
 671              	.LVL90:
 145:fips202.c     ****         Ebu = BCu ^ ((~BCa) & BCe);
 672              	 .loc 1 145 13 view .LVU220
 673 0332 86EA0E06 	 eor r6,r6,lr
 148:fips202.c     ****         BCa = ROL(Abo, 28);
 674              	 .loc 1 148 13 view .LVU221
 675 0336 5340     	 eors r3,r3,r2
 144:fips202.c     ****         Ebo = BCo ^ ((~BCu) & BCa);
 676              	 .loc 1 144 13 view .LVU222
 677 0338 3A97     	 str r7,[sp,#232]
 678              	.LVL91:
 145:fips202.c     ****         Ebu = BCu ^ ((~BCa) & BCe);
 679              	 .loc 1 145 13 view .LVU223
 680 033a 1696     	 str r6,[sp,#88]
 681              	.LVL92:
 146:fips202.c     **** 
 682              	 .loc 1 146 13 view .LVU224
 683 033c 2E91     	 str r1,[sp,#184]
 684              	.LVL93:
 148:fips202.c     ****         BCa = ROL(Abo, 28);
 685              	 .loc 1 148 13 view .LVU225
 686 033e 079A     	 ldr r2,[sp,#28]
 687 0340 1199     	 ldr r1,[sp,#68]
 150:fips202.c     ****         Agu ^= Du;
 688              	 .loc 1 150 13 view .LVU226
 689 0342 1D9C     	 ldr r4,[sp,#116]
 151:fips202.c     ****         BCe = ROL(Agu, 20);
 152:fips202.c     ****         Aka ^= Da;
 690              	 .loc 1 152 13 view .LVU227
 691 0344 1F9D     	 ldr r5,[sp,#124]
 153:fips202.c     ****         BCi = ROL(Aka, 3);
 154:fips202.c     ****         Ame ^= De;
 692              	 .loc 1 154 13 view .LVU228
 693 0346 2B9F     	 ldr r7,[sp,#172]
 148:fips202.c     ****         BCa = ROL(Abo, 28);
 694              	 .loc 1 148 13 view .LVU229
 695 0348 5140     	 eors r1,r1,r2
 149:fips202.c     ****         Agu ^= Du;
 696              	 .loc 1 149 13 view .LVU230
 697 034a 4FEA037C 	 lsl ip,r3,#28
 149:fips202.c     ****         Agu ^= Du;
 698              	 .loc 1 149 13 view .LVU231
 699 034e 4CEA111C 	 orr ip,ip,r1,lsr#4
 700 0352 0907     	 lsls r1,r1,#28
 701 0354 41EA1311 	 orr r1,r1,r3,lsr#4
 702              	.LVL94:
 150:fips202.c     ****         BCe = ROL(Agu, 20);
 703              	 .loc 1 150 9 is_stmt 1 view .LVU232
 151:fips202.c     ****         Aka ^= Da;
 704              	 .loc 1 151 9 view .LVU233
 150:fips202.c     ****         BCe = ROL(Agu, 20);
 705              	 .loc 1 150 13 is_stmt 0 view .LVU234
 706 0358 1C9A     	 ldr r2,[sp,#112]
 707 035a 089B     	 ldr r3,[sp,#32]
 708 035c 5A40     	 eors r2,r2,r3
 709 035e 099B     	 ldr r3,[sp,#36]
 151:fips202.c     ****         Aka ^= Da;
 710              	 .loc 1 151 13 view .LVU235
 711 0360 1605     	 lsls r6,r2,#20
 150:fips202.c     ****         BCe = ROL(Agu, 20);
 712              	 .loc 1 150 13 view .LVU236
 713 0362 6340     	 eors r3,r3,r4
 151:fips202.c     ****         Aka ^= Da;
 714              	 .loc 1 151 13 view .LVU237
 715 0364 46EA1336 	 orr r6,r6,r3,lsr#12
 716 0368 1B05     	 lsls r3,r3,#20
 152:fips202.c     ****         BCi = ROL(Aka, 3);
 717              	 .loc 1 152 13 view .LVU238
 718 036a 1E9C     	 ldr r4,[sp,#120]
 151:fips202.c     ****         Aka ^= Da;
 719              	 .loc 1 151 13 view .LVU239
 720 036c 43EA1233 	 orr r3,r3,r2,lsr#12
 721              	.LVL95:
 152:fips202.c     ****         BCi = ROL(Aka, 3);
 722              	 .loc 1 152 9 is_stmt 1 view .LVU240
 153:fips202.c     ****         Ame ^= De;
 723              	 .loc 1 153 9 view .LVU241
 152:fips202.c     ****         BCi = ROL(Aka, 3);
 724              	 .loc 1 152 13 is_stmt 0 view .LVU242
 725 0370 019A     	 ldr r2,[sp,#4]
 726 0372 6240     	 eors r2,r2,r4
 727 0374 029C     	 ldr r4,[sp,#8]
 153:fips202.c     ****         Ame ^= De;
 728              	 .loc 1 153 13 view .LVU243
 729 0376 4FEAC208 	 lsl r8,r2,#3
 152:fips202.c     ****         BCi = ROL(Aka, 3);
 730              	 .loc 1 152 13 view .LVU244
 731 037a 6540     	 eors r5,r5,r4
 153:fips202.c     ****         Ame ^= De;
 732              	 .loc 1 153 13 view .LVU245
 733 037c 48EA5578 	 orr r8,r8,r5,lsr#29
 734 0380 ED00     	 lsls r5,r5,#3
 735              	 .loc 1 154 13 view .LVU246
 736 0382 2A9C     	 ldr r4,[sp,#168]
 153:fips202.c     ****         Ame ^= De;
 737              	 .loc 1 153 13 view .LVU247
 738 0384 45EA5275 	 orr r5,r5,r2,lsr#29
 739              	.LVL96:
 740              	 .loc 1 154 9 is_stmt 1 view .LVU248
 155:fips202.c     ****         BCo = ROL(Ame, 45);
 741              	 .loc 1 155 9 view .LVU249
 154:fips202.c     ****         BCo = ROL(Ame, 45);
 742              	 .loc 1 154 13 is_stmt 0 view .LVU250
 743 0388 039A     	 ldr r2,[sp,#12]
 744 038a 6240     	 eors r2,r2,r4
 745 038c 049C     	 ldr r4,[sp,#16]
 746              	 .loc 1 155 13 view .LVU251
 747 038e 4FEAD24E 	 lsr lr,r2,#19
 154:fips202.c     ****         BCo = ROL(Ame, 45);
 748              	 .loc 1 154 13 view .LVU252
 749 0392 7C40     	 eors r4,r4,r7
 750              	 .loc 1 155 13 view .LVU253
 751 0394 4EEA443E 	 orr lr,lr,r4,lsl#13
 752 0398 E40C     	 lsrs r4,r4,#19
 753 039a 44EA4234 	 orr r4,r4,r2,lsl#13
 754              	.LVL97:
 156:fips202.c     ****         Asi ^= Di;
 755              	 .loc 1 156 9 is_stmt 1 view .LVU254
 157:fips202.c     ****         BCu = ROL(Asi, 61);
 756              	 .loc 1 157 9 view .LVU255
 156:fips202.c     ****         Asi ^= Di;
 757              	 .loc 1 156 13 is_stmt 0 view .LVU256
 758 039e 369A     	 ldr r2,[sp,#216]
 759 03a0 379F     	 ldr r7,[sp,#220]
 760 03a2 8BEA0209 	 eor r9,fp,r2
 761              	.LVL98:
 156:fips202.c     ****         Asi ^= Di;
 762              	 .loc 1 156 13 view .LVU257
 763 03a6 059A     	 ldr r2,[sp,#20]
 764 03a8 7A40     	 eors r2,r2,r7
 765              	 .loc 1 157 13 view .LVU258
 766 03aa 4FEAD907 	 lsr r7,r9,#3
 767 03ae 47EA4277 	 orr r7,r7,r2,lsl#29
 768 03b2 D208     	 lsrs r2,r2,#3
 769 03b4 42EA4972 	 orr r2,r2,r9,lsl#29
 770              	.LVL99:
 158:fips202.c     ****         Ega = BCa ^ ((~BCe) & BCi);
 771              	 .loc 1 158 9 is_stmt 1 view .LVU259
 772              	 .loc 1 158 29 is_stmt 0 view .LVU260
 773 03b8 25EA0309 	 bic r9,r5,r3
 774              	 .loc 1 158 13 view .LVU261
 775 03bc 89EA0109 	 eor r9,r9,r1
 776 03c0 CDF8AC90 	 str r9,[sp,#172]
 777              	.LVL100:
 159:fips202.c     ****         Ege = BCe ^ ((~BCi) & BCo);
 778              	 .loc 1 159 9 is_stmt 1 view .LVU262
 779              	 .loc 1 159 29 is_stmt 0 view .LVU263
 780 03c4 24EA0509 	 bic r9,r4,r5
 781              	.LVL101:
 158:fips202.c     ****         Ega = BCa ^ ((~BCe) & BCi);
 782              	 .loc 1 158 29 view .LVU264
 783 03c8 28EA060A 	 bic r10,r8,r6
 784              	 .loc 1 159 13 view .LVU265
 785 03cc 89EA0309 	 eor r9,r9,r3
 158:fips202.c     ****         Ega = BCa ^ ((~BCe) & BCi);
 786              	 .loc 1 158 13 view .LVU266
 787 03d0 8AEA0C0A 	 eor r10,r10,ip
 788              	 .loc 1 159 13 view .LVU267
 789 03d4 CDF84490 	 str r9,[sp,#68]
 790              	.LVL102:
 160:fips202.c     ****         Egi = BCi ^ ((~BCo) & BCu);
 791              	 .loc 1 160 9 is_stmt 1 view .LVU268
 161:fips202.c     ****         Ego = BCo ^ ((~BCu) & BCa);
 162:fips202.c     ****         Egu = BCu ^ ((~BCa) & BCe);
 792              	 .loc 1 162 29 is_stmt 0 view .LVU269
 793 03d8 23EA0103 	 bic r3,r3,r1
 794              	.LVL103:
 160:fips202.c     ****         Egi = BCi ^ ((~BCo) & BCu);
 795              	 .loc 1 160 29 view .LVU270
 796 03dc 22EA0409 	 bic r9,r2,r4
 797              	.LVL104:
 160:fips202.c     ****         Egi = BCi ^ ((~BCo) & BCu);
 798              	 .loc 1 160 13 view .LVU271
 799 03e0 89EA0505 	 eor r5,r9,r5
 800              	.LVL105:
 801              	 .loc 1 162 13 view .LVU272
 802 03e4 5340     	 eors r3,r3,r2
 158:fips202.c     ****         Ege = BCe ^ ((~BCi) & BCo);
 803              	 .loc 1 158 13 view .LVU273
 804 03e6 CDF8A8A0 	 str r10,[sp,#168]
 805              	.LVL106:
 159:fips202.c     ****         Egi = BCi ^ ((~BCo) & BCu);
 806              	 .loc 1 159 29 view .LVU274
 807 03ea 2EEA080A 	 bic r10,lr,r8
 159:fips202.c     ****         Egi = BCi ^ ((~BCo) & BCu);
 808              	 .loc 1 159 13 view .LVU275
 809 03ee 8AEA060A 	 eor r10,r10,r6
 160:fips202.c     ****         Ego = BCo ^ ((~BCu) & BCa);
 810              	 .loc 1 160 13 view .LVU276
 811 03f2 1F95     	 str r5,[sp,#124]
 812              	.LVL107:
 161:fips202.c     ****         Egu = BCu ^ ((~BCa) & BCe);
 813              	 .loc 1 161 9 is_stmt 1 view .LVU277
 814              	 .loc 1 162 29 is_stmt 0 view .LVU278
 815 03f4 26EA0C06 	 bic r6,r6,ip
 816              	.LVL108:
 161:fips202.c     ****         Egu = BCu ^ ((~BCa) & BCe);
 817              	 .loc 1 161 29 view .LVU279
 818 03f8 21EA0205 	 bic r5,r1,r2
 819              	.LVL109:
 820              	 .loc 1 162 13 view .LVU280
 821 03fc 1D93     	 str r3,[sp,#116]
 822              	.LVL110:
 163:fips202.c     **** 
 164:fips202.c     ****         Abe ^= De;
 823              	 .loc 1 164 13 view .LVU281
 824 03fe 0C9A     	 ldr r2,[sp,#48]
 825              	.LVL111:
 826              	 .loc 1 164 13 view .LVU282
 827 0400 039B     	 ldr r3,[sp,#12]
 159:fips202.c     ****         Egi = BCi ^ ((~BCo) & BCu);
 828              	 .loc 1 159 13 view .LVU283
 829 0402 CDF840A0 	 str r10,[sp,#64]
 830              	.LVL112:
 162:fips202.c     **** 
 831              	 .loc 1 162 13 view .LVU284
 832 0406 86EA0701 	 eor r1,r6,r7
 833              	.LVL113:
 160:fips202.c     ****         Ego = BCo ^ ((~BCu) & BCa);
 834              	 .loc 1 160 29 view .LVU285
 835 040a 27EA0E0A 	 bic r10,r7,lr
 836              	 .loc 1 164 13 view .LVU286
 837 040e 5340     	 eors r3,r3,r2
 162:fips202.c     **** 
 838              	 .loc 1 162 13 view .LVU287
 839 0410 1C91     	 str r1,[sp,#112]
 840              	 .loc 1 164 13 view .LVU288
 841 0412 049A     	 ldr r2,[sp,#16]
 842 0414 0D99     	 ldr r1,[sp,#52]
 160:fips202.c     ****         Ego = BCo ^ ((~BCu) & BCa);
 843              	 .loc 1 160 13 view .LVU289
 844 0416 8AEA0808 	 eor r8,r10,r8
 845              	 .loc 1 164 13 view .LVU290
 846 041a 5140     	 eors r1,r1,r2
 160:fips202.c     ****         Ego = BCo ^ ((~BCu) & BCa);
 847              	 .loc 1 160 13 view .LVU291
 848 041c CDF87880 	 str r8,[sp,#120]
 849              	.LVL114:
 161:fips202.c     ****         Egu = BCu ^ ((~BCa) & BCe);
 850              	 .loc 1 161 29 view .LVU292
 851 0420 2CEA0708 	 bic r8,ip,r7
 165:fips202.c     ****         BCa = ROL(Abe, 1);
 852              	 .loc 1 165 13 view .LVU293
 853 0424 4FEA430C 	 lsl ip,r3,#1
 854              	 .loc 1 165 13 view .LVU294
 855 0428 4CEAD17C 	 orr ip,ip,r1,lsr#31
 856 042c 4900     	 lsls r1,r1,#1
 857 042e 41EAD371 	 orr r1,r1,r3,lsr#31
 166:fips202.c     ****         Agi ^= Di;
 858              	 .loc 1 166 13 view .LVU295
 859 0432 189B     	 ldr r3,[sp,#96]
 161:fips202.c     ****         Egu = BCu ^ ((~BCa) & BCe);
 860              	 .loc 1 161 13 view .LVU296
 861 0434 88EA0E0E 	 eor lr,r8,lr
 862              	.LVL115:
 161:fips202.c     ****         Egu = BCu ^ ((~BCa) & BCe);
 863              	 .loc 1 161 13 view .LVU297
 864 0438 6C40     	 eors r4,r4,r5
 865              	 .loc 1 166 13 view .LVU298
 866 043a 8BEA0302 	 eor r2,fp,r3
 161:fips202.c     ****         Egu = BCu ^ ((~BCa) & BCe);
 867              	 .loc 1 161 13 view .LVU299
 868 043e CDF8D8E0 	 str lr,[sp,#216]
 869              	.LVL116:
 161:fips202.c     ****         Egu = BCu ^ ((~BCa) & BCe);
 870              	 .loc 1 161 13 view .LVU300
 871 0442 3794     	 str r4,[sp,#220]
 872              	.LVL117:
 162:fips202.c     **** 
 873              	 .loc 1 162 9 is_stmt 1 view .LVU301
 164:fips202.c     ****         BCa = ROL(Abe, 1);
 874              	 .loc 1 164 9 view .LVU302
 165:fips202.c     ****         Agi ^= Di;
 875              	 .loc 1 165 9 view .LVU303
 876              	 .loc 1 166 9 view .LVU304
 167:fips202.c     ****         BCe = ROL(Agi, 6);
 877              	 .loc 1 167 9 view .LVU305
 166:fips202.c     ****         BCe = ROL(Agi, 6);
 878              	 .loc 1 166 13 is_stmt 0 view .LVU306
 879 0444 059B     	 ldr r3,[sp,#20]
 880 0446 199C     	 ldr r4,[sp,#100]
 881              	.LVL118:
 168:fips202.c     ****         Ako ^= Do;
 882              	 .loc 1 168 13 view .LVU307
 883 0448 259D     	 ldr r5,[sp,#148]
 169:fips202.c     ****         BCi = ROL(Ako, 25);
 170:fips202.c     ****         Amu ^= Du;
 884              	 .loc 1 170 13 view .LVU308
 885 044a 319F     	 ldr r7,[sp,#196]
 166:fips202.c     ****         BCe = ROL(Agi, 6);
 886              	 .loc 1 166 13 view .LVU309
 887 044c 6340     	 eors r3,r3,r4
 167:fips202.c     ****         Ako ^= Do;
 888              	 .loc 1 167 13 view .LVU310
 889 044e 9601     	 lsls r6,r2,#6
 890 0450 46EA9366 	 orr r6,r6,r3,lsr#26
 891 0454 9B01     	 lsls r3,r3,#6
 168:fips202.c     ****         BCi = ROL(Ako, 25);
 892              	 .loc 1 168 13 view .LVU311
 893 0456 249C     	 ldr r4,[sp,#144]
 167:fips202.c     ****         Ako ^= Do;
 894              	 .loc 1 167 13 view .LVU312
 895 0458 43EA9263 	 orr r3,r3,r2,lsr#26
 896              	.LVL119:
 168:fips202.c     ****         BCi = ROL(Ako, 25);
 897              	 .loc 1 168 9 is_stmt 1 view .LVU313
 169:fips202.c     ****         Amu ^= Du;
 898              	 .loc 1 169 9 view .LVU314
 168:fips202.c     ****         BCi = ROL(Ako, 25);
 899              	 .loc 1 168 13 is_stmt 0 view .LVU315
 900 045c 069A     	 ldr r2,[sp,#24]
 901 045e 6240     	 eors r2,r2,r4
 902 0460 079C     	 ldr r4,[sp,#28]
 169:fips202.c     ****         Amu ^= Du;
 903              	 .loc 1 169 13 view .LVU316
 904 0462 4FEA4268 	 lsl r8,r2,#25
 168:fips202.c     ****         BCi = ROL(Ako, 25);
 905              	 .loc 1 168 13 view .LVU317
 906 0466 6540     	 eors r5,r5,r4
 169:fips202.c     ****         Amu ^= Du;
 907              	 .loc 1 169 13 view .LVU318
 908 0468 48EAD518 	 orr r8,r8,r5,lsr#7
 909 046c 6D06     	 lsls r5,r5,#25
 910              	 .loc 1 170 13 view .LVU319
 911 046e 309C     	 ldr r4,[sp,#192]
 169:fips202.c     ****         Amu ^= Du;
 912              	 .loc 1 169 13 view .LVU320
 913 0470 45EAD215 	 orr r5,r5,r2,lsr#7
 914              	.LVL120:
 915              	 .loc 1 170 9 is_stmt 1 view .LVU321
 171:fips202.c     ****         BCo = ROL(Amu, 8);
 916              	 .loc 1 171 9 view .LVU322
 170:fips202.c     ****         BCo = ROL(Amu, 8);
 917              	 .loc 1 170 13 is_stmt 0 view .LVU323
 918 0474 089A     	 ldr r2,[sp,#32]
 919 0476 6240     	 eors r2,r2,r4
 920 0478 099C     	 ldr r4,[sp,#36]
 921              	 .loc 1 171 13 view .LVU324
 922 047a 4FEA022E 	 lsl lr,r2,#8
 923              	.LVL121:
 170:fips202.c     ****         BCo = ROL(Amu, 8);
 924              	 .loc 1 170 13 view .LVU325
 925 047e 7C40     	 eors r4,r4,r7
 926              	 .loc 1 171 13 view .LVU326
 927 0480 4EEA146E 	 orr lr,lr,r4,lsr#24
 928 0484 2402     	 lsls r4,r4,#8
 172:fips202.c     ****         Asa ^= Da;
 929              	 .loc 1 172 13 view .LVU327
 930 0486 329F     	 ldr r7,[sp,#200]
 171:fips202.c     ****         BCo = ROL(Amu, 8);
 931              	 .loc 1 171 13 view .LVU328
 932 0488 44EA1264 	 orr r4,r4,r2,lsr#24
 933              	.LVL122:
 934              	 .loc 1 172 9 is_stmt 1 view .LVU329
 173:fips202.c     ****         BCu = ROL(Asa, 18);
 935              	 .loc 1 173 9 view .LVU330
 172:fips202.c     ****         Asa ^= Da;
 936              	 .loc 1 172 13 is_stmt 0 view .LVU331
 937 048c 019A     	 ldr r2,[sp,#4]
 938 048e 82EA0709 	 eor r9,r2,r7
 939 0492 339F     	 ldr r7,[sp,#204]
 940 0494 029A     	 ldr r2,[sp,#8]
 941 0496 7A40     	 eors r2,r2,r7
 942              	 .loc 1 173 13 view .LVU332
 943 0498 4FEA8947 	 lsl r7,r9,#18
 944 049c 47EA9237 	 orr r7,r7,r2,lsr#14
 945 04a0 9204     	 lsls r2,r2,#18
 946 04a2 42EA9932 	 orr r2,r2,r9,lsr#14
 947              	.LVL123:
 174:fips202.c     ****         Eka = BCa ^ ((~BCe) & BCi);
 948              	 .loc 1 174 9 is_stmt 1 view .LVU333
 949              	 .loc 1 174 29 is_stmt 0 view .LVU334
 950 04a6 25EA0309 	 bic r9,r5,r3
 951              	 .loc 1 174 13 view .LVU335
 952 04aa 89EA0109 	 eor r9,r9,r1
 953 04ae CDF86490 	 str r9,[sp,#100]
 954              	.LVL124:
 175:fips202.c     ****         Eke = BCe ^ ((~BCi) & BCo);
 955              	 .loc 1 175 9 is_stmt 1 view .LVU336
 956              	 .loc 1 175 29 is_stmt 0 view .LVU337
 957 04b2 24EA0509 	 bic r9,r4,r5
 958              	.LVL125:
 174:fips202.c     ****         Eka = BCa ^ ((~BCe) & BCi);
 959              	 .loc 1 174 29 view .LVU338
 960 04b6 28EA060A 	 bic r10,r8,r6
 961              	 .loc 1 175 13 view .LVU339
 962 04ba 89EA0309 	 eor r9,r9,r3
 174:fips202.c     ****         Eka = BCa ^ ((~BCe) & BCi);
 963              	 .loc 1 174 13 view .LVU340
 964 04be 8AEA0C0A 	 eor r10,r10,ip
 965              	 .loc 1 175 13 view .LVU341
 966 04c2 CDF8C490 	 str r9,[sp,#196]
 967              	.LVL126:
 176:fips202.c     ****         Eki = BCi ^ ((~BCo) & BCu);
 968              	 .loc 1 176 9 is_stmt 1 view .LVU342
 177:fips202.c     ****         Eko = BCo ^ ((~BCu) & BCa);
 178:fips202.c     ****         Eku = BCu ^ ((~BCa) & BCe);
 969              	 .loc 1 178 29 is_stmt 0 view .LVU343
 970 04c6 23EA0103 	 bic r3,r3,r1
 971              	.LVL127:
 176:fips202.c     ****         Eki = BCi ^ ((~BCo) & BCu);
 972              	 .loc 1 176 29 view .LVU344
 973 04ca 22EA0409 	 bic r9,r2,r4
 974              	.LVL128:
 176:fips202.c     ****         Eki = BCi ^ ((~BCo) & BCu);
 975              	 .loc 1 176 13 view .LVU345
 976 04ce 89EA0505 	 eor r5,r9,r5
 977              	.LVL129:
 978              	 .loc 1 178 13 view .LVU346
 979 04d2 5340     	 eors r3,r3,r2
 174:fips202.c     ****         Eke = BCe ^ ((~BCi) & BCo);
 980              	 .loc 1 174 13 view .LVU347
 981 04d4 CDF860A0 	 str r10,[sp,#96]
 982              	.LVL130:
 175:fips202.c     ****         Eki = BCi ^ ((~BCo) & BCu);
 983              	 .loc 1 175 29 view .LVU348
 984 04d8 2EEA080A 	 bic r10,lr,r8
 175:fips202.c     ****         Eki = BCi ^ ((~BCo) & BCu);
 985              	 .loc 1 175 13 view .LVU349
 986 04dc 8AEA060A 	 eor r10,r10,r6
 176:fips202.c     ****         Eko = BCo ^ ((~BCu) & BCa);
 987              	 .loc 1 176 13 view .LVU350
 988 04e0 0D95     	 str r5,[sp,#52]
 989              	.LVL131:
 177:fips202.c     ****         Eku = BCu ^ ((~BCa) & BCe);
 990              	 .loc 1 177 9 is_stmt 1 view .LVU351
 991              	 .loc 1 178 29 is_stmt 0 view .LVU352
 992 04e2 26EA0C06 	 bic r6,r6,ip
 177:fips202.c     ****         Eku = BCu ^ ((~BCa) & BCe);
 993              	 .loc 1 177 29 view .LVU353
 994 04e6 21EA0205 	 bic r5,r1,r2
 995              	.LVL132:
 996              	 .loc 1 178 13 view .LVU354
 997 04ea 3393     	 str r3,[sp,#204]
 998              	.LVL133:
 179:fips202.c     **** 
 180:fips202.c     ****         Abu ^= Du;
 999              	 .loc 1 180 13 view .LVU355
 1000 04ec 129A     	 ldr r2,[sp,#72]
 1001              	.LVL134:
 1002              	 .loc 1 180 13 view .LVU356
 1003 04ee 089B     	 ldr r3,[sp,#32]
 175:fips202.c     ****         Eki = BCi ^ ((~BCo) & BCu);
 1004              	 .loc 1 175 13 view .LVU357
 1005 04f0 CDF8C0A0 	 str r10,[sp,#192]
 1006              	.LVL135:
 178:fips202.c     **** 
 1007              	 .loc 1 178 13 view .LVU358
 1008 04f4 86EA0701 	 eor r1,r6,r7
 1009              	.LVL136:
 176:fips202.c     ****         Eko = BCo ^ ((~BCu) & BCa);
 1010              	 .loc 1 176 29 view .LVU359
 1011 04f8 27EA0E0A 	 bic r10,r7,lr
 1012              	 .loc 1 180 13 view .LVU360
 1013 04fc 5340     	 eors r3,r3,r2
 178:fips202.c     **** 
 1014              	 .loc 1 178 13 view .LVU361
 1015 04fe 3291     	 str r1,[sp,#200]
 1016              	 .loc 1 180 13 view .LVU362
 1017 0500 099A     	 ldr r2,[sp,#36]
 1018 0502 1399     	 ldr r1,[sp,#76]
 176:fips202.c     ****         Eko = BCo ^ ((~BCu) & BCa);
 1019              	 .loc 1 176 13 view .LVU363
 1020 0504 8AEA0808 	 eor r8,r10,r8
 1021              	.LVL137:
 1022              	 .loc 1 180 13 view .LVU364
 1023 0508 5140     	 eors r1,r1,r2
 176:fips202.c     ****         Eko = BCo ^ ((~BCu) & BCa);
 1024              	 .loc 1 176 13 view .LVU365
 1025 050a CDF83080 	 str r8,[sp,#48]
 1026              	.LVL138:
 177:fips202.c     ****         Eku = BCu ^ ((~BCa) & BCe);
 1027              	 .loc 1 177 29 view .LVU366
 1028 050e 2CEA0708 	 bic r8,ip,r7
 181:fips202.c     ****         BCa = ROL(Abu, 27);
 1029              	 .loc 1 181 13 view .LVU367
 1030 0512 4FEAC36C 	 lsl ip,r3,#27
 1031              	 .loc 1 181 13 view .LVU368
 1032 0516 4CEA511C 	 orr ip,ip,r1,lsr#5
 1033 051a C906     	 lsls r1,r1,#27
 1034 051c 41EA5311 	 orr r1,r1,r3,lsr#5
 182:fips202.c     ****         Aga ^= Da;
 1035              	 .loc 1 182 13 view .LVU369
 1036 0520 149A     	 ldr r2,[sp,#80]
 1037 0522 019B     	 ldr r3,[sp,#4]
 177:fips202.c     ****         Eku = BCu ^ ((~BCa) & BCe);
 1038              	 .loc 1 177 13 view .LVU370
 1039 0524 6C40     	 eors r4,r4,r5
 1040              	.LVL139:
 1041              	 .loc 1 182 13 view .LVU371
 1042 0526 5A40     	 eors r2,r2,r3
 177:fips202.c     ****         Eku = BCu ^ ((~BCa) & BCe);
 1043              	 .loc 1 177 13 view .LVU372
 1044 0528 2594     	 str r4,[sp,#148]
 1045              	.LVL140:
 178:fips202.c     **** 
 1046              	 .loc 1 178 9 is_stmt 1 view .LVU373
 180:fips202.c     ****         BCa = ROL(Abu, 27);
 1047              	 .loc 1 180 9 view .LVU374
 181:fips202.c     ****         Aga ^= Da;
 1048              	 .loc 1 181 9 view .LVU375
 1049              	 .loc 1 182 9 view .LVU376
 183:fips202.c     ****         BCe = ROL(Aga, 36);
 1050              	 .loc 1 183 9 view .LVU377
 182:fips202.c     ****         BCe = ROL(Aga, 36);
 1051              	 .loc 1 182 13 is_stmt 0 view .LVU378
 1052 052a 029B     	 ldr r3,[sp,#8]
 1053 052c 159C     	 ldr r4,[sp,#84]
 1054              	.LVL141:
 1055              	 .loc 1 183 13 view .LVU379
 1056 052e 160F     	 lsrs r6,r2,#28
 182:fips202.c     ****         BCe = ROL(Aga, 36);
 1057              	 .loc 1 182 13 view .LVU380
 1058 0530 6340     	 eors r3,r3,r4
 1059              	 .loc 1 183 13 view .LVU381
 1060 0532 46EA0316 	 orr r6,r6,r3,lsl#4
 177:fips202.c     ****         Eku = BCu ^ ((~BCa) & BCe);
 1061              	 .loc 1 177 13 view .LVU382
 1062 0536 88EA0E0E 	 eor lr,r8,lr
 1063              	 .loc 1 183 13 view .LVU383
 1064 053a 1B0F     	 lsrs r3,r3,#28
 1065 053c 43EA0213 	 orr r3,r3,r2,lsl#4
 1066              	.LVL142:
 184:fips202.c     ****         Ake ^= De;
 1067              	 .loc 1 184 9 is_stmt 1 view .LVU384
 185:fips202.c     ****         BCi = ROL(Ake, 10);
 1068              	 .loc 1 185 9 view .LVU385
 177:fips202.c     ****         Eku = BCu ^ ((~BCa) & BCe);
 1069              	 .loc 1 177 13 is_stmt 0 view .LVU386
 1070 0540 CDF890E0 	 str lr,[sp,#144]
 1071              	.LVL143:
 184:fips202.c     ****         Ake ^= De;
 1072              	 .loc 1 184 13 view .LVU387
 1073 0544 039A     	 ldr r2,[sp,#12]
 1074 0546 209C     	 ldr r4,[sp,#128]
 1075 0548 219D     	 ldr r5,[sp,#132]
 186:fips202.c     ****         Ami ^= Di;
 1076              	 .loc 1 186 13 view .LVU388
 1077 054a 2D9F     	 ldr r7,[sp,#180]
 184:fips202.c     ****         Ake ^= De;
 1078              	 .loc 1 184 13 view .LVU389
 1079 054c 6240     	 eors r2,r2,r4
 1080 054e 049C     	 ldr r4,[sp,#16]
 185:fips202.c     ****         BCi = ROL(Ake, 10);
 1081              	 .loc 1 185 13 view .LVU390
 1082 0550 4FEA8228 	 lsl r8,r2,#10
 184:fips202.c     ****         Ake ^= De;
 1083              	 .loc 1 184 13 view .LVU391
 1084 0554 6540     	 eors r5,r5,r4
 185:fips202.c     ****         BCi = ROL(Ake, 10);
 1085              	 .loc 1 185 13 view .LVU392
 1086 0556 48EA9558 	 orr r8,r8,r5,lsr#22
 1087 055a AD02     	 lsls r5,r5,#10
 1088 055c 45EA9255 	 orr r5,r5,r2,lsr#22
 1089              	.LVL144:
 1090              	 .loc 1 186 9 is_stmt 1 view .LVU393
 187:fips202.c     ****         BCo = ROL(Ami, 15);
 1091              	 .loc 1 187 9 view .LVU394
 186:fips202.c     ****         Ami ^= Di;
 1092              	 .loc 1 186 13 is_stmt 0 view .LVU395
 1093 0560 2C9A     	 ldr r2,[sp,#176]
 1094 0562 059C     	 ldr r4,[sp,#20]
 1095 0564 8BEA0202 	 eor r2,fp,r2
 1096 0568 7C40     	 eors r4,r4,r7
 1097              	 .loc 1 187 13 view .LVU396
 1098 056a 4FEAC23E 	 lsl lr,r2,#15
 1099 056e 4EEA544E 	 orr lr,lr,r4,lsr#17
 1100 0572 E403     	 lsls r4,r4,#15
 188:fips202.c     ****         Aso ^= Do;
 1101              	 .loc 1 188 13 view .LVU397
 1102 0574 389F     	 ldr r7,[sp,#224]
 187:fips202.c     ****         BCo = ROL(Ami, 15);
 1103              	 .loc 1 187 13 view .LVU398
 1104 0576 44EA5244 	 orr r4,r4,r2,lsr#17
 1105              	.LVL145:
 1106              	 .loc 1 188 9 is_stmt 1 view .LVU399
 189:fips202.c     ****         BCu = ROL(Aso, 56);
 1107              	 .loc 1 189 9 view .LVU400
 188:fips202.c     ****         Aso ^= Do;
 1108              	 .loc 1 188 13 is_stmt 0 view .LVU401
 1109 057a 069A     	 ldr r2,[sp,#24]
 1110 057c 82EA0709 	 eor r9,r2,r7
 1111 0580 399F     	 ldr r7,[sp,#228]
 1112 0582 079A     	 ldr r2,[sp,#28]
 1113 0584 7A40     	 eors r2,r2,r7
 1114              	 .loc 1 189 13 view .LVU402
 1115 0586 4FEA1927 	 lsr r7,r9,#8
 1116 058a 47EA0267 	 orr r7,r7,r2,lsl#24
 1117 058e 120A     	 lsrs r2,r2,#8
 1118 0590 42EA0962 	 orr r2,r2,r9,lsl#24
 1119              	.LVL146:
 190:fips202.c     ****         Ema = BCa ^ ((~BCe) & BCi);
 1120              	 .loc 1 190 9 is_stmt 1 view .LVU403
 1121              	 .loc 1 190 29 is_stmt 0 view .LVU404
 1122 0594 25EA0309 	 bic r9,r5,r3
 1123              	 .loc 1 190 13 view .LVU405
 1124 0598 89EA0109 	 eor r9,r9,r1
 1125              	 .loc 1 190 29 view .LVU406
 1126 059c 28EA060A 	 bic r10,r8,r6
 1127              	 .loc 1 190 13 view .LVU407
 1128 05a0 CDF8E490 	 str r9,[sp,#228]
 1129              	.LVL147:
 191:fips202.c     ****         Eme = BCe ^ ((~BCi) & BCo);
 1130              	 .loc 1 191 9 is_stmt 1 view .LVU408
 1131              	 .loc 1 191 29 is_stmt 0 view .LVU409
 1132 05a4 24EA0509 	 bic r9,r4,r5
 1133              	.LVL148:
 190:fips202.c     ****         Ema = BCa ^ ((~BCe) & BCi);
 1134              	 .loc 1 190 13 view .LVU410
 1135 05a8 8AEA0C0A 	 eor r10,r10,ip
 1136              	 .loc 1 191 13 view .LVU411
 1137 05ac 89EA0309 	 eor r9,r9,r3
 190:fips202.c     ****         Ema = BCa ^ ((~BCe) & BCi);
 1138              	 .loc 1 190 13 view .LVU412
 1139 05b0 CDF8E0A0 	 str r10,[sp,#224]
 1140              	.LVL149:
 1141              	 .loc 1 191 13 view .LVU413
 1142 05b4 CDF85490 	 str r9,[sp,#84]
 1143              	.LVL150:
 192:fips202.c     ****         Emi = BCi ^ ((~BCo) & BCu);
 1144              	 .loc 1 192 9 is_stmt 1 view .LVU414
 191:fips202.c     ****         Eme = BCe ^ ((~BCi) & BCo);
 1145              	 .loc 1 191 29 is_stmt 0 view .LVU415
 1146 05b8 2EEA080A 	 bic r10,lr,r8
 1147              	 .loc 1 192 29 view .LVU416
 1148 05bc 22EA0409 	 bic r9,r2,r4
 1149              	.LVL151:
 193:fips202.c     ****         Emo = BCo ^ ((~BCu) & BCa);
 194:fips202.c     ****         Emu = BCu ^ ((~BCa) & BCe);
 1150              	 .loc 1 194 29 view .LVU417
 1151 05c0 23EA0103 	 bic r3,r3,r1
 1152              	.LVL152:
 191:fips202.c     ****         Emi = BCi ^ ((~BCo) & BCu);
 1153              	 .loc 1 191 13 view .LVU418
 1154 05c4 8AEA060A 	 eor r10,r10,r6
 192:fips202.c     ****         Emi = BCi ^ ((~BCo) & BCu);
 1155              	 .loc 1 192 13 view .LVU419
 1156 05c8 89EA0505 	 eor r5,r9,r5
 1157              	.LVL153:
 1158              	 .loc 1 194 29 view .LVU420
 1159 05cc 26EA0C06 	 bic r6,r6,ip
 1160              	 .loc 1 194 13 view .LVU421
 1161 05d0 5340     	 eors r3,r3,r2
 192:fips202.c     ****         Emi = BCi ^ ((~BCo) & BCu);
 1162              	 .loc 1 192 13 view .LVU422
 1163 05d2 2D95     	 str r5,[sp,#180]
 1164              	.LVL154:
 193:fips202.c     ****         Emo = BCo ^ ((~BCu) & BCa);
 1165              	 .loc 1 193 9 is_stmt 1 view .LVU423
 1166              	 .loc 1 194 13 is_stmt 0 view .LVU424
 1167 05d4 2193     	 str r3,[sp,#132]
 1168              	.LVL155:
 193:fips202.c     ****         Emo = BCo ^ ((~BCu) & BCa);
 1169              	 .loc 1 193 29 view .LVU425
 1170 05d6 21EA0205 	 bic r5,r1,r2
 1171              	.LVL156:
 195:fips202.c     **** 
 196:fips202.c     ****         Abi ^= Di;
 1172              	 .loc 1 196 13 view .LVU426
 1173 05da 0E9B     	 ldr r3,[sp,#56]
 1174 05dc 059A     	 ldr r2,[sp,#20]
 1175              	.LVL157:
 191:fips202.c     ****         Emi = BCi ^ ((~BCo) & BCu);
 1176              	 .loc 1 191 13 view .LVU427
 1177 05de CDF850A0 	 str r10,[sp,#80]
 1178              	.LVL158:
 194:fips202.c     **** 
 1179              	 .loc 1 194 13 view .LVU428
 1180 05e2 86EA0701 	 eor r1,r6,r7
 1181              	.LVL159:
 194:fips202.c     **** 
 1182              	 .loc 1 194 13 view .LVU429
 1183 05e6 2091     	 str r1,[sp,#128]
 1184              	 .loc 1 196 13 view .LVU430
 1185 05e8 0F99     	 ldr r1,[sp,#60]
 197:fips202.c     ****         BCa = ROL(Abi, 62);
 198:fips202.c     ****         Ago ^= Do;
 199:fips202.c     ****         BCe = ROL(Ago, 55);
 200:fips202.c     ****         Aku ^= Du;
 1186              	 .loc 1 200 13 view .LVU431
 1187 05ea 269E     	 ldr r6,[sp,#152]
 196:fips202.c     ****         BCa = ROL(Abi, 62);
 1188              	 .loc 1 196 13 view .LVU432
 1189 05ec 8BEA0303 	 eor r3,fp,r3
 193:fips202.c     ****         Emu = BCu ^ ((~BCa) & BCe);
 1190              	 .loc 1 193 13 view .LVU433
 1191 05f0 6C40     	 eors r4,r4,r5
 1192              	.LVL160:
 193:fips202.c     ****         Emu = BCu ^ ((~BCa) & BCe);
 1193              	 .loc 1 193 13 view .LVU434
 1194 05f2 1394     	 str r4,[sp,#76]
 1195              	.LVL161:
 194:fips202.c     **** 
 1196              	 .loc 1 194 9 is_stmt 1 view .LVU435
 196:fips202.c     ****         BCa = ROL(Abi, 62);
 1197              	 .loc 1 196 9 view .LVU436
 197:fips202.c     ****         Ago ^= Do;
 1198              	 .loc 1 197 9 view .LVU437
 197:fips202.c     ****         Ago ^= Do;
 1199              	 .loc 1 197 13 is_stmt 0 view .LVU438
 1200 05f4 9D08     	 lsrs r5,r3,#2
 196:fips202.c     ****         BCa = ROL(Abi, 62);
 1201              	 .loc 1 196 13 view .LVU439
 1202 05f6 82EA0104 	 eor r4,r2,r1
 1203              	.LVL162:
 197:fips202.c     ****         Ago ^= Do;
 1204              	 .loc 1 197 13 view .LVU440
 1205 05fa 45EA8475 	 orr r5,r5,r4,lsl#30
 1206 05fe A408     	 lsrs r4,r4,#2
 1207 0600 44EA8374 	 orr r4,r4,r3,lsl#30
 1208              	.LVL163:
 198:fips202.c     ****         BCe = ROL(Ago, 55);
 1209              	 .loc 1 198 9 is_stmt 1 view .LVU441
 199:fips202.c     ****         Aku ^= Du;
 1210              	 .loc 1 199 9 view .LVU442
 198:fips202.c     ****         BCe = ROL(Ago, 55);
 1211              	 .loc 1 198 13 is_stmt 0 view .LVU443
 1212 0604 1A9A     	 ldr r2,[sp,#104]
 1213 0606 069B     	 ldr r3,[sp,#24]
 1214 0608 83EA0201 	 eor r1,r3,r2
 1215 060c 1B9A     	 ldr r2,[sp,#108]
 1216 060e 079B     	 ldr r3,[sp,#28]
 1217 0610 5340     	 eors r3,r3,r2
 199:fips202.c     ****         Aku ^= Du;
 1218              	 .loc 1 199 13 view .LVU444
 1219 0612 4A0A     	 lsrs r2,r1,#9
 1220 0614 42EAC352 	 orr r2,r2,r3,lsl#23
 1221 0618 5B0A     	 lsrs r3,r3,#9
 192:fips202.c     ****         Emo = BCo ^ ((~BCu) & BCa);
 1222              	 .loc 1 192 29 view .LVU445
 1223 061a 27EA0E0A 	 bic r10,r7,lr
 199:fips202.c     ****         Aku ^= Du;
 1224              	 .loc 1 199 13 view .LVU446
 1225 061e 43EAC153 	 orr r3,r3,r1,lsl#23
 1226              	.LVL164:
 1227              	 .loc 1 200 9 is_stmt 1 view .LVU447
 201:fips202.c     ****         BCi = ROL(Aku, 39);
 1228              	 .loc 1 201 9 view .LVU448
 200:fips202.c     ****         BCi = ROL(Aku, 39);
 1229              	 .loc 1 200 13 is_stmt 0 view .LVU449
 1230 0622 0899     	 ldr r1,[sp,#32]
 192:fips202.c     ****         Emo = BCo ^ ((~BCu) & BCa);
 1231              	 .loc 1 192 13 view .LVU450
 1232 0624 8AEA0808 	 eor r8,r10,r8
 200:fips202.c     ****         BCi = ROL(Aku, 39);
 1233              	 .loc 1 200 13 view .LVU451
 1234 0628 7140     	 eors r1,r1,r6
 192:fips202.c     ****         Emo = BCo ^ ((~BCu) & BCa);
 1235              	 .loc 1 192 13 view .LVU452
 1236 062a CDF8B080 	 str r8,[sp,#176]
 1237              	.LVL165:
 200:fips202.c     ****         BCi = ROL(Aku, 39);
 1238              	 .loc 1 200 13 view .LVU453
 1239 062e 099E     	 ldr r6,[sp,#36]
 193:fips202.c     ****         Emu = BCu ^ ((~BCa) & BCe);
 1240              	 .loc 1 193 29 view .LVU454
 1241 0630 2CEA0708 	 bic r8,ip,r7
 200:fips202.c     ****         BCi = ROL(Aku, 39);
 1242              	 .loc 1 200 13 view .LVU455
 1243 0634 279F     	 ldr r7,[sp,#156]
 1244              	 .loc 1 201 13 view .LVU456
 1245 0636 4FEA516C 	 lsr ip,r1,#25
 200:fips202.c     ****         BCi = ROL(Aku, 39);
 1246              	 .loc 1 200 13 view .LVU457
 1247 063a 7740     	 eors r7,r7,r6
 1248              	 .loc 1 201 13 view .LVU458
 1249 063c 4CEAC71C 	 orr ip,ip,r7,lsl#7
 193:fips202.c     ****         Emu = BCu ^ ((~BCa) & BCe);
 1250              	 .loc 1 193 13 view .LVU459
 1251 0640 88EA0E0E 	 eor lr,r8,lr
 1252              	 .loc 1 201 13 view .LVU460
 1253 0644 7F0E     	 lsrs r7,r7,#25
 1254 0646 47EAC117 	 orr r7,r7,r1,lsl#7
 1255              	.LVL166:
 202:fips202.c     ****         Ama ^= Da;
 1256              	 .loc 1 202 9 is_stmt 1 view .LVU461
 203:fips202.c     ****         BCo = ROL(Ama, 41);
 1257              	 .loc 1 203 9 view .LVU462
 193:fips202.c     ****         Emu = BCu ^ ((~BCa) & BCe);
 1258              	 .loc 1 193 13 is_stmt 0 view .LVU463
 1259 064a CDF848E0 	 str lr,[sp,#72]
 1260              	.LVL167:
 202:fips202.c     ****         Ama ^= Da;
 1261              	 .loc 1 202 13 view .LVU464
 1262 064e 0199     	 ldr r1,[sp,#4]
 1263 0650 289E     	 ldr r6,[sp,#160]
 1264 0652 DDF8A4E0 	 ldr lr,[sp,#164]
 1265 0656 7140     	 eors r1,r1,r6
 1266 0658 029E     	 ldr r6,[sp,#8]
 1267              	 .loc 1 203 13 view .LVU465
 1268 065a 4FEAD158 	 lsr r8,r1,#23
 202:fips202.c     ****         Ama ^= Da;
 1269              	 .loc 1 202 13 view .LVU466
 1270 065e 86EA0E06 	 eor r6,r6,lr
 1271              	 .loc 1 203 13 view .LVU467
 1272 0662 48EA4628 	 orr r8,r8,r6,lsl#9
 1273 0666 F60D     	 lsrs r6,r6,#23
 204:fips202.c     ****         Ase ^= De;
 1274              	 .loc 1 204 13 view .LVU468
 1275 0668 DDF8D0E0 	 ldr lr,[sp,#208]
 203:fips202.c     ****         BCo = ROL(Ama, 41);
 1276              	 .loc 1 203 13 view .LVU469
 1277 066c 46EA4126 	 orr r6,r6,r1,lsl#9
 1278              	.LVL168:
 1279              	 .loc 1 204 9 is_stmt 1 view .LVU470
 205:fips202.c     ****         BCu = ROL(Ase, 2);
 1280              	 .loc 1 205 9 view .LVU471
 204:fips202.c     ****         Ase ^= De;
 1281              	 .loc 1 204 13 is_stmt 0 view .LVU472
 1282 0670 0399     	 ldr r1,[sp,#12]
 1283 0672 81EA0E09 	 eor r9,r1,lr
 1284 0676 DDF8D4E0 	 ldr lr,[sp,#212]
 1285 067a 0499     	 ldr r1,[sp,#16]
 1286 067c 81EA0E01 	 eor r1,r1,lr
 1287              	 .loc 1 205 13 view .LVU473
 1288 0680 4FEA890E 	 lsl lr,r9,#2
 1289 0684 4EEA917E 	 orr lr,lr,r1,lsr#30
 1290 0688 8900     	 lsls r1,r1,#2
 1291 068a 41EA9971 	 orr r1,r1,r9,lsr#30
 1292              	.LVL169:
 206:fips202.c     ****         Esa = BCa ^ ((~BCe) & BCi);
 1293              	 .loc 1 206 9 is_stmt 1 view .LVU474
 1294              	 .loc 1 206 29 is_stmt 0 view .LVU475
 1295 068e 27EA0309 	 bic r9,r7,r3
 1296 0692 2CEA020A 	 bic r10,ip,r2
 1297              	 .loc 1 206 13 view .LVU476
 1298 0696 89EA0409 	 eor r9,r9,r4
 1299 069a 8AEA050A 	 eor r10,r10,r5
 1300 069e CDF89C90 	 str r9,[sp,#156]
 1301              	.LVL170:
 207:fips202.c     ****         Ese = BCe ^ ((~BCi) & BCo);
 1302              	 .loc 1 207 9 is_stmt 1 view .LVU477
 1303              	 .loc 1 207 29 is_stmt 0 view .LVU478
 1304 06a2 26EA0709 	 bic r9,r6,r7
 1305              	.LVL171:
 206:fips202.c     ****         Esa = BCa ^ ((~BCe) & BCi);
 1306              	 .loc 1 206 13 view .LVU479
 1307 06a6 CDF898A0 	 str r10,[sp,#152]
 1308              	.LVL172:
 1309              	 .loc 1 207 13 view .LVU480
 1310 06aa 89EA0309 	 eor r9,r9,r3
 1311              	 .loc 1 207 29 view .LVU481
 1312 06ae 28EA0C0A 	 bic r10,r8,ip
 1313              	 .loc 1 207 13 view .LVU482
 1314 06b2 8AEA020A 	 eor r10,r10,r2
 1315 06b6 CDF8D490 	 str r9,[sp,#212]
 1316              	.LVL173:
 208:fips202.c     ****         Esi = BCi ^ ((~BCo) & BCu);
 1317              	 .loc 1 208 9 is_stmt 1 view .LVU483
 209:fips202.c     ****         Eso = BCo ^ ((~BCu) & BCa);
 210:fips202.c     ****         Esu = BCu ^ ((~BCa) & BCe);
 1318              	 .loc 1 210 29 is_stmt 0 view .LVU484
 1319 06ba 22EA0502 	 bic r2,r2,r5
 1320              	.LVL174:
 208:fips202.c     ****         Esi = BCi ^ ((~BCo) & BCu);
 1321              	 .loc 1 208 29 view .LVU485
 1322 06be 21EA0609 	 bic r9,r1,r6
 1323              	.LVL175:
 1324              	 .loc 1 210 29 view .LVU486
 1325 06c2 23EA0403 	 bic r3,r3,r4
 1326              	.LVL176:
 208:fips202.c     ****         Esi = BCi ^ ((~BCo) & BCu);
 1327              	 .loc 1 208 13 view .LVU487
 1328 06c6 89EA0707 	 eor r7,r9,r7
 1329              	.LVL177:
 1330              	 .loc 1 210 13 view .LVU488
 1331 06ca 82EA0E02 	 eor r2,r2,lr
 1332 06ce 4B40     	 eors r3,r3,r1
 208:fips202.c     ****         Esi = BCi ^ ((~BCo) & BCu);
 1333              	 .loc 1 208 13 view .LVU489
 1334 06d0 1B97     	 str r7,[sp,#108]
 1335              	.LVL178:
 209:fips202.c     ****         Eso = BCo ^ ((~BCu) & BCa);
 1336              	 .loc 1 209 9 is_stmt 1 view .LVU490
 1337              	 .loc 1 210 13 is_stmt 0 view .LVU491
 1338 06d2 0E92     	 str r2,[sp,#56]
 1339              	.LVL179:
 209:fips202.c     ****         Eso = BCo ^ ((~BCu) & BCa);
 1340              	 .loc 1 209 29 view .LVU492
 1341 06d4 24EA0107 	 bic r7,r4,r1
 1342              	.LVL180:
 211:fips202.c     **** 
 212:fips202.c     ****         //    prepareTheta
 213:fips202.c     ****         BCa = Eba ^ Ega ^ Eka ^ Ema ^ Esa;
 1343              	 .loc 1 213 13 view .LVU493
 1344 06d8 2A9A     	 ldr r2,[sp,#168]
 210:fips202.c     **** 
 1345              	 .loc 1 210 13 view .LVU494
 1346 06da 0F93     	 str r3,[sp,#60]
 1347              	 .loc 1 213 13 view .LVU495
 1348 06dc 0A9B     	 ldr r3,[sp,#40]
 1349 06de 1899     	 ldr r1,[sp,#96]
 1350              	.LVL181:
 207:fips202.c     ****         Esi = BCi ^ ((~BCo) & BCu);
 1351              	 .loc 1 207 13 view .LVU496
 1352 06e0 CDF8D0A0 	 str r10,[sp,#208]
 1353              	.LVL182:
 209:fips202.c     ****         Esu = BCu ^ ((~BCa) & BCe);
 1354              	 .loc 1 209 13 view .LVU497
 1355 06e4 7E40     	 eors r6,r6,r7
 1356              	.LVL183:
 209:fips202.c     ****         Esu = BCu ^ ((~BCa) & BCe);
 1357              	 .loc 1 209 13 view .LVU498
 1358 06e6 2996     	 str r6,[sp,#164]
 1359              	.LVL184:
 210:fips202.c     **** 
 1360              	 .loc 1 210 9 is_stmt 1 view .LVU499
 1361              	 .loc 1 213 9 view .LVU500
 1362              	 .loc 1 213 13 is_stmt 0 view .LVU501
 1363 06e8 83EA0206 	 eor r6,r3,r2
 1364              	.LVL185:
 1365              	 .loc 1 213 13 view .LVU502
 1366 06ec 2B9A     	 ldr r2,[sp,#172]
 1367 06ee 0B9B     	 ldr r3,[sp,#44]
 1368 06f0 4E40     	 eors r6,r6,r1
 1369 06f2 1999     	 ldr r1,[sp,#100]
 1370 06f4 5340     	 eors r3,r3,r2
 1371 06f6 4B40     	 eors r3,r3,r1
 1372 06f8 3899     	 ldr r1,[sp,#224]
 214:fips202.c     ****         BCe = Ebe ^ Ege ^ Eke ^ Eme ^ Ese;
 1373              	 .loc 1 214 19 view .LVU503
 1374 06fa 229A     	 ldr r2,[sp,#136]
 213:fips202.c     ****         BCe = Ebe ^ Ege ^ Eke ^ Eme ^ Ese;
 1375              	 .loc 1 213 13 view .LVU504
 1376 06fc 4E40     	 eors r6,r6,r1
 1377 06fe 3999     	 ldr r1,[sp,#228]
 1378 0700 4B40     	 eors r3,r3,r1
 1379 0702 2699     	 ldr r1,[sp,#152]
 1380 0704 4E40     	 eors r6,r6,r1
 1381 0706 2799     	 ldr r1,[sp,#156]
 208:fips202.c     ****         Eso = BCo ^ ((~BCu) & BCa);
 1382              	 .loc 1 208 29 view .LVU505
 1383 0708 2EEA080A 	 bic r10,lr,r8
 213:fips202.c     ****         BCe = Ebe ^ Ege ^ Eke ^ Eme ^ Ese;
 1384              	 .loc 1 213 13 view .LVU506
 1385 070c 4B40     	 eors r3,r3,r1
 1386              	.LVL186:
 1387              	 .loc 1 214 9 is_stmt 1 view .LVU507
 1388              	 .loc 1 214 19 is_stmt 0 view .LVU508
 1389 070e 1099     	 ldr r1,[sp,#64]
 208:fips202.c     ****         Eso = BCo ^ ((~BCu) & BCa);
 1390              	 .loc 1 208 13 view .LVU509
 1391 0710 8AEA0C0C 	 eor ip,r10,ip
 1392              	 .loc 1 214 19 view .LVU510
 1393 0714 82EA0109 	 eor r9,r2,r1
 208:fips202.c     ****         Eso = BCo ^ ((~BCu) & BCa);
 1394              	 .loc 1 208 13 view .LVU511
 1395 0718 CDF868C0 	 str ip,[sp,#104]
 1396              	.LVL187:
 1397              	 .loc 1 214 19 view .LVU512
 1398 071c 1199     	 ldr r1,[sp,#68]
 1399 071e 239A     	 ldr r2,[sp,#140]
 209:fips202.c     ****         Esu = BCu ^ ((~BCa) & BCe);
 1400              	 .loc 1 209 29 view .LVU513
 1401 0720 25EA0E0C 	 bic ip,r5,lr
 209:fips202.c     ****         Esu = BCu ^ ((~BCa) & BCe);
 1402              	 .loc 1 209 13 view .LVU514
 1403 0724 8CEA080C 	 eor ip,ip,r8
 1404 0728 CDF8A0C0 	 str ip,[sp,#160]
 1405              	.LVL188:
 1406              	 .loc 1 214 19 view .LVU515
 1407 072c 82EA0108 	 eor r8,r2,r1
 1408              	 .loc 1 214 25 view .LVU516
 1409 0730 309A     	 ldr r2,[sp,#192]
 215:fips202.c     ****         BCi = Ebi ^ Egi ^ Eki ^ Emi ^ Esi;
 1410              	 .loc 1 215 19 view .LVU517
 1411 0732 1E99     	 ldr r1,[sp,#120]
 214:fips202.c     ****         BCi = Ebi ^ Egi ^ Eki ^ Emi ^ Esi;
 1412              	 .loc 1 214 25 view .LVU518
 1413 0734 89EA0209 	 eor r9,r9,r2
 1414 0738 319A     	 ldr r2,[sp,#196]
 1415 073a 88EA0208 	 eor r8,r8,r2
 214:fips202.c     ****         BCi = Ebi ^ Egi ^ Eki ^ Emi ^ Esi;
 1416              	 .loc 1 214 31 view .LVU519
 1417 073e 149A     	 ldr r2,[sp,#80]
 1418 0740 89EA0209 	 eor r9,r9,r2
 1419 0744 159A     	 ldr r2,[sp,#84]
 1420 0746 88EA0208 	 eor r8,r8,r2
 214:fips202.c     ****         BCi = Ebi ^ Egi ^ Eki ^ Emi ^ Esi;
 1421              	 .loc 1 214 13 view .LVU520
 1422 074a 349A     	 ldr r2,[sp,#208]
 1423 074c 89EA0209 	 eor r9,r9,r2
 1424 0750 359A     	 ldr r2,[sp,#212]
 1425 0752 88EA0208 	 eor r8,r8,r2
 1426              	.LVL189:
 1427              	 .loc 1 215 9 is_stmt 1 view .LVU521
 1428              	 .loc 1 215 19 is_stmt 0 view .LVU522
 1429 0756 3A9A     	 ldr r2,[sp,#232]
 1430 0758 82EA010C 	 eor ip,r2,r1
 1431 075c 3B9A     	 ldr r2,[sp,#236]
 1432 075e 1F99     	 ldr r1,[sp,#124]
 1433 0760 82EA0107 	 eor r7,r2,r1
 1434              	 .loc 1 215 25 view .LVU523
 1435 0764 0C9A     	 ldr r2,[sp,#48]
 1436 0766 0D99     	 ldr r1,[sp,#52]
 1437 0768 8CEA020C 	 eor ip,ip,r2
 1438 076c 4F40     	 eors r7,r7,r1
 1439              	 .loc 1 215 31 view .LVU524
 1440 076e 2C9A     	 ldr r2,[sp,#176]
 1441 0770 2D99     	 ldr r1,[sp,#180]
 1442 0772 8CEA020C 	 eor ip,ip,r2
 1443 0776 4F40     	 eors r7,r7,r1
 1444              	 .loc 1 215 13 view .LVU525
 1445 0778 1A9A     	 ldr r2,[sp,#104]
 1446 077a 1B99     	 ldr r1,[sp,#108]
 1447 077c 8CEA020C 	 eor ip,ip,r2
 1448 0780 4F40     	 eors r7,r7,r1
 1449              	.LVL190:
 216:fips202.c     ****         BCo = Ebo ^ Ego ^ Eko ^ Emo ^ Eso;
 1450              	 .loc 1 216 9 is_stmt 1 view .LVU526
 1451              	 .loc 1 216 19 is_stmt 0 view .LVU527
 1452 0782 169A     	 ldr r2,[sp,#88]
 1453 0784 3699     	 ldr r1,[sp,#216]
 1454 0786 82EA0105 	 eor r5,r2,r1
 1455 078a 179A     	 ldr r2,[sp,#92]
 1456 078c 3799     	 ldr r1,[sp,#220]
 1457 078e 82EA0104 	 eor r4,r2,r1
 1458              	 .loc 1 216 25 view .LVU528
 1459 0792 2499     	 ldr r1,[sp,#144]
 217:fips202.c     ****         BCu = Ebu ^ Egu ^ Eku ^ Emu ^ Esu;
 1460              	 .loc 1 217 25 view .LVU529
 1461 0794 1C9A     	 ldr r2,[sp,#112]
 216:fips202.c     ****         BCo = Ebo ^ Ego ^ Eko ^ Emo ^ Eso;
 1462              	 .loc 1 216 25 view .LVU530
 1463 0796 4D40     	 eors r5,r5,r1
 1464 0798 2599     	 ldr r1,[sp,#148]
 1465 079a 4C40     	 eors r4,r4,r1
 216:fips202.c     ****         BCo = Ebo ^ Ego ^ Eko ^ Emo ^ Eso;
 1466              	 .loc 1 216 31 view .LVU531
 1467 079c 1299     	 ldr r1,[sp,#72]
 1468 079e 4D40     	 eors r5,r5,r1
 1469 07a0 1399     	 ldr r1,[sp,#76]
 1470 07a2 4C40     	 eors r4,r4,r1
 216:fips202.c     ****         BCo = Ebo ^ Ego ^ Eko ^ Emo ^ Eso;
 1471              	 .loc 1 216 13 view .LVU532
 1472 07a4 2899     	 ldr r1,[sp,#160]
 1473 07a6 4D40     	 eors r5,r5,r1
 1474 07a8 2999     	 ldr r1,[sp,#164]
 1475 07aa 4C40     	 eors r4,r4,r1
 1476              	.LVL191:
 1477              	 .loc 1 217 9 is_stmt 1 view .LVU533
 1478              	 .loc 1 217 25 is_stmt 0 view .LVU534
 1479 07ac 3299     	 ldr r1,[sp,#200]
 1480 07ae 82EA010E 	 eor lr,r2,r1
 1481              	 .loc 1 217 25 view .LVU535
 1482 07b2 1D9A     	 ldr r2,[sp,#116]
 1483 07b4 3399     	 ldr r1,[sp,#204]
 1484 07b6 5140     	 eors r1,r1,r2
 1485 07b8 2E9A     	 ldr r2,[sp,#184]
 1486 07ba 8EEA020E 	 eor lr,lr,r2
 1487 07be 2F9A     	 ldr r2,[sp,#188]
 1488 07c0 5140     	 eors r1,r1,r2
 1489              	 .loc 1 217 31 view .LVU536
 1490 07c2 209A     	 ldr r2,[sp,#128]
 1491 07c4 8EEA020E 	 eor lr,lr,r2
 1492 07c8 219A     	 ldr r2,[sp,#132]
 1493 07ca 5140     	 eors r1,r1,r2
 1494              	 .loc 1 217 13 view .LVU537
 1495 07cc 0E9A     	 ldr r2,[sp,#56]
 218:fips202.c     **** 
 219:fips202.c     ****         // thetaRhoPiChiIotaPrepareTheta(round+1, E, A)
 220:fips202.c     ****         Da = BCu ^ ROL(BCe, 1);
 1496              	 .loc 1 220 20 view .LVU538
 1497 07ce 4FEA490B 	 lsl fp,r9,#1
 1498              	.LVL192:
 217:fips202.c     ****         BCu = Ebu ^ Egu ^ Eku ^ Emu ^ Esu;
 1499              	 .loc 1 217 13 view .LVU539
 1500 07d2 8EEA020E 	 eor lr,lr,r2
 1501 07d6 0F9A     	 ldr r2,[sp,#60]
 1502              	 .loc 1 220 20 view .LVU540
 1503 07d8 4BEAD87B 	 orr fp,fp,r8,lsr#31
 1504 07dc 4FEA480A 	 lsl r10,r8,#1
 217:fips202.c     ****         BCu = Ebu ^ Egu ^ Eku ^ Emu ^ Esu;
 1505              	 .loc 1 217 13 view .LVU541
 1506 07e0 5140     	 eors r1,r1,r2
 1507              	.LVL193:
 1508              	 .loc 1 220 9 is_stmt 1 view .LVU542
 1509              	 .loc 1 220 20 is_stmt 0 view .LVU543
 1510 07e2 4AEAD97A 	 orr r10,r10,r9,lsr#31
 1511              	 .loc 1 220 12 view .LVU544
 1512 07e6 8BEA0E02 	 eor r2,fp,lr
 221:fips202.c     ****         De = BCa ^ ROL(BCi, 1);
 1513              	 .loc 1 221 20 view .LVU545
 1514 07ea 4FEA4C0B 	 lsl fp,ip,#1
 220:fips202.c     ****         De = BCa ^ ROL(BCi, 1);
 1515              	 .loc 1 220 12 view .LVU546
 1516 07ee 0192     	 str r2,[sp,#4]
 1517              	.LVL194:
 1518              	 .loc 1 221 20 view .LVU547
 1519 07f0 4BEAD77B 	 orr fp,fp,r7,lsr#31
 220:fips202.c     ****         De = BCa ^ ROL(BCi, 1);
 1520              	 .loc 1 220 12 view .LVU548
 1521 07f4 8AEA0102 	 eor r2,r10,r1
 1522              	 .loc 1 221 20 view .LVU549
 1523 07f8 4FEA470A 	 lsl r10,r7,#1
 220:fips202.c     ****         De = BCa ^ ROL(BCi, 1);
 1524              	 .loc 1 220 12 view .LVU550
 1525 07fc 0292     	 str r2,[sp,#8]
 1526              	.LVL195:
 1527              	 .loc 1 221 9 is_stmt 1 view .LVU551
 1528              	 .loc 1 221 20 is_stmt 0 view .LVU552
 1529 07fe 4AEADC7A 	 orr r10,r10,ip,lsr#31
 1530              	 .loc 1 221 12 view .LVU553
 1531 0802 8BEA0602 	 eor r2,fp,r6
 1532              	.LVL196:
 1533              	 .loc 1 221 12 view .LVU554
 1534 0806 0392     	 str r2,[sp,#12]
 1535              	.LVL197:
 1536              	 .loc 1 221 12 view .LVU555
 1537 0808 8AEA0302 	 eor r2,r10,r3
 222:fips202.c     ****         Di = BCe ^ ROL(BCo, 1);
 1538              	 .loc 1 222 20 view .LVU556
 1539 080c 4FEA440A 	 lsl r10,r4,#1
 1540 0810 4AEAD57A 	 orr r10,r10,r5,lsr#31
 221:fips202.c     ****         De = BCa ^ ROL(BCi, 1);
 1541              	 .loc 1 221 12 view .LVU557
 1542 0814 0492     	 str r2,[sp,#16]
 1543              	.LVL198:
 1544              	 .loc 1 222 9 is_stmt 1 view .LVU558
 1545              	 .loc 1 222 12 is_stmt 0 view .LVU559
 1546 0816 8AEA0802 	 eor r2,r10,r8
 1547              	.LVL199:
 223:fips202.c     ****         Do = BCi ^ ROL(BCu, 1);
 1548              	 .loc 1 223 20 view .LVU560
 1549 081a 4FEA4E08 	 lsl r8,lr,#1
 1550              	.LVL200:
 1551              	 .loc 1 223 20 view .LVU561
 1552 081e 48EAD178 	 orr r8,r8,r1,lsr#31
 1553 0822 4900     	 lsls r1,r1,#1
 1554              	.LVL201:
 222:fips202.c     ****         Di = BCe ^ ROL(BCo, 1);
 1555              	 .loc 1 222 12 view .LVU562
 1556 0824 0592     	 str r2,[sp,#20]
 1557              	 .loc 1 223 20 view .LVU563
 1558 0826 41EADE71 	 orr r1,r1,lr,lsr#31
 1559              	 .loc 1 223 12 view .LVU564
 1560 082a 88EA0C02 	 eor r2,r8,ip
 1561 082e 0692     	 str r2,[sp,#24]
 1562              	.LVL202:
 1563              	 .loc 1 223 12 view .LVU565
 1564 0830 81EA0702 	 eor r2,r1,r7
 224:fips202.c     ****         Du = BCo ^ ROL(BCa, 1);
 1565              	 .loc 1 224 20 view .LVU566
 1566 0834 7100     	 lsls r1,r6,#1
 1567 0836 41EAD371 	 orr r1,r1,r3,lsr#31
 1568 083a 5B00     	 lsls r3,r3,#1
 1569              	.LVL203:
 1570              	 .loc 1 224 20 view .LVU567
 1571 083c 43EAD673 	 orr r3,r3,r6,lsr#31
 223:fips202.c     ****         Do = BCi ^ ROL(BCu, 1);
 1572              	 .loc 1 223 12 view .LVU568
 1573 0840 0792     	 str r2,[sp,#28]
 1574              	 .loc 1 224 12 view .LVU569
 1575 0842 6340     	 eors r3,r3,r4
 1576 0844 81EA0502 	 eor r2,r1,r5
 1577 0848 0892     	 str r2,[sp,#32]
 1578              	.LVL204:
 1579              	 .loc 1 224 12 view .LVU570
 1580 084a 0993     	 str r3,[sp,#36]
 225:fips202.c     **** 
 226:fips202.c     ****         Eba ^= Da;
 1581              	 .loc 1 226 13 view .LVU571
 1582 084c 019A     	 ldr r2,[sp,#4]
 1583 084e 0A9B     	 ldr r3,[sp,#40]
 227:fips202.c     ****         BCa = Eba;
 228:fips202.c     ****         Ege ^= De;
 229:fips202.c     ****         BCe = ROL(Ege, 44);
 230:fips202.c     ****         Eki ^= Di;
 231:fips202.c     ****         BCi = ROL(Eki, 43);
 232:fips202.c     ****         Emo ^= Do;
 233:fips202.c     ****         BCo = ROL(Emo, 21);
 234:fips202.c     ****         Esu ^= Du;
 1584              	 .loc 1 234 13 view .LVU572
 1585 0850 099F     	 ldr r7,[sp,#36]
 1586              	.LVL205:
 222:fips202.c     ****         Do = BCi ^ ROL(BCu, 1);
 1587              	 .loc 1 222 20 view .LVU573
 1588 0852 4FEA450B 	 lsl fp,r5,#1
 1589 0856 4BEAD47B 	 orr fp,fp,r4,lsr#31
 222:fips202.c     ****         Do = BCi ^ ROL(BCu, 1);
 1590              	 .loc 1 222 12 view .LVU574
 1591 085a 8BEA090B 	 eor fp,fp,r9
 1592              	.LVL206:
 223:fips202.c     ****         Du = BCo ^ ROL(BCa, 1);
 1593              	 .loc 1 223 9 is_stmt 1 view .LVU575
 224:fips202.c     **** 
 1594              	 .loc 1 224 9 view .LVU576
 226:fips202.c     ****         BCa = Eba;
 1595              	 .loc 1 226 9 view .LVU577
 226:fips202.c     ****         BCa = Eba;
 1596              	 .loc 1 226 13 is_stmt 0 view .LVU578
 1597 085e 83EA0209 	 eor r9,r3,r2
 1598              	.LVL207:
 226:fips202.c     ****         BCa = Eba;
 1599              	 .loc 1 226 13 view .LVU579
 1600 0862 0B9B     	 ldr r3,[sp,#44]
 1601 0864 029A     	 ldr r2,[sp,#8]
 230:fips202.c     ****         BCi = ROL(Eki, 43);
 1602              	 .loc 1 230 13 view .LVU580
 1603 0866 059C     	 ldr r4,[sp,#20]
 1604              	.LVL208:
 226:fips202.c     ****         BCa = Eba;
 1605              	 .loc 1 226 13 view .LVU581
 1606 0868 83EA020A 	 eor r10,r3,r2
 1607              	.LVL209:
 227:fips202.c     ****         Ege ^= De;
 1608              	 .loc 1 227 9 is_stmt 1 view .LVU582
 228:fips202.c     ****         BCe = ROL(Ege, 44);
 1609              	 .loc 1 228 9 view .LVU583
 229:fips202.c     ****         Eki ^= Di;
 1610              	 .loc 1 229 9 view .LVU584
 228:fips202.c     ****         BCe = ROL(Ege, 44);
 1611              	 .loc 1 228 13 is_stmt 0 view .LVU585
 1612 086c 109B     	 ldr r3,[sp,#64]
 1613 086e 039A     	 ldr r2,[sp,#12]
 1614 0870 83EA0201 	 eor r1,r3,r2
 1615 0874 049A     	 ldr r2,[sp,#16]
 1616 0876 119B     	 ldr r3,[sp,#68]
 229:fips202.c     ****         Eki ^= Di;
 1617              	 .loc 1 229 13 view .LVU586
 1618 0878 0D0D     	 lsrs r5,r1,#20
 1619              	.LVL210:
 228:fips202.c     ****         BCe = ROL(Ege, 44);
 1620              	 .loc 1 228 13 view .LVU587
 1621 087a 5340     	 eors r3,r3,r2
 230:fips202.c     ****         BCi = ROL(Eki, 43);
 1622              	 .loc 1 230 13 view .LVU588
 1623 087c 0C9A     	 ldr r2,[sp,#48]
 229:fips202.c     ****         Eki ^= Di;
 1624              	 .loc 1 229 13 view .LVU589
 1625 087e 45EA0335 	 orr r5,r5,r3,lsl#12
 1626 0882 1B0D     	 lsrs r3,r3,#20
 1627 0884 43EA0133 	 orr r3,r3,r1,lsl#12
 1628              	.LVL211:
 230:fips202.c     ****         BCi = ROL(Eki, 43);
 1629              	 .loc 1 230 9 is_stmt 1 view .LVU590
 231:fips202.c     ****         Emo ^= Do;
 1630              	 .loc 1 231 9 view .LVU591
 230:fips202.c     ****         BCi = ROL(Eki, 43);
 1631              	 .loc 1 230 13 is_stmt 0 view .LVU592
 1632 0888 82EA0B01 	 eor r1,r2,fp
 1633 088c 0D9A     	 ldr r2,[sp,#52]
 1634              	.LVL212:
 231:fips202.c     ****         Emo ^= Do;
 1635              	 .loc 1 231 13 view .LVU593
 1636 088e 4FEA5158 	 lsr r8,r1,#21
 230:fips202.c     ****         BCi = ROL(Eki, 43);
 1637              	 .loc 1 230 13 view .LVU594
 1638 0892 5440     	 eors r4,r4,r2
 231:fips202.c     ****         Emo ^= Do;
 1639              	 .loc 1 231 13 view .LVU595
 1640 0894 48EAC428 	 orr r8,r8,r4,lsl#11
 1641 0898 640D     	 lsrs r4,r4,#21
 1642 089a 44EAC124 	 orr r4,r4,r1,lsl#11
 1643              	.LVL213:
 232:fips202.c     ****         BCo = ROL(Emo, 21);
 1644              	 .loc 1 232 9 is_stmt 1 view .LVU596
 233:fips202.c     ****         Esu ^= Du;
 1645              	 .loc 1 233 9 view .LVU597
 232:fips202.c     ****         BCo = ROL(Emo, 21);
 1646              	 .loc 1 232 13 is_stmt 0 view .LVU598
 1647 089e 129A     	 ldr r2,[sp,#72]
 1648 08a0 0699     	 ldr r1,[sp,#24]
 1649 08a2 82EA0106 	 eor r6,r2,r1
 1650 08a6 139A     	 ldr r2,[sp,#76]
 1651 08a8 0799     	 ldr r1,[sp,#28]
 233:fips202.c     ****         Esu ^= Du;
 1652              	 .loc 1 233 13 view .LVU599
 1653 08aa 4FEA465E 	 lsl lr,r6,#21
 1654              	.LVL214:
 232:fips202.c     ****         BCo = ROL(Emo, 21);
 1655              	 .loc 1 232 13 view .LVU600
 1656 08ae 5140     	 eors r1,r1,r2
 233:fips202.c     ****         Esu ^= Du;
 1657              	 .loc 1 233 13 view .LVU601
 1658 08b0 4EEAD12E 	 orr lr,lr,r1,lsr#11
 1659 08b4 4905     	 lsls r1,r1,#21
 1660 08b6 41EAD621 	 orr r1,r1,r6,lsr#11
 1661              	.LVL215:
 1662              	 .loc 1 234 9 is_stmt 1 view .LVU602
 235:fips202.c     ****         BCu = ROL(Esu, 14);
 1663              	 .loc 1 235 9 view .LVU603
 234:fips202.c     ****         BCu = ROL(Esu, 14);
 1664              	 .loc 1 234 13 is_stmt 0 view .LVU604
 1665 08ba 089A     	 ldr r2,[sp,#32]
 1666 08bc 0E9E     	 ldr r6,[sp,#56]
 1667 08be 5640     	 eors r6,r6,r2
 1668 08c0 0F9A     	 ldr r2,[sp,#60]
 1669              	 .loc 1 235 13 view .LVU605
 1670 08c2 4FEA863C 	 lsl ip,r6,#14
 234:fips202.c     ****         BCu = ROL(Esu, 14);
 1671              	 .loc 1 234 13 view .LVU606
 1672 08c6 7A40     	 eors r2,r2,r7
 1673              	 .loc 1 235 13 view .LVU607
 1674 08c8 4CEA924C 	 orr ip,ip,r2,lsr#18
 1675 08cc 9203     	 lsls r2,r2,#14
 1676 08ce 42EA9642 	 orr r2,r2,r6,lsr#18
 1677              	.LVL216:
 236:fips202.c     ****         Aba = BCa ^ ((~BCe) & BCi);
 1678              	 .loc 1 236 9 is_stmt 1 view .LVU608
 237:fips202.c     ****         Aba ^= KeccakF_RoundConstants[round + 1];
 1679              	 .loc 1 237 9 view .LVU609
 1680              	 .loc 1 237 13 is_stmt 0 view .LVU610
 1681 08d2 009E     	 ldr r6,[sp]
 1682 08d4 D6E90276 	 ldrd r7,r6,[r6,#8]
 1683              	.LVL217:
 1684              	 .loc 1 237 13 view .LVU611
 1685 08d8 8AEA0606 	 eor r6,r10,r6
 1686 08dc 0B96     	 str r6,[sp,#44]
 1687 08de 89EA0707 	 eor r7,r9,r7
 1688 08e2 28EA0506 	 bic r6,r8,r5
 1689 08e6 7E40     	 eors r6,r6,r7
 1690 08e8 0B9F     	 ldr r7,[sp,#44]
 1691 08ea 0A96     	 str r6,[sp,#40]
 1692 08ec 24EA0306 	 bic r6,r4,r3
 1693 08f0 7740     	 eors r7,r7,r6
 238:fips202.c     ****         Abe = BCe ^ ((~BCi) & BCo);
 1694              	 .loc 1 238 29 view .LVU612
 1695 08f2 21EA0406 	 bic r6,r1,r4
 1696              	 .loc 1 238 13 view .LVU613
 1697 08f6 5E40     	 eors r6,r6,r3
 1698 08f8 0D96     	 str r6,[sp,#52]
 1699              	.LVL218:
 239:fips202.c     ****         Abi = BCi ^ ((~BCo) & BCu);
 1700              	 .loc 1 239 29 view .LVU614
 1701 08fa 22EA0106 	 bic r6,r2,r1
 1702              	 .loc 1 239 13 view .LVU615
 1703 08fe 7440     	 eors r4,r4,r6
 1704              	.LVL219:
 240:fips202.c     ****         Abo = BCo ^ ((~BCu) & BCa);
 241:fips202.c     ****         Abu = BCu ^ ((~BCa) & BCe);
 1705              	 .loc 1 241 29 view .LVU616
 1706 0900 23EA0A03 	 bic r3,r3,r10
 1707              	.LVL220:
 1708              	 .loc 1 241 13 view .LVU617
 1709 0904 5340     	 eors r3,r3,r2
 237:fips202.c     ****         Abe = BCe ^ ((~BCi) & BCo);
 1710              	 .loc 1 237 13 view .LVU618
 1711 0906 0B97     	 str r7,[sp,#44]
 1712              	.LVL221:
 238:fips202.c     ****         Abi = BCi ^ ((~BCo) & BCu);
 1713              	 .loc 1 238 9 is_stmt 1 view .LVU619
 239:fips202.c     ****         Abo = BCo ^ ((~BCu) & BCa);
 1714              	 .loc 1 239 9 view .LVU620
 239:fips202.c     ****         Abo = BCo ^ ((~BCu) & BCa);
 1715              	 .loc 1 239 13 is_stmt 0 view .LVU621
 1716 0908 0F94     	 str r4,[sp,#60]
 1717              	.LVL222:
 240:fips202.c     ****         Abu = BCu ^ ((~BCa) & BCe);
 1718              	 .loc 1 240 9 is_stmt 1 view .LVU622
 238:fips202.c     ****         Abi = BCi ^ ((~BCo) & BCu);
 1719              	 .loc 1 238 29 is_stmt 0 view .LVU623
 1720 090a 2EEA0807 	 bic r7,lr,r8
 1721              	.LVL223:
 240:fips202.c     ****         Abu = BCu ^ ((~BCa) & BCe);
 1722              	 .loc 1 240 29 view .LVU624
 1723 090e 2AEA0204 	 bic r4,r10,r2
 1724              	.LVL224:
 238:fips202.c     ****         Abi = BCi ^ ((~BCo) & BCu);
 1725              	 .loc 1 238 13 view .LVU625
 1726 0912 6F40     	 eors r7,r7,r5
 242:fips202.c     **** 
 243:fips202.c     ****         Ebo ^= Do;
 1727              	 .loc 1 243 13 view .LVU626
 1728 0914 069A     	 ldr r2,[sp,#24]
 1729              	.LVL225:
 241:fips202.c     **** 
 1730              	 .loc 1 241 13 view .LVU627
 1731 0916 1393     	 str r3,[sp,#76]
 1732              	.LVL226:
 240:fips202.c     ****         Abu = BCu ^ ((~BCa) & BCe);
 1733              	 .loc 1 240 13 view .LVU628
 1734 0918 6140     	 eors r1,r1,r4
 1735              	.LVL227:
 241:fips202.c     **** 
 1736              	 .loc 1 241 29 view .LVU629
 1737 091a 25EA0905 	 bic r5,r5,r9
 1738              	.LVL228:
 1739              	 .loc 1 243 13 view .LVU630
 1740 091e 169B     	 ldr r3,[sp,#88]
 240:fips202.c     ****         Abu = BCu ^ ((~BCa) & BCe);
 1741              	 .loc 1 240 13 view .LVU631
 1742 0920 1191     	 str r1,[sp,#68]
 1743              	.LVL229:
 241:fips202.c     **** 
 1744              	 .loc 1 241 9 is_stmt 1 view .LVU632
 1745              	 .loc 1 243 9 view .LVU633
 244:fips202.c     ****         BCa = ROL(Ebo, 28);
 1746              	 .loc 1 244 9 view .LVU634
 241:fips202.c     **** 
 1747              	 .loc 1 241 13 is_stmt 0 view .LVU635
 1748 0922 85EA0C01 	 eor r1,r5,ip
 1749              	.LVL230:
 243:fips202.c     ****         BCa = ROL(Ebo, 28);
 1750              	 .loc 1 243 13 view .LVU636
 1751 0926 5340     	 eors r3,r3,r2
 241:fips202.c     **** 
 1752              	 .loc 1 241 13 view .LVU637
 1753 0928 1291     	 str r1,[sp,#72]
 1754              	.LVL231:
 243:fips202.c     ****         BCa = ROL(Ebo, 28);
 1755              	 .loc 1 243 13 view .LVU638
 1756 092a 179A     	 ldr r2,[sp,#92]
 1757 092c 0799     	 ldr r1,[sp,#28]
 238:fips202.c     ****         Abi = BCi ^ ((~BCo) & BCu);
 1758              	 .loc 1 238 13 view .LVU639
 1759 092e 0C97     	 str r7,[sp,#48]
 1760              	.LVL232:
 240:fips202.c     ****         Abu = BCu ^ ((~BCa) & BCe);
 1761              	 .loc 1 240 29 view .LVU640
 1762 0930 29EA0C06 	 bic r6,r9,ip
 239:fips202.c     ****         Abo = BCo ^ ((~BCu) & BCa);
 1763              	 .loc 1 239 29 view .LVU641
 1764 0934 2CEA0E07 	 bic r7,ip,lr
 243:fips202.c     ****         BCa = ROL(Ebo, 28);
 1765              	 .loc 1 243 13 view .LVU642
 1766 0938 5140     	 eors r1,r1,r2
 1767              	 .loc 1 244 13 view .LVU643
 1768 093a 4FEA037C 	 lsl ip,r3,#28
 1769              	 .loc 1 244 13 view .LVU644
 1770 093e 4CEA111C 	 orr ip,ip,r1,lsr#4
 1771 0942 0907     	 lsls r1,r1,#28
 1772 0944 41EA1311 	 orr r1,r1,r3,lsr#4
 1773              	.LVL233:
 245:fips202.c     ****         Egu ^= Du;
 1774              	 .loc 1 245 9 is_stmt 1 view .LVU645
 246:fips202.c     ****         BCe = ROL(Egu, 20);
 1775              	 .loc 1 246 9 view .LVU646
 245:fips202.c     ****         Egu ^= Du;
 1776              	 .loc 1 245 13 is_stmt 0 view .LVU647
 1777 0948 089A     	 ldr r2,[sp,#32]
 1778 094a 1C9B     	 ldr r3,[sp,#112]
 1779 094c 099C     	 ldr r4,[sp,#36]
 247:fips202.c     ****         Eka ^= Da;
 1780              	 .loc 1 247 13 view .LVU648
 1781 094e 029D     	 ldr r5,[sp,#8]
 245:fips202.c     ****         Egu ^= Du;
 1782              	 .loc 1 245 13 view .LVU649
 1783 0950 5A40     	 eors r2,r2,r3
 1784 0952 1D9B     	 ldr r3,[sp,#116]
 240:fips202.c     ****         Abu = BCu ^ ((~BCa) & BCe);
 1785              	 .loc 1 240 13 view .LVU650
 1786 0954 86EA0E06 	 eor r6,r6,lr
 245:fips202.c     ****         BCe = ROL(Egu, 20);
 1787              	 .loc 1 245 13 view .LVU651
 1788 0958 6340     	 eors r3,r3,r4
 240:fips202.c     ****         Abu = BCu ^ ((~BCa) & BCe);
 1789              	 .loc 1 240 13 view .LVU652
 1790 095a 1096     	 str r6,[sp,#64]
 1791              	.LVL234:
 246:fips202.c     ****         Eka ^= Da;
 1792              	 .loc 1 246 13 view .LVU653
 1793 095c 1605     	 lsls r6,r2,#20
 1794 095e 46EA1336 	 orr r6,r6,r3,lsr#12
 1795 0962 1B05     	 lsls r3,r3,#20
 1796 0964 43EA1233 	 orr r3,r3,r2,lsr#12
 1797              	.LVL235:
 1798              	 .loc 1 247 9 is_stmt 1 view .LVU654
 248:fips202.c     ****         BCi = ROL(Eka, 3);
 1799              	 .loc 1 248 9 view .LVU655
 247:fips202.c     ****         BCi = ROL(Eka, 3);
 1800              	 .loc 1 247 13 is_stmt 0 view .LVU656
 1801 0968 019C     	 ldr r4,[sp,#4]
 1802 096a 189A     	 ldr r2,[sp,#96]
 1803 096c 6240     	 eors r2,r2,r4
 1804 096e 199C     	 ldr r4,[sp,#100]
 239:fips202.c     ****         Abo = BCo ^ ((~BCu) & BCa);
 1805              	 .loc 1 239 13 view .LVU657
 1806 0970 87EA0807 	 eor r7,r7,r8
 247:fips202.c     ****         BCi = ROL(Eka, 3);
 1807              	 .loc 1 247 13 view .LVU658
 1808 0974 6540     	 eors r5,r5,r4
 1809              	 .loc 1 248 13 view .LVU659
 1810 0976 4FEAC208 	 lsl r8,r2,#3
 1811              	 .loc 1 248 13 view .LVU660
 1812 097a 48EA5578 	 orr r8,r8,r5,lsr#29
 1813 097e ED00     	 lsls r5,r5,#3
 1814 0980 45EA5275 	 orr r5,r5,r2,lsr#29
 1815              	.LVL236:
 249:fips202.c     ****         Eme ^= De;
 1816              	 .loc 1 249 9 is_stmt 1 view .LVU661
 250:fips202.c     ****         BCo = ROL(Eme, 45);
 1817              	 .loc 1 250 9 view .LVU662
 249:fips202.c     ****         Eme ^= De;
 1818              	 .loc 1 249 13 is_stmt 0 view .LVU663
 1819 0984 039C     	 ldr r4,[sp,#12]
 1820 0986 149A     	 ldr r2,[sp,#80]
 239:fips202.c     ****         Abo = BCo ^ ((~BCu) & BCa);
 1821              	 .loc 1 239 13 view .LVU664
 1822 0988 0E97     	 str r7,[sp,#56]
 1823              	.LVL237:
 249:fips202.c     ****         Eme ^= De;
 1824              	 .loc 1 249 13 view .LVU665
 1825 098a 6240     	 eors r2,r2,r4
 1826 098c 049F     	 ldr r7,[sp,#16]
 1827 098e 159C     	 ldr r4,[sp,#84]
 1828              	 .loc 1 250 13 view .LVU666
 1829 0990 4FEAD24E 	 lsr lr,r2,#19
 249:fips202.c     ****         Eme ^= De;
 1830              	 .loc 1 249 13 view .LVU667
 1831 0994 7C40     	 eors r4,r4,r7
 1832              	 .loc 1 250 13 view .LVU668
 1833 0996 4EEA443E 	 orr lr,lr,r4,lsl#13
 1834 099a E40C     	 lsrs r4,r4,#19
 1835 099c 44EA4234 	 orr r4,r4,r2,lsl#13
 1836              	.LVL238:
 251:fips202.c     ****         Esi ^= Di;
 1837              	 .loc 1 251 9 is_stmt 1 view .LVU669
 252:fips202.c     ****         BCu = ROL(Esi, 61);
 1838              	 .loc 1 252 9 view .LVU670
 251:fips202.c     ****         Esi ^= Di;
 1839              	 .loc 1 251 13 is_stmt 0 view .LVU671
 1840 09a0 1A9A     	 ldr r2,[sp,#104]
 1841 09a2 82EA0B09 	 eor r9,r2,fp
 1842              	.LVL239:
 251:fips202.c     ****         Esi ^= Di;
 1843              	 .loc 1 251 13 view .LVU672
 1844 09a6 1B9A     	 ldr r2,[sp,#108]
 1845 09a8 059F     	 ldr r7,[sp,#20]
 1846 09aa 7A40     	 eors r2,r2,r7
 1847              	 .loc 1 252 13 view .LVU673
 1848 09ac 4FEAD907 	 lsr r7,r9,#3
 1849 09b0 47EA4277 	 orr r7,r7,r2,lsl#29
 1850 09b4 D208     	 lsrs r2,r2,#3
 1851 09b6 42EA4972 	 orr r2,r2,r9,lsl#29
 1852              	.LVL240:
 253:fips202.c     ****         Aga = BCa ^ ((~BCe) & BCi);
 1853              	 .loc 1 253 9 is_stmt 1 view .LVU674
 1854              	 .loc 1 253 29 is_stmt 0 view .LVU675
 1855 09ba 25EA0309 	 bic r9,r5,r3
 1856              	 .loc 1 253 13 view .LVU676
 1857 09be 89EA0109 	 eor r9,r9,r1
 1858 09c2 CDF85490 	 str r9,[sp,#84]
 1859              	.LVL241:
 254:fips202.c     ****         Age = BCe ^ ((~BCi) & BCo);
 1860              	 .loc 1 254 9 is_stmt 1 view .LVU677
 1861              	 .loc 1 254 29 is_stmt 0 view .LVU678
 1862 09c6 24EA0509 	 bic r9,r4,r5
 1863              	.LVL242:
 253:fips202.c     ****         Aga = BCa ^ ((~BCe) & BCi);
 1864              	 .loc 1 253 29 view .LVU679
 1865 09ca 28EA060A 	 bic r10,r8,r6
 1866              	 .loc 1 254 13 view .LVU680
 1867 09ce 89EA0309 	 eor r9,r9,r3
 253:fips202.c     ****         Aga = BCa ^ ((~BCe) & BCi);
 1868              	 .loc 1 253 13 view .LVU681
 1869 09d2 8AEA0C0A 	 eor r10,r10,ip
 1870              	 .loc 1 254 13 view .LVU682
 1871 09d6 CDF85C90 	 str r9,[sp,#92]
 1872              	.LVL243:
 255:fips202.c     ****         Agi = BCi ^ ((~BCo) & BCu);
 1873              	 .loc 1 255 9 is_stmt 1 view .LVU683
 256:fips202.c     ****         Ago = BCo ^ ((~BCu) & BCa);
 257:fips202.c     ****         Agu = BCu ^ ((~BCa) & BCe);
 1874              	 .loc 1 257 29 is_stmt 0 view .LVU684
 1875 09da 23EA0103 	 bic r3,r3,r1
 1876              	.LVL244:
 255:fips202.c     ****         Agi = BCi ^ ((~BCo) & BCu);
 1877              	 .loc 1 255 29 view .LVU685
 1878 09de 22EA0409 	 bic r9,r2,r4
 1879              	.LVL245:
 255:fips202.c     ****         Agi = BCi ^ ((~BCo) & BCu);
 1880              	 .loc 1 255 13 view .LVU686
 1881 09e2 89EA0505 	 eor r5,r9,r5
 1882              	.LVL246:
 1883              	 .loc 1 257 13 view .LVU687
 1884 09e6 5340     	 eors r3,r3,r2
 253:fips202.c     ****         Age = BCe ^ ((~BCi) & BCo);
 1885              	 .loc 1 253 13 view .LVU688
 1886 09e8 CDF850A0 	 str r10,[sp,#80]
 1887              	.LVL247:
 254:fips202.c     ****         Agi = BCi ^ ((~BCo) & BCu);
 1888              	 .loc 1 254 29 view .LVU689
 1889 09ec 2EEA080A 	 bic r10,lr,r8
 254:fips202.c     ****         Agi = BCi ^ ((~BCo) & BCu);
 1890              	 .loc 1 254 13 view .LVU690
 1891 09f0 8AEA060A 	 eor r10,r10,r6
 255:fips202.c     ****         Ago = BCo ^ ((~BCu) & BCa);
 1892              	 .loc 1 255 13 view .LVU691
 1893 09f4 1995     	 str r5,[sp,#100]
 1894              	.LVL248:
 256:fips202.c     ****         Agu = BCu ^ ((~BCa) & BCe);
 1895              	 .loc 1 256 9 is_stmt 1 view .LVU692
 1896              	 .loc 1 257 29 is_stmt 0 view .LVU693
 1897 09f6 26EA0C06 	 bic r6,r6,ip
 1898              	.LVL249:
 256:fips202.c     ****         Agu = BCu ^ ((~BCa) & BCe);
 1899              	 .loc 1 256 29 view .LVU694
 1900 09fa 21EA0205 	 bic r5,r1,r2
 1901              	.LVL250:
 1902              	 .loc 1 257 13 view .LVU695
 1903 09fe 1D93     	 str r3,[sp,#116]
 1904              	.LVL251:
 258:fips202.c     **** 
 259:fips202.c     ****         Ebe ^= De;
 1905              	 .loc 1 259 13 view .LVU696
 1906 0a00 039A     	 ldr r2,[sp,#12]
 1907              	.LVL252:
 1908              	 .loc 1 259 13 view .LVU697
 1909 0a02 229B     	 ldr r3,[sp,#136]
 254:fips202.c     ****         Agi = BCi ^ ((~BCo) & BCu);
 1910              	 .loc 1 254 13 view .LVU698
 1911 0a04 CDF858A0 	 str r10,[sp,#88]
 1912              	.LVL253:
 257:fips202.c     **** 
 1913              	 .loc 1 257 13 view .LVU699
 1914 0a08 86EA0701 	 eor r1,r6,r7
 1915              	.LVL254:
 255:fips202.c     ****         Ago = BCo ^ ((~BCu) & BCa);
 1916              	 .loc 1 255 29 view .LVU700
 1917 0a0c 27EA0E0A 	 bic r10,r7,lr
 1918              	 .loc 1 259 13 view .LVU701
 1919 0a10 5340     	 eors r3,r3,r2
 257:fips202.c     **** 
 1920              	 .loc 1 257 13 view .LVU702
 1921 0a12 1C91     	 str r1,[sp,#112]
 1922              	 .loc 1 259 13 view .LVU703
 1923 0a14 239A     	 ldr r2,[sp,#140]
 1924 0a16 0499     	 ldr r1,[sp,#16]
 255:fips202.c     ****         Ago = BCo ^ ((~BCu) & BCa);
 1925              	 .loc 1 255 13 view .LVU704
 1926 0a18 8AEA0808 	 eor r8,r10,r8
 1927              	 .loc 1 259 13 view .LVU705
 1928 0a1c 5140     	 eors r1,r1,r2
 255:fips202.c     ****         Ago = BCo ^ ((~BCu) & BCa);
 1929              	 .loc 1 255 13 view .LVU706
 1930 0a1e CDF86080 	 str r8,[sp,#96]
 1931              	.LVL255:
 256:fips202.c     ****         Agu = BCu ^ ((~BCa) & BCe);
 1932              	 .loc 1 256 29 view .LVU707
 1933 0a22 2CEA0708 	 bic r8,ip,r7
 260:fips202.c     ****         BCa = ROL(Ebe, 1);
 1934              	 .loc 1 260 13 view .LVU708
 1935 0a26 4FEA430C 	 lsl ip,r3,#1
 1936              	 .loc 1 260 13 view .LVU709
 1937 0a2a 4CEAD17C 	 orr ip,ip,r1,lsr#31
 1938 0a2e 4900     	 lsls r1,r1,#1
 1939 0a30 41EAD371 	 orr r1,r1,r3,lsr#31
 261:fips202.c     ****         Egi ^= Di;
 1940              	 .loc 1 261 13 view .LVU710
 1941 0a34 1E9B     	 ldr r3,[sp,#120]
 262:fips202.c     ****         BCe = ROL(Egi, 6);
 263:fips202.c     ****         Eko ^= Do;
 264:fips202.c     ****         BCi = ROL(Eko, 25);
 265:fips202.c     ****         Emu ^= Du;
 1942              	 .loc 1 265 13 view .LVU711
 1943 0a36 099F     	 ldr r7,[sp,#36]
 1944              	.LVL256:
 256:fips202.c     ****         Agu = BCu ^ ((~BCa) & BCe);
 1945              	 .loc 1 256 13 view .LVU712
 1946 0a38 6C40     	 eors r4,r4,r5
 1947              	.LVL257:
 261:fips202.c     ****         Egi ^= Di;
 1948              	 .loc 1 261 13 view .LVU713
 1949 0a3a 83EA0B02 	 eor r2,r3,fp
 256:fips202.c     ****         Agu = BCu ^ ((~BCa) & BCe);
 1950              	 .loc 1 256 13 view .LVU714
 1951 0a3e 1B94     	 str r4,[sp,#108]
 1952              	.LVL258:
 257:fips202.c     **** 
 1953              	 .loc 1 257 9 is_stmt 1 view .LVU715
 259:fips202.c     ****         BCa = ROL(Ebe, 1);
 1954              	 .loc 1 259 9 view .LVU716
 260:fips202.c     ****         Egi ^= Di;
 1955              	 .loc 1 260 9 view .LVU717
 261:fips202.c     ****         BCe = ROL(Egi, 6);
 1956              	 .loc 1 261 9 view .LVU718
 262:fips202.c     ****         Eko ^= Do;
 1957              	 .loc 1 262 9 view .LVU719
 261:fips202.c     ****         BCe = ROL(Egi, 6);
 1958              	 .loc 1 261 13 is_stmt 0 view .LVU720
 1959 0a40 1F9B     	 ldr r3,[sp,#124]
 1960              	.LVL259:
 261:fips202.c     ****         BCe = ROL(Egi, 6);
 1961              	 .loc 1 261 13 view .LVU721
 1962 0a42 059C     	 ldr r4,[sp,#20]
 1963              	.LVL260:
 263:fips202.c     ****         BCi = ROL(Eko, 25);
 1964              	 .loc 1 263 13 view .LVU722
 1965 0a44 079D     	 ldr r5,[sp,#28]
 261:fips202.c     ****         BCe = ROL(Egi, 6);
 1966              	 .loc 1 261 13 view .LVU723
 1967 0a46 6340     	 eors r3,r3,r4
 262:fips202.c     ****         Eko ^= Do;
 1968              	 .loc 1 262 13 view .LVU724
 1969 0a48 9601     	 lsls r6,r2,#6
 1970 0a4a 46EA9366 	 orr r6,r6,r3,lsr#26
 1971 0a4e 9B01     	 lsls r3,r3,#6
 1972 0a50 43EA9263 	 orr r3,r3,r2,lsr#26
 1973              	.LVL261:
 263:fips202.c     ****         BCi = ROL(Eko, 25);
 1974              	 .loc 1 263 9 is_stmt 1 view .LVU725
 264:fips202.c     ****         Emu ^= Du;
 1975              	 .loc 1 264 9 view .LVU726
 263:fips202.c     ****         BCi = ROL(Eko, 25);
 1976              	 .loc 1 263 13 is_stmt 0 view .LVU727
 1977 0a54 069C     	 ldr r4,[sp,#24]
 1978 0a56 249A     	 ldr r2,[sp,#144]
 1979 0a58 6240     	 eors r2,r2,r4
 1980 0a5a 259C     	 ldr r4,[sp,#148]
 256:fips202.c     ****         Agu = BCu ^ ((~BCa) & BCe);
 1981              	 .loc 1 256 13 view .LVU728
 1982 0a5c 88EA0E0E 	 eor lr,r8,lr
 263:fips202.c     ****         BCi = ROL(Eko, 25);
 1983              	 .loc 1 263 13 view .LVU729
 1984 0a60 6540     	 eors r5,r5,r4
 264:fips202.c     ****         Emu ^= Du;
 1985              	 .loc 1 264 13 view .LVU730
 1986 0a62 4FEA4268 	 lsl r8,r2,#25
 1987 0a66 48EAD518 	 orr r8,r8,r5,lsr#7
 1988 0a6a 6D06     	 lsls r5,r5,#25
 1989 0a6c 45EAD215 	 orr r5,r5,r2,lsr#7
 1990              	.LVL262:
 1991              	 .loc 1 265 9 is_stmt 1 view .LVU731
 266:fips202.c     ****         BCo = ROL(Emu, 8);
 1992              	 .loc 1 266 9 view .LVU732
 265:fips202.c     ****         BCo = ROL(Emu, 8);
 1993              	 .loc 1 265 13 is_stmt 0 view .LVU733
 1994 0a70 089C     	 ldr r4,[sp,#32]
 1995 0a72 209A     	 ldr r2,[sp,#128]
 256:fips202.c     ****         Agu = BCu ^ ((~BCa) & BCe);
 1996              	 .loc 1 256 13 view .LVU734
 1997 0a74 CDF868E0 	 str lr,[sp,#104]
 1998              	.LVL263:
 265:fips202.c     ****         BCo = ROL(Emu, 8);
 1999              	 .loc 1 265 13 view .LVU735
 2000 0a78 6240     	 eors r2,r2,r4
 2001 0a7a 219C     	 ldr r4,[sp,#132]
 2002              	 .loc 1 266 13 view .LVU736
 2003 0a7c 4FEA022E 	 lsl lr,r2,#8
 265:fips202.c     ****         BCo = ROL(Emu, 8);
 2004              	 .loc 1 265 13 view .LVU737
 2005 0a80 7C40     	 eors r4,r4,r7
 2006              	 .loc 1 266 13 view .LVU738
 2007 0a82 4EEA146E 	 orr lr,lr,r4,lsr#24
 2008 0a86 2402     	 lsls r4,r4,#8
 2009 0a88 44EA1264 	 orr r4,r4,r2,lsr#24
 2010              	.LVL264:
 267:fips202.c     ****         Esa ^= Da;
 2011              	 .loc 1 267 9 is_stmt 1 view .LVU739
 268:fips202.c     ****         BCu = ROL(Esa, 18);
 2012              	 .loc 1 268 9 view .LVU740
 267:fips202.c     ****         Esa ^= Da;
 2013              	 .loc 1 267 13 is_stmt 0 view .LVU741
 2014 0a8c 019F     	 ldr r7,[sp,#4]
 2015 0a8e 269A     	 ldr r2,[sp,#152]
 2016 0a90 82EA0709 	 eor r9,r2,r7
 2017 0a94 029F     	 ldr r7,[sp,#8]
 2018 0a96 279A     	 ldr r2,[sp,#156]
 2019 0a98 7A40     	 eors r2,r2,r7
 2020              	 .loc 1 268 13 view .LVU742
 2021 0a9a 4FEA8947 	 lsl r7,r9,#18
 2022 0a9e 47EA9237 	 orr r7,r7,r2,lsr#14
 2023 0aa2 9204     	 lsls r2,r2,#18
 2024 0aa4 42EA9932 	 orr r2,r2,r9,lsr#14
 2025              	.LVL265:
 269:fips202.c     ****         Aka = BCa ^ ((~BCe) & BCi);
 2026              	 .loc 1 269 9 is_stmt 1 view .LVU743
 2027              	 .loc 1 269 29 is_stmt 0 view .LVU744
 2028 0aa8 28EA060A 	 bic r10,r8,r6
 2029 0aac 25EA0309 	 bic r9,r5,r3
 2030              	 .loc 1 269 13 view .LVU745
 2031 0ab0 8AEA0C0A 	 eor r10,r10,ip
 2032 0ab4 89EA0109 	 eor r9,r9,r1
 2033 0ab8 CDF878A0 	 str r10,[sp,#120]
 2034              	.LVL266:
 2035              	 .loc 1 269 13 view .LVU746
 2036 0abc CDF87C90 	 str r9,[sp,#124]
 2037              	.LVL267:
 270:fips202.c     ****         Ake = BCe ^ ((~BCi) & BCo);
 2038              	 .loc 1 270 9 is_stmt 1 view .LVU747
 2039              	 .loc 1 270 29 is_stmt 0 view .LVU748
 2040 0ac0 24EA0509 	 bic r9,r4,r5
 2041              	.LVL268:
 2042              	 .loc 1 270 13 view .LVU749
 2043 0ac4 89EA0309 	 eor r9,r9,r3
 2044 0ac8 CDF88490 	 str r9,[sp,#132]
 2045              	.LVL269:
 271:fips202.c     ****         Aki = BCi ^ ((~BCo) & BCu);
 2046              	 .loc 1 271 9 is_stmt 1 view .LVU750
 272:fips202.c     ****         Ako = BCo ^ ((~BCu) & BCa);
 273:fips202.c     ****         Aku = BCu ^ ((~BCa) & BCe);
 2047              	 .loc 1 273 29 is_stmt 0 view .LVU751
 2048 0acc 23EA0103 	 bic r3,r3,r1
 2049              	.LVL270:
 271:fips202.c     ****         Aki = BCi ^ ((~BCo) & BCu);
 2050              	 .loc 1 271 29 view .LVU752
 2051 0ad0 22EA0409 	 bic r9,r2,r4
 2052              	.LVL271:
 270:fips202.c     ****         Aki = BCi ^ ((~BCo) & BCu);
 2053              	 .loc 1 270 29 view .LVU753
 2054 0ad4 2EEA080A 	 bic r10,lr,r8
 2055              	.LVL272:
 271:fips202.c     ****         Aki = BCi ^ ((~BCo) & BCu);
 2056              	 .loc 1 271 13 view .LVU754
 2057 0ad8 89EA0505 	 eor r5,r9,r5
 2058              	.LVL273:
 2059              	 .loc 1 273 13 view .LVU755
 2060 0adc 5340     	 eors r3,r3,r2
 270:fips202.c     ****         Aki = BCi ^ ((~BCo) & BCu);
 2061              	 .loc 1 270 13 view .LVU756
 2062 0ade 8AEA060A 	 eor r10,r10,r6
 271:fips202.c     ****         Aki = BCi ^ ((~BCo) & BCu);
 2063              	 .loc 1 271 13 view .LVU757
 2064 0ae2 2395     	 str r5,[sp,#140]
 2065              	.LVL274:
 272:fips202.c     ****         Ako = BCo ^ ((~BCu) & BCa);
 2066              	 .loc 1 272 9 is_stmt 1 view .LVU758
 2067              	 .loc 1 273 29 is_stmt 0 view .LVU759
 2068 0ae4 26EA0C06 	 bic r6,r6,ip
 272:fips202.c     ****         Ako = BCo ^ ((~BCu) & BCa);
 2069              	 .loc 1 272 29 view .LVU760
 2070 0ae8 21EA0205 	 bic r5,r1,r2
 2071              	.LVL275:
 2072              	 .loc 1 273 13 view .LVU761
 2073 0aec 2793     	 str r3,[sp,#156]
 2074              	.LVL276:
 274:fips202.c     **** 
 275:fips202.c     ****         Ebu ^= Du;
 2075              	 .loc 1 275 13 view .LVU762
 2076 0aee 089A     	 ldr r2,[sp,#32]
 2077              	.LVL277:
 2078              	 .loc 1 275 13 view .LVU763
 2079 0af0 2E9B     	 ldr r3,[sp,#184]
 270:fips202.c     ****         Aki = BCi ^ ((~BCo) & BCu);
 2080              	 .loc 1 270 13 view .LVU764
 2081 0af2 CDF880A0 	 str r10,[sp,#128]
 2082              	.LVL278:
 273:fips202.c     **** 
 2083              	 .loc 1 273 13 view .LVU765
 2084 0af6 86EA0701 	 eor r1,r6,r7
 2085              	.LVL279:
 271:fips202.c     ****         Ako = BCo ^ ((~BCu) & BCa);
 2086              	 .loc 1 271 29 view .LVU766
 2087 0afa 27EA0E0A 	 bic r10,r7,lr
 2088              	 .loc 1 275 13 view .LVU767
 2089 0afe 5340     	 eors r3,r3,r2
 273:fips202.c     **** 
 2090              	 .loc 1 273 13 view .LVU768
 2091 0b00 2691     	 str r1,[sp,#152]
 2092              	 .loc 1 275 13 view .LVU769
 2093 0b02 2F9A     	 ldr r2,[sp,#188]
 2094 0b04 0999     	 ldr r1,[sp,#36]
 271:fips202.c     ****         Ako = BCo ^ ((~BCu) & BCa);
 2095              	 .loc 1 271 13 view .LVU770
 2096 0b06 8AEA0808 	 eor r8,r10,r8
 2097              	.LVL280:
 2098              	 .loc 1 275 13 view .LVU771
 2099 0b0a 5140     	 eors r1,r1,r2
 271:fips202.c     ****         Ako = BCo ^ ((~BCu) & BCa);
 2100              	 .loc 1 271 13 view .LVU772
 2101 0b0c CDF88880 	 str r8,[sp,#136]
 2102              	.LVL281:
 272:fips202.c     ****         Aku = BCu ^ ((~BCa) & BCe);
 2103              	 .loc 1 272 29 view .LVU773
 2104 0b10 2CEA0708 	 bic r8,ip,r7
 276:fips202.c     ****         BCa = ROL(Ebu, 27);
 2105              	 .loc 1 276 13 view .LVU774
 2106 0b14 4FEAC36C 	 lsl ip,r3,#27
 2107              	 .loc 1 276 13 view .LVU775
 2108 0b18 4CEA511C 	 orr ip,ip,r1,lsr#5
 2109 0b1c C906     	 lsls r1,r1,#27
 2110 0b1e 41EA5311 	 orr r1,r1,r3,lsr#5
 277:fips202.c     ****         Ega ^= Da;
 2111              	 .loc 1 277 13 view .LVU776
 2112 0b22 019A     	 ldr r2,[sp,#4]
 2113 0b24 2A9B     	 ldr r3,[sp,#168]
 278:fips202.c     ****         BCe = ROL(Ega, 36);
 279:fips202.c     ****         Eke ^= De;
 280:fips202.c     ****         BCi = ROL(Eke, 10);
 281:fips202.c     ****         Emi ^= Di;
 2114              	 .loc 1 281 13 view .LVU777
 2115 0b26 059F     	 ldr r7,[sp,#20]
 272:fips202.c     ****         Aku = BCu ^ ((~BCa) & BCe);
 2116              	 .loc 1 272 13 view .LVU778
 2117 0b28 6C40     	 eors r4,r4,r5
 2118              	.LVL282:
 277:fips202.c     ****         Ega ^= Da;
 2119              	 .loc 1 277 13 view .LVU779
 2120 0b2a 5A40     	 eors r2,r2,r3
 272:fips202.c     ****         Aku = BCu ^ ((~BCa) & BCe);
 2121              	 .loc 1 272 13 view .LVU780
 2122 0b2c 2594     	 str r4,[sp,#148]
 2123              	.LVL283:
 273:fips202.c     **** 
 2124              	 .loc 1 273 9 is_stmt 1 view .LVU781
 275:fips202.c     ****         BCa = ROL(Ebu, 27);
 2125              	 .loc 1 275 9 view .LVU782
 276:fips202.c     ****         Ega ^= Da;
 2126              	 .loc 1 276 9 view .LVU783
 277:fips202.c     ****         BCe = ROL(Ega, 36);
 2127              	 .loc 1 277 9 view .LVU784
 278:fips202.c     ****         Eke ^= De;
 2128              	 .loc 1 278 9 view .LVU785
 277:fips202.c     ****         BCe = ROL(Ega, 36);
 2129              	 .loc 1 277 13 is_stmt 0 view .LVU786
 2130 0b2e 2B9B     	 ldr r3,[sp,#172]
 2131              	.LVL284:
 277:fips202.c     ****         BCe = ROL(Ega, 36);
 2132              	 .loc 1 277 13 view .LVU787
 2133 0b30 029C     	 ldr r4,[sp,#8]
 2134              	.LVL285:
 279:fips202.c     ****         BCi = ROL(Eke, 10);
 2135              	 .loc 1 279 13 view .LVU788
 2136 0b32 049D     	 ldr r5,[sp,#16]
 277:fips202.c     ****         BCe = ROL(Ega, 36);
 2137              	 .loc 1 277 13 view .LVU789
 2138 0b34 6340     	 eors r3,r3,r4
 278:fips202.c     ****         Eke ^= De;
 2139              	 .loc 1 278 13 view .LVU790
 2140 0b36 160F     	 lsrs r6,r2,#28
 2141 0b38 46EA0316 	 orr r6,r6,r3,lsl#4
 2142 0b3c 1B0F     	 lsrs r3,r3,#28
 2143 0b3e 43EA0213 	 orr r3,r3,r2,lsl#4
 2144              	.LVL286:
 279:fips202.c     ****         BCi = ROL(Eke, 10);
 2145              	 .loc 1 279 9 is_stmt 1 view .LVU791
 280:fips202.c     ****         Emi ^= Di;
 2146              	 .loc 1 280 9 view .LVU792
 279:fips202.c     ****         BCi = ROL(Eke, 10);
 2147              	 .loc 1 279 13 is_stmt 0 view .LVU793
 2148 0b42 039C     	 ldr r4,[sp,#12]
 2149 0b44 309A     	 ldr r2,[sp,#192]
 2150 0b46 6240     	 eors r2,r2,r4
 2151 0b48 319C     	 ldr r4,[sp,#196]
 272:fips202.c     ****         Aku = BCu ^ ((~BCa) & BCe);
 2152              	 .loc 1 272 13 view .LVU794
 2153 0b4a 88EA0E0E 	 eor lr,r8,lr
 279:fips202.c     ****         BCi = ROL(Eke, 10);
 2154              	 .loc 1 279 13 view .LVU795
 2155 0b4e 6540     	 eors r5,r5,r4
 280:fips202.c     ****         Emi ^= Di;
 2156              	 .loc 1 280 13 view .LVU796
 2157 0b50 4FEA8228 	 lsl r8,r2,#10
 2158 0b54 48EA9558 	 orr r8,r8,r5,lsr#22
 2159 0b58 AD02     	 lsls r5,r5,#10
 2160 0b5a 45EA9255 	 orr r5,r5,r2,lsr#22
 2161              	.LVL287:
 2162              	 .loc 1 281 9 is_stmt 1 view .LVU797
 282:fips202.c     ****         BCo = ROL(Emi, 15);
 2163              	 .loc 1 282 9 view .LVU798
 281:fips202.c     ****         BCo = ROL(Emi, 15);
 2164              	 .loc 1 281 13 is_stmt 0 view .LVU799
 2165 0b5e 2C9A     	 ldr r2,[sp,#176]
 2166 0b60 2D9C     	 ldr r4,[sp,#180]
 272:fips202.c     ****         Aku = BCu ^ ((~BCa) & BCe);
 2167              	 .loc 1 272 13 view .LVU800
 2168 0b62 CDF890E0 	 str lr,[sp,#144]
 2169              	.LVL288:
 281:fips202.c     ****         BCo = ROL(Emi, 15);
 2170              	 .loc 1 281 13 view .LVU801
 2171 0b66 82EA0B02 	 eor r2,r2,fp
 2172 0b6a 7C40     	 eors r4,r4,r7
 2173              	 .loc 1 282 13 view .LVU802
 2174 0b6c 4FEAC23E 	 lsl lr,r2,#15
 2175 0b70 4EEA544E 	 orr lr,lr,r4,lsr#17
 2176 0b74 E403     	 lsls r4,r4,#15
 2177 0b76 44EA5244 	 orr r4,r4,r2,lsr#17
 2178              	.LVL289:
 283:fips202.c     ****         Eso ^= Do;
 2179              	 .loc 1 283 9 is_stmt 1 view .LVU803
 284:fips202.c     ****         BCu = ROL(Eso, 56);
 2180              	 .loc 1 284 9 view .LVU804
 283:fips202.c     ****         Eso ^= Do;
 2181              	 .loc 1 283 13 is_stmt 0 view .LVU805
 2182 0b7a 069F     	 ldr r7,[sp,#24]
 2183 0b7c 289A     	 ldr r2,[sp,#160]
 2184 0b7e 82EA0709 	 eor r9,r2,r7
 2185 0b82 299A     	 ldr r2,[sp,#164]
 2186 0b84 079F     	 ldr r7,[sp,#28]
 2187 0b86 7A40     	 eors r2,r2,r7
 2188              	 .loc 1 284 13 view .LVU806
 2189 0b88 4FEA1927 	 lsr r7,r9,#8
 2190 0b8c 47EA0267 	 orr r7,r7,r2,lsl#24
 2191 0b90 120A     	 lsrs r2,r2,#8
 2192 0b92 42EA0962 	 orr r2,r2,r9,lsl#24
 2193              	.LVL290:
 285:fips202.c     ****         Ama = BCa ^ ((~BCe) & BCi);
 2194              	 .loc 1 285 9 is_stmt 1 view .LVU807
 2195              	 .loc 1 285 29 is_stmt 0 view .LVU808
 2196 0b96 28EA060A 	 bic r10,r8,r6
 2197 0b9a 25EA0309 	 bic r9,r5,r3
 2198              	 .loc 1 285 13 view .LVU809
 2199 0b9e 8AEA0C0A 	 eor r10,r10,ip
 2200 0ba2 89EA0109 	 eor r9,r9,r1
 2201 0ba6 CDF8A0A0 	 str r10,[sp,#160]
 2202              	.LVL291:
 2203              	 .loc 1 285 13 view .LVU810
 2204 0baa CDF8A490 	 str r9,[sp,#164]
 2205              	.LVL292:
 286:fips202.c     ****         Ame = BCe ^ ((~BCi) & BCo);
 2206              	 .loc 1 286 9 is_stmt 1 view .LVU811
 2207              	 .loc 1 286 29 is_stmt 0 view .LVU812
 2208 0bae 2EEA080A 	 bic r10,lr,r8
 2209              	.LVL293:
 2210              	 .loc 1 286 29 view .LVU813
 2211 0bb2 24EA0509 	 bic r9,r4,r5
 2212              	.LVL294:
 2213              	 .loc 1 286 13 view .LVU814
 2214 0bb6 8AEA060A 	 eor r10,r10,r6
 2215 0bba 89EA0309 	 eor r9,r9,r3
 2216 0bbe CDF8A8A0 	 str r10,[sp,#168]
 2217              	.LVL295:
 2218              	 .loc 1 286 13 view .LVU815
 2219 0bc2 CDF8AC90 	 str r9,[sp,#172]
 2220              	.LVL296:
 287:fips202.c     ****         Ami = BCi ^ ((~BCo) & BCu);
 2221              	 .loc 1 287 9 is_stmt 1 view .LVU816
 2222              	 .loc 1 287 29 is_stmt 0 view .LVU817
 2223 0bc6 27EA0E0A 	 bic r10,r7,lr
 2224              	.LVL297:
 2225              	 .loc 1 287 29 view .LVU818
 2226 0bca 22EA0409 	 bic r9,r2,r4
 2227              	.LVL298:
 288:fips202.c     ****         Amo = BCo ^ ((~BCu) & BCa);
 289:fips202.c     ****         Amu = BCu ^ ((~BCa) & BCe);
 2228              	 .loc 1 289 29 view .LVU819
 2229 0bce 23EA0103 	 bic r3,r3,r1
 2230              	.LVL299:
 287:fips202.c     ****         Ami = BCi ^ ((~BCo) & BCu);
 2231              	 .loc 1 287 13 view .LVU820
 2232 0bd2 8AEA0808 	 eor r8,r10,r8
 2233              	.LVL300:
 287:fips202.c     ****         Ami = BCi ^ ((~BCo) & BCu);
 2234              	 .loc 1 287 13 view .LVU821
 2235 0bd6 89EA0505 	 eor r5,r9,r5
 2236              	.LVL301:
 2237              	 .loc 1 289 29 view .LVU822
 2238 0bda 26EA0C06 	 bic r6,r6,ip
 2239              	 .loc 1 289 13 view .LVU823
 2240 0bde 5340     	 eors r3,r3,r2
 287:fips202.c     ****         Ami = BCi ^ ((~BCo) & BCu);
 2241              	 .loc 1 287 13 view .LVU824
 2242 0be0 CDF8B080 	 str r8,[sp,#176]
 2243              	.LVL302:
 287:fips202.c     ****         Ami = BCi ^ ((~BCo) & BCu);
 2244              	 .loc 1 287 13 view .LVU825
 2245 0be4 2D95     	 str r5,[sp,#180]
 2246              	.LVL303:
 288:fips202.c     ****         Amo = BCo ^ ((~BCu) & BCa);
 2247              	 .loc 1 288 9 is_stmt 1 view .LVU826
 288:fips202.c     ****         Amo = BCo ^ ((~BCu) & BCa);
 2248              	 .loc 1 288 29 is_stmt 0 view .LVU827
 2249 0be6 21EA0205 	 bic r5,r1,r2
 2250              	.LVL304:
 2251              	 .loc 1 289 13 view .LVU828
 2252 0bea 3193     	 str r3,[sp,#196]
 2253              	.LVL305:
 2254              	 .loc 1 289 13 view .LVU829
 2255 0bec 86EA0701 	 eor r1,r6,r7
 2256              	.LVL306:
 290:fips202.c     **** 
 291:fips202.c     ****         Ebi ^= Di;
 2257              	 .loc 1 291 13 view .LVU830
 2258 0bf0 3A9B     	 ldr r3,[sp,#232]
 2259 0bf2 3B9A     	 ldr r2,[sp,#236]
 2260              	.LVL307:
 289:fips202.c     **** 
 2261              	 .loc 1 289 13 view .LVU831
 2262 0bf4 3091     	 str r1,[sp,#192]
 2263              	 .loc 1 291 13 view .LVU832
 2264 0bf6 0599     	 ldr r1,[sp,#20]
 2265 0bf8 83EA0B03 	 eor r3,r3,fp
 288:fips202.c     ****         Amo = BCo ^ ((~BCu) & BCa);
 2266              	 .loc 1 288 29 view .LVU833
 2267 0bfc 2CEA0708 	 bic r8,ip,r7
 2268              	.LVL308:
 2269              	 .loc 1 291 13 view .LVU834
 2270 0c00 5140     	 eors r1,r1,r2
 292:fips202.c     ****         BCa = ROL(Ebi, 62);
 2271              	 .loc 1 292 13 view .LVU835
 2272 0c02 4FEA930C 	 lsr ip,r3,#2
 2273              	.LVL309:
 2274              	 .loc 1 292 13 view .LVU836
 2275 0c06 4CEA817C 	 orr ip,ip,r1,lsl#30
 2276 0c0a 8908     	 lsrs r1,r1,#2
 2277 0c0c 41EA8371 	 orr r1,r1,r3,lsl#30
 293:fips202.c     ****         Ego ^= Do;
 2278              	 .loc 1 293 13 view .LVU837
 2279 0c10 069A     	 ldr r2,[sp,#24]
 2280 0c12 369B     	 ldr r3,[sp,#216]
 294:fips202.c     ****         BCe = ROL(Ego, 55);
 295:fips202.c     ****         Eku ^= Du;
 296:fips202.c     ****         BCi = ROL(Eku, 39);
 297:fips202.c     ****         Ema ^= Da;
 2281              	 .loc 1 297 13 view .LVU838
 2282 0c14 029F     	 ldr r7,[sp,#8]
 288:fips202.c     ****         Amu = BCu ^ ((~BCa) & BCe);
 2283              	 .loc 1 288 13 view .LVU839
 2284 0c16 6C40     	 eors r4,r4,r5
 2285              	.LVL310:
 293:fips202.c     ****         Ego ^= Do;
 2286              	 .loc 1 293 13 view .LVU840
 2287 0c18 5A40     	 eors r2,r2,r3
 288:fips202.c     ****         Amu = BCu ^ ((~BCa) & BCe);
 2288              	 .loc 1 288 13 view .LVU841
 2289 0c1a 2F94     	 str r4,[sp,#188]
 2290              	.LVL311:
 289:fips202.c     **** 
 2291              	 .loc 1 289 9 is_stmt 1 view .LVU842
 291:fips202.c     ****         BCa = ROL(Ebi, 62);
 2292              	 .loc 1 291 9 view .LVU843
 292:fips202.c     ****         Ego ^= Do;
 2293              	 .loc 1 292 9 view .LVU844
 293:fips202.c     ****         BCe = ROL(Ego, 55);
 2294              	 .loc 1 293 9 view .LVU845
 294:fips202.c     ****         Eku ^= Du;
 2295              	 .loc 1 294 9 view .LVU846
 293:fips202.c     ****         BCe = ROL(Ego, 55);
 2296              	 .loc 1 293 13 is_stmt 0 view .LVU847
 2297 0c1c 379B     	 ldr r3,[sp,#220]
 2298 0c1e 079C     	 ldr r4,[sp,#28]
 2299              	.LVL312:
 295:fips202.c     ****         BCi = ROL(Eku, 39);
 2300              	 .loc 1 295 13 view .LVU848
 2301 0c20 099D     	 ldr r5,[sp,#36]
 293:fips202.c     ****         BCe = ROL(Ego, 55);
 2302              	 .loc 1 293 13 view .LVU849
 2303 0c22 6340     	 eors r3,r3,r4
 294:fips202.c     ****         Eku ^= Du;
 2304              	 .loc 1 294 13 view .LVU850
 2305 0c24 560A     	 lsrs r6,r2,#9
 2306 0c26 46EAC356 	 orr r6,r6,r3,lsl#23
 2307 0c2a 5B0A     	 lsrs r3,r3,#9
 2308 0c2c 43EAC253 	 orr r3,r3,r2,lsl#23
 2309              	.LVL313:
 295:fips202.c     ****         BCi = ROL(Eku, 39);
 2310              	 .loc 1 295 9 is_stmt 1 view .LVU851
 296:fips202.c     ****         Ema ^= Da;
 2311              	 .loc 1 296 9 view .LVU852
 295:fips202.c     ****         BCi = ROL(Eku, 39);
 2312              	 .loc 1 295 13 is_stmt 0 view .LVU853
 2313 0c30 089C     	 ldr r4,[sp,#32]
 2314 0c32 329A     	 ldr r2,[sp,#200]
 2315 0c34 6240     	 eors r2,r2,r4
 2316 0c36 339C     	 ldr r4,[sp,#204]
 288:fips202.c     ****         Amu = BCu ^ ((~BCa) & BCe);
 2317              	 .loc 1 288 13 view .LVU854
 2318 0c38 88EA0E0E 	 eor lr,r8,lr
 295:fips202.c     ****         BCi = ROL(Eku, 39);
 2319              	 .loc 1 295 13 view .LVU855
 2320 0c3c 6540     	 eors r5,r5,r4
 296:fips202.c     ****         Ema ^= Da;
 2321              	 .loc 1 296 13 view .LVU856
 2322 0c3e 4FEA5268 	 lsr r8,r2,#25
 2323 0c42 48EAC518 	 orr r8,r8,r5,lsl#7
 2324 0c46 6D0E     	 lsrs r5,r5,#25
 2325 0c48 45EAC215 	 orr r5,r5,r2,lsl#7
 2326              	.LVL314:
 2327              	 .loc 1 297 9 is_stmt 1 view .LVU857
 298:fips202.c     ****         BCo = ROL(Ema, 41);
 2328              	 .loc 1 298 9 view .LVU858
 297:fips202.c     ****         BCo = ROL(Ema, 41);
 2329              	 .loc 1 297 13 is_stmt 0 view .LVU859
 2330 0c4c 019C     	 ldr r4,[sp,#4]
 2331 0c4e 389A     	 ldr r2,[sp,#224]
 288:fips202.c     ****         Amu = BCu ^ ((~BCa) & BCe);
 2332              	 .loc 1 288 13 view .LVU860
 2333 0c50 CDF8B8E0 	 str lr,[sp,#184]
 2334              	.LVL315:
 297:fips202.c     ****         BCo = ROL(Ema, 41);
 2335              	 .loc 1 297 13 view .LVU861
 2336 0c54 6240     	 eors r2,r2,r4
 2337 0c56 399C     	 ldr r4,[sp,#228]
 2338              	 .loc 1 298 13 view .LVU862
 2339 0c58 4FEAD25E 	 lsr lr,r2,#23
 297:fips202.c     ****         BCo = ROL(Ema, 41);
 2340              	 .loc 1 297 13 view .LVU863
 2341 0c5c 7C40     	 eors r4,r4,r7
 2342              	 .loc 1 298 13 view .LVU864
 2343 0c5e 4EEA442E 	 orr lr,lr,r4,lsl#9
 2344 0c62 E40D     	 lsrs r4,r4,#23
 2345 0c64 44EA4224 	 orr r4,r4,r2,lsl#9
 2346              	.LVL316:
 299:fips202.c     ****         Ese ^= De;
 2347              	 .loc 1 299 9 is_stmt 1 view .LVU865
 300:fips202.c     ****         BCu = ROL(Ese, 2);
 2348              	 .loc 1 300 9 view .LVU866
 299:fips202.c     ****         Ese ^= De;
 2349              	 .loc 1 299 13 is_stmt 0 view .LVU867
 2350 0c68 039F     	 ldr r7,[sp,#12]
 2351 0c6a 349A     	 ldr r2,[sp,#208]
 2352 0c6c 82EA0709 	 eor r9,r2,r7
 2353 0c70 359A     	 ldr r2,[sp,#212]
 2354 0c72 049F     	 ldr r7,[sp,#16]
 2355 0c74 7A40     	 eors r2,r2,r7
 2356              	 .loc 1 300 13 view .LVU868
 2357 0c76 4FEA8907 	 lsl r7,r9,#2
 2358 0c7a 47EA9277 	 orr r7,r7,r2,lsr#30
 2359 0c7e 9200     	 lsls r2,r2,#2
 2360 0c80 42EA9972 	 orr r2,r2,r9,lsr#30
 2361              	.LVL317:
 301:fips202.c     ****         Asa = BCa ^ ((~BCe) & BCi);
 2362              	 .loc 1 301 9 is_stmt 1 view .LVU869
 2363              	 .loc 1 301 29 is_stmt 0 view .LVU870
 2364 0c84 28EA060A 	 bic r10,r8,r6
 2365 0c88 25EA0309 	 bic r9,r5,r3
 2366              	 .loc 1 301 13 view .LVU871
 2367 0c8c 89EA0109 	 eor r9,r9,r1
 2368 0c90 8AEA0C0A 	 eor r10,r10,ip
 2369 0c94 CDF8C8A0 	 str r10,[sp,#200]
 2370              	.LVL318:
 2371              	 .loc 1 301 13 view .LVU872
 2372 0c98 CDF8CC90 	 str r9,[sp,#204]
 2373              	.LVL319:
 302:fips202.c     ****         Ase = BCe ^ ((~BCi) & BCo);
 2374              	 .loc 1 302 9 is_stmt 1 view .LVU873
 2375              	 .loc 1 302 29 is_stmt 0 view .LVU874
 2376 0c9c 2EEA080A 	 bic r10,lr,r8
 2377              	.LVL320:
 2378              	 .loc 1 302 29 view .LVU875
 2379 0ca0 24EA0509 	 bic r9,r4,r5
 2380              	.LVL321:
 2381              	 .loc 1 302 13 view .LVU876
 2382 0ca4 8AEA060A 	 eor r10,r10,r6
 2383 0ca8 89EA0309 	 eor r9,r9,r3
 2384 0cac CDF8D0A0 	 str r10,[sp,#208]
 2385              	.LVL322:
 2386              	 .loc 1 302 13 view .LVU877
 2387 0cb0 CDF8D490 	 str r9,[sp,#212]
 2388              	.LVL323:
 303:fips202.c     ****         Asi = BCi ^ ((~BCo) & BCu);
 2389              	 .loc 1 303 9 is_stmt 1 view .LVU878
 2390              	 .loc 1 303 29 is_stmt 0 view .LVU879
 2391 0cb4 27EA0E0A 	 bic r10,r7,lr
 2392              	.LVL324:
 2393              	 .loc 1 303 29 view .LVU880
 2394 0cb8 22EA0409 	 bic r9,r2,r4
 2395              	.LVL325:
 2396              	 .loc 1 303 13 view .LVU881
 2397 0cbc 8AEA0808 	 eor r8,r10,r8
 2398              	.LVL326:
 2399              	 .loc 1 303 13 view .LVU882
 2400 0cc0 89EA0505 	 eor r5,r9,r5
 2401 0cc4 CDF8D880 	 str r8,[sp,#216]
 2402              	.LVL327:
 2403              	 .loc 1 303 13 view .LVU883
 2404 0cc8 3795     	 str r5,[sp,#220]
 2405              	.LVL328:
 304:fips202.c     ****         Aso = BCo ^ ((~BCu) & BCa);
 2406              	 .loc 1 304 9 is_stmt 1 view .LVU884
 2407              	 .loc 1 304 29 is_stmt 0 view .LVU885
 2408 0cca 2CEA0708 	 bic r8,ip,r7
 2409              	.LVL329:
 2410              	 .loc 1 304 29 view .LVU886
 2411 0cce 21EA0205 	 bic r5,r1,r2
 2412              	.LVL330:
 305:fips202.c     ****         Asu = BCu ^ ((~BCa) & BCe);
 2413              	 .loc 1 305 29 view .LVU887
 2414 0cd2 26EA0C06 	 bic r6,r6,ip
 2415              	.LVL331:
 2416              	 .loc 1 305 29 view .LVU888
 2417 0cd6 23EA0103 	 bic r3,r3,r1
 304:fips202.c     ****         Aso = BCo ^ ((~BCu) & BCa);
 2418              	 .loc 1 304 13 view .LVU889
 2419 0cda 88EA0E0E 	 eor lr,r8,lr
 2420              	.LVL332:
 2421              	 .loc 1 305 13 view .LVU890
 2422 0cde 86EA0701 	 eor r1,r6,r7
 2423              	.LVL333:
 304:fips202.c     ****         Aso = BCo ^ ((~BCu) & BCa);
 2424              	 .loc 1 304 13 view .LVU891
 2425 0ce2 6C40     	 eors r4,r4,r5
 2426              	.LVL334:
 2427              	 .loc 1 305 13 view .LVU892
 2428 0ce4 3A91     	 str r1,[sp,#232]
 2429              	.LVL335:
 304:fips202.c     ****         Aso = BCo ^ ((~BCu) & BCa);
 2430              	 .loc 1 304 13 view .LVU893
 2431 0ce6 CDF8E0E0 	 str lr,[sp,#224]
 2432              	.LVL336:
 304:fips202.c     ****         Aso = BCo ^ ((~BCu) & BCa);
 2433              	 .loc 1 304 13 view .LVU894
 2434 0cea 3994     	 str r4,[sp,#228]
 2435              	.LVL337:
 2436              	 .loc 1 305 9 is_stmt 1 view .LVU895
 2437              	 .loc 1 305 13 is_stmt 0 view .LVU896
 2438 0cec 5340     	 eors r3,r3,r2
 2439              	.LVL338:
 116:fips202.c     ****         //    prepareTheta
 2440              	 .loc 1 116 44 is_stmt 1 discriminator 3 view .LVU897
 116:fips202.c     ****         //    prepareTheta
 2441              	 .loc 1 116 27 discriminator 1 view .LVU898
 2442 0cee 009A     	 ldr r2,[sp]
 2443              	.LVL339:
 116:fips202.c     ****         //    prepareTheta
 2444              	 .loc 1 116 27 is_stmt 0 discriminator 1 view .LVU899
 2445 0cf0 1032     	 adds r2,r2,#16
 2446 0cf2 0092     	 str r2,[sp]
 2447 0cf4 0099     	 ldr r1,[sp]
 2448              	.LVL340:
 116:fips202.c     ****         //    prepareTheta
 2449              	 .loc 1 116 27 discriminator 1 view .LVU900
 2450 0cf6 3C4A     	 ldr r2,.L7
 2451 0cf8 8A42     	 cmp r2,r1
 2452 0cfa 7FF4FFA9 	 bne .L2
 306:fips202.c     ****     }
 307:fips202.c     **** 
 308:fips202.c     ****     // copyToState(state, A)
 309:fips202.c     ****     state[0] = Aba;
 2453              	 .loc 1 309 5 is_stmt 1 view .LVU901
 2454              	 .loc 1 309 14 is_stmt 0 view .LVU902
 2455 0cfe 0A9A     	 ldr r2,[sp,#40]
 2456 0d00 0260     	 str r2,[r0]
 2457 0d02 0B9A     	 ldr r2,[sp,#44]
 2458 0d04 4260     	 str r2,[r0,#4]
 310:fips202.c     ****     state[1] = Abe;
 2459              	 .loc 1 310 5 is_stmt 1 view .LVU903
 2460              	 .loc 1 310 14 is_stmt 0 view .LVU904
 2461 0d06 0C9A     	 ldr r2,[sp,#48]
 2462 0d08 8260     	 str r2,[r0,#8]
 2463 0d0a 0D9A     	 ldr r2,[sp,#52]
 2464 0d0c C260     	 str r2,[r0,#12]
 311:fips202.c     ****     state[2] = Abi;
 2465              	 .loc 1 311 5 is_stmt 1 view .LVU905
 2466              	 .loc 1 311 14 is_stmt 0 view .LVU906
 2467 0d0e 0E9A     	 ldr r2,[sp,#56]
 2468 0d10 0261     	 str r2,[r0,#16]
 2469 0d12 0F9A     	 ldr r2,[sp,#60]
 2470 0d14 4261     	 str r2,[r0,#20]
 312:fips202.c     ****     state[3] = Abo;
 2471              	 .loc 1 312 5 is_stmt 1 view .LVU907
 2472              	 .loc 1 312 14 is_stmt 0 view .LVU908
 2473 0d16 109A     	 ldr r2,[sp,#64]
 2474 0d18 8261     	 str r2,[r0,#24]
 2475 0d1a 119A     	 ldr r2,[sp,#68]
 2476 0d1c C261     	 str r2,[r0,#28]
 313:fips202.c     ****     state[4] = Abu;
 2477              	 .loc 1 313 5 is_stmt 1 view .LVU909
 2478              	 .loc 1 313 14 is_stmt 0 view .LVU910
 2479 0d1e 129A     	 ldr r2,[sp,#72]
 2480 0d20 0262     	 str r2,[r0,#32]
 2481 0d22 139A     	 ldr r2,[sp,#76]
 2482 0d24 4262     	 str r2,[r0,#36]
 314:fips202.c     ****     state[5] = Aga;
 2483              	 .loc 1 314 5 is_stmt 1 view .LVU911
 2484              	 .loc 1 314 14 is_stmt 0 view .LVU912
 2485 0d26 149A     	 ldr r2,[sp,#80]
 2486 0d28 8262     	 str r2,[r0,#40]
 2487 0d2a 159A     	 ldr r2,[sp,#84]
 2488 0d2c C262     	 str r2,[r0,#44]
 315:fips202.c     ****     state[6] = Age;
 2489              	 .loc 1 315 5 is_stmt 1 view .LVU913
 2490              	 .loc 1 315 14 is_stmt 0 view .LVU914
 2491 0d2e 169A     	 ldr r2,[sp,#88]
 2492 0d30 0263     	 str r2,[r0,#48]
 2493 0d32 179A     	 ldr r2,[sp,#92]
 2494 0d34 4263     	 str r2,[r0,#52]
 316:fips202.c     ****     state[7] = Agi;
 2495              	 .loc 1 316 5 is_stmt 1 view .LVU915
 2496              	 .loc 1 316 14 is_stmt 0 view .LVU916
 2497 0d36 189A     	 ldr r2,[sp,#96]
 2498 0d38 8263     	 str r2,[r0,#56]
 2499 0d3a 199A     	 ldr r2,[sp,#100]
 2500 0d3c C263     	 str r2,[r0,#60]
 317:fips202.c     ****     state[8] = Ago;
 2501              	 .loc 1 317 5 is_stmt 1 view .LVU917
 2502              	 .loc 1 317 14 is_stmt 0 view .LVU918
 2503 0d3e 1A9A     	 ldr r2,[sp,#104]
 2504 0d40 0264     	 str r2,[r0,#64]
 2505 0d42 1B9A     	 ldr r2,[sp,#108]
 2506 0d44 4264     	 str r2,[r0,#68]
 318:fips202.c     ****     state[9] = Agu;
 2507              	 .loc 1 318 5 is_stmt 1 view .LVU919
 2508              	 .loc 1 318 14 is_stmt 0 view .LVU920
 2509 0d46 1C9A     	 ldr r2,[sp,#112]
 2510 0d48 8264     	 str r2,[r0,#72]
 2511 0d4a 1D9A     	 ldr r2,[sp,#116]
 2512 0d4c C264     	 str r2,[r0,#76]
 319:fips202.c     ****     state[10] = Aka;
 2513              	 .loc 1 319 5 is_stmt 1 view .LVU921
 2514              	 .loc 1 319 15 is_stmt 0 view .LVU922
 2515 0d4e 1E9A     	 ldr r2,[sp,#120]
 2516 0d50 0265     	 str r2,[r0,#80]
 2517 0d52 1F9A     	 ldr r2,[sp,#124]
 2518 0d54 4265     	 str r2,[r0,#84]
 320:fips202.c     ****     state[11] = Ake;
 2519              	 .loc 1 320 5 is_stmt 1 view .LVU923
 2520              	 .loc 1 320 15 is_stmt 0 view .LVU924
 2521 0d56 209A     	 ldr r2,[sp,#128]
 2522 0d58 8265     	 str r2,[r0,#88]
 2523 0d5a 219A     	 ldr r2,[sp,#132]
 2524 0d5c C265     	 str r2,[r0,#92]
 321:fips202.c     ****     state[12] = Aki;
 2525              	 .loc 1 321 5 is_stmt 1 view .LVU925
 2526              	 .loc 1 321 15 is_stmt 0 view .LVU926
 2527 0d5e 229A     	 ldr r2,[sp,#136]
 2528 0d60 0266     	 str r2,[r0,#96]
 2529 0d62 239A     	 ldr r2,[sp,#140]
 2530 0d64 4266     	 str r2,[r0,#100]
 322:fips202.c     ****     state[13] = Ako;
 2531              	 .loc 1 322 5 is_stmt 1 view .LVU927
 2532              	 .loc 1 322 15 is_stmt 0 view .LVU928
 2533 0d66 249A     	 ldr r2,[sp,#144]
 2534 0d68 8266     	 str r2,[r0,#104]
 2535 0d6a 259A     	 ldr r2,[sp,#148]
 2536 0d6c C266     	 str r2,[r0,#108]
 323:fips202.c     ****     state[14] = Aku;
 2537              	 .loc 1 323 5 is_stmt 1 view .LVU929
 2538              	 .loc 1 323 15 is_stmt 0 view .LVU930
 2539 0d6e 269A     	 ldr r2,[sp,#152]
 2540 0d70 0267     	 str r2,[r0,#112]
 2541 0d72 279A     	 ldr r2,[sp,#156]
 2542 0d74 4267     	 str r2,[r0,#116]
 324:fips202.c     ****     state[15] = Ama;
 2543              	 .loc 1 324 5 is_stmt 1 view .LVU931
 2544              	 .loc 1 324 15 is_stmt 0 view .LVU932
 2545 0d76 289A     	 ldr r2,[sp,#160]
 2546 0d78 8267     	 str r2,[r0,#120]
 2547 0d7a 299A     	 ldr r2,[sp,#164]
 2548 0d7c C267     	 str r2,[r0,#124]
 325:fips202.c     ****     state[16] = Ame;
 2549              	 .loc 1 325 5 is_stmt 1 view .LVU933
 2550              	 .loc 1 325 15 is_stmt 0 view .LVU934
 2551 0d7e 2A9A     	 ldr r2,[sp,#168]
 2552 0d80 C0F88020 	 str r2,[r0,#128]
 2553 0d84 2B9A     	 ldr r2,[sp,#172]
 2554 0d86 C0F88420 	 str r2,[r0,#132]
 326:fips202.c     ****     state[17] = Ami;
 2555              	 .loc 1 326 5 is_stmt 1 view .LVU935
 2556              	 .loc 1 326 15 is_stmt 0 view .LVU936
 2557 0d8a 2C9A     	 ldr r2,[sp,#176]
 2558 0d8c C0F88820 	 str r2,[r0,#136]
 2559 0d90 2D9A     	 ldr r2,[sp,#180]
 2560 0d92 C0F88C20 	 str r2,[r0,#140]
 327:fips202.c     ****     state[18] = Amo;
 2561              	 .loc 1 327 5 is_stmt 1 view .LVU937
 2562              	 .loc 1 327 15 is_stmt 0 view .LVU938
 2563 0d96 2E9A     	 ldr r2,[sp,#184]
 2564 0d98 C0F89020 	 str r2,[r0,#144]
 2565 0d9c 2F9A     	 ldr r2,[sp,#188]
 2566 0d9e C0F89420 	 str r2,[r0,#148]
 328:fips202.c     ****     state[19] = Amu;
 2567              	 .loc 1 328 5 is_stmt 1 view .LVU939
 2568              	 .loc 1 328 15 is_stmt 0 view .LVU940
 2569 0da2 309A     	 ldr r2,[sp,#192]
 2570 0da4 C0F89820 	 str r2,[r0,#152]
 2571 0da8 319A     	 ldr r2,[sp,#196]
 2572 0daa C0F89C20 	 str r2,[r0,#156]
 329:fips202.c     ****     state[20] = Asa;
 2573              	 .loc 1 329 5 is_stmt 1 view .LVU941
 2574              	 .loc 1 329 15 is_stmt 0 view .LVU942
 2575 0dae 329A     	 ldr r2,[sp,#200]
 2576 0db0 C0F8A020 	 str r2,[r0,#160]
 2577 0db4 339A     	 ldr r2,[sp,#204]
 2578 0db6 C0F8A420 	 str r2,[r0,#164]
 330:fips202.c     ****     state[21] = Ase;
 2579              	 .loc 1 330 5 is_stmt 1 view .LVU943
 2580              	 .loc 1 330 15 is_stmt 0 view .LVU944
 2581 0dba 349A     	 ldr r2,[sp,#208]
 2582 0dbc C0F8A820 	 str r2,[r0,#168]
 2583 0dc0 359A     	 ldr r2,[sp,#212]
 2584 0dc2 C0F8AC20 	 str r2,[r0,#172]
 331:fips202.c     ****     state[22] = Asi;
 2585              	 .loc 1 331 5 is_stmt 1 view .LVU945
 2586              	 .loc 1 331 15 is_stmt 0 view .LVU946
 2587 0dc6 369A     	 ldr r2,[sp,#216]
 2588 0dc8 C0F8B020 	 str r2,[r0,#176]
 2589 0dcc 379A     	 ldr r2,[sp,#220]
 2590 0dce C0F8B420 	 str r2,[r0,#180]
 332:fips202.c     ****     state[23] = Aso;
 2591              	 .loc 1 332 5 is_stmt 1 view .LVU947
 333:fips202.c     ****     state[24] = Asu;
 2592              	 .loc 1 333 15 is_stmt 0 view .LVU948
 2593 0dd2 3A9A     	 ldr r2,[sp,#232]
 332:fips202.c     ****     state[23] = Aso;
 2594              	 .loc 1 332 15 view .LVU949
 2595 0dd4 C0F8B8E0 	 str lr,[r0,#184]
 2596 0dd8 C0F8BC40 	 str r4,[r0,#188]
 2597              	 .loc 1 333 5 is_stmt 1 view .LVU950
 2598              	 .loc 1 333 15 is_stmt 0 view .LVU951
 2599 0ddc C0E93023 	 strd r2,r3,[r0,#192]
 334:fips202.c     **** }
 2600              	 .loc 1 334 1 view .LVU952
 2601 0de0 3DB0     	 add sp,sp,#244
 2602              	.LCFI2:
 2603              	 .cfi_def_cfa_offset 36
 2604              	 
 2605 0de2 BDE8F08F 	 pop {r4,r5,r6,r7,r8,r9,r10,fp,pc}
 2606              	.LVL341:
 2607              	.L8:
 2608              	 .loc 1 334 1 view .LVU953
 2609 0de6 00BF     	 .align 2
 2610              	.L7:
 2611 0de8 C0000000 	 .word KeccakF_RoundConstants+192
 2612              	 .cfi_endproc
 2613              	.LFE2:
 2615              	 .section .text.keccak_squeezeblocks,"ax",%progbits
 2616              	 .align 1
 2617              	 .syntax unified
 2618              	 .thumb
 2619              	 .thumb_func
 2621              	keccak_squeezeblocks:
 2622              	.LVL342:
 2623              	.LFB4:
 335:fips202.c     **** 
 336:fips202.c     **** /*************************************************
 337:fips202.c     ****  * Name:        keccak_absorb
 338:fips202.c     ****  *
 339:fips202.c     ****  * Description: Absorb step of Keccak;
 340:fips202.c     ****  *              non-incremental, starts by zeroeing the state.
 341:fips202.c     ****  *
 342:fips202.c     ****  * Arguments:   - uint64_t *s: pointer to (uninitialized) output Keccak state
 343:fips202.c     ****  *              - uint32_t r: rate in bytes (e.g., 168 for SHAKE128)
 344:fips202.c     ****  *              - const uint8_t *m: pointer to input to be absorbed into s
 345:fips202.c     ****  *              - size_t mlen: length of input in bytes
 346:fips202.c     ****  *              - uint8_t p: domain-separation byte for different
 347:fips202.c     ****  *                                 Keccak-derived functions
 348:fips202.c     ****  **************************************************/
 349:fips202.c     **** static void keccak_absorb(uint64_t *s, uint32_t r, const uint8_t *m,
 350:fips202.c     ****                           size_t mlen, uint8_t p) {
 351:fips202.c     ****     size_t i;
 352:fips202.c     ****     uint8_t t[200];
 353:fips202.c     **** 
 354:fips202.c     ****     /* Zero state */
 355:fips202.c     ****     for (i = 0; i < 25; ++i) {
 356:fips202.c     ****         s[i] = 0;
 357:fips202.c     ****     }
 358:fips202.c     **** 
 359:fips202.c     ****     while (mlen >= r) {
 360:fips202.c     ****         for (i = 0; i < r / 8; ++i) {
 361:fips202.c     ****             s[i] ^= load64(m + 8 * i);
 362:fips202.c     ****         }
 363:fips202.c     **** 
 364:fips202.c     ****         KeccakF1600_StatePermute(s);
 365:fips202.c     ****         mlen -= r;
 366:fips202.c     ****         m += r;
 367:fips202.c     ****     }
 368:fips202.c     **** 
 369:fips202.c     ****     for (i = 0; i < r; ++i) {
 370:fips202.c     ****         t[i] = 0;
 371:fips202.c     ****     }
 372:fips202.c     ****     for (i = 0; i < mlen; ++i) {
 373:fips202.c     ****         t[i] = m[i];
 374:fips202.c     ****     }
 375:fips202.c     ****     t[i] = p;
 376:fips202.c     ****     t[r - 1] |= 128;
 377:fips202.c     ****     for (i = 0; i < r / 8; ++i) {
 378:fips202.c     ****         s[i] ^= load64(t + 8 * i);
 379:fips202.c     ****     }
 380:fips202.c     **** }
 381:fips202.c     **** 
 382:fips202.c     **** /*************************************************
 383:fips202.c     ****  * Name:        keccak_squeezeblocks
 384:fips202.c     ****  *
 385:fips202.c     ****  * Description: Squeeze step of Keccak. Squeezes full blocks of r bytes each.
 386:fips202.c     ****  *              Modifies the state. Can be called multiple times to keep
 387:fips202.c     ****  *              squeezing, i.e., is incremental.
 388:fips202.c     ****  *
 389:fips202.c     ****  * Arguments:   - uint8_t *h: pointer to output blocks
 390:fips202.c     ****  *              - size_t nblocks: number of blocks to be
 391:fips202.c     ****  *                                                squeezed (written to h)
 392:fips202.c     ****  *              - uint64_t *s: pointer to input/output Keccak state
 393:fips202.c     ****  *              - uint32_t r: rate in bytes (e.g., 168 for SHAKE128)
 394:fips202.c     ****  **************************************************/
 395:fips202.c     **** static void keccak_squeezeblocks(uint8_t *h, size_t nblocks,
 396:fips202.c     ****                                  uint64_t *s, uint32_t r) {
 2624              	 .loc 1 396 59 is_stmt 1 view-0
 2625              	 .cfi_startproc
 2626              	 
 2627              	 
 397:fips202.c     ****     while (nblocks > 0) {
 2628              	 .loc 1 397 5 view .LVU955
 396:fips202.c     ****     while (nblocks > 0) {
 2629              	 .loc 1 396 59 is_stmt 0 view .LVU956
 2630 0000 2DE9F84F 	 push {r3,r4,r5,r6,r7,r8,r9,r10,fp,lr}
 2631              	.LCFI3:
 2632              	 .cfi_def_cfa_offset 40
 2633              	 .cfi_offset 3,-40
 2634              	 .cfi_offset 4,-36
 2635              	 .cfi_offset 5,-32
 2636              	 .cfi_offset 6,-28
 2637              	 .cfi_offset 7,-24
 2638              	 .cfi_offset 8,-20
 2639              	 .cfi_offset 9,-16
 2640              	 .cfi_offset 10,-12
 2641              	 .cfi_offset 11,-8
 2642              	 .cfi_offset 14,-4
 396:fips202.c     ****     while (nblocks > 0) {
 2643              	 .loc 1 396 59 view .LVU957
 2644 0004 0546     	 mov r5,r0
 2645 0006 0C46     	 mov r4,r1
 2646 0008 9046     	 mov r8,r2
 2647 000a 1E46     	 mov r6,r3
 2648 000c 23F00709 	 bic r9,r3,#7
 2649              	.LVL343:
 2650              	.L10:
 2651              	 .loc 1 397 20 is_stmt 1 view .LVU958
 2652 0010 0CB9     	 cbnz r4,.L13
 398:fips202.c     ****         KeccakF1600_StatePermute(s);
 399:fips202.c     ****         for (size_t i = 0; i < (r >> 3); i++) {
 400:fips202.c     ****             store64(h + 8 * i, s[i]);
 401:fips202.c     ****         }
 402:fips202.c     ****         h += r;
 403:fips202.c     ****         nblocks--;
 404:fips202.c     ****     }
 405:fips202.c     **** }
 2653              	 .loc 1 405 1 is_stmt 0 view .LVU959
 2654 0012 BDE8F88F 	 pop {r3,r4,r5,r6,r7,r8,r9,r10,fp,pc}
 2655              	.LVL344:
 2656              	.L13:
 398:fips202.c     ****         KeccakF1600_StatePermute(s);
 2657              	 .loc 1 398 9 is_stmt 1 view .LVU960
 2658 0016 124B     	 ldr r3,.L16
 2659 0018 4046     	 mov r0,r8
 2660 001a 9847     	 blx r3
 2661              	.LVL345:
 399:fips202.c     ****             store64(h + 8 * i, s[i]);
 2662              	 .loc 1 399 9 view .LVU961
 2663              	.LBB6:
 399:fips202.c     ****             store64(h + 8 * i, s[i]);
 2664              	 .loc 1 399 14 view .LVU962
 399:fips202.c     ****             store64(h + 8 * i, s[i]);
 2665              	 .loc 1 399 30 discriminator 1 view .LVU963
 2666 001c A8F10800 	 sub r0,r8,#8
 399:fips202.c     ****             store64(h + 8 * i, s[i]);
 2667              	 .loc 1 399 35 is_stmt 0 discriminator 1 view .LVU964
 2668 0020 0023     	 movs r3,#0
 2669              	.LVL346:
 2670              	.L12:
 400:fips202.c     ****         }
 2671              	 .loc 1 400 13 is_stmt 1 view .LVU965
 2672 0022 50F808BF 	 ldr fp,[r0,#8]!
 2673 0026 D0F804A0 	 ldr r10,[r0,#4]
 2674              	.LVL347:
 2675              	.LBB7:
 2676              	.LBI7:
  44:fips202.c     ****     for (size_t i = 0; i < 8; ++i) {
 2677              	 .loc 1 44 13 view .LVU966
  45:fips202.c     ****         x[i] = (uint8_t) (u >> 8 * i);
 2678              	 .loc 1 45 5 view .LVU967
 2679              	.LBB8:
  45:fips202.c     ****         x[i] = (uint8_t) (u >> 8 * i);
 2680              	 .loc 1 45 10 view .LVU968
  45:fips202.c     ****         x[i] = (uint8_t) (u >> 8 * i);
 2681              	 .loc 1 45 26 discriminator 1 view .LVU969
 2682 002a 05EB030E 	 add lr,r5,r3
 2683              	.LVL348:
  45:fips202.c     ****         x[i] = (uint8_t) (u >> 8 * i);
 2684              	 .loc 1 45 26 is_stmt 0 discriminator 1 view .LVU970
 2685              	.LBE8:
 2686              	.LBE7:
 400:fips202.c     ****         }
 2687              	 .loc 1 400 13 view .LVU971
 2688 002e 0022     	 movs r2,#0
 2689              	.LVL349:
 2690              	.L11:
 2691              	.LBB10:
 2692              	.LBB9:
  46:fips202.c     ****     }
 2693              	 .loc 1 46 9 is_stmt 1 view .LVU972
  46:fips202.c     ****     }
 2694              	 .loc 1 46 29 is_stmt 0 view .LVU973
 2695 0030 C2F1200C 	 rsb ip,r2,#32
 2696 0034 A2F12007 	 sub r7,r2,#32
 2697 0038 2BFA02F1 	 lsr r1,fp,r2
 2698 003c 0AFA0CFC 	 lsl ip,r10,ip
 2699 0040 41EA0C01 	 orr r1,r1,ip
 2700 0044 2AFA07F7 	 lsr r7,r10,r7
  45:fips202.c     ****         x[i] = (uint8_t) (u >> 8 * i);
 2701              	 .loc 1 45 26 discriminator 1 view .LVU974
 2702 0048 0832     	 adds r2,r2,#8
  46:fips202.c     ****     }
 2703              	 .loc 1 46 29 view .LVU975
 2704 004a 3943     	 orrs r1,r1,r7
  45:fips202.c     ****         x[i] = (uint8_t) (u >> 8 * i);
 2705              	 .loc 1 45 26 discriminator 1 view .LVU976
 2706 004c 402A     	 cmp r2,#64
  46:fips202.c     ****     }
 2707              	 .loc 1 46 16 view .LVU977
 2708 004e 0EF8011B 	 strb r1,[lr],#1
  45:fips202.c     ****         x[i] = (uint8_t) (u >> 8 * i);
 2709              	 .loc 1 45 31 is_stmt 1 discriminator 3 view .LVU978
  45:fips202.c     ****         x[i] = (uint8_t) (u >> 8 * i);
 2710              	 .loc 1 45 26 discriminator 1 view .LVU979
 2711 0052 EDD1     	 bne .L11
 2712              	.LVL350:
  45:fips202.c     ****         x[i] = (uint8_t) (u >> 8 * i);
 2713              	 .loc 1 45 26 is_stmt 0 discriminator 1 view .LVU980
 2714              	.LBE9:
 2715              	.LBE10:
 399:fips202.c     ****             store64(h + 8 * i, s[i]);
 2716              	 .loc 1 399 43 is_stmt 1 discriminator 3 view .LVU981
 399:fips202.c     ****             store64(h + 8 * i, s[i]);
 2717              	 .loc 1 399 30 discriminator 1 view .LVU982
 2718 0054 0833     	 adds r3,r3,#8
 2719 0056 4B45     	 cmp r3,r9
 2720 0058 E3D1     	 bne .L12
 2721              	.LBE6:
 402:fips202.c     ****         nblocks--;
 2722              	 .loc 1 402 9 view .LVU983
 402:fips202.c     ****         nblocks--;
 2723              	 .loc 1 402 11 is_stmt 0 view .LVU984
 2724 005a 3544     	 add r5,r5,r6
 2725              	.LVL351:
 403:fips202.c     ****     }
 2726              	 .loc 1 403 9 is_stmt 1 view .LVU985
 403:fips202.c     ****     }
 2727              	 .loc 1 403 16 is_stmt 0 view .LVU986
 2728 005c 013C     	 subs r4,r4,#1
 2729              	.LVL352:
 403:fips202.c     ****     }
 2730              	 .loc 1 403 16 view .LVU987
 2731 005e D7E7     	 b .L10
 2732              	.L17:
 2733              	 .align 2
 2734              	.L16:
 2735 0060 00000000 	 .word KeccakF1600_StatePermute
 2736              	 .cfi_endproc
 2737              	.LFE4:
 2739              	 .section .text.keccak_inc_init,"ax",%progbits
 2740              	 .align 1
 2741              	 .syntax unified
 2742              	 .thumb
 2743              	 .thumb_func
 2745              	keccak_inc_init:
 2746              	.LVL353:
 2747              	.LFB5:
 406:fips202.c     **** 
 407:fips202.c     **** /*************************************************
 408:fips202.c     ****  * Name:        keccak_inc_init
 409:fips202.c     ****  *
 410:fips202.c     ****  * Description: Initializes the incremental Keccak state to zero.
 411:fips202.c     ****  *
 412:fips202.c     ****  * Arguments:   - uint64_t *s_inc: pointer to input/output incremental state
 413:fips202.c     ****  *                First 25 values represent Keccak state.
 414:fips202.c     ****  *                26th value represents either the number of absorbed bytes
 415:fips202.c     ****  *                that have not been permuted, or not-yet-squeezed bytes.
 416:fips202.c     ****  **************************************************/
 417:fips202.c     **** static void keccak_inc_init(uint64_t *s_inc) {
 2748              	 .loc 1 417 46 is_stmt 1 view-0
 2749              	 .cfi_startproc
 2750              	 
 2751              	 
 418:fips202.c     ****     size_t i;
 2752              	 .loc 1 418 5 view .LVU989
 419:fips202.c     **** 
 420:fips202.c     ****     for (i = 0; i < 25; ++i) {
 2753              	 .loc 1 420 5 view .LVU990
 2754              	 .loc 1 420 19 discriminator 1 view .LVU991
 417:fips202.c     ****     size_t i;
 2755              	 .loc 1 417 46 is_stmt 0 view .LVU992
 2756 0000 10B5     	 push {r4,lr}
 2757              	.LCFI4:
 2758              	 .cfi_def_cfa_offset 8
 2759              	 .cfi_offset 4,-8
 2760              	 .cfi_offset 14,-4
 421:fips202.c     ****         s_inc[i] = 0;
 2761              	 .loc 1 421 18 view .LVU993
 2762 0002 054B     	 ldr r3,.L19
 2763 0004 C822     	 movs r2,#200
 2764 0006 0021     	 movs r1,#0
 417:fips202.c     ****     size_t i;
 2765              	 .loc 1 417 46 view .LVU994
 2766 0008 0446     	 mov r4,r0
 2767              	 .loc 1 421 18 view .LVU995
 2768 000a 9847     	 blx r3
 2769              	.LVL354:
 422:fips202.c     ****     }
 423:fips202.c     ****     s_inc[25] = 0;
 2770              	 .loc 1 423 5 is_stmt 1 view .LVU996
 2771              	 .loc 1 423 15 is_stmt 0 view .LVU997
 2772 000c 0022     	 movs r2,#0
 2773 000e 0023     	 movs r3,#0
 2774 0010 C4E93223 	 strd r2,[r4,#200]
 424:fips202.c     **** }
 2775              	 .loc 1 424 1 view .LVU998
 2776 0014 10BD     	 pop {r4,pc}
 2777              	.LVL355:
 2778              	.L20:
 2779              	 .loc 1 424 1 view .LVU999
 2780 0016 00BF     	 .align 2
 2781              	.L19:
 2782 0018 00000000 	 .word memset
 2783              	 .cfi_endproc
 2784              	.LFE5:
 2786              	 .section .text.keccak_inc_absorb,"ax",%progbits
 2787              	 .align 1
 2788              	 .syntax unified
 2789              	 .thumb
 2790              	 .thumb_func
 2792              	keccak_inc_absorb:
 2793              	.LVL356:
 2794              	.LFB6:
 425:fips202.c     **** 
 426:fips202.c     **** /*************************************************
 427:fips202.c     ****  * Name:        keccak_inc_absorb
 428:fips202.c     ****  *
 429:fips202.c     ****  * Description: Incremental keccak absorb
 430:fips202.c     ****  *              Preceded by keccak_inc_init, succeeded by keccak_inc_finalize
 431:fips202.c     ****  *
 432:fips202.c     ****  * Arguments:   - uint64_t *s_inc: pointer to input/output incremental state
 433:fips202.c     ****  *                First 25 values represent Keccak state.
 434:fips202.c     ****  *                26th value represents either the number of absorbed bytes
 435:fips202.c     ****  *                that have not been permuted, or not-yet-squeezed bytes.
 436:fips202.c     ****  *              - uint32_t r: rate in bytes (e.g., 168 for SHAKE128)
 437:fips202.c     ****  *              - const uint8_t *m: pointer to input to be absorbed into s
 438:fips202.c     ****  *              - size_t mlen: length of input in bytes
 439:fips202.c     ****  **************************************************/
 440:fips202.c     **** static void keccak_inc_absorb(uint64_t *s_inc, uint32_t r, const uint8_t *m,
 441:fips202.c     ****                               size_t mlen) {
 2795              	 .loc 1 441 44 is_stmt 1 view-0
 2796              	 .cfi_startproc
 2797              	 
 2798              	 
 442:fips202.c     ****     size_t i;
 2799              	 .loc 1 442 5 view .LVU1001
 443:fips202.c     **** 
 444:fips202.c     ****     /* Recall that s_inc[25] is the non-absorbed bytes xored into the state */
 445:fips202.c     ****     while (mlen + s_inc[25] >= r) {
 2800              	 .loc 1 445 5 view .LVU1002
 441:fips202.c     ****     size_t i;
 2801              	 .loc 1 441 44 is_stmt 0 view .LVU1003
 2802 0000 2DE9F84F 	 push {r3,r4,r5,r6,r7,r8,r9,r10,fp,lr}
 2803              	.LCFI5:
 2804              	 .cfi_def_cfa_offset 40
 2805              	 .cfi_offset 3,-40
 2806              	 .cfi_offset 4,-36
 2807              	 .cfi_offset 5,-32
 2808              	 .cfi_offset 6,-28
 2809              	 .cfi_offset 7,-24
 2810              	 .cfi_offset 8,-20
 2811              	 .cfi_offset 9,-16
 2812              	 .cfi_offset 10,-12
 2813              	 .cfi_offset 11,-8
 2814              	 .cfi_offset 14,-4
 446:fips202.c     ****         for (i = 0; i < r - (uint32_t)s_inc[25]; i++) {
 447:fips202.c     ****             /* Take the i'th byte from message
 448:fips202.c     ****                xor with the s_inc[25] + i'th byte of the state; little-endian */
 449:fips202.c     ****             s_inc[(s_inc[25] + i) >> 3] ^= (uint64_t)m[i] << (8 * ((s_inc[25] + i) & 0x07));
 450:fips202.c     ****         }
 451:fips202.c     ****         mlen -= (size_t)(r - s_inc[25]);
 452:fips202.c     ****         m += r - s_inc[25];
 453:fips202.c     ****         s_inc[25] = 0;
 454:fips202.c     **** 
 455:fips202.c     ****         KeccakF1600_StatePermute(s_inc);
 2815              	 .loc 1 455 9 view .LVU1004
 2816 0004 DFF8F490 	 ldr r9,.L28
 441:fips202.c     ****     size_t i;
 2817              	 .loc 1 441 44 view .LVU1005
 2818 0008 8846     	 mov r8,r1
 2819 000a 1546     	 mov r5,r2
 2820 000c 1C46     	 mov r4,r3
 453:fips202.c     **** 
 2821              	 .loc 1 453 19 view .LVU1006
 2822 000e 0026     	 movs r6,#0
 2823 0010 0027     	 movs r7,#0
 2824              	.LVL357:
 2825              	.L22:
 445:fips202.c     ****         for (i = 0; i < r - (uint32_t)s_inc[25]; i++) {
 2826              	 .loc 1 445 29 is_stmt 1 view .LVU1007
 445:fips202.c     ****         for (i = 0; i < r - (uint32_t)s_inc[25]; i++) {
 2827              	 .loc 1 445 17 is_stmt 0 view .LVU1008
 2828 0012 D0E93223 	 ldrd r2,r3,[r0,#200]
 2829 0016 A218     	 adds r2,r4,r2
 2830 0018 43F10003 	 adc r3,r3,#0
 445:fips202.c     ****         for (i = 0; i < r - (uint32_t)s_inc[25]; i++) {
 2831              	 .loc 1 445 29 view .LVU1009
 2832 001c 4245     	 cmp r2,r8
 2833 001e 73F10003 	 sbcs r3,r3,#0
 2834 0022 40D2     	 bcs .L27
 445:fips202.c     ****         for (i = 0; i < r - (uint32_t)s_inc[25]; i++) {
 2835              	 .loc 1 445 29 view .LVU1010
 2836 0024 0022     	 movs r2,#0
 2837 0026 1746     	 mov r7,r2
 2838              	.LVL358:
 2839              	.L25:
 456:fips202.c     ****     }
 457:fips202.c     **** 
 458:fips202.c     ****     for (i = 0; i < mlen; i++) {
 2840              	 .loc 1 458 19 is_stmt 1 discriminator 1 view .LVU1011
 2841 0028 9442     	 cmp r4,r2
 459:fips202.c     ****         s_inc[(s_inc[25] + i) >> 3] ^= (uint64_t)m[i] << (8 * ((s_inc[25] + i) & 0x07));
 2842              	 .loc 1 459 21 is_stmt 0 view .LVU1012
 2843 002a D0E93231 	 ldrd r3,r1,[r0,#200]
 458:fips202.c     ****         s_inc[(s_inc[25] + i) >> 3] ^= (uint64_t)m[i] << (8 * ((s_inc[25] + i) & 0x07));
 2844              	 .loc 1 458 19 discriminator 1 view .LVU1013
 2845 002e 3CD8     	 bhi .L26
 460:fips202.c     ****     }
 461:fips202.c     ****     s_inc[25] += mlen;
 2846              	 .loc 1 461 5 is_stmt 1 view .LVU1014
 2847              	 .loc 1 461 15 is_stmt 0 view .LVU1015
 2848 0030 E418     	 adds r4,r4,r3
 2849              	.LVL359:
 2850              	 .loc 1 461 15 view .LVU1016
 2851 0032 41F10001 	 adc r1,r1,#0
 2852 0036 C0E93241 	 strd r4,r1,[r0,#200]
 462:fips202.c     **** }
 2853              	 .loc 1 462 1 view .LVU1017
 2854 003a BDE8F88F 	 pop {r3,r4,r5,r6,r7,r8,r9,r10,fp,pc}
 2855              	.LVL360:
 2856              	.L23:
 449:fips202.c     ****         }
 2857              	 .loc 1 449 13 is_stmt 1 view .LVU1018
 449:fips202.c     ****         }
 2858              	 .loc 1 449 18 is_stmt 0 view .LVU1019
 2859 003e CB18     	 adds r3,r1,r3
 2860 0040 42F10002 	 adc r2,r2,#0
 2861 0044 4FEAD30C 	 lsr ip,r3,#3
 449:fips202.c     ****         }
 2862              	 .loc 1 449 59 view .LVU1020
 2863 0048 03F00703 	 and r3,r3,#7
 449:fips202.c     ****         }
 2864              	 .loc 1 449 18 view .LVU1021
 2865 004c 4CEA427C 	 orr ip,ip,r2,lsl#29
 449:fips202.c     ****         }
 2866              	 .loc 1 449 59 view .LVU1022
 2867 0050 DB00     	 lsls r3,r3,#3
 449:fips202.c     ****         }
 2868              	 .loc 1 449 44 view .LVU1023
 2869 0052 6A5C     	 ldrb r2,[r5,r1]
 449:fips202.c     ****         }
 2870              	 .loc 1 449 18 view .LVU1024
 2871 0054 00EBCC0E 	 add lr,r0,ip,lsl#3
 449:fips202.c     ****         }
 2872              	 .loc 1 449 59 view .LVU1025
 2873 0058 A3F1200A 	 sub r10,r3,#32
 2874 005c C3F1200B 	 rsb fp,r3,#32
 2875 0060 22FA0BFB 	 lsr fp,r2,fp
 2876 0064 02FA0AFA 	 lsl r10,r2,r10
 2877 0068 4AEA0B0A 	 orr r10,r10,fp
 2878 006c 02FA03FB 	 lsl fp,r2,r3
 449:fips202.c     ****         }
 2879              	 .loc 1 449 41 view .LVU1026
 2880 0070 50F83C20 	 ldr r2,[r0,ip,lsl#3]
 2881 0074 DEF80430 	 ldr r3,[lr,#4]
 2882 0078 82EA0B02 	 eor r2,r2,fp
 2883 007c 83EA0A03 	 eor r3,r3,r10
 2884 0080 40F83C20 	 str r2,[r0,ip,lsl#3]
 446:fips202.c     ****             /* Take the i'th byte from message
 2885              	 .loc 1 446 51 discriminator 3 view .LVU1027
 2886 0084 0131     	 adds r1,r1,#1
 2887              	.LVL361:
 449:fips202.c     ****         }
 2888              	 .loc 1 449 41 view .LVU1028
 2889 0086 CEF80430 	 str r3,[lr,#4]
 446:fips202.c     ****             /* Take the i'th byte from message
 2890              	 .loc 1 446 51 is_stmt 1 discriminator 3 view .LVU1029
 2891              	.LVL362:
 2892              	.L24:
 446:fips202.c     ****             /* Take the i'th byte from message
 2893              	 .loc 1 446 23 discriminator 1 view .LVU1030
 446:fips202.c     ****             /* Take the i'th byte from message
 2894              	 .loc 1 446 44 is_stmt 0 discriminator 1 view .LVU1031
 2895 008a D0E93232 	 ldrd r3,r2,[r0,#200]
 446:fips202.c     ****             /* Take the i'th byte from message
 2896              	 .loc 1 446 27 discriminator 1 view .LVU1032
 2897 008e A8EB030C 	 sub ip,r8,r3
 446:fips202.c     ****             /* Take the i'th byte from message
 2898              	 .loc 1 446 23 discriminator 1 view .LVU1033
 2899 0092 8C45     	 cmp ip,r1
 2900 0094 D3D8     	 bhi .L23
 451:fips202.c     ****         m += r - s_inc[25];
 2901              	 .loc 1 451 9 is_stmt 1 view .LVU1034
 451:fips202.c     ****         m += r - s_inc[25];
 2902              	 .loc 1 451 17 is_stmt 0 view .LVU1035
 2903 0096 A3EB0803 	 sub r3,r3,r8
 453:fips202.c     **** 
 2904              	 .loc 1 453 19 view .LVU1036
 2905 009a C0E93267 	 strd r6,[r0,#200]
 451:fips202.c     ****         m += r - s_inc[25];
 2906              	 .loc 1 451 14 view .LVU1037
 2907 009e 1C44     	 add r4,r4,r3
 2908              	.LVL363:
 452:fips202.c     ****         s_inc[25] = 0;
 2909              	 .loc 1 452 9 is_stmt 1 view .LVU1038
 452:fips202.c     ****         s_inc[25] = 0;
 2910              	 .loc 1 452 11 is_stmt 0 view .LVU1039
 2911 00a0 6544     	 add r5,r5,ip
 2912              	.LVL364:
 453:fips202.c     **** 
 2913              	 .loc 1 453 9 is_stmt 1 view .LVU1040
 455:fips202.c     ****     }
 2914              	 .loc 1 455 9 view .LVU1041
 2915 00a2 C847     	 blx r9
 2916              	.LVL365:
 455:fips202.c     ****     }
 2917              	 .loc 1 455 9 is_stmt 0 view .LVU1042
 2918 00a4 B5E7     	 b .L22
 2919              	.LVL366:
 2920              	.L27:
 446:fips202.c     ****             /* Take the i'th byte from message
 2921              	 .loc 1 446 16 view .LVU1043
 2922 00a6 0021     	 movs r1,#0
 2923 00a8 EFE7     	 b .L24
 2924              	.LVL367:
 2925              	.L26:
 459:fips202.c     ****     }
 2926              	 .loc 1 459 9 is_stmt 1 view .LVU1044
 459:fips202.c     ****     }
 2927              	 .loc 1 459 14 is_stmt 0 view .LVU1045
 2928 00aa D318     	 adds r3,r2,r3
 2929 00ac 47EB0101 	 adc r1,r7,r1
 2930 00b0 DE08     	 lsrs r6,r3,#3
 459:fips202.c     ****     }
 2931              	 .loc 1 459 55 view .LVU1046
 2932 00b2 03F00703 	 and r3,r3,#7
 459:fips202.c     ****     }
 2933              	 .loc 1 459 40 view .LVU1047
 2934 00b6 15F802E0 	 ldrb lr,[r5,r2]
 459:fips202.c     ****     }
 2935              	 .loc 1 459 14 view .LVU1048
 2936 00ba 46EA4176 	 orr r6,r6,r1,lsl#29
 459:fips202.c     ****     }
 2937              	 .loc 1 459 55 view .LVU1049
 2938 00be DB00     	 lsls r3,r3,#3
 459:fips202.c     ****     }
 2939              	 .loc 1 459 14 view .LVU1050
 2940 00c0 00EBC60C 	 add ip,r0,r6,lsl#3
 459:fips202.c     ****     }
 2941              	 .loc 1 459 55 view .LVU1051
 2942 00c4 A3F12001 	 sub r1,r3,#32
 2943 00c8 C3F12008 	 rsb r8,r3,#32
 2944 00cc 2EFA08F8 	 lsr r8,lr,r8
 2945 00d0 0EFA01F1 	 lsl r1,lr,r1
 2946 00d4 41EA0801 	 orr r1,r1,r8
 2947 00d8 0EFA03FE 	 lsl lr,lr,r3
 459:fips202.c     ****     }
 2948              	 .loc 1 459 37 view .LVU1052
 2949 00dc 50F83680 	 ldr r8,[r0,r6,lsl#3]
 2950 00e0 DCF80430 	 ldr r3,[ip,#4]
 2951 00e4 88EA0E0E 	 eor lr,r8,lr
 2952 00e8 4B40     	 eors r3,r3,r1
 2953 00ea 0132     	 adds r2,r2,#1
 2954              	.LVL368:
 459:fips202.c     ****     }
 2955              	 .loc 1 459 37 view .LVU1053
 2956 00ec 40F836E0 	 str lr,[r0,r6,lsl#3]
 2957 00f0 47F10007 	 adc r7,r7,#0
 2958 00f4 CCF80430 	 str r3,[ip,#4]
 458:fips202.c     ****         s_inc[(s_inc[25] + i) >> 3] ^= (uint64_t)m[i] << (8 * ((s_inc[25] + i) & 0x07));
 2959              	 .loc 1 458 28 is_stmt 1 discriminator 3 view .LVU1054
 2960              	.LVL369:
 458:fips202.c     ****         s_inc[(s_inc[25] + i) >> 3] ^= (uint64_t)m[i] << (8 * ((s_inc[25] + i) & 0x07));
 2961              	 .loc 1 458 28 is_stmt 0 discriminator 3 view .LVU1055
 2962 00f8 96E7     	 b .L25
 2963              	.L29:
 2964 00fa 00BF     	 .align 2
 2965              	.L28:
 2966 00fc 00000000 	 .word KeccakF1600_StatePermute
 2967              	 .cfi_endproc
 2968              	.LFE6:
 2970              	 .section .text.keccak_inc_finalize,"ax",%progbits
 2971              	 .align 1
 2972              	 .syntax unified
 2973              	 .thumb
 2974              	 .thumb_func
 2976              	keccak_inc_finalize:
 2977              	.LVL370:
 2978              	.LFB7:
 463:fips202.c     **** 
 464:fips202.c     **** /*************************************************
 465:fips202.c     ****  * Name:        keccak_inc_finalize
 466:fips202.c     ****  *
 467:fips202.c     ****  * Description: Finalizes Keccak absorb phase, prepares for squeezing
 468:fips202.c     ****  *
 469:fips202.c     ****  * Arguments:   - uint64_t *s_inc: pointer to input/output incremental state
 470:fips202.c     ****  *                First 25 values represent Keccak state.
 471:fips202.c     ****  *                26th value represents either the number of absorbed bytes
 472:fips202.c     ****  *                that have not been permuted, or not-yet-squeezed bytes.
 473:fips202.c     ****  *              - uint32_t r: rate in bytes (e.g., 168 for SHAKE128)
 474:fips202.c     ****  *              - uint8_t p: domain-separation byte for different
 475:fips202.c     ****  *                                 Keccak-derived functions
 476:fips202.c     ****  **************************************************/
 477:fips202.c     **** static void keccak_inc_finalize(uint64_t *s_inc, uint32_t r, uint8_t p) {
 2979              	 .loc 1 477 73 is_stmt 1 view-0
 2980              	 .cfi_startproc
 2981              	 
 2982              	 
 478:fips202.c     ****     /* After keccak_inc_absorb, we are guaranteed that s_inc[25] < r,
 479:fips202.c     ****        so we can always use one more byte for p in the current state. */
 480:fips202.c     ****     s_inc[s_inc[25] >> 3] ^= (uint64_t)p << (8 * (s_inc[25] & 0x07));
 2983              	 .loc 1 480 5 view .LVU1057
 477:fips202.c     ****     /* After keccak_inc_absorb, we are guaranteed that s_inc[25] < r,
 2984              	 .loc 1 477 73 is_stmt 0 view .LVU1058
 2985 0000 F0B5     	 push {r4,r5,r6,r7,lr}
 2986              	.LCFI6:
 2987              	 .cfi_def_cfa_offset 20
 2988              	 .cfi_offset 4,-20
 2989              	 .cfi_offset 5,-16
 2990              	 .cfi_offset 6,-12
 2991              	 .cfi_offset 7,-8
 2992              	 .cfi_offset 14,-4
 2993              	 .loc 1 480 16 view .LVU1059
 2994 0002 D0E93235 	 ldrd r3,r5,[r0,#200]
 2995              	 .loc 1 480 10 view .LVU1060
 2996 0006 DC08     	 lsrs r4,r3,#3
 2997              	 .loc 1 480 42 view .LVU1061
 2998 0008 03F00703 	 and r3,r3,#7
 2999 000c DB00     	 lsls r3,r3,#3
 3000              	 .loc 1 480 10 view .LVU1062
 3001 000e 44EA4574 	 orr r4,r4,r5,lsl#29
 3002              	 .loc 1 480 42 view .LVU1063
 3003 0012 C3F12006 	 rsb r6,r3,#32
 3004 0016 A3F12005 	 sub r5,r3,#32
 3005 001a 22FA06F6 	 lsr r6,r2,r6
 3006              	 .loc 1 480 10 view .LVU1064
 3007 001e 00EBC407 	 add r7,r0,r4,lsl#3
 3008              	 .loc 1 480 42 view .LVU1065
 3009 0022 02FA05F5 	 lsl r5,r2,r5
 3010 0026 3543     	 orrs r5,r5,r6
 3011              	 .loc 1 480 27 view .LVU1066
 3012 0028 50F83460 	 ldr r6,[r0,r4,lsl#3]
 3013              	 .loc 1 480 42 view .LVU1067
 3014 002c 9A40     	 lsls r2,r2,r3
 3015              	.LVL371:
 481:fips202.c     ****     s_inc[(r - 1) >> 3] ^= (uint64_t)128 << (8 * ((r - 1) & 0x07));
 3016              	 .loc 1 481 10 view .LVU1068
 3017 002e 0139     	 subs r1,r1,#1
 3018              	.LVL372:
 480:fips202.c     ****     s_inc[(r - 1) >> 3] ^= (uint64_t)128 << (8 * ((r - 1) & 0x07));
 3019              	 .loc 1 480 27 view .LVU1069
 3020 0030 7B68     	 ldr r3,[r7,#4]
 3021 0032 5640     	 eors r6,r6,r2
 3022              	 .loc 1 481 10 view .LVU1070
 3023 0034 21F00701 	 bic r1,r1,#7
 3024              	.LVL373:
 480:fips202.c     ****     s_inc[(r - 1) >> 3] ^= (uint64_t)128 << (8 * ((r - 1) & 0x07));
 3025              	 .loc 1 480 27 view .LVU1071
 3026 0038 40F83460 	 str r6,[r0,r4,lsl#3]
 3027 003c 6B40     	 eors r3,r3,r5
 3028              	 .loc 1 481 10 view .LVU1072
 3029 003e 0144     	 add r1,r1,r0
 480:fips202.c     ****     s_inc[(r - 1) >> 3] ^= (uint64_t)128 << (8 * ((r - 1) & 0x07));
 3030              	 .loc 1 480 27 view .LVU1073
 3031 0040 7B60     	 str r3,[r7,#4]
 3032              	 .loc 1 481 5 is_stmt 1 view .LVU1074
 3033              	 .loc 1 481 25 is_stmt 0 view .LVU1075
 3034 0042 4B68     	 ldr r3,[r1,#4]
 3035 0044 03F10043 	 add r3,r3,#-2147483648
 3036 0048 4B60     	 str r3,[r1,#4]
 482:fips202.c     ****     s_inc[25] = 0;
 3037              	 .loc 1 482 5 is_stmt 1 view .LVU1076
 3038              	 .loc 1 482 15 is_stmt 0 view .LVU1077
 3039 004a 0022     	 movs r2,#0
 3040 004c 0023     	 movs r3,#0
 3041 004e C0E93223 	 strd r2,[r0,#200]
 483:fips202.c     **** }
 3042              	 .loc 1 483 1 view .LVU1078
 3043 0052 F0BD     	 pop {r4,r5,r6,r7,pc}
 3044              	 .cfi_endproc
 3045              	.LFE7:
 3047              	 .section .text.keccak_inc_squeeze,"ax",%progbits
 3048              	 .align 1
 3049              	 .syntax unified
 3050              	 .thumb
 3051              	 .thumb_func
 3053              	keccak_inc_squeeze:
 3054              	.LVL374:
 3055              	.LFB8:
 484:fips202.c     **** 
 485:fips202.c     **** /*************************************************
 486:fips202.c     ****  * Name:        keccak_inc_squeeze
 487:fips202.c     ****  *
 488:fips202.c     ****  * Description: Incremental Keccak squeeze; can be called on byte-level
 489:fips202.c     ****  *
 490:fips202.c     ****  * Arguments:   - uint8_t *h: pointer to output bytes
 491:fips202.c     ****  *              - size_t outlen: number of bytes to be squeezed
 492:fips202.c     ****  *              - uint64_t *s_inc: pointer to input/output incremental state
 493:fips202.c     ****  *                First 25 values represent Keccak state.
 494:fips202.c     ****  *                26th value represents either the number of absorbed bytes
 495:fips202.c     ****  *                that have not been permuted, or not-yet-squeezed bytes.
 496:fips202.c     ****  *              - uint32_t r: rate in bytes (e.g., 168 for SHAKE128)
 497:fips202.c     ****  **************************************************/
 498:fips202.c     **** static void keccak_inc_squeeze(uint8_t *h, size_t outlen,
 499:fips202.c     ****                                uint64_t *s_inc, uint32_t r) {
 3056              	 .loc 1 499 61 is_stmt 1 view-0
 3057              	 .cfi_startproc
 3058              	 
 3059              	 
 500:fips202.c     ****     size_t i;
 3060              	 .loc 1 500 5 view .LVU1080
 501:fips202.c     **** 
 502:fips202.c     ****     /* First consume any bytes we still have sitting around */
 503:fips202.c     ****     for (i = 0; i < outlen && i < s_inc[25]; i++) {
 3061              	 .loc 1 503 5 view .LVU1081
 499:fips202.c     ****     size_t i;
 3062              	 .loc 1 499 61 is_stmt 0 view .LVU1082
 3063 0000 2DE9F843 	 push {r3,r4,r5,r6,r7,r8,r9,lr}
 3064              	.LCFI7:
 3065              	 .cfi_def_cfa_offset 32
 3066              	 .cfi_offset 3,-32
 3067              	 .cfi_offset 4,-28
 3068              	 .cfi_offset 5,-24
 3069              	 .cfi_offset 6,-20
 3070              	 .cfi_offset 7,-16
 3071              	 .cfi_offset 8,-12
 3072              	 .cfi_offset 9,-8
 3073              	 .cfi_offset 14,-4
 3074              	 .loc 1 503 5 view .LVU1083
 3075 0004 0026     	 movs r6,#0
 499:fips202.c     ****     size_t i;
 3076              	 .loc 1 499 61 view .LVU1084
 3077 0006 9846     	 mov r8,r3
 3078 0008 1746     	 mov r7,r2
 3079              	 .loc 1 503 5 view .LVU1085
 3080 000a 3346     	 mov r3,r6
 3081              	.LVL375:
 3082              	.L32:
 3083              	 .loc 1 503 28 is_stmt 1 discriminator 1 view .LVU1086
 3084 000c 8E42     	 cmp r6,r1
 3085              	 .loc 1 503 40 is_stmt 0 discriminator 3 view .LVU1087
 3086 000e D7E93242 	 ldrd r4,r2,[r7,#200]
 504:fips202.c     ****         /* There are s_inc[25] bytes left, so r - s_inc[25] is the first
 505:fips202.c     ****            available byte. We consume from there, i.e., up to r. */
 506:fips202.c     ****         h[i] = (uint8_t)(s_inc[(r - s_inc[25] + i) >> 3] >> (8 * ((r - s_inc[25] + i) & 0x07)));
 3087              	 .loc 1 506 10 view .LVU1088
 3088 0012 0546     	 mov r5,r0
 503:fips202.c     ****         /* There are s_inc[25] bytes left, so r - s_inc[25] is the first
 3089              	 .loc 1 503 28 discriminator 1 view .LVU1089
 3090 0014 03D2     	 bcs .L33
 503:fips202.c     ****         /* There are s_inc[25] bytes left, so r - s_inc[25] is the first
 3091              	 .loc 1 503 28 discriminator 3 view .LVU1090
 3092 0016 A642     	 cmp r6,r4
 3093 0018 73EB020C 	 sbcs ip,r3,r2
 3094 001c 0CD3     	 bcc .L34
 3095              	.L33:
 507:fips202.c     ****     }
 508:fips202.c     ****     h += i;
 3096              	 .loc 1 508 5 is_stmt 1 view .LVU1091
 3097              	.LVL376:
 509:fips202.c     ****     outlen -= i;
 3098              	 .loc 1 509 5 view .LVU1092
 510:fips202.c     ****     s_inc[25] -= i;
 3099              	 .loc 1 510 15 is_stmt 0 view .LVU1093
 3100 001e A41B     	 subs r4,r4,r6
 509:fips202.c     ****     outlen -= i;
 3101              	 .loc 1 509 12 view .LVU1094
 3102 0020 A1EB0609 	 sub r9,r1,r6
 3103              	.LVL377:
 3104              	 .loc 1 510 5 is_stmt 1 view .LVU1095
 511:fips202.c     **** 
 512:fips202.c     ****     /* Then squeeze the remaining necessary blocks */
 513:fips202.c     ****     while (outlen > 0) {
 514:fips202.c     ****         KeccakF1600_StatePermute(s_inc);
 3105              	 .loc 1 514 9 is_stmt 0 view .LVU1096
 3106 0024 2A4E     	 ldr r6,.L41
 3107              	.LVL378:
 510:fips202.c     ****     s_inc[25] -= i;
 3108              	 .loc 1 510 15 view .LVU1097
 3109 0026 62EB0302 	 sbc r2,r2,r3
 513:fips202.c     ****         KeccakF1600_StatePermute(s_inc);
 3110              	 .loc 1 513 5 is_stmt 1 view .LVU1098
 3111              	.LVL379:
 3112              	.L35:
 510:fips202.c     ****     s_inc[25] -= i;
 3113              	 .loc 1 510 15 is_stmt 0 view .LVU1099
 3114 002a C7E93242 	 strd r4,r2,[r7,#200]
 3115              	.LVL380:
 513:fips202.c     ****         KeccakF1600_StatePermute(s_inc);
 3116              	 .loc 1 513 19 is_stmt 1 view .LVU1100
 3117 002e B9F1000F 	 cmp r9,#0
 3118 0032 27D1     	 bne .L38
 515:fips202.c     **** 
 516:fips202.c     ****         for (i = 0; i < outlen && i < r; i++) {
 517:fips202.c     ****             h[i] = (uint8_t)(s_inc[i >> 3] >> (8 * (i & 0x07)));
 518:fips202.c     ****         }
 519:fips202.c     ****         h += i;
 520:fips202.c     ****         outlen -= i;
 521:fips202.c     ****         s_inc[25] = r - i;
 522:fips202.c     ****     }
 523:fips202.c     **** }
 3119              	 .loc 1 523 1 is_stmt 0 view .LVU1101
 3120 0034 BDE8F883 	 pop {r3,r4,r5,r6,r7,r8,r9,pc}
 3121              	.LVL381:
 3122              	.L34:
 506:fips202.c     ****     }
 3123              	 .loc 1 506 9 is_stmt 1 view .LVU1102
 506:fips202.c     ****     }
 3124              	 .loc 1 506 35 is_stmt 0 view .LVU1103
 3125 0038 B8EB0404 	 subs r4,r8,r4
 3126 003c 62EB4202 	 sbc r2,r2,r2,lsl#1
 506:fips202.c     ****     }
 3127              	 .loc 1 506 47 view .LVU1104
 3128 0040 A419     	 adds r4,r4,r6
 3129 0042 43EB0202 	 adc r2,r3,r2
 506:fips202.c     ****     }
 3130              	 .loc 1 506 52 view .LVU1105
 3131 0046 4FEAD40C 	 lsr ip,r4,#3
 3132 004a 4CEA427C 	 orr ip,ip,r2,lsl#29
 506:fips202.c     ****     }
 3133              	 .loc 1 506 31 view .LVU1106
 3134 004e 07EBCC0E 	 add lr,r7,ip,lsl#3
 506:fips202.c     ****     }
 3135              	 .loc 1 506 58 view .LVU1107
 3136 0052 04F00704 	 and r4,r4,#7
 3137 0056 57F83C20 	 ldr r2,[r7,ip,lsl#3]
 3138 005a DEF804E0 	 ldr lr,[lr,#4]
 3139 005e E500     	 lsls r5,r4,#3
 3140 0060 C5F1200C 	 rsb ip,r5,#32
 3141 0064 A5F12004 	 sub r4,r5,#32
 3142 0068 EA40     	 lsrs r2,r2,r5
 3143 006a 0EFA0CFC 	 lsl ip,lr,ip
 3144 006e 42EA0C02 	 orr r2,r2,ip
 3145 0072 2EFA04F4 	 lsr r4,lr,r4
 3146 0076 2243     	 orrs r2,r2,r4
 3147 0078 0136     	 adds r6,r6,#1
 3148              	.LVL382:
 506:fips202.c     ****     }
 3149              	 .loc 1 506 16 view .LVU1108
 3150 007a 00F8012B 	 strb r2,[r0],#1
 503:fips202.c     ****         /* There are s_inc[25] bytes left, so r - s_inc[25] is the first
 3151              	 .loc 1 503 47 is_stmt 1 discriminator 4 view .LVU1109
 3152              	.LVL383:
 503:fips202.c     ****         /* There are s_inc[25] bytes left, so r - s_inc[25] is the first
 3153              	 .loc 1 503 47 is_stmt 0 discriminator 4 view .LVU1110
 3154 007e 43F10003 	 adc r3,r3,#0
 3155 0082 C3E7     	 b .L32
 3156              	.LVL384:
 3157              	.L38:
 514:fips202.c     **** 
 3158              	 .loc 1 514 9 is_stmt 1 view .LVU1111
 3159 0084 3846     	 mov r0,r7
 3160 0086 B047     	 blx r6
 3161              	.LVL385:
 516:fips202.c     ****             h[i] = (uint8_t)(s_inc[i >> 3] >> (8 * (i & 0x07)));
 3162              	 .loc 1 516 9 view .LVU1112
 516:fips202.c     ****             h[i] = (uint8_t)(s_inc[i >> 3] >> (8 * (i & 0x07)));
 3163              	 .loc 1 516 32 discriminator 1 view .LVU1113
 516:fips202.c     ****             h[i] = (uint8_t)(s_inc[i >> 3] >> (8 * (i & 0x07)));
 3164              	 .loc 1 516 16 is_stmt 0 view .LVU1114
 3165 0088 0024     	 movs r4,#0
 3166              	.LVL386:
 3167              	.L37:
 517:fips202.c     ****         }
 3168              	 .loc 1 517 13 is_stmt 1 view .LVU1115
 517:fips202.c     ****         }
 3169              	 .loc 1 517 35 is_stmt 0 view .LVU1116
 3170 008a 24F00701 	 bic r1,r4,#7
 517:fips202.c     ****         }
 3171              	 .loc 1 517 38 view .LVU1117
 3172 008e E308     	 lsrs r3,r4,#3
 517:fips202.c     ****         }
 3173              	 .loc 1 517 35 view .LVU1118
 3174 0090 3944     	 add r1,r1,r7
 517:fips202.c     ****         }
 3175              	 .loc 1 517 55 view .LVU1119
 3176 0092 04F00702 	 and r2,r4,#7
 517:fips202.c     ****         }
 3177              	 .loc 1 517 44 view .LVU1120
 3178 0096 D1F804C0 	 ldr ip,[r1,#4]
 3179 009a 57F83330 	 ldr r3,[r7,r3,lsl#3]
 517:fips202.c     ****         }
 3180              	 .loc 1 517 50 view .LVU1121
 3181 009e D200     	 lsls r2,r2,#3
 517:fips202.c     ****         }
 3182              	 .loc 1 517 44 view .LVU1122
 3183 00a0 C2F12000 	 rsb r0,r2,#32
 3184 00a4 A2F12001 	 sub r1,r2,#32
 3185 00a8 D340     	 lsrs r3,r3,r2
 3186 00aa 0CFA00F0 	 lsl r0,ip,r0
 3187 00ae 0343     	 orrs r3,r3,r0
 3188 00b0 2CFA01F1 	 lsr r1,ip,r1
 3189 00b4 0B43     	 orrs r3,r3,r1
 517:fips202.c     ****         }
 3190              	 .loc 1 517 20 view .LVU1123
 3191 00b6 2B55     	 strb r3,[r5,r4]
 516:fips202.c     ****             h[i] = (uint8_t)(s_inc[i >> 3] >> (8 * (i & 0x07)));
 3192              	 .loc 1 516 43 is_stmt 1 discriminator 4 view .LVU1124
 3193 00b8 0134     	 adds r4,r4,#1
 3194              	.LVL387:
 516:fips202.c     ****             h[i] = (uint8_t)(s_inc[i >> 3] >> (8 * (i & 0x07)));
 3195              	 .loc 1 516 32 discriminator 1 view .LVU1125
 3196 00ba A145     	 cmp r9,r4
 3197 00bc 01D0     	 beq .L36
 516:fips202.c     ****             h[i] = (uint8_t)(s_inc[i >> 3] >> (8 * (i & 0x07)));
 3198              	 .loc 1 516 32 is_stmt 0 discriminator 3 view .LVU1126
 3199 00be A045     	 cmp r8,r4
 3200 00c0 E3D1     	 bne .L37
 3201              	.L36:
 519:fips202.c     ****         outlen -= i;
 3202              	 .loc 1 519 9 is_stmt 1 view .LVU1127
 519:fips202.c     ****         outlen -= i;
 3203              	 .loc 1 519 11 is_stmt 0 view .LVU1128
 3204 00c2 2544     	 add r5,r5,r4
 3205              	.LVL388:
 520:fips202.c     ****         s_inc[25] = r - i;
 3206              	 .loc 1 520 9 is_stmt 1 view .LVU1129
 520:fips202.c     ****         s_inc[25] = r - i;
 3207              	 .loc 1 520 16 is_stmt 0 view .LVU1130
 3208 00c4 A9EB0409 	 sub r9,r9,r4
 3209              	.LVL389:
 521:fips202.c     ****     }
 3210              	 .loc 1 521 9 is_stmt 1 view .LVU1131
 521:fips202.c     ****     }
 3211              	 .loc 1 521 23 is_stmt 0 view .LVU1132
 3212 00c8 0022     	 movs r2,#0
 3213 00ca A8EB0404 	 sub r4,r8,r4
 3214              	.LVL390:
 521:fips202.c     ****     }
 3215              	 .loc 1 521 23 view .LVU1133
 3216 00ce ACE7     	 b .L35
 3217              	.L42:
 3218              	 .align 2
 3219              	.L41:
 3220 00d0 00000000 	 .word KeccakF1600_StatePermute
 3221              	 .cfi_endproc
 3222              	.LFE8:
 3224              	 .section .text.keccak_absorb,"ax",%progbits
 3225              	 .align 1
 3226              	 .syntax unified
 3227              	 .thumb
 3228              	 .thumb_func
 3230              	keccak_absorb:
 3231              	.LVL391:
 3232              	.LFB3:
 350:fips202.c     ****     size_t i;
 3233              	 .loc 1 350 51 is_stmt 1 view-0
 3234              	 .cfi_startproc
 3235              	 
 3236              	 
 350:fips202.c     ****     size_t i;
 3237              	 .loc 1 350 51 is_stmt 0 view .LVU1135
 3238 0000 2DE9F04F 	 push {r4,r5,r6,r7,r8,r9,r10,fp,lr}
 3239              	.LCFI8:
 3240              	 .cfi_def_cfa_offset 36
 3241              	 .cfi_offset 4,-36
 3242              	 .cfi_offset 5,-32
 3243              	 .cfi_offset 6,-28
 3244              	 .cfi_offset 7,-24
 3245              	 .cfi_offset 8,-20
 3246              	 .cfi_offset 9,-16
 3247              	 .cfi_offset 10,-12
 3248              	 .cfi_offset 11,-8
 3249              	 .cfi_offset 14,-4
 3250 0004 0C46     	 mov r4,r1
 351:fips202.c     ****     uint8_t t[200];
 3251              	 .loc 1 351 5 is_stmt 1 view .LVU1136
 352:fips202.c     **** 
 3252              	 .loc 1 352 5 view .LVU1137
 355:fips202.c     ****         s[i] = 0;
 3253              	 .loc 1 355 5 view .LVU1138
 3254              	.LVL392:
 355:fips202.c     ****         s[i] = 0;
 3255              	 .loc 1 355 19 discriminator 1 view .LVU1139
 350:fips202.c     ****     size_t i;
 3256              	 .loc 1 350 51 is_stmt 0 view .LVU1140
 3257 0006 B3B0     	 sub sp,sp,#204
 3258              	.LCFI9:
 3259              	 .cfi_def_cfa_offset 240
 350:fips202.c     ****     size_t i;
 3260              	 .loc 1 350 51 view .LVU1141
 3261 0008 1646     	 mov r6,r2
 3262 000a 1F46     	 mov r7,r3
 356:fips202.c     ****     }
 3263              	 .loc 1 356 14 view .LVU1142
 3264 000c C822     	 movs r2,#200
 3265              	.LVL393:
 356:fips202.c     ****     }
 3266              	 .loc 1 356 14 view .LVU1143
 3267 000e 414B     	 ldr r3,.L56
 3268              	.LVL394:
 356:fips202.c     ****     }
 3269              	 .loc 1 356 14 view .LVU1144
 3270 0010 0021     	 movs r1,#0
 3271              	.LVL395:
 350:fips202.c     ****     size_t i;
 3272              	 .loc 1 350 51 view .LVU1145
 3273 0012 0546     	 mov r5,r0
 356:fips202.c     ****     }
 3274              	 .loc 1 356 14 view .LVU1146
 3275 0014 9847     	 blx r3
 3276              	.LVL396:
 360:fips202.c     ****             s[i] ^= load64(m + 8 * i);
 3277              	 .loc 1 360 27 discriminator 1 view .LVU1147
 3278 0016 4FEAD408 	 lsr r8,r4,#3
 3279              	.LVL397:
 3280              	.L44:
 359:fips202.c     ****         for (i = 0; i < r / 8; ++i) {
 3281              	 .loc 1 359 17 is_stmt 1 view .LVU1148
 3282 001a A742     	 cmp r7,r4
 3283 001c 44D2     	 bcs .L47
 370:fips202.c     ****     }
 3284              	 .loc 1 370 14 is_stmt 0 view .LVU1149
 3285 001e 3D4B     	 ldr r3,.L56
 3286 0020 2246     	 mov r2,r4
 3287 0022 0021     	 movs r1,#0
 3288 0024 6846     	 mov r0,sp
 3289 0026 9847     	 blx r3
 3290              	.LVL398:
 3291 0028 6A46     	 mov r2,sp
 3292 002a F119     	 adds r1,r6,r7
 3293 002c 6B46     	 mov r3,sp
 3294              	.LVL399:
 3295              	.L48:
 372:fips202.c     ****         t[i] = m[i];
 3296              	 .loc 1 372 19 is_stmt 1 discriminator 1 view .LVU1150
 3297 002e B142     	 cmp r1,r6
 3298 0030 6AD1     	 bne .L49
 375:fips202.c     ****     t[r - 1] |= 128;
 3299              	 .loc 1 375 5 view .LVU1151
 375:fips202.c     ****     t[r - 1] |= 128;
 3300              	 .loc 1 375 10 is_stmt 0 view .LVU1152
 3301 0032 07F1C803 	 add r3,r7,#200
 3302 0036 0DEB0307 	 add r7,sp,r3
 3303              	.LVL400:
 375:fips202.c     ****     t[r - 1] |= 128;
 3304              	 .loc 1 375 10 view .LVU1153
 3305 003a 9DF8F030 	 ldrb r3,[sp,#240]
 3306              	.LVL401:
 375:fips202.c     ****     t[r - 1] |= 128;
 3307              	 .loc 1 375 10 view .LVU1154
 3308 003e 07F8C83C 	 strb r3,[r7,#-200]
 376:fips202.c     ****     for (i = 0; i < r / 8; ++i) {
 3309              	 .loc 1 376 5 is_stmt 1 view .LVU1155
 376:fips202.c     ****     for (i = 0; i < r / 8; ++i) {
 3310              	 .loc 1 376 14 is_stmt 0 view .LVU1156
 3311 0042 04F1C703 	 add r3,r4,#199
 3312 0046 0DEB0304 	 add r4,sp,r3
 3313              	.LVL402:
 376:fips202.c     ****     for (i = 0; i < r / 8; ++i) {
 3314              	 .loc 1 376 14 view .LVU1157
 3315 004a 083D     	 subs r5,r5,#8
 3316              	.LVL403:
 376:fips202.c     ****     for (i = 0; i < r / 8; ++i) {
 3317              	 .loc 1 376 14 view .LVU1158
 3318 004c 14F8C83C 	 ldrb r3,[r4,#-200]
 3319              	.LVL404:
 376:fips202.c     ****     for (i = 0; i < r / 8; ++i) {
 3320              	 .loc 1 376 14 view .LVU1159
 3321 0050 63F07F03 	 orn r3,r3,#127
 3322 0054 04F8C83C 	 strb r3,[r4,#-200]
 377:fips202.c     ****         s[i] ^= load64(t + 8 * i);
 3323              	 .loc 1 377 5 is_stmt 1 view .LVU1160
 3324              	.LVL405:
 377:fips202.c     ****         s[i] ^= load64(t + 8 * i);
 3325              	 .loc 1 377 19 discriminator 1 view .LVU1161
 377:fips202.c     ****         s[i] ^= load64(t + 8 * i);
 3326              	 .loc 1 377 12 is_stmt 0 view .LVU1162
 3327 0058 0024     	 movs r4,#0
 3328              	.LVL406:
 3329              	.L51:
 378:fips202.c     ****     }
 3330              	 .loc 1 378 9 is_stmt 1 view .LVU1163
 3331              	.LBB17:
 3332              	.LBI17:
  27:fips202.c     ****     uint64_t r = 0;
 3333              	 .loc 1 27 17 view .LVU1164
 3334              	.LBB18:
  28:fips202.c     ****     for (size_t i = 0; i < 8; ++i) {
 3335              	 .loc 1 28 5 view .LVU1165
  29:fips202.c     ****         r |= (uint64_t)x[i] << 8 * i;
 3336              	 .loc 1 29 5 view .LVU1166
 3337              	.LBB19:
  29:fips202.c     ****         r |= (uint64_t)x[i] << 8 * i;
 3338              	 .loc 1 29 10 view .LVU1167
  29:fips202.c     ****         r |= (uint64_t)x[i] << 8 * i;
 3339              	 .loc 1 29 26 discriminator 1 view .LVU1168
 3340              	.LBE19:
 3341              	.LBE18:
 3342              	.LBE17:
 377:fips202.c     ****         s[i] ^= load64(t + 8 * i);
 3343              	 .loc 1 377 12 is_stmt 0 view .LVU1169
 3344 005a 0023     	 movs r3,#0
 3345 005c 9646     	 mov lr,r2
 3346              	.LBB22:
 3347              	.LBB21:
  28:fips202.c     ****     for (size_t i = 0; i < 8; ++i) {
 3348              	 .loc 1 28 14 view .LVU1170
 3349 005e 1F46     	 mov r7,r3
 3350 0060 1E46     	 mov r6,r3
 3351              	.LVL407:
 3352              	.L50:
 3353              	.LBB20:
  30:fips202.c     ****     }
 3354              	 .loc 1 30 9 is_stmt 1 view .LVU1171
  30:fips202.c     ****     }
 3355              	 .loc 1 30 25 is_stmt 0 view .LVU1172
 3356 0062 1EF8010B 	 ldrb r0,[lr],#1
  30:fips202.c     ****     }
 3357              	 .loc 1 30 29 view .LVU1173
 3358 0066 A3F12001 	 sub r1,r3,#32
 3359 006a C3F1200C 	 rsb ip,r3,#32
 3360 006e 00FA01F1 	 lsl r1,r0,r1
 3361 0072 20FA0CFC 	 lsr ip,r0,ip
 3362 0076 9840     	 lsls r0,r0,r3
  29:fips202.c     ****         r |= (uint64_t)x[i] << 8 * i;
 3363              	 .loc 1 29 26 discriminator 1 view .LVU1174
 3364 0078 0833     	 adds r3,r3,#8
  30:fips202.c     ****     }
 3365              	 .loc 1 30 29 view .LVU1175
 3366 007a 41EA0C01 	 orr r1,r1,ip
  29:fips202.c     ****         r |= (uint64_t)x[i] << 8 * i;
 3367              	 .loc 1 29 26 discriminator 1 view .LVU1176
 3368 007e 402B     	 cmp r3,#64
  30:fips202.c     ****     }
 3369              	 .loc 1 30 11 view .LVU1177
 3370 0080 47EA0007 	 orr r7,r7,r0
 3371              	.LVL408:
  30:fips202.c     ****     }
 3372              	 .loc 1 30 11 view .LVU1178
 3373 0084 46EA0106 	 orr r6,r6,r1
 3374              	.LVL409:
  29:fips202.c     ****         r |= (uint64_t)x[i] << 8 * i;
 3375              	 .loc 1 29 31 is_stmt 1 discriminator 3 view .LVU1179
  29:fips202.c     ****         r |= (uint64_t)x[i] << 8 * i;
 3376              	 .loc 1 29 26 discriminator 1 view .LVU1180
 3377 0088 EBD1     	 bne .L50
 3378              	.LBE20:
  33:fips202.c     **** }
 3379              	 .loc 1 33 5 view .LVU1181
 3380              	.LVL410:
  33:fips202.c     **** }
 3381              	 .loc 1 33 5 is_stmt 0 view .LVU1182
 3382              	.LBE21:
 3383              	.LBE22:
 378:fips202.c     ****     }
 3384              	 .loc 1 378 14 discriminator 1 view .LVU1183
 3385 008a 55F8081F 	 ldr r1,[r5,#8]!
 3386 008e 6B68     	 ldr r3,[r5,#4]
 377:fips202.c     ****         s[i] ^= load64(t + 8 * i);
 3387              	 .loc 1 377 28 discriminator 3 view .LVU1184
 3388 0090 0134     	 adds r4,r4,#1
 3389              	.LVL411:
 378:fips202.c     ****     }
 3390              	 .loc 1 378 14 discriminator 1 view .LVU1185
 3391 0092 7940     	 eors r1,r1,r7
 3392 0094 7340     	 eors r3,r3,r6
 377:fips202.c     ****         s[i] ^= load64(t + 8 * i);
 3393              	 .loc 1 377 19 discriminator 1 view .LVU1186
 3394 0096 4445     	 cmp r4,r8
 378:fips202.c     ****     }
 3395              	 .loc 1 378 14 discriminator 1 view .LVU1187
 3396 0098 C5E90013 	 strd r1,r3,[r5]
 377:fips202.c     ****         s[i] ^= load64(t + 8 * i);
 3397              	 .loc 1 377 28 is_stmt 1 discriminator 3 view .LVU1188
 3398              	.LVL412:
 377:fips202.c     ****         s[i] ^= load64(t + 8 * i);
 3399              	 .loc 1 377 19 discriminator 1 view .LVU1189
 3400 009c 02F10802 	 add r2,r2,#8
 3401 00a0 DBD3     	 bcc .L51
 380:fips202.c     **** 
 3402              	 .loc 1 380 1 is_stmt 0 view .LVU1190
 3403 00a2 33B0     	 add sp,sp,#204
 3404              	.LCFI10:
 3405              	 .cfi_remember_state
 3406              	 .cfi_def_cfa_offset 36
 3407              	 
 3408 00a4 BDE8F08F 	 pop {r4,r5,r6,r7,r8,r9,r10,fp,pc}
 3409              	.LVL413:
 3410              	.L47:
 3411              	.LCFI11:
 3412              	 .cfi_restore_state
 380:fips202.c     **** 
 3413              	 .loc 1 380 1 view .LVU1191
 3414 00a8 A5F10802 	 sub r2,r5,#8
 360:fips202.c     ****             s[i] ^= load64(m + 8 * i);
 3415              	 .loc 1 360 16 view .LVU1192
 3416 00ac 4FF0000C 	 mov ip,#0
 3417              	.L46:
 3418              	.LVL414:
 361:fips202.c     ****         }
 3419              	 .loc 1 361 13 is_stmt 1 view .LVU1193
 3420              	.LBB23:
 3421              	.LBI23:
  27:fips202.c     ****     uint64_t r = 0;
 3422              	 .loc 1 27 17 view .LVU1194
 3423              	.LBB24:
  28:fips202.c     ****     for (size_t i = 0; i < 8; ++i) {
 3424              	 .loc 1 28 5 view .LVU1195
  29:fips202.c     ****         r |= (uint64_t)x[i] << 8 * i;
 3425              	 .loc 1 29 5 view .LVU1196
 3426              	.LBB25:
  29:fips202.c     ****         r |= (uint64_t)x[i] << 8 * i;
 3427              	 .loc 1 29 10 view .LVU1197
  29:fips202.c     ****         r |= (uint64_t)x[i] << 8 * i;
 3428              	 .loc 1 29 26 discriminator 1 view .LVU1198
 3429              	.LBE25:
 3430              	.LBE24:
 3431              	.LBE23:
 360:fips202.c     ****             s[i] ^= load64(m + 8 * i);
 3432              	 .loc 1 360 16 is_stmt 0 view .LVU1199
 3433 00b0 0023     	 movs r3,#0
 3434 00b2 06EBCC0B 	 add fp,r6,ip,lsl#3
 3435              	.LBB28:
 3436              	.LBB27:
  28:fips202.c     ****     for (size_t i = 0; i < 8; ++i) {
 3437              	 .loc 1 28 14 view .LVU1200
 3438 00b6 9946     	 mov r9,r3
 3439 00b8 9E46     	 mov lr,r3
 3440              	.LVL415:
 3441              	.L45:
 3442              	.LBB26:
  30:fips202.c     ****     }
 3443              	 .loc 1 30 9 is_stmt 1 view .LVU1201
  30:fips202.c     ****     }
 3444              	 .loc 1 30 25 is_stmt 0 view .LVU1202
 3445 00ba 1BF8010B 	 ldrb r0,[fp],#1
  30:fips202.c     ****     }
 3446              	 .loc 1 30 29 view .LVU1203
 3447 00be A3F1200A 	 sub r10,r3,#32
 3448 00c2 C3F12001 	 rsb r1,r3,#32
 3449 00c6 00FA0AFA 	 lsl r10,r0,r10
 3450 00ca 20FA01F1 	 lsr r1,r0,r1
 3451 00ce 9840     	 lsls r0,r0,r3
  29:fips202.c     ****         r |= (uint64_t)x[i] << 8 * i;
 3452              	 .loc 1 29 26 discriminator 1 view .LVU1204
 3453 00d0 0833     	 adds r3,r3,#8
  30:fips202.c     ****     }
 3454              	 .loc 1 30 29 view .LVU1205
 3455 00d2 4AEA0101 	 orr r1,r10,r1
  29:fips202.c     ****         r |= (uint64_t)x[i] << 8 * i;
 3456              	 .loc 1 29 26 discriminator 1 view .LVU1206
 3457 00d6 402B     	 cmp r3,#64
  30:fips202.c     ****     }
 3458              	 .loc 1 30 11 view .LVU1207
 3459 00d8 40EA0909 	 orr r9,r0,r9
 3460              	.LVL416:
  30:fips202.c     ****     }
 3461              	 .loc 1 30 11 view .LVU1208
 3462 00dc 41EA0E0E 	 orr lr,r1,lr
 3463              	.LVL417:
  29:fips202.c     ****         r |= (uint64_t)x[i] << 8 * i;
 3464              	 .loc 1 29 31 is_stmt 1 discriminator 3 view .LVU1209
  29:fips202.c     ****         r |= (uint64_t)x[i] << 8 * i;
 3465              	 .loc 1 29 26 discriminator 1 view .LVU1210
 3466 00e0 EBD1     	 bne .L45
 3467              	.LBE26:
  33:fips202.c     **** }
 3468              	 .loc 1 33 5 view .LVU1211
 3469              	.LVL418:
  33:fips202.c     **** }
 3470              	 .loc 1 33 5 is_stmt 0 view .LVU1212
 3471              	.LBE27:
 3472              	.LBE28:
 361:fips202.c     ****         }
 3473              	 .loc 1 361 18 discriminator 1 view .LVU1213
 3474 00e2 52F8081F 	 ldr r1,[r2,#8]!
 3475 00e6 5368     	 ldr r3,[r2,#4]
 360:fips202.c     ****             s[i] ^= load64(m + 8 * i);
 3476              	 .loc 1 360 32 discriminator 3 view .LVU1214
 3477 00e8 0CF1010C 	 add ip,ip,#1
 3478              	.LVL419:
 361:fips202.c     ****         }
 3479              	 .loc 1 361 18 discriminator 1 view .LVU1215
 3480 00ec 81EA0901 	 eor r1,r1,r9
 3481 00f0 83EA0E03 	 eor r3,r3,lr
 360:fips202.c     ****             s[i] ^= load64(m + 8 * i);
 3482              	 .loc 1 360 23 discriminator 1 view .LVU1216
 3483 00f4 C445     	 cmp ip,r8
 361:fips202.c     ****         }
 3484              	 .loc 1 361 18 discriminator 1 view .LVU1217
 3485 00f6 C2E90013 	 strd r1,r3,[r2]
 360:fips202.c     ****             s[i] ^= load64(m + 8 * i);
 3486              	 .loc 1 360 32 is_stmt 1 discriminator 3 view .LVU1218
 3487              	.LVL420:
 360:fips202.c     ****             s[i] ^= load64(m + 8 * i);
 3488              	 .loc 1 360 23 discriminator 1 view .LVU1219
 3489 00fa D9D3     	 bcc .L46
 364:fips202.c     ****         mlen -= r;
 3490              	 .loc 1 364 9 view .LVU1220
 3491 00fc 064B     	 ldr r3,.L56+4
 3492 00fe 2846     	 mov r0,r5
 3493 0100 9847     	 blx r3
 3494              	.LVL421:
 365:fips202.c     ****         m += r;
 3495              	 .loc 1 365 9 view .LVU1221
 365:fips202.c     ****         m += r;
 3496              	 .loc 1 365 14 is_stmt 0 view .LVU1222
 3497 0102 3F1B     	 subs r7,r7,r4
 3498              	.LVL422:
 366:fips202.c     ****     }
 3499              	 .loc 1 366 9 is_stmt 1 view .LVU1223
 366:fips202.c     ****     }
 3500              	 .loc 1 366 11 is_stmt 0 view .LVU1224
 3501 0104 2644     	 add r6,r6,r4
 3502              	.LVL423:
 366:fips202.c     ****     }
 3503              	 .loc 1 366 11 view .LVU1225
 3504 0106 88E7     	 b .L44
 3505              	.LVL424:
 3506              	.L49:
 373:fips202.c     ****     }
 3507              	 .loc 1 373 9 is_stmt 1 view .LVU1226
 373:fips202.c     ****     }
 3508              	 .loc 1 373 17 is_stmt 0 view .LVU1227
 3509 0108 16F8010B 	 ldrb r0,[r6],#1
 373:fips202.c     ****     }
 3510              	 .loc 1 373 14 view .LVU1228
 3511 010c 03F8010B 	 strb r0,[r3],#1
 372:fips202.c     ****         t[i] = m[i];
 3512              	 .loc 1 372 27 is_stmt 1 discriminator 3 view .LVU1229
 3513 0110 8DE7     	 b .L48
 3514              	.L57:
 3515 0112 00BF     	 .align 2
 3516              	.L56:
 3517 0114 00000000 	 .word memset
 3518 0118 00000000 	 .word KeccakF1600_StatePermute
 3519              	 .cfi_endproc
 3520              	.LFE3:
 3522              	 .section .text.shake128_inc_init,"ax",%progbits
 3523              	 .align 1
 3524              	 .global shake128_inc_init
 3525              	 .syntax unified
 3526              	 .thumb
 3527              	 .thumb_func
 3529              	shake128_inc_init:
 3530              	.LVL425:
 3531              	.LFB9:
 524:fips202.c     **** 
 525:fips202.c     **** void shake128_inc_init(shake128incctx *state) {
 3532              	 .loc 1 525 47 view-0
 3533              	 .cfi_startproc
 3534              	 
 3535              	 
 526:fips202.c     ****     state->ctx = malloc(PQC_SHAKEINCCTX_BYTES);
 3536              	 .loc 1 526 5 view .LVU1231
 525:fips202.c     ****     state->ctx = malloc(PQC_SHAKEINCCTX_BYTES);
 3537              	 .loc 1 525 47 is_stmt 0 view .LVU1232
 3538 0000 10B5     	 push {r4,lr}
 3539              	.LCFI12:
 3540              	 .cfi_def_cfa_offset 8
 3541              	 .cfi_offset 4,-8
 3542              	 .cfi_offset 14,-4
 3543              	 .loc 1 526 18 view .LVU1233
 3544 0002 064B     	 ldr r3,.L60
 525:fips202.c     ****     state->ctx = malloc(PQC_SHAKEINCCTX_BYTES);
 3545              	 .loc 1 525 47 view .LVU1234
 3546 0004 0446     	 mov r4,r0
 3547              	 .loc 1 526 18 view .LVU1235
 3548 0006 D020     	 movs r0,#208
 3549              	.LVL426:
 3550              	 .loc 1 526 18 view .LVU1236
 3551 0008 9847     	 blx r3
 3552              	.LVL427:
 3553              	 .loc 1 526 16 discriminator 1 view .LVU1237
 3554 000a 2060     	 str r0,[r4]
 527:fips202.c     ****     if (state->ctx == NULL) {
 3555              	 .loc 1 527 5 is_stmt 1 view .LVU1238
 3556              	 .loc 1 527 8 is_stmt 0 view .LVU1239
 3557 000c 10B9     	 cbnz r0,.L59
 528:fips202.c     ****         exit(111);
 3558              	 .loc 1 528 9 is_stmt 1 view .LVU1240
 3559 000e 044B     	 ldr r3,.L60+4
 3560 0010 6F20     	 movs r0,#111
 3561 0012 9847     	 blx r3
 3562              	.LVL428:
 3563              	.L59:
 529:fips202.c     ****     }
 530:fips202.c     ****     keccak_inc_init(state->ctx);
 3564              	 .loc 1 530 5 view .LVU1241
 531:fips202.c     **** }
 3565              	 .loc 1 531 1 is_stmt 0 view .LVU1242
 3566 0014 BDE81040 	 pop {r4,lr}
 3567              	.LCFI13:
 3568              	 .cfi_restore 14
 3569              	 .cfi_restore 4
 3570              	 .cfi_def_cfa_offset 0
 3571              	.LVL429:
 530:fips202.c     **** }
 3572              	 .loc 1 530 5 view .LVU1243
 3573 0018 024B     	 ldr r3,.L60+8
 3574 001a 1847     	 bx r3
 3575              	.LVL430:
 3576              	.L61:
 3577              	 .align 2
 3578              	.L60:
 3579 001c 00000000 	 .word malloc
 3580 0020 00000000 	 .word exit
 3581 0024 00000000 	 .word keccak_inc_init
 3582              	 .cfi_endproc
 3583              	.LFE9:
 3585              	 .section .text.shake128_inc_absorb,"ax",%progbits
 3586              	 .align 1
 3587              	 .global shake128_inc_absorb
 3588              	 .syntax unified
 3589              	 .thumb
 3590              	 .thumb_func
 3592              	shake128_inc_absorb:
 3593              	.LVL431:
 3594              	.LFB10:
 532:fips202.c     **** 
 533:fips202.c     **** void shake128_inc_absorb(shake128incctx *state, const uint8_t *input, size_t inlen) {
 3595              	 .loc 1 533 85 is_stmt 1 view-0
 3596              	 .cfi_startproc
 3597              	 
 3598              	 
 3599              	 
 534:fips202.c     ****     keccak_inc_absorb(state->ctx, SHAKE128_RATE, input, inlen);
 3600              	 .loc 1 534 5 view .LVU1245
 533:fips202.c     ****     keccak_inc_absorb(state->ctx, SHAKE128_RATE, input, inlen);
 3601              	 .loc 1 533 85 is_stmt 0 view .LVU1246
 3602 0000 10B4     	 push {r4}
 3603              	.LCFI14:
 3604              	 .cfi_def_cfa_offset 4
 3605              	 .cfi_offset 4,-4
 3606              	 .loc 1 534 5 view .LVU1247
 3607 0002 044C     	 ldr r4,.L63
 3608 0004 0068     	 ldr r0,[r0]
 3609              	.LVL432:
 533:fips202.c     ****     keccak_inc_absorb(state->ctx, SHAKE128_RATE, input, inlen);
 3610              	 .loc 1 533 85 view .LVU1248
 3611 0006 1346     	 mov r3,r2
 3612              	 .loc 1 534 5 view .LVU1249
 3613 0008 A446     	 mov ip,r4
 3614 000a 0A46     	 mov r2,r1
 3615              	.LVL433:
 535:fips202.c     **** }
 3616              	 .loc 1 535 1 view .LVU1250
 3617 000c 10BC     	 pop {r4}
 3618              	.LCFI15:
 3619              	 .cfi_restore 4
 3620              	 .cfi_def_cfa_offset 0
 534:fips202.c     ****     keccak_inc_absorb(state->ctx, SHAKE128_RATE, input, inlen);
 3621              	 .loc 1 534 5 view .LVU1251
 3622 000e A821     	 movs r1,#168
 3623              	.LVL434:
 534:fips202.c     ****     keccak_inc_absorb(state->ctx, SHAKE128_RATE, input, inlen);
 3624              	 .loc 1 534 5 view .LVU1252
 3625 0010 6047     	 bx ip
 3626              	.LVL435:
 3627              	.L64:
 534:fips202.c     ****     keccak_inc_absorb(state->ctx, SHAKE128_RATE, input, inlen);
 3628              	 .loc 1 534 5 view .LVU1253
 3629 0012 00BF     	 .align 2
 3630              	.L63:
 3631 0014 00000000 	 .word keccak_inc_absorb
 3632              	 .cfi_endproc
 3633              	.LFE10:
 3635              	 .section .text.shake128_inc_finalize,"ax",%progbits
 3636              	 .align 1
 3637              	 .global shake128_inc_finalize
 3638              	 .syntax unified
 3639              	 .thumb
 3640              	 .thumb_func
 3642              	shake128_inc_finalize:
 3643              	.LVL436:
 3644              	.LFB11:
 536:fips202.c     **** 
 537:fips202.c     **** void shake128_inc_finalize(shake128incctx *state) {
 3645              	 .loc 1 537 51 is_stmt 1 view-0
 3646              	 .cfi_startproc
 3647              	 
 3648              	 
 3649              	 
 538:fips202.c     ****     keccak_inc_finalize(state->ctx, SHAKE128_RATE, 0x1F);
 3650              	 .loc 1 538 5 view .LVU1255
 3651 0000 0068     	 ldr r0,[r0]
 3652              	.LVL437:
 3653              	 .loc 1 538 5 is_stmt 0 view .LVU1256
 3654 0002 024B     	 ldr r3,.L66
 3655 0004 1F22     	 movs r2,#31
 3656 0006 A821     	 movs r1,#168
 3657 0008 1847     	 bx r3
 3658              	.LVL438:
 3659              	.L67:
 3660 000a 00BF     	 .align 2
 3661              	.L66:
 3662 000c 00000000 	 .word keccak_inc_finalize
 3663              	 .cfi_endproc
 3664              	.LFE11:
 3666              	 .section .text.shake128_inc_squeeze,"ax",%progbits
 3667              	 .align 1
 3668              	 .global shake128_inc_squeeze
 3669              	 .syntax unified
 3670              	 .thumb
 3671              	 .thumb_func
 3673              	shake128_inc_squeeze:
 3674              	.LVL439:
 3675              	.LFB12:
 539:fips202.c     **** }
 540:fips202.c     **** 
 541:fips202.c     **** void shake128_inc_squeeze(uint8_t *output, size_t outlen, shake128incctx *state) {
 3676              	 .loc 1 541 82 is_stmt 1 view-0
 3677              	 .cfi_startproc
 3678              	 
 3679              	 
 3680              	 
 542:fips202.c     ****     keccak_inc_squeeze(output, outlen, state->ctx, SHAKE128_RATE);
 3681              	 .loc 1 542 5 view .LVU1258
 541:fips202.c     ****     keccak_inc_squeeze(output, outlen, state->ctx, SHAKE128_RATE);
 3682              	 .loc 1 541 82 is_stmt 0 view .LVU1259
 3683 0000 10B4     	 push {r4}
 3684              	.LCFI16:
 3685              	 .cfi_def_cfa_offset 4
 3686              	 .cfi_offset 4,-4
 3687              	 .loc 1 542 5 view .LVU1260
 3688 0002 034C     	 ldr r4,.L69
 3689 0004 1268     	 ldr r2,[r2]
 3690              	.LVL440:
 3691              	 .loc 1 542 5 view .LVU1261
 3692 0006 A446     	 mov ip,r4
 3693 0008 A823     	 movs r3,#168
 543:fips202.c     **** }
 3694              	 .loc 1 543 1 view .LVU1262
 3695 000a 10BC     	 pop {r4}
 3696              	.LCFI17:
 3697              	 .cfi_restore 4
 3698              	 .cfi_def_cfa_offset 0
 542:fips202.c     ****     keccak_inc_squeeze(output, outlen, state->ctx, SHAKE128_RATE);
 3699              	 .loc 1 542 5 view .LVU1263
 3700 000c 6047     	 bx ip
 3701              	.LVL441:
 3702              	.L70:
 542:fips202.c     ****     keccak_inc_squeeze(output, outlen, state->ctx, SHAKE128_RATE);
 3703              	 .loc 1 542 5 view .LVU1264
 3704 000e 00BF     	 .align 2
 3705              	.L69:
 3706 0010 00000000 	 .word keccak_inc_squeeze
 3707              	 .cfi_endproc
 3708              	.LFE12:
 3710              	 .section .text.shake128_inc_ctx_clone,"ax",%progbits
 3711              	 .align 1
 3712              	 .global shake128_inc_ctx_clone
 3713              	 .syntax unified
 3714              	 .thumb
 3715              	 .thumb_func
 3717              	shake128_inc_ctx_clone:
 3718              	.LVL442:
 3719              	.LFB13:
 544:fips202.c     **** 
 545:fips202.c     **** void shake128_inc_ctx_clone(shake128incctx *dest, const shake128incctx *src) {
 3720              	 .loc 1 545 78 is_stmt 1 view-0
 3721              	 .cfi_startproc
 3722              	 
 3723              	 
 546:fips202.c     ****     dest->ctx = malloc(PQC_SHAKEINCCTX_BYTES);
 3724              	 .loc 1 546 5 view .LVU1266
 545:fips202.c     ****     dest->ctx = malloc(PQC_SHAKEINCCTX_BYTES);
 3725              	 .loc 1 545 78 is_stmt 0 view .LVU1267
 3726 0000 70B5     	 push {r4,r5,r6,lr}
 3727              	.LCFI18:
 3728              	 .cfi_def_cfa_offset 16
 3729              	 .cfi_offset 4,-16
 3730              	 .cfi_offset 5,-12
 3731              	 .cfi_offset 6,-8
 3732              	 .cfi_offset 14,-4
 3733              	 .loc 1 546 17 view .LVU1268
 3734 0002 084B     	 ldr r3,.L73
 545:fips202.c     ****     dest->ctx = malloc(PQC_SHAKEINCCTX_BYTES);
 3735              	 .loc 1 545 78 view .LVU1269
 3736 0004 0546     	 mov r5,r0
 3737              	 .loc 1 546 17 view .LVU1270
 3738 0006 D020     	 movs r0,#208
 3739              	.LVL443:
 545:fips202.c     ****     dest->ctx = malloc(PQC_SHAKEINCCTX_BYTES);
 3740              	 .loc 1 545 78 view .LVU1271
 3741 0008 0C46     	 mov r4,r1
 3742              	 .loc 1 546 17 view .LVU1272
 3743 000a 9847     	 blx r3
 3744              	.LVL444:
 3745              	 .loc 1 546 15 discriminator 1 view .LVU1273
 3746 000c 2860     	 str r0,[r5]
 547:fips202.c     ****     if (dest->ctx == NULL) {
 3747              	 .loc 1 547 5 is_stmt 1 view .LVU1274
 3748              	 .loc 1 547 8 is_stmt 0 view .LVU1275
 3749 000e 10B9     	 cbnz r0,.L72
 548:fips202.c     ****         exit(111);
 3750              	 .loc 1 548 9 is_stmt 1 view .LVU1276
 3751 0010 054B     	 ldr r3,.L73+4
 3752 0012 6F20     	 movs r0,#111
 3753 0014 9847     	 blx r3
 3754              	.LVL445:
 3755              	.L72:
 549:fips202.c     ****     }
 550:fips202.c     ****     memcpy(dest->ctx, src->ctx, PQC_SHAKEINCCTX_BYTES);
 3756              	 .loc 1 550 5 view .LVU1277
 3757 0016 2168     	 ldr r1,[r4]
 3758 0018 044B     	 ldr r3,.L73+8
 551:fips202.c     **** }
 3759              	 .loc 1 551 1 is_stmt 0 view .LVU1278
 3760 001a BDE87040 	 pop {r4,r5,r6,lr}
 3761              	.LCFI19:
 3762              	 .cfi_restore 14
 3763              	 .cfi_restore 6
 3764              	 .cfi_restore 5
 3765              	 .cfi_restore 4
 3766              	 .cfi_def_cfa_offset 0
 3767              	.LVL446:
 550:fips202.c     **** }
 3768              	 .loc 1 550 5 view .LVU1279
 3769 001e D022     	 movs r2,#208
 3770 0020 1847     	 bx r3
 3771              	.LVL447:
 3772              	.L74:
 3773 0022 00BF     	 .align 2
 3774              	.L73:
 3775 0024 00000000 	 .word malloc
 3776 0028 00000000 	 .word exit
 3777 002c 00000000 	 .word memcpy
 3778              	 .cfi_endproc
 3779              	.LFE13:
 3781              	 .section .text.shake128_inc_ctx_release,"ax",%progbits
 3782              	 .align 1
 3783              	 .global shake128_inc_ctx_release
 3784              	 .syntax unified
 3785              	 .thumb
 3786              	 .thumb_func
 3788              	shake128_inc_ctx_release:
 3789              	.LVL448:
 3790              	.LFB14:
 552:fips202.c     **** 
 553:fips202.c     **** void shake128_inc_ctx_release(shake128incctx *state) {
 3791              	 .loc 1 553 54 is_stmt 1 view-0
 3792              	 .cfi_startproc
 3793              	 
 3794              	 
 3795              	 
 554:fips202.c     ****     free(state->ctx);
 3796              	 .loc 1 554 5 view .LVU1281
 3797 0000 0068     	 ldr r0,[r0]
 3798              	.LVL449:
 3799              	 .loc 1 554 5 is_stmt 0 view .LVU1282
 3800 0002 014B     	 ldr r3,.L76
 3801 0004 1847     	 bx r3
 3802              	.LVL450:
 3803              	.L77:
 3804 0006 00BF     	 .align 2
 3805              	.L76:
 3806 0008 00000000 	 .word free
 3807              	 .cfi_endproc
 3808              	.LFE14:
 3810              	 .section .text.shake256_inc_init,"ax",%progbits
 3811              	 .align 1
 3812              	 .global shake256_inc_init
 3813              	 .syntax unified
 3814              	 .thumb
 3815              	 .thumb_func
 3817              	shake256_inc_init:
 3818              	.LVL451:
 3819              	.LFB15:
 555:fips202.c     **** }
 556:fips202.c     **** 
 557:fips202.c     **** void shake256_inc_init(shake256incctx *state) {
 3820              	 .loc 1 557 47 is_stmt 1 view-0
 3821              	 .cfi_startproc
 3822              	 
 3823              	 
 558:fips202.c     ****     state->ctx = malloc(PQC_SHAKEINCCTX_BYTES);
 3824              	 .loc 1 558 5 view .LVU1284
 557:fips202.c     ****     state->ctx = malloc(PQC_SHAKEINCCTX_BYTES);
 3825              	 .loc 1 557 47 is_stmt 0 view .LVU1285
 3826 0000 10B5     	 push {r4,lr}
 3827              	.LCFI20:
 3828              	 .cfi_def_cfa_offset 8
 3829              	 .cfi_offset 4,-8
 3830              	 .cfi_offset 14,-4
 3831              	 .loc 1 558 18 view .LVU1286
 3832 0002 064B     	 ldr r3,.L80
 557:fips202.c     ****     state->ctx = malloc(PQC_SHAKEINCCTX_BYTES);
 3833              	 .loc 1 557 47 view .LVU1287
 3834 0004 0446     	 mov r4,r0
 3835              	 .loc 1 558 18 view .LVU1288
 3836 0006 D020     	 movs r0,#208
 3837              	.LVL452:
 3838              	 .loc 1 558 18 view .LVU1289
 3839 0008 9847     	 blx r3
 3840              	.LVL453:
 3841              	 .loc 1 558 16 discriminator 1 view .LVU1290
 3842 000a 2060     	 str r0,[r4]
 559:fips202.c     ****     if (state->ctx == NULL) {
 3843              	 .loc 1 559 5 is_stmt 1 view .LVU1291
 3844              	 .loc 1 559 8 is_stmt 0 view .LVU1292
 3845 000c 10B9     	 cbnz r0,.L79
 560:fips202.c     ****         exit(111);
 3846              	 .loc 1 560 9 is_stmt 1 view .LVU1293
 3847 000e 044B     	 ldr r3,.L80+4
 3848 0010 6F20     	 movs r0,#111
 3849 0012 9847     	 blx r3
 3850              	.LVL454:
 3851              	.L79:
 561:fips202.c     ****     }
 562:fips202.c     ****     keccak_inc_init(state->ctx);
 3852              	 .loc 1 562 5 view .LVU1294
 563:fips202.c     **** }
 3853              	 .loc 1 563 1 is_stmt 0 view .LVU1295
 3854 0014 BDE81040 	 pop {r4,lr}
 3855              	.LCFI21:
 3856              	 .cfi_restore 14
 3857              	 .cfi_restore 4
 3858              	 .cfi_def_cfa_offset 0
 3859              	.LVL455:
 562:fips202.c     **** }
 3860              	 .loc 1 562 5 view .LVU1296
 3861 0018 024B     	 ldr r3,.L80+8
 3862 001a 1847     	 bx r3
 3863              	.LVL456:
 3864              	.L81:
 3865              	 .align 2
 3866              	.L80:
 3867 001c 00000000 	 .word malloc
 3868 0020 00000000 	 .word exit
 3869 0024 00000000 	 .word keccak_inc_init
 3870              	 .cfi_endproc
 3871              	.LFE15:
 3873              	 .section .text.shake256_inc_absorb,"ax",%progbits
 3874              	 .align 1
 3875              	 .global shake256_inc_absorb
 3876              	 .syntax unified
 3877              	 .thumb
 3878              	 .thumb_func
 3880              	shake256_inc_absorb:
 3881              	.LVL457:
 3882              	.LFB16:
 564:fips202.c     **** 
 565:fips202.c     **** void shake256_inc_absorb(shake256incctx *state, const uint8_t *input, size_t inlen) {
 3883              	 .loc 1 565 85 is_stmt 1 view-0
 3884              	 .cfi_startproc
 3885              	 
 3886              	 
 3887              	 
 566:fips202.c     ****     keccak_inc_absorb(state->ctx, SHAKE256_RATE, input, inlen);
 3888              	 .loc 1 566 5 view .LVU1298
 565:fips202.c     ****     keccak_inc_absorb(state->ctx, SHAKE256_RATE, input, inlen);
 3889              	 .loc 1 565 85 is_stmt 0 view .LVU1299
 3890 0000 10B4     	 push {r4}
 3891              	.LCFI22:
 3892              	 .cfi_def_cfa_offset 4
 3893              	 .cfi_offset 4,-4
 3894              	 .loc 1 566 5 view .LVU1300
 3895 0002 044C     	 ldr r4,.L83
 3896 0004 0068     	 ldr r0,[r0]
 3897              	.LVL458:
 565:fips202.c     ****     keccak_inc_absorb(state->ctx, SHAKE256_RATE, input, inlen);
 3898              	 .loc 1 565 85 view .LVU1301
 3899 0006 1346     	 mov r3,r2
 3900              	 .loc 1 566 5 view .LVU1302
 3901 0008 A446     	 mov ip,r4
 3902 000a 0A46     	 mov r2,r1
 3903              	.LVL459:
 567:fips202.c     **** }
 3904              	 .loc 1 567 1 view .LVU1303
 3905 000c 10BC     	 pop {r4}
 3906              	.LCFI23:
 3907              	 .cfi_restore 4
 3908              	 .cfi_def_cfa_offset 0
 566:fips202.c     ****     keccak_inc_absorb(state->ctx, SHAKE256_RATE, input, inlen);
 3909              	 .loc 1 566 5 view .LVU1304
 3910 000e 8821     	 movs r1,#136
 3911              	.LVL460:
 566:fips202.c     ****     keccak_inc_absorb(state->ctx, SHAKE256_RATE, input, inlen);
 3912              	 .loc 1 566 5 view .LVU1305
 3913 0010 6047     	 bx ip
 3914              	.LVL461:
 3915              	.L84:
 566:fips202.c     ****     keccak_inc_absorb(state->ctx, SHAKE256_RATE, input, inlen);
 3916              	 .loc 1 566 5 view .LVU1306
 3917 0012 00BF     	 .align 2
 3918              	.L83:
 3919 0014 00000000 	 .word keccak_inc_absorb
 3920              	 .cfi_endproc
 3921              	.LFE16:
 3923              	 .section .text.shake256_inc_finalize,"ax",%progbits
 3924              	 .align 1
 3925              	 .global shake256_inc_finalize
 3926              	 .syntax unified
 3927              	 .thumb
 3928              	 .thumb_func
 3930              	shake256_inc_finalize:
 3931              	.LVL462:
 3932              	.LFB17:
 568:fips202.c     **** 
 569:fips202.c     **** void shake256_inc_finalize(shake256incctx *state) {
 3933              	 .loc 1 569 51 is_stmt 1 view-0
 3934              	 .cfi_startproc
 3935              	 
 3936              	 
 3937              	 
 570:fips202.c     ****     keccak_inc_finalize(state->ctx, SHAKE256_RATE, 0x1F);
 3938              	 .loc 1 570 5 view .LVU1308
 3939 0000 0068     	 ldr r0,[r0]
 3940              	.LVL463:
 3941              	 .loc 1 570 5 is_stmt 0 view .LVU1309
 3942 0002 024B     	 ldr r3,.L86
 3943 0004 1F22     	 movs r2,#31
 3944 0006 8821     	 movs r1,#136
 3945 0008 1847     	 bx r3
 3946              	.LVL464:
 3947              	.L87:
 3948 000a 00BF     	 .align 2
 3949              	.L86:
 3950 000c 00000000 	 .word keccak_inc_finalize
 3951              	 .cfi_endproc
 3952              	.LFE17:
 3954              	 .section .text.shake256_inc_squeeze,"ax",%progbits
 3955              	 .align 1
 3956              	 .global shake256_inc_squeeze
 3957              	 .syntax unified
 3958              	 .thumb
 3959              	 .thumb_func
 3961              	shake256_inc_squeeze:
 3962              	.LVL465:
 3963              	.LFB18:
 571:fips202.c     **** }
 572:fips202.c     **** 
 573:fips202.c     **** void shake256_inc_squeeze(uint8_t *output, size_t outlen, shake256incctx *state) {
 3964              	 .loc 1 573 82 is_stmt 1 view-0
 3965              	 .cfi_startproc
 3966              	 
 3967              	 
 3968              	 
 574:fips202.c     ****     keccak_inc_squeeze(output, outlen, state->ctx, SHAKE256_RATE);
 3969              	 .loc 1 574 5 view .LVU1311
 573:fips202.c     ****     keccak_inc_squeeze(output, outlen, state->ctx, SHAKE256_RATE);
 3970              	 .loc 1 573 82 is_stmt 0 view .LVU1312
 3971 0000 10B4     	 push {r4}
 3972              	.LCFI24:
 3973              	 .cfi_def_cfa_offset 4
 3974              	 .cfi_offset 4,-4
 3975              	 .loc 1 574 5 view .LVU1313
 3976 0002 034C     	 ldr r4,.L89
 3977 0004 1268     	 ldr r2,[r2]
 3978              	.LVL466:
 3979              	 .loc 1 574 5 view .LVU1314
 3980 0006 A446     	 mov ip,r4
 3981 0008 8823     	 movs r3,#136
 575:fips202.c     **** }
 3982              	 .loc 1 575 1 view .LVU1315
 3983 000a 10BC     	 pop {r4}
 3984              	.LCFI25:
 3985              	 .cfi_restore 4
 3986              	 .cfi_def_cfa_offset 0
 574:fips202.c     ****     keccak_inc_squeeze(output, outlen, state->ctx, SHAKE256_RATE);
 3987              	 .loc 1 574 5 view .LVU1316
 3988 000c 6047     	 bx ip
 3989              	.LVL467:
 3990              	.L90:
 574:fips202.c     ****     keccak_inc_squeeze(output, outlen, state->ctx, SHAKE256_RATE);
 3991              	 .loc 1 574 5 view .LVU1317
 3992 000e 00BF     	 .align 2
 3993              	.L89:
 3994 0010 00000000 	 .word keccak_inc_squeeze
 3995              	 .cfi_endproc
 3996              	.LFE18:
 3998              	 .section .text.shake256_inc_ctx_clone,"ax",%progbits
 3999              	 .align 1
 4000              	 .global shake256_inc_ctx_clone
 4001              	 .syntax unified
 4002              	 .thumb
 4003              	 .thumb_func
 4005              	shake256_inc_ctx_clone:
 4006              	.LVL468:
 4007              	.LFB19:
 576:fips202.c     **** 
 577:fips202.c     **** void shake256_inc_ctx_clone(shake256incctx *dest, const shake256incctx *src) {
 4008              	 .loc 1 577 78 is_stmt 1 view-0
 4009              	 .cfi_startproc
 4010              	 
 4011              	 
 578:fips202.c     ****     dest->ctx = malloc(PQC_SHAKEINCCTX_BYTES);
 4012              	 .loc 1 578 5 view .LVU1319
 577:fips202.c     ****     dest->ctx = malloc(PQC_SHAKEINCCTX_BYTES);
 4013              	 .loc 1 577 78 is_stmt 0 view .LVU1320
 4014 0000 70B5     	 push {r4,r5,r6,lr}
 4015              	.LCFI26:
 4016              	 .cfi_def_cfa_offset 16
 4017              	 .cfi_offset 4,-16
 4018              	 .cfi_offset 5,-12
 4019              	 .cfi_offset 6,-8
 4020              	 .cfi_offset 14,-4
 4021              	 .loc 1 578 17 view .LVU1321
 4022 0002 084B     	 ldr r3,.L93
 577:fips202.c     ****     dest->ctx = malloc(PQC_SHAKEINCCTX_BYTES);
 4023              	 .loc 1 577 78 view .LVU1322
 4024 0004 0546     	 mov r5,r0
 4025              	 .loc 1 578 17 view .LVU1323
 4026 0006 D020     	 movs r0,#208
 4027              	.LVL469:
 577:fips202.c     ****     dest->ctx = malloc(PQC_SHAKEINCCTX_BYTES);
 4028              	 .loc 1 577 78 view .LVU1324
 4029 0008 0C46     	 mov r4,r1
 4030              	 .loc 1 578 17 view .LVU1325
 4031 000a 9847     	 blx r3
 4032              	.LVL470:
 4033              	 .loc 1 578 15 discriminator 1 view .LVU1326
 4034 000c 2860     	 str r0,[r5]
 579:fips202.c     ****     if (dest->ctx == NULL) {
 4035              	 .loc 1 579 5 is_stmt 1 view .LVU1327
 4036              	 .loc 1 579 8 is_stmt 0 view .LVU1328
 4037 000e 10B9     	 cbnz r0,.L92
 580:fips202.c     ****         exit(111);
 4038              	 .loc 1 580 9 is_stmt 1 view .LVU1329
 4039 0010 054B     	 ldr r3,.L93+4
 4040 0012 6F20     	 movs r0,#111
 4041 0014 9847     	 blx r3
 4042              	.LVL471:
 4043              	.L92:
 581:fips202.c     ****     }
 582:fips202.c     ****     memcpy(dest->ctx, src->ctx, PQC_SHAKEINCCTX_BYTES);
 4044              	 .loc 1 582 5 view .LVU1330
 4045 0016 2168     	 ldr r1,[r4]
 4046 0018 044B     	 ldr r3,.L93+8
 583:fips202.c     **** }
 4047              	 .loc 1 583 1 is_stmt 0 view .LVU1331
 4048 001a BDE87040 	 pop {r4,r5,r6,lr}
 4049              	.LCFI27:
 4050              	 .cfi_restore 14
 4051              	 .cfi_restore 6
 4052              	 .cfi_restore 5
 4053              	 .cfi_restore 4
 4054              	 .cfi_def_cfa_offset 0
 4055              	.LVL472:
 582:fips202.c     **** }
 4056              	 .loc 1 582 5 view .LVU1332
 4057 001e D022     	 movs r2,#208
 4058 0020 1847     	 bx r3
 4059              	.LVL473:
 4060              	.L94:
 4061 0022 00BF     	 .align 2
 4062              	.L93:
 4063 0024 00000000 	 .word malloc
 4064 0028 00000000 	 .word exit
 4065 002c 00000000 	 .word memcpy
 4066              	 .cfi_endproc
 4067              	.LFE19:
 4069              	 .section .text.shake256_inc_ctx_release,"ax",%progbits
 4070              	 .align 1
 4071              	 .global shake256_inc_ctx_release
 4072              	 .syntax unified
 4073              	 .thumb
 4074              	 .thumb_func
 4076              	shake256_inc_ctx_release:
 4077              	.LVL474:
 4078              	.LFB20:
 584:fips202.c     **** 
 585:fips202.c     **** void shake256_inc_ctx_release(shake256incctx *state) {
 4079              	 .loc 1 585 54 is_stmt 1 view-0
 4080              	 .cfi_startproc
 4081              	 
 4082              	 
 4083              	 
 586:fips202.c     ****     free(state->ctx);
 4084              	 .loc 1 586 5 view .LVU1334
 4085 0000 0068     	 ldr r0,[r0]
 4086              	.LVL475:
 4087              	 .loc 1 586 5 is_stmt 0 view .LVU1335
 4088 0002 014B     	 ldr r3,.L96
 4089 0004 1847     	 bx r3
 4090              	.LVL476:
 4091              	.L97:
 4092 0006 00BF     	 .align 2
 4093              	.L96:
 4094 0008 00000000 	 .word free
 4095              	 .cfi_endproc
 4096              	.LFE20:
 4098              	 .section .text.shake128_absorb,"ax",%progbits
 4099              	 .align 1
 4100              	 .global shake128_absorb
 4101              	 .syntax unified
 4102              	 .thumb
 4103              	 .thumb_func
 4105              	shake128_absorb:
 4106              	.LVL477:
 4107              	.LFB21:
 587:fips202.c     **** }
 588:fips202.c     **** 
 589:fips202.c     **** /*************************************************
 590:fips202.c     ****  * Name:        shake128_absorb
 591:fips202.c     ****  *
 592:fips202.c     ****  * Description: Absorb step of the SHAKE128 XOF.
 593:fips202.c     ****  *              non-incremental, starts by zeroeing the state.
 594:fips202.c     ****  *
 595:fips202.c     ****  * Arguments:   - uint64_t *s: pointer to (uninitialized) output Keccak state
 596:fips202.c     ****  *              - const uint8_t *input: pointer to input to be absorbed
 597:fips202.c     ****  *                                            into s
 598:fips202.c     ****  *              - size_t inlen: length of input in bytes
 599:fips202.c     ****  **************************************************/
 600:fips202.c     **** void shake128_absorb(shake128ctx *state, const uint8_t *input, size_t inlen) {
 4108              	 .loc 1 600 78 is_stmt 1 view-0
 4109              	 .cfi_startproc
 4110              	 
 4111              	 
 4112              	 .loc 1 600 78 is_stmt 0 view .LVU1337
 4113 0000 F7B5     	 push {r0,r1,r2,r4,r5,r6,r7,lr}
 4114              	.LCFI28:
 4115              	 .cfi_def_cfa_offset 32
 4116              	 .cfi_offset 4,-20
 4117              	 .cfi_offset 5,-16
 4118              	 .cfi_offset 6,-12
 4119              	 .cfi_offset 7,-8
 4120              	 .cfi_offset 14,-4
 601:fips202.c     ****     state->ctx = malloc(PQC_SHAKECTX_BYTES);
 4121              	 .loc 1 601 18 view .LVU1338
 4122 0002 0A4B     	 ldr r3,.L100
 600:fips202.c     ****     state->ctx = malloc(PQC_SHAKECTX_BYTES);
 4123              	 .loc 1 600 78 view .LVU1339
 4124 0004 0746     	 mov r7,r0
 4125              	 .loc 1 601 18 view .LVU1340
 4126 0006 C820     	 movs r0,#200
 4127              	.LVL478:
 600:fips202.c     ****     state->ctx = malloc(PQC_SHAKECTX_BYTES);
 4128              	 .loc 1 600 78 view .LVU1341
 4129 0008 0D46     	 mov r5,r1
 4130              	 .loc 1 601 5 is_stmt 1 view .LVU1342
 600:fips202.c     ****     state->ctx = malloc(PQC_SHAKECTX_BYTES);
 4131              	 .loc 1 600 78 is_stmt 0 view .LVU1343
 4132 000a 1646     	 mov r6,r2
 4133              	 .loc 1 601 18 view .LVU1344
 4134 000c 9847     	 blx r3
 4135              	.LVL479:
 4136              	 .loc 1 601 16 discriminator 1 view .LVU1345
 4137 000e 3860     	 str r0,[r7]
 602:fips202.c     ****     if (state->ctx == NULL) {
 4138              	 .loc 1 602 5 is_stmt 1 view .LVU1346
 4139              	 .loc 1 602 8 is_stmt 0 view .LVU1347
 4140 0010 10B9     	 cbnz r0,.L99
 4141              	.LBB31:
 4142              	.LBI31:
 600:fips202.c     ****     state->ctx = malloc(PQC_SHAKECTX_BYTES);
 4143              	 .loc 1 600 6 is_stmt 1 view .LVU1348
 4144              	.LVL480:
 4145              	.LBB32:
 603:fips202.c     ****         exit(111);
 4146              	 .loc 1 603 9 view .LVU1349
 4147 0012 074B     	 ldr r3,.L100+4
 4148 0014 6F20     	 movs r0,#111
 4149 0016 9847     	 blx r3
 4150              	.LVL481:
 4151              	.L99:
 4152              	 .loc 1 603 9 is_stmt 0 view .LVU1350
 4153              	.LBE32:
 4154              	.LBE31:
 604:fips202.c     ****     }
 605:fips202.c     ****     keccak_absorb(state->ctx, SHAKE128_RATE, input, inlen, 0x1F);
 4155              	 .loc 1 605 5 is_stmt 1 view .LVU1351
 4156 0018 1F23     	 movs r3,#31
 4157 001a 0093     	 str r3,[sp]
 4158 001c 054C     	 ldr r4,.L100+8
 4159 001e 3346     	 mov r3,r6
 4160 0020 2A46     	 mov r2,r5
 4161 0022 A821     	 movs r1,#168
 4162 0024 A047     	 blx r4
 4163              	.LVL482:
 606:fips202.c     **** }
 4164              	 .loc 1 606 1 is_stmt 0 view .LVU1352
 4165 0026 03B0     	 add sp,sp,#12
 4166              	.LCFI29:
 4167              	 .cfi_def_cfa_offset 20
 4168              	 
 4169 0028 F0BD     	 pop {r4,r5,r6,r7,pc}
 4170              	.LVL483:
 4171              	.L101:
 4172              	 .loc 1 606 1 view .LVU1353
 4173 002a 00BF     	 .align 2
 4174              	.L100:
 4175 002c 00000000 	 .word malloc
 4176 0030 00000000 	 .word exit
 4177 0034 00000000 	 .word keccak_absorb
 4178              	 .cfi_endproc
 4179              	.LFE21:
 4181              	 .section .text.shake128_squeezeblocks,"ax",%progbits
 4182              	 .align 1
 4183              	 .global shake128_squeezeblocks
 4184              	 .syntax unified
 4185              	 .thumb
 4186              	 .thumb_func
 4188              	shake128_squeezeblocks:
 4189              	.LVL484:
 4190              	.LFB22:
 607:fips202.c     **** 
 608:fips202.c     **** /*************************************************
 609:fips202.c     ****  * Name:        shake128_squeezeblocks
 610:fips202.c     ****  *
 611:fips202.c     ****  * Description: Squeeze step of SHAKE128 XOF. Squeezes full blocks of
 612:fips202.c     ****  *              SHAKE128_RATE bytes each. Modifies the state. Can be called
 613:fips202.c     ****  *              multiple times to keep squeezing, i.e., is incremental.
 614:fips202.c     ****  *
 615:fips202.c     ****  * Arguments:   - uint8_t *output: pointer to output blocks
 616:fips202.c     ****  *              - size_t nblocks: number of blocks to be squeezed
 617:fips202.c     ****  *                                            (written to output)
 618:fips202.c     ****  *              - shake128ctx *state: pointer to input/output Keccak state
 619:fips202.c     ****  **************************************************/
 620:fips202.c     **** void shake128_squeezeblocks(uint8_t *output, size_t nblocks, shake128ctx *state) {
 4191              	 .loc 1 620 82 is_stmt 1 view-0
 4192              	 .cfi_startproc
 4193              	 
 4194              	 
 4195              	 
 621:fips202.c     ****     keccak_squeezeblocks(output, nblocks, state->ctx, SHAKE128_RATE);
 4196              	 .loc 1 621 5 view .LVU1355
 620:fips202.c     ****     keccak_squeezeblocks(output, nblocks, state->ctx, SHAKE128_RATE);
 4197              	 .loc 1 620 82 is_stmt 0 view .LVU1356
 4198 0000 10B4     	 push {r4}
 4199              	.LCFI30:
 4200              	 .cfi_def_cfa_offset 4
 4201              	 .cfi_offset 4,-4
 4202              	 .loc 1 621 5 view .LVU1357
 4203 0002 034C     	 ldr r4,.L103
 4204 0004 1268     	 ldr r2,[r2]
 4205              	.LVL485:
 4206              	 .loc 1 621 5 view .LVU1358
 4207 0006 A446     	 mov ip,r4
 4208 0008 A823     	 movs r3,#168
 622:fips202.c     **** }
 4209              	 .loc 1 622 1 view .LVU1359
 4210 000a 10BC     	 pop {r4}
 4211              	.LCFI31:
 4212              	 .cfi_restore 4
 4213              	 .cfi_def_cfa_offset 0
 621:fips202.c     ****     keccak_squeezeblocks(output, nblocks, state->ctx, SHAKE128_RATE);
 4214              	 .loc 1 621 5 view .LVU1360
 4215 000c 6047     	 bx ip
 4216              	.LVL486:
 4217              	.L104:
 621:fips202.c     ****     keccak_squeezeblocks(output, nblocks, state->ctx, SHAKE128_RATE);
 4218              	 .loc 1 621 5 view .LVU1361
 4219 000e 00BF     	 .align 2
 4220              	.L103:
 4221 0010 00000000 	 .word keccak_squeezeblocks
 4222              	 .cfi_endproc
 4223              	.LFE22:
 4225              	 .section .text.shake128_ctx_clone,"ax",%progbits
 4226              	 .align 1
 4227              	 .global shake128_ctx_clone
 4228              	 .syntax unified
 4229              	 .thumb
 4230              	 .thumb_func
 4232              	shake128_ctx_clone:
 4233              	.LVL487:
 4234              	.LFB23:
 623:fips202.c     **** 
 624:fips202.c     **** void shake128_ctx_clone(shake128ctx *dest, const shake128ctx *src) {
 4235              	 .loc 1 624 68 is_stmt 1 view-0
 4236              	 .cfi_startproc
 4237              	 
 4238              	 
 625:fips202.c     ****     dest->ctx = malloc(PQC_SHAKECTX_BYTES);
 4239              	 .loc 1 625 5 view .LVU1363
 624:fips202.c     ****     dest->ctx = malloc(PQC_SHAKECTX_BYTES);
 4240              	 .loc 1 624 68 is_stmt 0 view .LVU1364
 4241 0000 70B5     	 push {r4,r5,r6,lr}
 4242              	.LCFI32:
 4243              	 .cfi_def_cfa_offset 16
 4244              	 .cfi_offset 4,-16
 4245              	 .cfi_offset 5,-12
 4246              	 .cfi_offset 6,-8
 4247              	 .cfi_offset 14,-4
 4248              	 .loc 1 625 17 view .LVU1365
 4249 0002 084B     	 ldr r3,.L107
 624:fips202.c     ****     dest->ctx = malloc(PQC_SHAKECTX_BYTES);
 4250              	 .loc 1 624 68 view .LVU1366
 4251 0004 0546     	 mov r5,r0
 4252              	 .loc 1 625 17 view .LVU1367
 4253 0006 C820     	 movs r0,#200
 4254              	.LVL488:
 624:fips202.c     ****     dest->ctx = malloc(PQC_SHAKECTX_BYTES);
 4255              	 .loc 1 624 68 view .LVU1368
 4256 0008 0C46     	 mov r4,r1
 4257              	 .loc 1 625 17 view .LVU1369
 4258 000a 9847     	 blx r3
 4259              	.LVL489:
 4260              	 .loc 1 625 15 discriminator 1 view .LVU1370
 4261 000c 2860     	 str r0,[r5]
 626:fips202.c     ****     if (dest->ctx == NULL) {
 4262              	 .loc 1 626 5 is_stmt 1 view .LVU1371
 4263              	 .loc 1 626 8 is_stmt 0 view .LVU1372
 4264 000e 10B9     	 cbnz r0,.L106
 627:fips202.c     ****         exit(111);
 4265              	 .loc 1 627 9 is_stmt 1 view .LVU1373
 4266 0010 054B     	 ldr r3,.L107+4
 4267 0012 6F20     	 movs r0,#111
 4268 0014 9847     	 blx r3
 4269              	.LVL490:
 4270              	.L106:
 628:fips202.c     ****     }
 629:fips202.c     ****     memcpy(dest->ctx, src->ctx, PQC_SHAKECTX_BYTES);
 4271              	 .loc 1 629 5 view .LVU1374
 4272 0016 2168     	 ldr r1,[r4]
 4273 0018 044B     	 ldr r3,.L107+8
 630:fips202.c     **** }
 4274              	 .loc 1 630 1 is_stmt 0 view .LVU1375
 4275 001a BDE87040 	 pop {r4,r5,r6,lr}
 4276              	.LCFI33:
 4277              	 .cfi_restore 14
 4278              	 .cfi_restore 6
 4279              	 .cfi_restore 5
 4280              	 .cfi_restore 4
 4281              	 .cfi_def_cfa_offset 0
 4282              	.LVL491:
 629:fips202.c     **** }
 4283              	 .loc 1 629 5 view .LVU1376
 4284 001e C822     	 movs r2,#200
 4285 0020 1847     	 bx r3
 4286              	.LVL492:
 4287              	.L108:
 4288 0022 00BF     	 .align 2
 4289              	.L107:
 4290 0024 00000000 	 .word malloc
 4291 0028 00000000 	 .word exit
 4292 002c 00000000 	 .word memcpy
 4293              	 .cfi_endproc
 4294              	.LFE23:
 4296              	 .section .text.shake128_ctx_release,"ax",%progbits
 4297              	 .align 1
 4298              	 .global shake128_ctx_release
 4299              	 .syntax unified
 4300              	 .thumb
 4301              	 .thumb_func
 4303              	shake128_ctx_release:
 4304              	.LVL493:
 4305              	.LFB24:
 631:fips202.c     **** 
 632:fips202.c     **** /** Release the allocated state. Call only once. */
 633:fips202.c     **** void shake128_ctx_release(shake128ctx *state) {
 4306              	 .loc 1 633 47 is_stmt 1 view-0
 4307              	 .cfi_startproc
 4308              	 
 4309              	 
 4310              	 
 634:fips202.c     ****     free(state->ctx);
 4311              	 .loc 1 634 5 view .LVU1378
 4312 0000 0068     	 ldr r0,[r0]
 4313              	.LVL494:
 4314              	 .loc 1 634 5 is_stmt 0 view .LVU1379
 4315 0002 014B     	 ldr r3,.L110
 4316 0004 1847     	 bx r3
 4317              	.LVL495:
 4318              	.L111:
 4319 0006 00BF     	 .align 2
 4320              	.L110:
 4321 0008 00000000 	 .word free
 4322              	 .cfi_endproc
 4323              	.LFE24:
 4325              	 .section .text.shake256_absorb,"ax",%progbits
 4326              	 .align 1
 4327              	 .global shake256_absorb
 4328              	 .syntax unified
 4329              	 .thumb
 4330              	 .thumb_func
 4332              	shake256_absorb:
 4333              	.LVL496:
 4334              	.LFB25:
 635:fips202.c     **** }
 636:fips202.c     **** 
 637:fips202.c     **** /*************************************************
 638:fips202.c     ****  * Name:        shake256_absorb
 639:fips202.c     ****  *
 640:fips202.c     ****  * Description: Absorb step of the SHAKE256 XOF.
 641:fips202.c     ****  *              non-incremental, starts by zeroeing the state.
 642:fips202.c     ****  *
 643:fips202.c     ****  * Arguments:   - shake256ctx *state: pointer to (uninitialized) output Keccak state
 644:fips202.c     ****  *              - const uint8_t *input: pointer to input to be absorbed
 645:fips202.c     ****  *                                            into s
 646:fips202.c     ****  *              - size_t inlen: length of input in bytes
 647:fips202.c     ****  **************************************************/
 648:fips202.c     **** void shake256_absorb(shake256ctx *state, const uint8_t *input, size_t inlen) {
 4335              	 .loc 1 648 78 is_stmt 1 view-0
 4336              	 .cfi_startproc
 4337              	 
 4338              	 
 4339              	 .loc 1 648 78 is_stmt 0 view .LVU1381
 4340 0000 F7B5     	 push {r0,r1,r2,r4,r5,r6,r7,lr}
 4341              	.LCFI34:
 4342              	 .cfi_def_cfa_offset 32
 4343              	 .cfi_offset 4,-20
 4344              	 .cfi_offset 5,-16
 4345              	 .cfi_offset 6,-12
 4346              	 .cfi_offset 7,-8
 4347              	 .cfi_offset 14,-4
 649:fips202.c     ****     state->ctx = malloc(PQC_SHAKECTX_BYTES);
 4348              	 .loc 1 649 18 view .LVU1382
 4349 0002 0A4B     	 ldr r3,.L114
 648:fips202.c     ****     state->ctx = malloc(PQC_SHAKECTX_BYTES);
 4350              	 .loc 1 648 78 view .LVU1383
 4351 0004 0746     	 mov r7,r0
 4352              	 .loc 1 649 18 view .LVU1384
 4353 0006 C820     	 movs r0,#200
 4354              	.LVL497:
 648:fips202.c     ****     state->ctx = malloc(PQC_SHAKECTX_BYTES);
 4355              	 .loc 1 648 78 view .LVU1385
 4356 0008 0D46     	 mov r5,r1
 4357              	 .loc 1 649 5 is_stmt 1 view .LVU1386
 648:fips202.c     ****     state->ctx = malloc(PQC_SHAKECTX_BYTES);
 4358              	 .loc 1 648 78 is_stmt 0 view .LVU1387
 4359 000a 1646     	 mov r6,r2
 4360              	 .loc 1 649 18 view .LVU1388
 4361 000c 9847     	 blx r3
 4362              	.LVL498:
 4363              	 .loc 1 649 16 discriminator 1 view .LVU1389
 4364 000e 3860     	 str r0,[r7]
 650:fips202.c     ****     if (state->ctx == NULL) {
 4365              	 .loc 1 650 5 is_stmt 1 view .LVU1390
 4366              	 .loc 1 650 8 is_stmt 0 view .LVU1391
 4367 0010 10B9     	 cbnz r0,.L113
 4368              	.LBB35:
 4369              	.LBI35:
 600:fips202.c     ****     state->ctx = malloc(PQC_SHAKECTX_BYTES);
 4370              	 .loc 1 600 6 is_stmt 1 view .LVU1392
 4371              	.LVL499:
 4372              	.LBB36:
 603:fips202.c     ****     }
 4373              	 .loc 1 603 9 view .LVU1393
 4374 0012 074B     	 ldr r3,.L114+4
 4375 0014 6F20     	 movs r0,#111
 4376 0016 9847     	 blx r3
 4377              	.LVL500:
 4378              	.L113:
 603:fips202.c     ****     }
 4379              	 .loc 1 603 9 is_stmt 0 view .LVU1394
 4380              	.LBE36:
 4381              	.LBE35:
 651:fips202.c     ****         exit(111);
 652:fips202.c     ****     }
 653:fips202.c     ****     keccak_absorb(state->ctx, SHAKE256_RATE, input, inlen, 0x1F);
 4382              	 .loc 1 653 5 is_stmt 1 view .LVU1395
 4383 0018 1F23     	 movs r3,#31
 4384 001a 0093     	 str r3,[sp]
 4385 001c 054C     	 ldr r4,.L114+8
 4386 001e 3346     	 mov r3,r6
 4387 0020 2A46     	 mov r2,r5
 4388 0022 8821     	 movs r1,#136
 4389 0024 A047     	 blx r4
 4390              	.LVL501:
 654:fips202.c     **** }
 4391              	 .loc 1 654 1 is_stmt 0 view .LVU1396
 4392 0026 03B0     	 add sp,sp,#12
 4393              	.LCFI35:
 4394              	 .cfi_def_cfa_offset 20
 4395              	 
 4396 0028 F0BD     	 pop {r4,r5,r6,r7,pc}
 4397              	.LVL502:
 4398              	.L115:
 4399              	 .loc 1 654 1 view .LVU1397
 4400 002a 00BF     	 .align 2
 4401              	.L114:
 4402 002c 00000000 	 .word malloc
 4403 0030 00000000 	 .word exit
 4404 0034 00000000 	 .word keccak_absorb
 4405              	 .cfi_endproc
 4406              	.LFE25:
 4408              	 .section .text.shake256_squeezeblocks,"ax",%progbits
 4409              	 .align 1
 4410              	 .global shake256_squeezeblocks
 4411              	 .syntax unified
 4412              	 .thumb
 4413              	 .thumb_func
 4415              	shake256_squeezeblocks:
 4416              	.LVL503:
 4417              	.LFB26:
 655:fips202.c     **** 
 656:fips202.c     **** /*************************************************
 657:fips202.c     ****  * Name:        shake256_squeezeblocks
 658:fips202.c     ****  *
 659:fips202.c     ****  * Description: Squeeze step of SHAKE256 XOF. Squeezes full blocks of
 660:fips202.c     ****  *              SHAKE256_RATE bytes each. Modifies the state. Can be called
 661:fips202.c     ****  *              multiple times to keep squeezing, i.e., is incremental.
 662:fips202.c     ****  *
 663:fips202.c     ****  * Arguments:   - uint8_t *output: pointer to output blocks
 664:fips202.c     ****  *              - size_t nblocks: number of blocks to be squeezed
 665:fips202.c     ****  *                                (written to output)
 666:fips202.c     ****  *              - shake256ctx *state: pointer to input/output Keccak state
 667:fips202.c     ****  **************************************************/
 668:fips202.c     **** void shake256_squeezeblocks(uint8_t *output, size_t nblocks, shake256ctx *state) {
 4418              	 .loc 1 668 82 is_stmt 1 view-0
 4419              	 .cfi_startproc
 4420              	 
 4421              	 
 4422              	 
 669:fips202.c     ****     keccak_squeezeblocks(output, nblocks, state->ctx, SHAKE256_RATE);
 4423              	 .loc 1 669 5 view .LVU1399
 668:fips202.c     ****     keccak_squeezeblocks(output, nblocks, state->ctx, SHAKE256_RATE);
 4424              	 .loc 1 668 82 is_stmt 0 view .LVU1400
 4425 0000 10B4     	 push {r4}
 4426              	.LCFI36:
 4427              	 .cfi_def_cfa_offset 4
 4428              	 .cfi_offset 4,-4
 4429              	 .loc 1 669 5 view .LVU1401
 4430 0002 034C     	 ldr r4,.L117
 4431 0004 1268     	 ldr r2,[r2]
 4432              	.LVL504:
 4433              	 .loc 1 669 5 view .LVU1402
 4434 0006 A446     	 mov ip,r4
 4435 0008 8823     	 movs r3,#136
 670:fips202.c     **** }
 4436              	 .loc 1 670 1 view .LVU1403
 4437 000a 10BC     	 pop {r4}
 4438              	.LCFI37:
 4439              	 .cfi_restore 4
 4440              	 .cfi_def_cfa_offset 0
 669:fips202.c     ****     keccak_squeezeblocks(output, nblocks, state->ctx, SHAKE256_RATE);
 4441              	 .loc 1 669 5 view .LVU1404
 4442 000c 6047     	 bx ip
 4443              	.LVL505:
 4444              	.L118:
 669:fips202.c     ****     keccak_squeezeblocks(output, nblocks, state->ctx, SHAKE256_RATE);
 4445              	 .loc 1 669 5 view .LVU1405
 4446 000e 00BF     	 .align 2
 4447              	.L117:
 4448 0010 00000000 	 .word keccak_squeezeblocks
 4449              	 .cfi_endproc
 4450              	.LFE26:
 4452              	 .section .text.shake256_ctx_clone,"ax",%progbits
 4453              	 .align 1
 4454              	 .global shake256_ctx_clone
 4455              	 .syntax unified
 4456              	 .thumb
 4457              	 .thumb_func
 4459              	shake256_ctx_clone:
 4460              	.LVL506:
