   1              	 .cpu cortex-m4
   2              	 .arch armv7e-m
   3              	 .fpu softvfp
   4              	 .eabi_attribute 20,1
   5              	 .eabi_attribute 21,1
   6              	 .eabi_attribute 23,3
   7              	 .eabi_attribute 24,1
   8              	 .eabi_attribute 25,1
   9              	 .eabi_attribute 26,1
  10              	 .eabi_attribute 30,4
  11              	 .eabi_attribute 34,1
  12              	 .eabi_attribute 18,4
  13              	 .file "indcpa.c"
  14              	 .text
  15              	.Ltext0:
  16              	 .cfi_sections .debug_frame
  17              	 .file 1 "indcpa.c"
  18              	 .section .text.rej_uniform,"ax",%progbits
  19              	 .align 1
  20              	 .syntax unified
  21              	 .thumb
  22              	 .thumb_func
  24              	rej_uniform:
  25              	.LVL0:
  26              	.LFB6:
   1:indcpa.c      **** #include "indcpa.h"
   2:indcpa.c      **** #include "ntt.h"
   3:indcpa.c      **** #include "params.h"
   4:indcpa.c      **** #include "poly.h"
   5:indcpa.c      **** #include "polyvec.h"
   6:indcpa.c      **** #include "randombytes.h"
   7:indcpa.c      **** #include "symmetric.h"
   8:indcpa.c      **** #include <stddef.h>
   9:indcpa.c      **** #include <stdint.h>
  10:indcpa.c      **** #include <string.h>
  11:indcpa.c      **** 
  12:indcpa.c      **** /*************************************************
  13:indcpa.c      **** * Name:        pack_pk
  14:indcpa.c      **** *
  15:indcpa.c      **** * Description: Serialize the public key as concatenation of the
  16:indcpa.c      **** *              serialized vector of polynomials pk
  17:indcpa.c      **** *              and the public seed used to generate the matrix A.
  18:indcpa.c      **** *
  19:indcpa.c      **** * Arguments:   uint8_t *r: pointer to the output serialized public key
  20:indcpa.c      **** *              polyvec *pk: pointer to the input public-key polyvec
  21:indcpa.c      **** *              const uint8_t *seed: pointer to the input public seed
  22:indcpa.c      **** **************************************************/
  23:indcpa.c      **** static void pack_pk(uint8_t r[KYBER_INDCPA_PUBLICKEYBYTES],
  24:indcpa.c      ****                     polyvec *pk,
  25:indcpa.c      ****                     const uint8_t seed[KYBER_SYMBYTES]) {
  26:indcpa.c      ****     PQCLEAN_MLKEM512_CLEAN_polyvec_tobytes(r, pk);
  27:indcpa.c      ****     memcpy(r + KYBER_POLYVECBYTES, seed, KYBER_SYMBYTES);
  28:indcpa.c      **** }
  29:indcpa.c      **** 
  30:indcpa.c      **** /*************************************************
  31:indcpa.c      **** * Name:        unpack_pk
  32:indcpa.c      **** *
  33:indcpa.c      **** * Description: De-serialize public key from a byte array;
  34:indcpa.c      **** *              approximate inverse of pack_pk
  35:indcpa.c      **** *
  36:indcpa.c      **** * Arguments:   - polyvec *pk: pointer to output public-key polynomial vector
  37:indcpa.c      **** *              - uint8_t *seed: pointer to output seed to generate matrix A
  38:indcpa.c      **** *              - const uint8_t *packedpk: pointer to input serialized public key
  39:indcpa.c      **** **************************************************/
  40:indcpa.c      **** static void unpack_pk(polyvec *pk,
  41:indcpa.c      ****                       uint8_t seed[KYBER_SYMBYTES],
  42:indcpa.c      ****                       const uint8_t packedpk[KYBER_INDCPA_PUBLICKEYBYTES]) {
  43:indcpa.c      ****     PQCLEAN_MLKEM512_CLEAN_polyvec_frombytes(pk, packedpk);
  44:indcpa.c      ****     memcpy(seed, packedpk + KYBER_POLYVECBYTES, KYBER_SYMBYTES);
  45:indcpa.c      **** }
  46:indcpa.c      **** 
  47:indcpa.c      **** /*************************************************
  48:indcpa.c      **** * Name:        pack_sk
  49:indcpa.c      **** *
  50:indcpa.c      **** * Description: Serialize the secret key
  51:indcpa.c      **** *
  52:indcpa.c      **** * Arguments:   - uint8_t *r: pointer to output serialized secret key
  53:indcpa.c      **** *              - polyvec *sk: pointer to input vector of polynomials (secret key)
  54:indcpa.c      **** **************************************************/
  55:indcpa.c      **** static void pack_sk(uint8_t r[KYBER_INDCPA_SECRETKEYBYTES], polyvec *sk) {
  56:indcpa.c      ****     PQCLEAN_MLKEM512_CLEAN_polyvec_tobytes(r, sk);
  57:indcpa.c      **** }
  58:indcpa.c      **** 
  59:indcpa.c      **** /*************************************************
  60:indcpa.c      **** * Name:        unpack_sk
  61:indcpa.c      **** *
  62:indcpa.c      **** * Description: De-serialize the secret key; inverse of pack_sk
  63:indcpa.c      **** *
  64:indcpa.c      **** * Arguments:   - polyvec *sk: pointer to output vector of polynomials (secret key)
  65:indcpa.c      **** *              - const uint8_t *packedsk: pointer to input serialized secret key
  66:indcpa.c      **** **************************************************/
  67:indcpa.c      **** static void unpack_sk(polyvec *sk, const uint8_t packedsk[KYBER_INDCPA_SECRETKEYBYTES]) {
  68:indcpa.c      ****     PQCLEAN_MLKEM512_CLEAN_polyvec_frombytes(sk, packedsk);
  69:indcpa.c      **** }
  70:indcpa.c      **** 
  71:indcpa.c      **** /*************************************************
  72:indcpa.c      **** * Name:        pack_ciphertext
  73:indcpa.c      **** *
  74:indcpa.c      **** * Description: Serialize the ciphertext as concatenation of the
  75:indcpa.c      **** *              compressed and serialized vector of polynomials b
  76:indcpa.c      **** *              and the compressed and serialized polynomial v
  77:indcpa.c      **** *
  78:indcpa.c      **** * Arguments:   uint8_t *r: pointer to the output serialized ciphertext
  79:indcpa.c      **** *              poly *pk: pointer to the input vector of polynomials b
  80:indcpa.c      **** *              poly *v: pointer to the input polynomial v
  81:indcpa.c      **** **************************************************/
  82:indcpa.c      **** static void pack_ciphertext(uint8_t r[KYBER_INDCPA_BYTES], polyvec *b, poly *v) {
  83:indcpa.c      ****     PQCLEAN_MLKEM512_CLEAN_polyvec_compress(r, b);
  84:indcpa.c      ****     PQCLEAN_MLKEM512_CLEAN_poly_compress(r + KYBER_POLYVECCOMPRESSEDBYTES, v);
  85:indcpa.c      **** }
  86:indcpa.c      **** 
  87:indcpa.c      **** /*************************************************
  88:indcpa.c      **** * Name:        unpack_ciphertext
  89:indcpa.c      **** *
  90:indcpa.c      **** * Description: De-serialize and decompress ciphertext from a byte array;
  91:indcpa.c      **** *              approximate inverse of pack_ciphertext
  92:indcpa.c      **** *
  93:indcpa.c      **** * Arguments:   - polyvec *b: pointer to the output vector of polynomials b
  94:indcpa.c      **** *              - poly *v: pointer to the output polynomial v
  95:indcpa.c      **** *              - const uint8_t *c: pointer to the input serialized ciphertext
  96:indcpa.c      **** **************************************************/
  97:indcpa.c      **** static void unpack_ciphertext(polyvec *b, poly *v, const uint8_t c[KYBER_INDCPA_BYTES]) {
  98:indcpa.c      ****     PQCLEAN_MLKEM512_CLEAN_polyvec_decompress(b, c);
  99:indcpa.c      ****     PQCLEAN_MLKEM512_CLEAN_poly_decompress(v, c + KYBER_POLYVECCOMPRESSEDBYTES);
 100:indcpa.c      **** }
 101:indcpa.c      **** 
 102:indcpa.c      **** /*************************************************
 103:indcpa.c      **** * Name:        rej_uniform
 104:indcpa.c      **** *
 105:indcpa.c      **** * Description: Run rejection sampling on uniform random bytes to generate
 106:indcpa.c      **** *              uniform random integers mod q
 107:indcpa.c      **** *
 108:indcpa.c      **** * Arguments:   - int16_t *r: pointer to output buffer
 109:indcpa.c      **** *              - unsigned int len: requested number of 16-bit integers (uniform mod q)
 110:indcpa.c      **** *              - const uint8_t *buf: pointer to input buffer (assumed to be uniformly random bytes)
 111:indcpa.c      **** *              - unsigned int buflen: length of input buffer in bytes
 112:indcpa.c      **** *
 113:indcpa.c      **** * Returns number of sampled 16-bit integers (at most len)
 114:indcpa.c      **** **************************************************/
 115:indcpa.c      **** static unsigned int rej_uniform(int16_t *r,
 116:indcpa.c      ****                                 unsigned int len,
 117:indcpa.c      ****                                 const uint8_t *buf,
 118:indcpa.c      ****                                 unsigned int buflen) {
  27              	 .loc 1 118 54 view-0
  28              	 .cfi_startproc
  29              	 
  30              	 
  31              	 .loc 1 118 54 is_stmt 0 view .LVU1
  32 0000 F0B5     	 push {r4,r5,r6,r7,lr}
  33              	.LCFI0:
  34              	 .cfi_def_cfa_offset 20
  35              	 .cfi_offset 4,-20
  36              	 .cfi_offset 5,-16
  37              	 .cfi_offset 6,-12
  38              	 .cfi_offset 7,-8
  39              	 .cfi_offset 14,-4
  40              	 .loc 1 118 54 view .LVU2
  41 0002 0746     	 mov r7,r0
 119:indcpa.c      ****     unsigned int ctr, pos;
  42              	 .loc 1 119 5 is_stmt 1 view .LVU3
 120:indcpa.c      ****     uint16_t val0, val1;
  43              	 .loc 1 120 5 view .LVU4
 121:indcpa.c      **** 
 122:indcpa.c      ****     ctr = pos = 0;
  44              	 .loc 1 122 5 view .LVU5
  45              	.LVL1:
 123:indcpa.c      ****     while (ctr < len && pos + 3 <= buflen) {
  46              	 .loc 1 123 5 view .LVU6
  47              	 .loc 1 123 22 view .LVU7
  48              	 .loc 1 123 22 is_stmt 0 discriminator 1 view .LVU8
  49 0004 C2F1030E 	 rsb lr,r2,#3
 122:indcpa.c      ****     while (ctr < len && pos + 3 <= buflen) {
  50              	 .loc 1 122 9 view .LVU9
  51 0008 0020     	 movs r0,#0
  52              	.LVL2:
  53              	.L5:
 124:indcpa.c      ****         val0 = ((buf[pos + 0] >> 0) | ((uint16_t)buf[pos + 1] << 8)) & 0xFFF;
  54              	 .loc 1 124 9 is_stmt 1 view .LVU10
  55              	 .loc 1 124 53 is_stmt 0 view .LVU11
  56 000a 92F801C0 	 ldrb ip,[r2,#1]
  57              	 .loc 1 124 21 view .LVU12
  58 000e 1678     	 ldrb r6,[r2]
 125:indcpa.c      ****         val1 = ((buf[pos + 1] >> 4) | ((uint16_t)buf[pos + 2] << 4)) & 0xFFF;
  59              	 .loc 1 125 53 view .LVU13
  60 0010 9578     	 ldrb r5,[r2,#2]
 124:indcpa.c      ****         val0 = ((buf[pos + 0] >> 0) | ((uint16_t)buf[pos + 1] << 8)) & 0xFFF;
  61              	 .loc 1 124 37 view .LVU14
  62 0012 46EA0C26 	 orr r6,r6,ip,lsl#8
  63 0016 C6F30B06 	 ubfx r6,r6,#0,#12
  64              	.LVL3:
  65              	 .loc 1 125 9 is_stmt 1 view .LVU15
 126:indcpa.c      ****         pos += 3;
  66              	 .loc 1 126 9 view .LVU16
 127:indcpa.c      **** 
 128:indcpa.c      ****         if (val0 < KYBER_Q) {
  67              	 .loc 1 128 9 view .LVU17
  68              	 .loc 1 128 12 is_stmt 0 view .LVU18
  69 001a B6F5506F 	 cmp r6,#3328
 129:indcpa.c      ****             r[ctr++] = val0;
  70              	 .loc 1 129 13 is_stmt 1 view .LVU19
  71              	 .loc 1 129 18 is_stmt 0 view .LVU20
  72 001e D6BF     	 itet le
  73 0020 441C     	 addle r4,r0,#1
  74              	.LVL4:
  75              	 .loc 1 129 18 view .LVU21
  76 0022 0446     	 movgt r4,r0
  77              	.LVL5:
 130:indcpa.c      ****         }
 131:indcpa.c      ****         if (ctr < len && val1 < KYBER_Q) {
  78              	 .loc 1 131 9 is_stmt 1 view .LVU22
 129:indcpa.c      ****             r[ctr++] = val0;
  79              	 .loc 1 129 22 is_stmt 0 view .LVU23
  80 0024 27F81060 	 strhle r6,[r7,r0,lsl#1]
  81              	 .loc 1 131 12 view .LVU24
  82 0028 8C42     	 cmp r4,r1
  83 002a 12D2     	 bcs .L7
 125:indcpa.c      ****         pos += 3;
  84              	 .loc 1 125 37 view .LVU25
  85 002c 2D01     	 lsls r5,r5,#4
  86              	.LVL6:
 125:indcpa.c      ****         pos += 3;
  87              	 .loc 1 125 37 view .LVU26
  88 002e 45EA1C15 	 orr r5,r5,ip,lsr#4
  89              	 .loc 1 131 23 discriminator 1 view .LVU27
  90 0032 B5F5506F 	 cmp r5,#3328
  91 0036 05DC     	 bgt .L8
 132:indcpa.c      ****             r[ctr++] = val1;
  92              	 .loc 1 132 13 is_stmt 1 view .LVU28
  93              	 .loc 1 132 18 is_stmt 0 view .LVU29
  94 0038 601C     	 adds r0,r4,#1
  95              	.LVL7:
 123:indcpa.c      ****         val0 = ((buf[pos + 0] >> 0) | ((uint16_t)buf[pos + 1] << 8)) & 0xFFF;
  96              	 .loc 1 123 22 view .LVU30
  97 003a 8142     	 cmp r1,r0
  98              	 .loc 1 132 22 view .LVU31
  99 003c 27F81450 	 strh r5,[r7,r4,lsl#1]
 123:indcpa.c      ****         val0 = ((buf[pos + 0] >> 0) | ((uint16_t)buf[pos + 1] << 8)) & 0xFFF;
 100              	 .loc 1 123 22 is_stmt 1 view .LVU32
 101 0040 01D8     	 bhi .L4
 102              	.LVL8:
 103              	.L1:
 133:indcpa.c      ****         }
 134:indcpa.c      ****     }
 135:indcpa.c      **** 
 136:indcpa.c      ****     return ctr;
 137:indcpa.c      **** }
 104              	 .loc 1 137 1 is_stmt 0 view .LVU33
 105 0042 F0BD     	 pop {r4,r5,r6,r7,pc}
 106              	.LVL9:
 107              	.L8:
 108              	 .loc 1 137 1 view .LVU34
 109 0044 2046     	 mov r0,r4
 110              	.LVL10:
 111              	.L4:
 123:indcpa.c      ****         val0 = ((buf[pos + 0] >> 0) | ((uint16_t)buf[pos + 1] << 8)) & 0xFFF;
 112              	 .loc 1 123 22 discriminator 1 view .LVU35
 113 0046 0332     	 adds r2,r2,#3
 114              	.LVL11:
 123:indcpa.c      ****         val0 = ((buf[pos + 0] >> 0) | ((uint16_t)buf[pos + 1] << 8)) & 0xFFF;
 115              	 .loc 1 123 22 discriminator 1 view .LVU36
 116 0048 0EEB0204 	 add r4,lr,r2
 117 004c A342     	 cmp r3,r4
 118 004e DCD2     	 bcs .L5
 123:indcpa.c      ****         val0 = ((buf[pos + 0] >> 0) | ((uint16_t)buf[pos + 1] << 8)) & 0xFFF;
 119              	 .loc 1 123 22 discriminator 1 view .LVU37
 120 0050 F7E7     	 b .L1
 121              	.LVL12:
 122              	.L7:
 123:indcpa.c      ****         val0 = ((buf[pos + 0] >> 0) | ((uint16_t)buf[pos + 1] << 8)) & 0xFFF;
 123              	 .loc 1 123 22 discriminator 1 view .LVU38
 124 0052 2046     	 mov r0,r4
 125              	.LVL13:
 136:indcpa.c      **** }
 126              	 .loc 1 136 5 is_stmt 1 view .LVU39
 136:indcpa.c      **** }
 127              	 .loc 1 136 12 is_stmt 0 view .LVU40
 128 0054 F5E7     	 b .L1
 129              	 .cfi_endproc
 130              	.LFE6:
 132              	 .section .text.PQCLEAN_MLKEM512_CLEAN_gen_matrix,"ax",%progbits
 133              	 .align 1
 134              	 .global PQCLEAN_MLKEM512_CLEAN_gen_matrix
 135              	 .syntax unified
 136              	 .thumb
 137              	 .thumb_func
 139              	PQCLEAN_MLKEM512_CLEAN_gen_matrix:
 140              	.LVL14:
 141              	.LFB7:
 138:indcpa.c      **** 
 139:indcpa.c      **** #define gen_a(A,B)  PQCLEAN_MLKEM512_CLEAN_gen_matrix(A,B,0)
 140:indcpa.c      **** #define gen_at(A,B) PQCLEAN_MLKEM512_CLEAN_gen_matrix(A,B,1)
 141:indcpa.c      **** 
 142:indcpa.c      **** /*************************************************
 143:indcpa.c      **** * Name:        PQCLEAN_MLKEM512_CLEAN_gen_matrix
 144:indcpa.c      **** *
 145:indcpa.c      **** * Description: Deterministically generate matrix A (or the transpose of A)
 146:indcpa.c      **** *              from a seed. Entries of the matrix are polynomials that look
 147:indcpa.c      **** *              uniformly random. Performs rejection sampling on output of
 148:indcpa.c      **** *              a XOF
 149:indcpa.c      **** *
 150:indcpa.c      **** * Arguments:   - polyvec *a: pointer to ouptput matrix A
 151:indcpa.c      **** *              - const uint8_t *seed: pointer to input seed
 152:indcpa.c      **** *              - int transposed: boolean deciding whether A or A^T is generated
 153:indcpa.c      **** **************************************************/
 154:indcpa.c      **** 
 155:indcpa.c      **** #define GEN_MATRIX_NBLOCKS ((12*KYBER_N/8*(1 << 12)/KYBER_Q + XOF_BLOCKBYTES)/XOF_BLOCKBYTES)
 156:indcpa.c      **** // Not static for benchmarking
 157:indcpa.c      **** void PQCLEAN_MLKEM512_CLEAN_gen_matrix(polyvec *a, const uint8_t seed[KYBER_SYMBYTES], int transpos
 142              	 .loc 1 157 104 is_stmt 1 view-0
 143              	 .cfi_startproc
 144              	 
 145              	 
 158:indcpa.c      ****     unsigned int ctr, i, j;
 146              	 .loc 1 158 5 view .LVU42
 159:indcpa.c      ****     unsigned int buflen;
 147              	 .loc 1 159 5 view .LVU43
 160:indcpa.c      ****     uint8_t buf[GEN_MATRIX_NBLOCKS * XOF_BLOCKBYTES];
 148              	 .loc 1 160 5 view .LVU44
 161:indcpa.c      ****     xof_state state;
 149              	 .loc 1 161 5 view .LVU45
 162:indcpa.c      **** 
 163:indcpa.c      ****     for (i = 0; i < KYBER_K; i++) {
 150              	 .loc 1 163 5 view .LVU46
 151              	 .loc 1 163 19 discriminator 1 view .LVU47
 157:indcpa.c      ****     unsigned int ctr, i, j;
 152              	 .loc 1 157 104 is_stmt 0 view .LVU48
 153 0000 2DE9F04F 	 push {r4,r5,r6,r7,r8,r9,r10,fp,lr}
 154              	.LCFI1:
 155              	 .cfi_def_cfa_offset 36
 156              	 .cfi_offset 4,-36
 157              	 .cfi_offset 5,-32
 158              	 .cfi_offset 6,-28
 159              	 .cfi_offset 7,-24
 160              	 .cfi_offset 8,-20
 161              	 .cfi_offset 9,-16
 162              	 .cfi_offset 10,-12
 163              	 .cfi_offset 11,-8
 164              	 .cfi_offset 14,-4
 165 0004 ADF5037D 	 sub sp,sp,#524
 166              	.LCFI2:
 167              	 .cfi_def_cfa_offset 560
 164:indcpa.c      ****         for (j = 0; j < KYBER_K; j++) {
 165:indcpa.c      ****             if (transposed) {
 166:indcpa.c      ****                 xof_absorb(&state, seed, (uint8_t)i, (uint8_t)j);
 167:indcpa.c      ****             } else {
 168:indcpa.c      ****                 xof_absorb(&state, seed, (uint8_t)j, (uint8_t)i);
 169:indcpa.c      ****             }
 170:indcpa.c      **** 
 171:indcpa.c      ****             xof_squeezeblocks(buf, GEN_MATRIX_NBLOCKS, &state);
 168              	 .loc 1 171 13 view .LVU49
 169 0008 DFF88890 	 ldr r9,.L20
 172:indcpa.c      ****             buflen = GEN_MATRIX_NBLOCKS * XOF_BLOCKBYTES;
 173:indcpa.c      ****             ctr = rej_uniform(a[i].vec[j].coeffs, KYBER_N, buf, buflen);
 170              	 .loc 1 173 19 view .LVU50
 171 000c DFF888A0 	 ldr r10,.L20+4
 157:indcpa.c      ****     unsigned int ctr, i, j;
 172              	 .loc 1 157 104 view .LVU51
 173 0010 0090     	 str r0,[sp]
 174 0012 0F46     	 mov r7,r1
 175 0014 0192     	 str r2,[sp,#4]
 163:indcpa.c      ****         for (j = 0; j < KYBER_K; j++) {
 176              	 .loc 1 163 12 view .LVU52
 177 0016 0026     	 movs r6,#0
 178              	.LVL15:
 179              	.L11:
 164:indcpa.c      ****             if (transposed) {
 180              	 .loc 1 164 23 is_stmt 1 discriminator 1 view .LVU53
 181 0018 009B     	 ldr r3,[sp]
 164:indcpa.c      ****             if (transposed) {
 182              	 .loc 1 164 16 is_stmt 0 view .LVU54
 183 001a 0025     	 movs r5,#0
 184 001c 03EB8628 	 add r8,r3,r6,lsl#10
 185              	.LVL16:
 186              	.L16:
 165:indcpa.c      ****                 xof_absorb(&state, seed, (uint8_t)i, (uint8_t)j);
 187              	 .loc 1 165 13 is_stmt 1 view .LVU55
 165:indcpa.c      ****                 xof_absorb(&state, seed, (uint8_t)i, (uint8_t)j);
 188              	 .loc 1 165 16 is_stmt 0 view .LVU56
 189 0020 019B     	 ldr r3,[sp,#4]
 190 0022 1E4C     	 ldr r4,.L20+8
 191 0024 EAB2     	 uxtb r2,r5
 192 0026 F1B2     	 uxtb r1,r6
 193 0028 23B3     	 cbz r3,.L12
 166:indcpa.c      ****             } else {
 194              	 .loc 1 166 17 is_stmt 1 view .LVU57
 195 002a 1346     	 mov r3,r2
 196 002c 0A46     	 mov r2,r1
 197              	.L19:
 168:indcpa.c      ****             }
 198              	 .loc 1 168 17 is_stmt 0 view .LVU58
 199 002e 3946     	 mov r1,r7
 200 0030 03A8     	 add r0,sp,#12
 201 0032 A047     	 blx r4
 202              	.LVL17:
 171:indcpa.c      ****             buflen = GEN_MATRIX_NBLOCKS * XOF_BLOCKBYTES;
 203              	 .loc 1 171 13 is_stmt 1 view .LVU59
 204              	 .loc 1 173 42 is_stmt 0 view .LVU60
 205 0034 08EB452B 	 add fp,r8,r5,lsl#9
 171:indcpa.c      ****             buflen = GEN_MATRIX_NBLOCKS * XOF_BLOCKBYTES;
 206              	 .loc 1 171 13 view .LVU61
 207 0038 03AA     	 add r2,sp,#12
 208 003a 0321     	 movs r1,#3
 209 003c 04A8     	 add r0,sp,#16
 210 003e C847     	 blx r9
 211              	.LVL18:
 172:indcpa.c      ****             ctr = rej_uniform(a[i].vec[j].coeffs, KYBER_N, buf, buflen);
 212              	 .loc 1 172 13 is_stmt 1 view .LVU62
 213              	 .loc 1 173 13 view .LVU63
 214              	 .loc 1 173 19 is_stmt 0 view .LVU64
 215 0040 4FF4FC73 	 mov r3,#504
 216 0044 04AA     	 add r2,sp,#16
 217 0046 4FF48071 	 mov r1,#256
 218 004a 5846     	 mov r0,fp
 219 004c D047     	 blx r10
 220              	.LVL19:
 221 004e 0446     	 mov r4,r0
 222              	.LVL20:
 174:indcpa.c      **** 
 175:indcpa.c      ****             while (ctr < KYBER_N) {
 223              	 .loc 1 175 13 is_stmt 1 view .LVU65
 224              	.L14:
 225              	 .loc 1 175 24 view .LVU66
 226 0050 FF2C     	 cmp r4,#255
 227 0052 11D9     	 bls .L15
 176:indcpa.c      ****                 xof_squeezeblocks(buf, 1, &state);
 177:indcpa.c      ****                 buflen = XOF_BLOCKBYTES;
 178:indcpa.c      ****                 ctr += rej_uniform(a[i].vec[j].coeffs + ctr, KYBER_N - ctr, buf, buflen);
 179:indcpa.c      ****             }
 180:indcpa.c      ****             xof_ctx_release(&state);
 228              	 .loc 1 180 13 view .LVU67
 229 0054 124B     	 ldr r3,.L20+12
 230 0056 03A8     	 add r0,sp,#12
 231 0058 9847     	 blx r3
 232              	.LVL21:
 164:indcpa.c      ****             if (transposed) {
 233              	 .loc 1 164 35 discriminator 2 view .LVU68
 234 005a 6B1C     	 adds r3,r5,#1
 235              	.LVL22:
 164:indcpa.c      ****             if (transposed) {
 236              	 .loc 1 164 23 discriminator 1 view .LVU69
 237 005c 022B     	 cmp r3,#2
 238 005e 4FF00105 	 mov r5,#1
 239 0062 DDD1     	 bne .L16
 163:indcpa.c      ****         for (j = 0; j < KYBER_K; j++) {
 240              	 .loc 1 163 31 discriminator 2 view .LVU70
 241 0064 7319     	 adds r3,r6,r5
 242              	.LVL23:
 163:indcpa.c      ****         for (j = 0; j < KYBER_K; j++) {
 243              	 .loc 1 163 19 discriminator 1 view .LVU71
 244 0066 022B     	 cmp r3,#2
 245 0068 2E46     	 mov r6,r5
 246 006a D5D1     	 bne .L11
 181:indcpa.c      ****         }
 182:indcpa.c      ****     }
 183:indcpa.c      **** }
 247              	 .loc 1 183 1 is_stmt 0 view .LVU72
 248 006c 0DF5037D 	 add sp,sp,#524
 249              	.LCFI3:
 250              	 .cfi_remember_state
 251              	 .cfi_def_cfa_offset 36
 252              	.LVL24:
 253              	 .loc 1 183 1 view .LVU73
 254              	 
 255 0070 BDE8F08F 	 pop {r4,r5,r6,r7,r8,r9,r10,fp,pc}
 256              	.LVL25:
 257              	.L12:
 258              	.LCFI4:
 259              	 .cfi_restore_state
 168:indcpa.c      ****             }
 260              	 .loc 1 168 17 is_stmt 1 view .LVU74
 261 0074 0B46     	 mov r3,r1
 262 0076 DAE7     	 b .L19
 263              	.LVL26:
 264              	.L15:
 176:indcpa.c      ****                 buflen = XOF_BLOCKBYTES;
 265              	 .loc 1 176 17 view .LVU75
 266 0078 03AA     	 add r2,sp,#12
 267 007a 0121     	 movs r1,#1
 268 007c 04A8     	 add r0,sp,#16
 269 007e C847     	 blx r9
 270              	.LVL27:
 177:indcpa.c      ****                 ctr += rej_uniform(a[i].vec[j].coeffs + ctr, KYBER_N - ctr, buf, buflen);
 271              	 .loc 1 177 17 view .LVU76
 178:indcpa.c      ****             }
 272              	 .loc 1 178 17 view .LVU77
 178:indcpa.c      ****             }
 273              	 .loc 1 178 24 is_stmt 0 view .LVU78
 274 0080 C4F58071 	 rsb r1,r4,#256
 275 0084 0BEB4400 	 add r0,fp,r4,lsl#1
 276 0088 A823     	 movs r3,#168
 277 008a 04AA     	 add r2,sp,#16
 278 008c D047     	 blx r10
 279              	.LVL28:
 178:indcpa.c      ****             }
 280              	 .loc 1 178 21 discriminator 1 view .LVU79
 281 008e 0444     	 add r4,r4,r0
 282              	.LVL29:
 178:indcpa.c      ****             }
 283              	 .loc 1 178 21 discriminator 1 view .LVU80
 284 0090 DEE7     	 b .L14
 285              	.L21:
 286 0092 00BF     	 .align 2
 287              	.L20:
 288 0094 00000000 	 .word shake128_squeezeblocks
 289 0098 00000000 	 .word rej_uniform
 290 009c 00000000 	 .word PQCLEAN_MLKEM512_CLEAN_kyber_shake128_absorb
 291 00a0 00000000 	 .word shake128_ctx_release
 292              	 .cfi_endproc
 293              	.LFE7:
 295              	 .section .text.PQCLEAN_MLKEM512_CLEAN_indcpa_keypair_derand,"ax",%progbits
 296              	 .align 1
 297              	 .global PQCLEAN_MLKEM512_CLEAN_indcpa_keypair_derand
 298              	 .syntax unified
 299              	 .thumb
 300              	 .thumb_func
 302              	PQCLEAN_MLKEM512_CLEAN_indcpa_keypair_derand:
 303              	.LVL30:
 304              	.LFB8:
 184:indcpa.c      **** 
 185:indcpa.c      **** /*************************************************
 186:indcpa.c      **** * Name:        PQCLEAN_MLKEM512_CLEAN_indcpa_keypair_derand
 187:indcpa.c      **** *
 188:indcpa.c      **** * Description: Generates public and private key for the CPA-secure
 189:indcpa.c      **** *              public-key encryption scheme underlying Kyber
 190:indcpa.c      **** *
 191:indcpa.c      **** * Arguments:   - uint8_t *pk: pointer to output public key
 192:indcpa.c      **** *                             (of length KYBER_INDCPA_PUBLICKEYBYTES bytes)
 193:indcpa.c      **** *              - uint8_t *sk: pointer to output private key
 194:indcpa.c      **** *                             (of length KYBER_INDCPA_SECRETKEYBYTES bytes)
 195:indcpa.c      **** *              - const uint8_t *coins: pointer to input randomness
 196:indcpa.c      **** *                             (of length KYBER_SYMBYTES bytes)
 197:indcpa.c      **** **************************************************/
 198:indcpa.c      **** void PQCLEAN_MLKEM512_CLEAN_indcpa_keypair_derand(uint8_t pk[KYBER_INDCPA_PUBLICKEYBYTES],
 199:indcpa.c      ****         uint8_t sk[KYBER_INDCPA_SECRETKEYBYTES],
 200:indcpa.c      ****         const uint8_t coins[KYBER_SYMBYTES]) {
 305              	 .loc 1 200 46 is_stmt 1 view-0
 306              	 .cfi_startproc
 307              	 
 308              	 
 201:indcpa.c      ****     unsigned int i;
 309              	 .loc 1 201 5 view .LVU82
 202:indcpa.c      ****     uint8_t buf[2 * KYBER_SYMBYTES];
 310              	 .loc 1 202 5 view .LVU83
 203:indcpa.c      ****     const uint8_t *publicseed = buf;
 311              	 .loc 1 203 5 view .LVU84
 200:indcpa.c      ****     unsigned int i;
 312              	 .loc 1 200 46 is_stmt 0 view .LVU85
 313 0000 2DE9F041 	 push {r4,r5,r6,r7,r8,lr}
 314              	.LCFI5:
 315              	 .cfi_def_cfa_offset 24
 316              	 .cfi_offset 4,-24
 317              	 .cfi_offset 5,-20
 318              	 .cfi_offset 6,-16
 319              	 .cfi_offset 7,-12
 320              	 .cfi_offset 8,-8
 321              	 .cfi_offset 14,-4
 322 0004 ADF5A25D 	 sub sp,sp,#5184
 323              	.LCFI6:
 324              	 .cfi_def_cfa_offset 5208
 325              	.LVL31:
 204:indcpa.c      ****     const uint8_t *noiseseed = buf + KYBER_SYMBYTES;
 326              	 .loc 1 204 5 is_stmt 1 view .LVU86
 205:indcpa.c      ****     uint8_t nonce = 0;
 327              	 .loc 1 205 5 view .LVU87
 206:indcpa.c      ****     polyvec a[KYBER_K], e, pkpv, skpv;
 328              	 .loc 1 206 5 view .LVU88
 207:indcpa.c      **** 
 208:indcpa.c      ****     memcpy(buf, coins, KYBER_SYMBYTES);
 329              	 .loc 1 208 5 view .LVU89
 200:indcpa.c      ****     unsigned int i;
 330              	 .loc 1 200 46 is_stmt 0 view .LVU90
 331 0008 0446     	 mov r4,r0
 332 000a 0F46     	 mov r7,r1
 333              	 .loc 1 208 5 view .LVU91
 334 000c 6D46     	 mov r5,sp
 335 000e 02F12006 	 add r6,r2,#32
 336              	.LVL32:
 337              	.L23:
 338              	 .loc 1 208 5 view .LVU92
 339 0012 1068     	 ldr r0,[r2]
 340 0014 5168     	 ldr r1,[r2,#4]
 341 0016 2B46     	 mov r3,r5
 342 0018 03C3     	 stmia r3!,{r0,r1}
 343 001a 0832     	 adds r2,r2,#8
 344 001c B242     	 cmp r2,r6
 345 001e 1D46     	 mov r5,r3
 346 0020 F7D1     	 bne .L23
 209:indcpa.c      ****     buf[KYBER_SYMBYTES] = KYBER_K;
 347              	 .loc 1 209 5 is_stmt 1 view .LVU93
 348              	 .loc 1 209 25 is_stmt 0 view .LVU94
 349 0022 4FF00208 	 mov r8,#2
 210:indcpa.c      ****     hash_g(buf, buf, KYBER_SYMBYTES + 1);
 350              	 .loc 1 210 5 view .LVU95
 351 0026 304B     	 ldr r3,.L27
 209:indcpa.c      ****     buf[KYBER_SYMBYTES] = KYBER_K;
 352              	 .loc 1 209 25 view .LVU96
 353 0028 8DF82080 	 strb r8,[sp,#32]
 354              	 .loc 1 210 5 is_stmt 1 view .LVU97
 355 002c 2122     	 movs r2,#33
 356 002e 6946     	 mov r1,sp
 357 0030 6846     	 mov r0,sp
 358 0032 9847     	 blx r3
 359              	.LVL33:
 211:indcpa.c      **** 
 212:indcpa.c      ****     gen_a(a, publicseed);
 360              	 .loc 1 212 5 view .LVU98
 213:indcpa.c      **** 
 214:indcpa.c      ****     for (i = 0; i < KYBER_K; i++) {
 215:indcpa.c      ****         PQCLEAN_MLKEM512_CLEAN_poly_getnoise_eta1(&skpv.vec[i], noiseseed, nonce++);
 361              	 .loc 1 215 9 is_stmt 0 view .LVU99
 362 0034 08AD     	 add r5,sp,#32
 363              	.LVL34:
 212:indcpa.c      **** 
 364              	 .loc 1 212 5 view .LVU100
 365 0036 2D4B     	 ldr r3,.L27+4
 366              	 .loc 1 215 9 view .LVU101
 367 0038 2D4E     	 ldr r6,.L27+8
 368              	.LVL35:
 212:indcpa.c      **** 
 369              	 .loc 1 212 5 view .LVU102
 370 003a 0022     	 movs r2,#0
 371 003c 6946     	 mov r1,sp
 372 003e 0DF54460 	 add r0,sp,#3136
 373 0042 9847     	 blx r3
 374              	.LVL36:
 214:indcpa.c      ****         PQCLEAN_MLKEM512_CLEAN_poly_getnoise_eta1(&skpv.vec[i], noiseseed, nonce++);
 375              	 .loc 1 214 5 is_stmt 1 view .LVU103
 214:indcpa.c      ****         PQCLEAN_MLKEM512_CLEAN_poly_getnoise_eta1(&skpv.vec[i], noiseseed, nonce++);
 376              	 .loc 1 214 19 discriminator 1 view .LVU104
 377              	 .loc 1 215 9 view .LVU105
 378              	 .loc 1 215 9 is_stmt 0 view .LVU106
 379 0044 0022     	 movs r2,#0
 380 0046 2946     	 mov r1,r5
 381 0048 0DF50460 	 add r0,sp,#2112
 382 004c B047     	 blx r6
 383              	.LVL37:
 214:indcpa.c      ****         PQCLEAN_MLKEM512_CLEAN_poly_getnoise_eta1(&skpv.vec[i], noiseseed, nonce++);
 384              	 .loc 1 214 31 is_stmt 1 discriminator 3 view .LVU107
 214:indcpa.c      ****         PQCLEAN_MLKEM512_CLEAN_poly_getnoise_eta1(&skpv.vec[i], noiseseed, nonce++);
 385              	 .loc 1 214 19 discriminator 1 view .LVU108
 386              	 .loc 1 215 9 view .LVU109
 387              	 .loc 1 215 9 is_stmt 0 view .LVU110
 388 004e 0122     	 movs r2,#1
 389 0050 2946     	 mov r1,r5
 390 0052 0DF52460 	 add r0,sp,#2624
 391 0056 B047     	 blx r6
 392              	.LVL38:
 214:indcpa.c      ****         PQCLEAN_MLKEM512_CLEAN_poly_getnoise_eta1(&skpv.vec[i], noiseseed, nonce++);
 393              	 .loc 1 214 31 is_stmt 1 discriminator 3 view .LVU111
 214:indcpa.c      ****         PQCLEAN_MLKEM512_CLEAN_poly_getnoise_eta1(&skpv.vec[i], noiseseed, nonce++);
 394              	 .loc 1 214 19 discriminator 1 view .LVU112
 216:indcpa.c      ****     }
 217:indcpa.c      ****     for (i = 0; i < KYBER_K; i++) {
 395              	 .loc 1 217 19 discriminator 1 view .LVU113
 218:indcpa.c      ****         PQCLEAN_MLKEM512_CLEAN_poly_getnoise_eta1(&e.vec[i], noiseseed, nonce++);
 396              	 .loc 1 218 9 view .LVU114
 397              	 .loc 1 218 9 is_stmt 0 view .LVU115
 398 0058 4246     	 mov r2,r8
 399 005a 2946     	 mov r1,r5
 400 005c 10A8     	 add r0,sp,#64
 401 005e B047     	 blx r6
 402              	.LVL39:
 217:indcpa.c      ****         PQCLEAN_MLKEM512_CLEAN_poly_getnoise_eta1(&e.vec[i], noiseseed, nonce++);
 403              	 .loc 1 217 31 is_stmt 1 discriminator 3 view .LVU116
 217:indcpa.c      ****         PQCLEAN_MLKEM512_CLEAN_poly_getnoise_eta1(&e.vec[i], noiseseed, nonce++);
 404              	 .loc 1 217 19 discriminator 1 view .LVU117
 405              	 .loc 1 218 9 view .LVU118
 406              	 .loc 1 218 9 is_stmt 0 view .LVU119
 407 0060 0322     	 movs r2,#3
 408 0062 2946     	 mov r1,r5
 409 0064 90A8     	 add r0,sp,#576
 410 0066 B047     	 blx r6
 411              	.LVL40:
 217:indcpa.c      ****         PQCLEAN_MLKEM512_CLEAN_poly_getnoise_eta1(&e.vec[i], noiseseed, nonce++);
 412              	 .loc 1 217 31 is_stmt 1 discriminator 3 view .LVU120
 217:indcpa.c      ****         PQCLEAN_MLKEM512_CLEAN_poly_getnoise_eta1(&e.vec[i], noiseseed, nonce++);
 413              	 .loc 1 217 19 discriminator 1 view .LVU121
 219:indcpa.c      ****     }
 220:indcpa.c      **** 
 221:indcpa.c      ****     PQCLEAN_MLKEM512_CLEAN_polyvec_ntt(&skpv);
 414              	 .loc 1 221 5 view .LVU122
 415 0068 224E     	 ldr r6,.L27+12
 222:indcpa.c      ****     PQCLEAN_MLKEM512_CLEAN_polyvec_ntt(&e);
 223:indcpa.c      **** 
 224:indcpa.c      ****     // matrix-vector multiplication
 225:indcpa.c      ****     for (i = 0; i < KYBER_K; i++) {
 226:indcpa.c      ****         PQCLEAN_MLKEM512_CLEAN_polyvec_basemul_acc_montgomery(&pkpv.vec[i], &a[i], &skpv);
 416              	 .loc 1 226 9 is_stmt 0 view .LVU123
 417 006a DFF88C80 	 ldr r8,.L27+16
 221:indcpa.c      ****     PQCLEAN_MLKEM512_CLEAN_polyvec_ntt(&e);
 418              	 .loc 1 221 5 view .LVU124
 419 006e 0DF50460 	 add r0,sp,#2112
 420 0072 B047     	 blx r6
 421              	.LVL41:
 222:indcpa.c      ****     PQCLEAN_MLKEM512_CLEAN_polyvec_ntt(&e);
 422              	 .loc 1 222 5 is_stmt 1 view .LVU125
 423 0074 10A8     	 add r0,sp,#64
 424 0076 B047     	 blx r6
 425              	.LVL42:
 225:indcpa.c      ****         PQCLEAN_MLKEM512_CLEAN_polyvec_basemul_acc_montgomery(&pkpv.vec[i], &a[i], &skpv);
 426              	 .loc 1 225 5 view .LVU126
 225:indcpa.c      ****         PQCLEAN_MLKEM512_CLEAN_polyvec_basemul_acc_montgomery(&pkpv.vec[i], &a[i], &skpv);
 427              	 .loc 1 225 19 discriminator 1 view .LVU127
 428              	 .loc 1 226 9 view .LVU128
 429 0078 0DF50462 	 add r2,sp,#2112
 430 007c 0DF54461 	 add r1,sp,#3136
 431 0080 0DF58860 	 add r0,sp,#1088
 432 0084 C047     	 blx r8
 433              	.LVL43:
 227:indcpa.c      ****         PQCLEAN_MLKEM512_CLEAN_poly_tomont(&pkpv.vec[i]);
 434              	 .loc 1 227 9 view .LVU129
 435 0086 1D4E     	 ldr r6,.L27+20
 436 0088 0DF58860 	 add r0,sp,#1088
 437 008c B047     	 blx r6
 438              	.LVL44:
 225:indcpa.c      ****         PQCLEAN_MLKEM512_CLEAN_polyvec_basemul_acc_montgomery(&pkpv.vec[i], &a[i], &skpv);
 439              	 .loc 1 225 31 discriminator 3 view .LVU130
 225:indcpa.c      ****         PQCLEAN_MLKEM512_CLEAN_polyvec_basemul_acc_montgomery(&pkpv.vec[i], &a[i], &skpv);
 440              	 .loc 1 225 19 discriminator 1 view .LVU131
 226:indcpa.c      ****         PQCLEAN_MLKEM512_CLEAN_poly_tomont(&pkpv.vec[i]);
 441              	 .loc 1 226 9 view .LVU132
 442 008e 0DF50462 	 add r2,sp,#2112
 443 0092 0DF58251 	 add r1,sp,#4160
 444 0096 0DF5C860 	 add r0,sp,#1600
 445 009a C047     	 blx r8
 446              	.LVL45:
 447              	 .loc 1 227 9 view .LVU133
 448 009c 0DF5C860 	 add r0,sp,#1600
 449 00a0 B047     	 blx r6
 450              	.LVL46:
 225:indcpa.c      ****         PQCLEAN_MLKEM512_CLEAN_polyvec_basemul_acc_montgomery(&pkpv.vec[i], &a[i], &skpv);
 451              	 .loc 1 225 31 discriminator 3 view .LVU134
 225:indcpa.c      ****         PQCLEAN_MLKEM512_CLEAN_polyvec_basemul_acc_montgomery(&pkpv.vec[i], &a[i], &skpv);
 452              	 .loc 1 225 19 discriminator 1 view .LVU135
 228:indcpa.c      ****     }
 229:indcpa.c      **** 
 230:indcpa.c      ****     PQCLEAN_MLKEM512_CLEAN_polyvec_add(&pkpv, &pkpv, &e);
 453              	 .loc 1 230 5 view .LVU136
 454 00a2 0DF58861 	 add r1,sp,#1088
 455 00a6 10AA     	 add r2,sp,#64
 456 00a8 0846     	 mov r0,r1
 457 00aa 154B     	 ldr r3,.L27+24
 458              	.LBB10:
 459              	.LBB11:
  56:indcpa.c      **** }
 460              	 .loc 1 56 5 is_stmt 0 view .LVU137
 461 00ac 154E     	 ldr r6,.L27+28
 462              	.LBE11:
 463              	.LBE10:
 464              	 .loc 1 230 5 view .LVU138
 465 00ae 9847     	 blx r3
 466              	.LVL47:
 231:indcpa.c      ****     PQCLEAN_MLKEM512_CLEAN_polyvec_reduce(&pkpv);
 467              	 .loc 1 231 5 is_stmt 1 view .LVU139
 468 00b0 154B     	 ldr r3,.L27+32
 469 00b2 0DF58860 	 add r0,sp,#1088
 470 00b6 9847     	 blx r3
 471              	.LVL48:
 232:indcpa.c      **** 
 233:indcpa.c      ****     pack_sk(sk, &skpv);
 472              	 .loc 1 233 5 view .LVU140
 473              	.LBB13:
 474              	.LBI10:
  55:indcpa.c      ****     PQCLEAN_MLKEM512_CLEAN_polyvec_tobytes(r, sk);
 475              	 .loc 1 55 13 view .LVU141
 476              	.LBB12:
  56:indcpa.c      **** }
 477              	 .loc 1 56 5 view .LVU142
 478 00b8 0DF50461 	 add r1,sp,#2112
 479              	.LVL49:
  56:indcpa.c      **** }
 480              	 .loc 1 56 5 is_stmt 0 view .LVU143
 481 00bc 3846     	 mov r0,r7
 482 00be B047     	 blx r6
 483              	.LVL50:
  56:indcpa.c      **** }
 484              	 .loc 1 56 5 view .LVU144
 485              	.LBE12:
 486              	.LBE13:
 234:indcpa.c      ****     pack_pk(pk, &pkpv, publicseed);
 487              	 .loc 1 234 5 is_stmt 1 view .LVU145
 488              	.LBB14:
 489              	.LBI14:
  23:indcpa.c      ****                     polyvec *pk,
 490              	 .loc 1 23 13 view .LVU146
 491              	.LBB15:
  26:indcpa.c      ****     memcpy(r + KYBER_POLYVECBYTES, seed, KYBER_SYMBYTES);
 492              	 .loc 1 26 5 view .LVU147
 493 00c0 0DF58861 	 add r1,sp,#1088
 494              	.LVL51:
  26:indcpa.c      ****     memcpy(r + KYBER_POLYVECBYTES, seed, KYBER_SYMBYTES);
 495              	 .loc 1 26 5 is_stmt 0 view .LVU148
 496 00c4 2046     	 mov r0,r4
 497 00c6 B047     	 blx r6
 498              	.LVL52:
  27:indcpa.c      **** }
 499              	 .loc 1 27 5 is_stmt 1 view .LVU149
 500 00c8 6B46     	 mov r3,sp
 501 00ca 04F54072 	 add r2,r4,#768
 502              	.LVL53:
 503              	.L24:
  27:indcpa.c      **** }
 504              	 .loc 1 27 5 is_stmt 0 view .LVU150
 505 00ce 1C46     	 mov r4,r3
 506 00d0 03CC     	 ldmia r4!,{r0,r1}
 507 00d2 AC42     	 cmp r4,r5
 508 00d4 1060     	 str r0,[r2]
 509 00d6 5160     	 str r1,[r2,#4]
 510 00d8 2346     	 mov r3,r4
 511 00da 02F10802 	 add r2,r2,#8
 512 00de F6D1     	 bne .L24
 513              	.LBE15:
 514              	.LBE14:
 235:indcpa.c      **** }
 515              	 .loc 1 235 1 view .LVU151
 516 00e0 0DF5A25D 	 add sp,sp,#5184
 517              	.LCFI7:
 518              	 .cfi_def_cfa_offset 24
 519              	.LVL54:
 520              	 .loc 1 235 1 view .LVU152
 521              	 
 522 00e4 BDE8F081 	 pop {r4,r5,r6,r7,r8,pc}
 523              	.LVL55:
 524              	.L28:
 525              	 .loc 1 235 1 view .LVU153
 526              	 .align 2
 527              	.L27:
 528 00e8 00000000 	 .word sha3_512
 529 00ec 00000000 	 .word PQCLEAN_MLKEM512_CLEAN_gen_matrix
 530 00f0 00000000 	 .word PQCLEAN_MLKEM512_CLEAN_poly_getnoise_eta1
 531 00f4 00000000 	 .word PQCLEAN_MLKEM512_CLEAN_polyvec_ntt
 532 00f8 00000000 	 .word PQCLEAN_MLKEM512_CLEAN_polyvec_basemul_acc_montgomery
 533 00fc 00000000 	 .word PQCLEAN_MLKEM512_CLEAN_poly_tomont
 534 0100 00000000 	 .word PQCLEAN_MLKEM512_CLEAN_polyvec_add
 535 0104 00000000 	 .word PQCLEAN_MLKEM512_CLEAN_polyvec_tobytes
 536 0108 00000000 	 .word PQCLEAN_MLKEM512_CLEAN_polyvec_reduce
 537              	 .cfi_endproc
 538              	.LFE8:
 540              	 .section .text.PQCLEAN_MLKEM512_CLEAN_indcpa_enc,"ax",%progbits
 541              	 .align 1
 542              	 .global PQCLEAN_MLKEM512_CLEAN_indcpa_enc
 543              	 .syntax unified
 544              	 .thumb
 545              	 .thumb_func
 547              	PQCLEAN_MLKEM512_CLEAN_indcpa_enc:
 548              	.LVL56:
 549              	.LFB9:
 236:indcpa.c      **** 
 237:indcpa.c      **** 
 238:indcpa.c      **** /*************************************************
 239:indcpa.c      **** * Name:        PQCLEAN_MLKEM512_CLEAN_indcpa_enc
 240:indcpa.c      **** *
 241:indcpa.c      **** * Description: Encryption function of the CPA-secure
 242:indcpa.c      **** *              public-key encryption scheme underlying Kyber.
 243:indcpa.c      **** *
 244:indcpa.c      **** * Arguments:   - uint8_t *c: pointer to output ciphertext
 245:indcpa.c      **** *                            (of length KYBER_INDCPA_BYTES bytes)
 246:indcpa.c      **** *              - const uint8_t *m: pointer to input message
 247:indcpa.c      **** *                                  (of length KYBER_INDCPA_MSGBYTES bytes)
 248:indcpa.c      **** *              - const uint8_t *pk: pointer to input public key
 249:indcpa.c      **** *                                   (of length KYBER_INDCPA_PUBLICKEYBYTES)
 250:indcpa.c      **** *              - const uint8_t *coins: pointer to input random coins used as seed
 251:indcpa.c      **** *                                      (of length KYBER_SYMBYTES) to deterministically
 252:indcpa.c      **** *                                      generate all randomness
 253:indcpa.c      **** **************************************************/
 254:indcpa.c      **** void PQCLEAN_MLKEM512_CLEAN_indcpa_enc(uint8_t c[KYBER_INDCPA_BYTES],
 255:indcpa.c      ****                                        const uint8_t m[KYBER_INDCPA_MSGBYTES],
 256:indcpa.c      ****                                        const uint8_t pk[KYBER_INDCPA_PUBLICKEYBYTES],
 257:indcpa.c      ****                                        const uint8_t coins[KYBER_SYMBYTES]) {
 550              	 .loc 1 257 77 is_stmt 1 view-0
 551              	 .cfi_startproc
 552              	 
 553              	 
 258:indcpa.c      ****     unsigned int i;
 554              	 .loc 1 258 5 view .LVU155
 259:indcpa.c      ****     uint8_t seed[KYBER_SYMBYTES];
 555              	 .loc 1 259 5 view .LVU156
 260:indcpa.c      ****     uint8_t nonce = 0;
 556              	 .loc 1 260 5 view .LVU157
 261:indcpa.c      ****     polyvec sp, pkpv, ep, at[KYBER_K], b;
 557              	 .loc 1 261 5 view .LVU158
 262:indcpa.c      ****     poly v, k, epp;
 558              	 .loc 1 262 5 view .LVU159
 263:indcpa.c      **** 
 264:indcpa.c      ****     unpack_pk(&pkpv, seed, pk);
 559              	 .loc 1 264 5 view .LVU160
 257:indcpa.c      ****     unsigned int i;
 560              	 .loc 1 257 77 is_stmt 0 view .LVU161
 561 0000 F0B5     	 push {r4,r5,r6,r7,lr}
 562              	.LCFI8:
 563              	 .cfi_def_cfa_offset 20
 564              	 .cfi_offset 4,-20
 565              	 .cfi_offset 5,-16
 566              	 .cfi_offset 6,-12
 567              	 .cfi_offset 7,-8
 568              	 .cfi_offset 14,-4
 569 0002 ADF5F15D 	 sub sp,sp,#7712
 570              	.LCFI9:
 571              	 .cfi_def_cfa_offset 7732
 572 0006 81B0     	 sub sp,sp,#4
 573              	.LCFI10:
 574              	 .cfi_def_cfa_offset 7736
 575              	.LVL57:
 576              	.LBB20:
 577              	.LBI20:
  40:indcpa.c      ****                       uint8_t seed[KYBER_SYMBYTES],
 578              	 .loc 1 40 13 is_stmt 1 view .LVU162
 579              	.LBB21:
  43:indcpa.c      ****     memcpy(seed, packedpk + KYBER_POLYVECBYTES, KYBER_SYMBYTES);
 580              	 .loc 1 43 5 view .LVU163
 581              	.LBE21:
 582              	.LBE20:
 257:indcpa.c      ****     unsigned int i;
 583              	 .loc 1 257 77 is_stmt 0 view .LVU164
 584 0008 1546     	 mov r5,r2
 585 000a 0646     	 mov r6,r0
 586 000c 0F46     	 mov r7,r1
 587 000e 1C46     	 mov r4,r3
 588              	.LBB23:
 589              	.LBB22:
  43:indcpa.c      ****     memcpy(seed, packedpk + KYBER_POLYVECBYTES, KYBER_SYMBYTES);
 590              	 .loc 1 43 5 view .LVU165
 591 0010 1146     	 mov r1,r2
 592              	.LVL58:
  43:indcpa.c      ****     memcpy(seed, packedpk + KYBER_POLYVECBYTES, KYBER_SYMBYTES);
 593              	 .loc 1 43 5 view .LVU166
 594 0012 3E4B     	 ldr r3,.L32
 595              	.LVL59:
  43:indcpa.c      ****     memcpy(seed, packedpk + KYBER_POLYVECBYTES, KYBER_SYMBYTES);
 596              	 .loc 1 43 5 view .LVU167
 597 0014 0DF52260 	 add r0,sp,#2592
 598              	.LVL60:
  43:indcpa.c      ****     memcpy(seed, packedpk + KYBER_POLYVECBYTES, KYBER_SYMBYTES);
 599              	 .loc 1 43 5 view .LVU168
 600 0018 9847     	 blx r3
 601              	.LVL61:
  44:indcpa.c      **** }
 602              	 .loc 1 44 5 is_stmt 1 view .LVU169
 603 001a 05F54073 	 add r3,r5,#768
 604 001e EC46     	 mov ip,sp
 605 0020 05F54875 	 add r5,r5,#800
 606              	.LVL62:
 607              	.L30:
  44:indcpa.c      **** }
 608              	 .loc 1 44 5 is_stmt 0 view .LVU170
 609 0024 1868     	 ldr r0,[r3]
 610 0026 5968     	 ldr r1,[r3,#4]
 611 0028 6246     	 mov r2,ip
 612 002a 03C2     	 stmia r2!,{r0,r1}
 613 002c 0833     	 adds r3,r3,#8
 614 002e AB42     	 cmp r3,r5
 615 0030 9446     	 mov ip,r2
 616 0032 F7D1     	 bne .L30
 617              	.LVL63:
  44:indcpa.c      **** }
 618              	 .loc 1 44 5 view .LVU171
 619              	.LBE22:
 620              	.LBE23:
 265:indcpa.c      ****     PQCLEAN_MLKEM512_CLEAN_poly_frommsg(&k, m);
 621              	 .loc 1 265 5 is_stmt 1 view .LVU172
 622 0034 3946     	 mov r1,r7
 623 0036 88A8     	 add r0,sp,#544
 624 0038 354B     	 ldr r3,.L32+4
 266:indcpa.c      ****     gen_at(at, seed);
 267:indcpa.c      **** 
 268:indcpa.c      ****     for (i = 0; i < KYBER_K; i++) {
 269:indcpa.c      ****         PQCLEAN_MLKEM512_CLEAN_poly_getnoise_eta1(sp.vec + i, coins, nonce++);
 625              	 .loc 1 269 9 is_stmt 0 view .LVU173
 626 003a 364D     	 ldr r5,.L32+8
 627              	.LVL64:
 265:indcpa.c      ****     PQCLEAN_MLKEM512_CLEAN_poly_frommsg(&k, m);
 628              	 .loc 1 265 5 view .LVU174
 629 003c 9847     	 blx r3
 630              	.LVL65:
 266:indcpa.c      ****     gen_at(at, seed);
 631              	 .loc 1 266 5 is_stmt 1 view .LVU175
 632 003e 364B     	 ldr r3,.L32+12
 633 0040 6946     	 mov r1,sp
 634 0042 0DF5B150 	 add r0,sp,#5664
 635 0046 0122     	 movs r2,#1
 636 0048 9847     	 blx r3
 637              	.LVL66:
 268:indcpa.c      ****         PQCLEAN_MLKEM512_CLEAN_poly_getnoise_eta1(sp.vec + i, coins, nonce++);
 638              	 .loc 1 268 5 view .LVU176
 268:indcpa.c      ****         PQCLEAN_MLKEM512_CLEAN_poly_getnoise_eta1(sp.vec + i, coins, nonce++);
 639              	 .loc 1 268 19 discriminator 1 view .LVU177
 640              	 .loc 1 269 9 view .LVU178
 641              	 .loc 1 269 9 is_stmt 0 view .LVU179
 642 004a 2146     	 mov r1,r4
 643 004c 0DF5C460 	 add r0,sp,#1568
 644 0050 0022     	 movs r2,#0
 645 0052 A847     	 blx r5
 646              	.LVL67:
 268:indcpa.c      ****         PQCLEAN_MLKEM512_CLEAN_poly_getnoise_eta1(sp.vec + i, coins, nonce++);
 647              	 .loc 1 268 31 is_stmt 1 discriminator 3 view .LVU180
 268:indcpa.c      ****         PQCLEAN_MLKEM512_CLEAN_poly_getnoise_eta1(sp.vec + i, coins, nonce++);
 648              	 .loc 1 268 19 discriminator 1 view .LVU181
 649              	 .loc 1 269 9 view .LVU182
 650              	 .loc 1 269 9 is_stmt 0 view .LVU183
 651 0054 2146     	 mov r1,r4
 652 0056 0DF50260 	 add r0,sp,#2080
 653 005a 0122     	 movs r2,#1
 654 005c A847     	 blx r5
 655              	.LVL68:
 268:indcpa.c      ****         PQCLEAN_MLKEM512_CLEAN_poly_getnoise_eta1(sp.vec + i, coins, nonce++);
 656              	 .loc 1 268 31 is_stmt 1 discriminator 3 view .LVU184
 268:indcpa.c      ****         PQCLEAN_MLKEM512_CLEAN_poly_getnoise_eta1(sp.vec + i, coins, nonce++);
 657              	 .loc 1 268 19 discriminator 1 view .LVU185
 270:indcpa.c      ****     }
 271:indcpa.c      ****     for (i = 0; i < KYBER_K; i++) {
 658              	 .loc 1 271 19 discriminator 1 view .LVU186
 272:indcpa.c      ****         PQCLEAN_MLKEM512_CLEAN_poly_getnoise_eta2(ep.vec + i, coins, nonce++);
 659              	 .loc 1 272 9 view .LVU187
 660              	 .loc 1 272 9 is_stmt 0 view .LVU188
 661 005e 2F4D     	 ldr r5,.L32+16
 662 0060 2146     	 mov r1,r4
 663 0062 0DF56260 	 add r0,sp,#3616
 664 0066 0222     	 movs r2,#2
 665 0068 A847     	 blx r5
 666              	.LVL69:
 271:indcpa.c      ****         PQCLEAN_MLKEM512_CLEAN_poly_getnoise_eta2(ep.vec + i, coins, nonce++);
 667              	 .loc 1 271 31 is_stmt 1 discriminator 3 view .LVU189
 271:indcpa.c      ****         PQCLEAN_MLKEM512_CLEAN_poly_getnoise_eta2(ep.vec + i, coins, nonce++);
 668              	 .loc 1 271 19 discriminator 1 view .LVU190
 669              	 .loc 1 272 9 view .LVU191
 670              	 .loc 1 272 9 is_stmt 0 view .LVU192
 671 006a 2146     	 mov r1,r4
 672 006c 0DF58150 	 add r0,sp,#4128
 673 0070 0322     	 movs r2,#3
 674 0072 A847     	 blx r5
 675              	.LVL70:
 271:indcpa.c      ****         PQCLEAN_MLKEM512_CLEAN_poly_getnoise_eta2(ep.vec + i, coins, nonce++);
 676              	 .loc 1 271 31 is_stmt 1 discriminator 3 view .LVU193
 271:indcpa.c      ****         PQCLEAN_MLKEM512_CLEAN_poly_getnoise_eta2(ep.vec + i, coins, nonce++);
 677              	 .loc 1 271 19 discriminator 1 view .LVU194
 273:indcpa.c      ****     }
 274:indcpa.c      ****     PQCLEAN_MLKEM512_CLEAN_poly_getnoise_eta2(&epp, coins, nonce++);
 678              	 .loc 1 274 5 view .LVU195
 679              	 .loc 1 274 5 is_stmt 0 view .LVU196
 680 0074 2146     	 mov r1,r4
 681 0076 0422     	 movs r2,#4
 682 0078 0DF58460 	 add r0,sp,#1056
 683 007c A847     	 blx r5
 684              	.LVL71:
 275:indcpa.c      **** 
 276:indcpa.c      ****     PQCLEAN_MLKEM512_CLEAN_polyvec_ntt(&sp);
 685              	 .loc 1 276 5 is_stmt 1 view .LVU197
 686 007e 284B     	 ldr r3,.L32+20
 277:indcpa.c      **** 
 278:indcpa.c      ****     // matrix-vector multiplication
 279:indcpa.c      ****     for (i = 0; i < KYBER_K; i++) {
 280:indcpa.c      ****         PQCLEAN_MLKEM512_CLEAN_polyvec_basemul_acc_montgomery(&b.vec[i], &at[i], &sp);
 687              	 .loc 1 280 9 is_stmt 0 view .LVU198
 688 0080 284C     	 ldr r4,.L32+24
 689              	.LVL72:
 276:indcpa.c      **** 
 690              	 .loc 1 276 5 view .LVU199
 691 0082 0DF5C460 	 add r0,sp,#1568
 692 0086 9847     	 blx r3
 693              	.LVL73:
 279:indcpa.c      ****         PQCLEAN_MLKEM512_CLEAN_polyvec_basemul_acc_montgomery(&b.vec[i], &at[i], &sp);
 694              	 .loc 1 279 5 is_stmt 1 view .LVU200
 279:indcpa.c      ****         PQCLEAN_MLKEM512_CLEAN_polyvec_basemul_acc_montgomery(&b.vec[i], &at[i], &sp);
 695              	 .loc 1 279 19 discriminator 1 view .LVU201
 696              	 .loc 1 280 9 view .LVU202
 697 0088 0DF5C462 	 add r2,sp,#1568
 698 008c 0DF5B151 	 add r1,sp,#5664
 699 0090 0DF59150 	 add r0,sp,#4640
 700 0094 A047     	 blx r4
 701              	.LVL74:
 279:indcpa.c      ****         PQCLEAN_MLKEM512_CLEAN_polyvec_basemul_acc_montgomery(&b.vec[i], &at[i], &sp);
 702              	 .loc 1 279 31 discriminator 3 view .LVU203
 279:indcpa.c      ****         PQCLEAN_MLKEM512_CLEAN_polyvec_basemul_acc_montgomery(&b.vec[i], &at[i], &sp);
 703              	 .loc 1 279 19 discriminator 1 view .LVU204
 704              	 .loc 1 280 9 view .LVU205
 705 0096 0DF5C462 	 add r2,sp,#1568
 706 009a 0DF5D151 	 add r1,sp,#6688
 707 009e 0DF5A150 	 add r0,sp,#5152
 708 00a2 A047     	 blx r4
 709              	.LVL75:
 279:indcpa.c      ****         PQCLEAN_MLKEM512_CLEAN_polyvec_basemul_acc_montgomery(&b.vec[i], &at[i], &sp);
 710              	 .loc 1 279 31 discriminator 3 view .LVU206
 279:indcpa.c      ****         PQCLEAN_MLKEM512_CLEAN_polyvec_basemul_acc_montgomery(&b.vec[i], &at[i], &sp);
 711              	 .loc 1 279 19 discriminator 1 view .LVU207
 281:indcpa.c      ****     }
 282:indcpa.c      **** 
 283:indcpa.c      ****     PQCLEAN_MLKEM512_CLEAN_polyvec_basemul_acc_montgomery(&v, &pkpv, &sp);
 712              	 .loc 1 283 5 view .LVU208
 713 00a4 0DF5C462 	 add r2,sp,#1568
 714 00a8 0DF52261 	 add r1,sp,#2592
 715 00ac 08A8     	 add r0,sp,#32
 716 00ae A047     	 blx r4
 717              	.LVL76:
 284:indcpa.c      **** 
 285:indcpa.c      ****     PQCLEAN_MLKEM512_CLEAN_polyvec_invntt_tomont(&b);
 718              	 .loc 1 285 5 view .LVU209
 719 00b0 0DF59150 	 add r0,sp,#4640
 720 00b4 1C4B     	 ldr r3,.L32+28
 286:indcpa.c      ****     PQCLEAN_MLKEM512_CLEAN_poly_invntt_tomont(&v);
 287:indcpa.c      **** 
 288:indcpa.c      ****     PQCLEAN_MLKEM512_CLEAN_polyvec_add(&b, &b, &ep);
 289:indcpa.c      ****     PQCLEAN_MLKEM512_CLEAN_poly_add(&v, &v, &epp);
 721              	 .loc 1 289 5 is_stmt 0 view .LVU210
 722 00b6 1D4C     	 ldr r4,.L32+32
 285:indcpa.c      ****     PQCLEAN_MLKEM512_CLEAN_poly_invntt_tomont(&v);
 723              	 .loc 1 285 5 view .LVU211
 724 00b8 9847     	 blx r3
 725              	.LVL77:
 286:indcpa.c      ****     PQCLEAN_MLKEM512_CLEAN_poly_invntt_tomont(&v);
 726              	 .loc 1 286 5 is_stmt 1 view .LVU212
 727 00ba 08A8     	 add r0,sp,#32
 728 00bc 1C4B     	 ldr r3,.L32+36
 729 00be 9847     	 blx r3
 730              	.LVL78:
 288:indcpa.c      ****     PQCLEAN_MLKEM512_CLEAN_poly_add(&v, &v, &epp);
 731              	 .loc 1 288 5 view .LVU213
 732 00c0 0DF59151 	 add r1,sp,#4640
 733 00c4 1B4B     	 ldr r3,.L32+40
 734 00c6 0DF56262 	 add r2,sp,#3616
 735 00ca 0846     	 mov r0,r1
 736 00cc 9847     	 blx r3
 737              	.LVL79:
 738              	 .loc 1 289 5 view .LVU214
 739 00ce 08A9     	 add r1,sp,#32
 740 00d0 0DF58462 	 add r2,sp,#1056
 741 00d4 0846     	 mov r0,r1
 742 00d6 A047     	 blx r4
 743              	.LVL80:
 290:indcpa.c      ****     PQCLEAN_MLKEM512_CLEAN_poly_add(&v, &v, &k);
 744              	 .loc 1 290 5 view .LVU215
 745 00d8 08A9     	 add r1,sp,#32
 746 00da 88AA     	 add r2,sp,#544
 747 00dc 0846     	 mov r0,r1
 748 00de A047     	 blx r4
 749              	.LVL81:
 291:indcpa.c      ****     PQCLEAN_MLKEM512_CLEAN_polyvec_reduce(&b);
 750              	 .loc 1 291 5 view .LVU216
 751 00e0 0DF59150 	 add r0,sp,#4640
 752 00e4 144B     	 ldr r3,.L32+44
 753 00e6 9847     	 blx r3
 754              	.LVL82:
 292:indcpa.c      ****     PQCLEAN_MLKEM512_CLEAN_poly_reduce(&v);
 755              	 .loc 1 292 5 view .LVU217
 756 00e8 08A8     	 add r0,sp,#32
 757 00ea 144B     	 ldr r3,.L32+48
 758 00ec 9847     	 blx r3
 759              	.LVL83:
 293:indcpa.c      **** 
 294:indcpa.c      ****     pack_ciphertext(c, &b, &v);
 760              	 .loc 1 294 5 view .LVU218
 761              	.LBB24:
 762              	.LBI24:
  82:indcpa.c      ****     PQCLEAN_MLKEM512_CLEAN_polyvec_compress(r, b);
 763              	 .loc 1 82 13 view .LVU219
 764              	.LBB25:
  83:indcpa.c      ****     PQCLEAN_MLKEM512_CLEAN_poly_compress(r + KYBER_POLYVECCOMPRESSEDBYTES, v);
 765              	 .loc 1 83 5 view .LVU220
 766 00ee 0DF59151 	 add r1,sp,#4640
 767              	.LVL84:
  83:indcpa.c      ****     PQCLEAN_MLKEM512_CLEAN_poly_compress(r + KYBER_POLYVECCOMPRESSEDBYTES, v);
 768              	 .loc 1 83 5 is_stmt 0 view .LVU221
 769 00f2 3046     	 mov r0,r6
 770 00f4 124B     	 ldr r3,.L32+52
 771 00f6 9847     	 blx r3
 772              	.LVL85:
  84:indcpa.c      **** }
 773              	 .loc 1 84 5 is_stmt 1 view .LVU222
 774 00f8 124B     	 ldr r3,.L32+56
 775 00fa 08A9     	 add r1,sp,#32
 776              	.LVL86:
  84:indcpa.c      **** }
 777              	 .loc 1 84 5 is_stmt 0 view .LVU223
 778 00fc 06F52070 	 add r0,r6,#640
 779 0100 9847     	 blx r3
 780              	.LVL87:
  84:indcpa.c      **** }
 781              	 .loc 1 84 5 view .LVU224
 782              	.LBE25:
 783              	.LBE24:
 295:indcpa.c      **** }
 784              	 .loc 1 295 1 view .LVU225
 785 0102 0DF5F15D 	 add sp,sp,#7712
 786 0106 01B0     	 add sp,sp,#4
 787              	.LCFI11:
 788              	 .cfi_def_cfa_offset 20
 789              	 
 790 0108 F0BD     	 pop {r4,r5,r6,r7,pc}
 791              	.LVL88:
 792              	.L33:
 793              	 .loc 1 295 1 view .LVU226
 794 010a 00BF     	 .align 2
 795              	.L32:
 796 010c 00000000 	 .word PQCLEAN_MLKEM512_CLEAN_polyvec_frombytes
 797 0110 00000000 	 .word PQCLEAN_MLKEM512_CLEAN_poly_frommsg
 798 0114 00000000 	 .word PQCLEAN_MLKEM512_CLEAN_poly_getnoise_eta1
 799 0118 00000000 	 .word PQCLEAN_MLKEM512_CLEAN_gen_matrix
 800 011c 00000000 	 .word PQCLEAN_MLKEM512_CLEAN_poly_getnoise_eta2
 801 0120 00000000 	 .word PQCLEAN_MLKEM512_CLEAN_polyvec_ntt
 802 0124 00000000 	 .word PQCLEAN_MLKEM512_CLEAN_polyvec_basemul_acc_montgomery
 803 0128 00000000 	 .word PQCLEAN_MLKEM512_CLEAN_polyvec_invntt_tomont
 804 012c 00000000 	 .word PQCLEAN_MLKEM512_CLEAN_poly_add
 805 0130 00000000 	 .word PQCLEAN_MLKEM512_CLEAN_poly_invntt_tomont
 806 0134 00000000 	 .word PQCLEAN_MLKEM512_CLEAN_polyvec_add
 807 0138 00000000 	 .word PQCLEAN_MLKEM512_CLEAN_polyvec_reduce
 808 013c 00000000 	 .word PQCLEAN_MLKEM512_CLEAN_poly_reduce
 809 0140 00000000 	 .word PQCLEAN_MLKEM512_CLEAN_polyvec_compress
 810 0144 00000000 	 .word PQCLEAN_MLKEM512_CLEAN_poly_compress
 811              	 .cfi_endproc
 812              	.LFE9:
 814              	 .section .text.PQCLEAN_MLKEM512_CLEAN_indcpa_dec,"ax",%progbits
 815              	 .align 1
 816              	 .global PQCLEAN_MLKEM512_CLEAN_indcpa_dec
 817              	 .syntax unified
 818              	 .thumb
 819              	 .thumb_func
 821              	PQCLEAN_MLKEM512_CLEAN_indcpa_dec:
 822              	.LVL89:
 823              	.LFB10:
 296:indcpa.c      **** 
 297:indcpa.c      **** /*************************************************
 298:indcpa.c      **** * Name:        PQCLEAN_MLKEM512_CLEAN_indcpa_dec
 299:indcpa.c      **** *
 300:indcpa.c      **** * Description: Decryption function of the CPA-secure
 301:indcpa.c      **** *              public-key encryption scheme underlying Kyber.
 302:indcpa.c      **** *
 303:indcpa.c      **** * Arguments:   - uint8_t *m: pointer to output decrypted message
 304:indcpa.c      **** *                            (of length KYBER_INDCPA_MSGBYTES)
 305:indcpa.c      **** *              - const uint8_t *c: pointer to input ciphertext
 306:indcpa.c      **** *                                  (of length KYBER_INDCPA_BYTES)
 307:indcpa.c      **** *              - const uint8_t *sk: pointer to input secret key
 308:indcpa.c      **** *                                   (of length KYBER_INDCPA_SECRETKEYBYTES)
 309:indcpa.c      **** **************************************************/
 310:indcpa.c      **** void PQCLEAN_MLKEM512_CLEAN_indcpa_dec(uint8_t m[KYBER_INDCPA_MSGBYTES],
 311:indcpa.c      ****                                        const uint8_t c[KYBER_INDCPA_BYTES],
 312:indcpa.c      ****                                        const uint8_t sk[KYBER_INDCPA_SECRETKEYBYTES]) {
 824              	 .loc 1 312 87 is_stmt 1 view-0
 825              	 .cfi_startproc
 826              	 
 827              	 
 313:indcpa.c      ****     polyvec b, skpv;
 828              	 .loc 1 313 5 view .LVU228
 314:indcpa.c      ****     poly v, mp;
 829              	 .loc 1 314 5 view .LVU229
 315:indcpa.c      **** 
 316:indcpa.c      ****     unpack_ciphertext(&b, &v, c);
 830              	 .loc 1 316 5 view .LVU230
 312:indcpa.c      ****     polyvec b, skpv;
 831              	 .loc 1 312 87 is_stmt 0 view .LVU231
 832 0000 70B5     	 push {r4,r5,r6,lr}
 833              	.LCFI12:
 834              	 .cfi_def_cfa_offset 16
 835              	 .cfi_offset 4,-16
 836              	 .cfi_offset 5,-12
 837              	 .cfi_offset 6,-8
 838              	 .cfi_offset 14,-4
 839 0002 ADF5406D 	 sub sp,sp,#3072
 840              	.LCFI13:
 841              	 .cfi_def_cfa_offset 3088
 842              	.LVL90:
 312:indcpa.c      ****     polyvec b, skpv;
 843              	 .loc 1 312 87 view .LVU232
 844 0006 0446     	 mov r4,r0
 845 0008 0E46     	 mov r6,r1
 846              	.LVL91:
 847              	.LBB30:
 848              	.LBI30:
  97:indcpa.c      ****     PQCLEAN_MLKEM512_CLEAN_polyvec_decompress(b, c);
 849              	 .loc 1 97 13 is_stmt 1 view .LVU233
 850              	.LBB31:
  98:indcpa.c      ****     PQCLEAN_MLKEM512_CLEAN_poly_decompress(v, c + KYBER_POLYVECCOMPRESSEDBYTES);
 851              	 .loc 1 98 5 view .LVU234
 852 000a 0DF58060 	 add r0,sp,#1024
 853              	.LVL92:
  98:indcpa.c      ****     PQCLEAN_MLKEM512_CLEAN_poly_decompress(v, c + KYBER_POLYVECCOMPRESSEDBYTES);
 854              	 .loc 1 98 5 is_stmt 0 view .LVU235
 855 000e 154B     	 ldr r3,.L35
 856              	.LBE31:
 857              	.LBE30:
 312:indcpa.c      ****     polyvec b, skpv;
 858              	 .loc 1 312 87 view .LVU236
 859 0010 1546     	 mov r5,r2
 860              	.LBB33:
 861              	.LBB32:
  98:indcpa.c      ****     PQCLEAN_MLKEM512_CLEAN_poly_decompress(v, c + KYBER_POLYVECCOMPRESSEDBYTES);
 862              	 .loc 1 98 5 view .LVU237
 863 0012 9847     	 blx r3
 864              	.LVL93:
  99:indcpa.c      **** }
 865              	 .loc 1 99 5 is_stmt 1 view .LVU238
 866 0014 06F52071 	 add r1,r6,#640
 867 0018 6846     	 mov r0,sp
 868 001a 134B     	 ldr r3,.L35+4
 869 001c 9847     	 blx r3
 870              	.LVL94:
  99:indcpa.c      **** }
 871              	 .loc 1 99 5 is_stmt 0 view .LVU239
 872              	.LBE32:
 873              	.LBE33:
 317:indcpa.c      ****     unpack_sk(&skpv, sk);
 874              	 .loc 1 317 5 is_stmt 1 view .LVU240
 875              	.LBB34:
 876              	.LBI34:
  67:indcpa.c      ****     PQCLEAN_MLKEM512_CLEAN_polyvec_frombytes(sk, packedsk);
 877              	 .loc 1 67 13 view .LVU241
 878              	.LBB35:
  68:indcpa.c      **** }
 879              	 .loc 1 68 5 view .LVU242
 880 001e 2946     	 mov r1,r5
 881 0020 0DF50060 	 add r0,sp,#2048
 882              	.LVL95:
  68:indcpa.c      **** }
 883              	 .loc 1 68 5 is_stmt 0 view .LVU243
 884 0024 114B     	 ldr r3,.L35+8
 885 0026 9847     	 blx r3
 886              	.LVL96:
  68:indcpa.c      **** }
 887              	 .loc 1 68 5 view .LVU244
 888              	.LBE35:
 889              	.LBE34:
 318:indcpa.c      **** 
 319:indcpa.c      ****     PQCLEAN_MLKEM512_CLEAN_polyvec_ntt(&b);
 890              	 .loc 1 319 5 is_stmt 1 view .LVU245
 891 0028 0DF58060 	 add r0,sp,#1024
 892 002c 104B     	 ldr r3,.L35+12
 893 002e 9847     	 blx r3
 894              	.LVL97:
 320:indcpa.c      ****     PQCLEAN_MLKEM512_CLEAN_polyvec_basemul_acc_montgomery(&mp, &skpv, &b);
 895              	 .loc 1 320 5 view .LVU246
 896 0030 0DF58062 	 add r2,sp,#1024
 897 0034 0DF50061 	 add r1,sp,#2048
 898 0038 80A8     	 add r0,sp,#512
 899 003a 0E4B     	 ldr r3,.L35+16
 900 003c 9847     	 blx r3
 901              	.LVL98:
 321:indcpa.c      ****     PQCLEAN_MLKEM512_CLEAN_poly_invntt_tomont(&mp);
 902              	 .loc 1 321 5 view .LVU247
 903 003e 80A8     	 add r0,sp,#512
 904 0040 0D4B     	 ldr r3,.L35+20
 905 0042 9847     	 blx r3
 906              	.LVL99:
 322:indcpa.c      **** 
 323:indcpa.c      ****     PQCLEAN_MLKEM512_CLEAN_poly_sub(&mp, &v, &mp);
 907              	 .loc 1 323 5 view .LVU248
 908 0044 80AA     	 add r2,sp,#512
 909 0046 1046     	 mov r0,r2
 910 0048 6946     	 mov r1,sp
 911 004a 0C4B     	 ldr r3,.L35+24
 912 004c 9847     	 blx r3
 913              	.LVL100:
 324:indcpa.c      ****     PQCLEAN_MLKEM512_CLEAN_poly_reduce(&mp);
 914              	 .loc 1 324 5 view .LVU249
 915 004e 80A8     	 add r0,sp,#512
 916 0050 0B4B     	 ldr r3,.L35+28
 917 0052 9847     	 blx r3
 918              	.LVL101:
 325:indcpa.c      **** 
 326:indcpa.c      ****     PQCLEAN_MLKEM512_CLEAN_poly_tomsg(m, &mp);
 919              	 .loc 1 326 5 view .LVU250
 920 0054 0B4B     	 ldr r3,.L35+32
 921 0056 80A9     	 add r1,sp,#512
 922 0058 2046     	 mov r0,r4
 923 005a 9847     	 blx r3
 924              	.LVL102:
 327:indcpa.c      **** }
 925              	 .loc 1 327 1 is_stmt 0 view .LVU251
 926 005c 0DF5406D 	 add sp,sp,#3072
 927              	.LCFI14:
 928              	 .cfi_def_cfa_offset 16
 929              	 
 930 0060 70BD     	 pop {r4,r5,r6,pc}
 931              	.LVL103:
 932              	.L36:
 933              	 .loc 1 327 1 view .LVU252
 934 0062 00BF     	 .align 2
 935              	.L35:
 936 0064 00000000 	 .word PQCLEAN_MLKEM512_CLEAN_polyvec_decompress
 937 0068 00000000 	 .word PQCLEAN_MLKEM512_CLEAN_poly_decompress
 938 006c 00000000 	 .word PQCLEAN_MLKEM512_CLEAN_polyvec_frombytes
 939 0070 00000000 	 .word PQCLEAN_MLKEM512_CLEAN_polyvec_ntt
 940 0074 00000000 	 .word PQCLEAN_MLKEM512_CLEAN_polyvec_basemul_acc_montgomery
 941 0078 00000000 	 .word PQCLEAN_MLKEM512_CLEAN_poly_invntt_tomont
 942 007c 00000000 	 .word PQCLEAN_MLKEM512_CLEAN_poly_sub
 943 0080 00000000 	 .word PQCLEAN_MLKEM512_CLEAN_poly_reduce
 944 0084 00000000 	 .word PQCLEAN_MLKEM512_CLEAN_poly_tomsg
 945              	 .cfi_endproc
 946              	.LFE10:
 948              	 .text
 949              	.Letext0:
 950              	 .file 2 "/usr/lib/gcc/arm-none-eabi/14.2.1/include/stdint.h"
 951              	 .file 3 "poly.h"
 952              	 .file 4 "polyvec.h"
 953              	 .file 5 "/usr/lib/gcc/arm-none-eabi/14.2.1/include/stddef.h"
 954              	 .file 6 "fips202.h"
 955              	 .file 7 "symmetric.h"
 956              	 .file 8 "/usr/include/newlib/string.h"