   1              	 .cpu cortex-m4
   2              	 .arch armv7e-m
   3              	 .fpu softvfp
   4              	 .eabi_attribute 20,1
   5              	 .eabi_attribute 21,1
   6              	 .eabi_attribute 23,3
   7              	 .eabi_attribute 24,1
   8              	 .eabi_attribute 25,1
   9              	 .eabi_attribute 26,1
  10              	 .eabi_attribute 30,4
  11              	 .eabi_attribute 34,1
  12              	 .eabi_attribute 18,4
  13              	 .file "kem.c"
  14              	 .text
  15              	.Ltext0:
  16              	 .cfi_sections .debug_frame
  17              	 .file 1 "kem.c"
  18              	 .section .text.crypto_kem_keypair,"ax",%progbits
  19              	 .align 1
  20              	 .global crypto_kem_keypair
  21              	 .syntax unified
  22              	 .thumb
  23              	 .thumb_func
  25              	crypto_kem_keypair:
  26              	.LVL0:
  27              	.LFB4:
   1:kem.c         **** #include "api.h"
   2:kem.c         **** #include "indcpa.h"
   3:kem.c         **** #include "params.h"
   4:kem.c         **** #include "randombytes.h"
   5:kem.c         **** #include "symmetric.h"
   6:kem.c         **** #include "verify.h"
   7:kem.c         **** 
   8:kem.c         **** #include <stdlib.h>
   9:kem.c         **** 
  10:kem.c         **** #include <stdlib.h>
  11:kem.c         **** 
  12:kem.c         **** #include <string.h>
  13:kem.c         **** 
  14:kem.c         **** 
  15:kem.c         **** /*************************************************
  16:kem.c         **** * Name:        crypto_kem_keypair_derand
  17:kem.c         **** *
  18:kem.c         **** * Description: Generates public and private key
  19:kem.c         **** *              for CCA-secure Kyber key encapsulation mechanism
  20:kem.c         **** *
  21:kem.c         **** * Arguments:   - uint8_t *pk: pointer to output public key
  22:kem.c         **** *                (an already allocated array of KYBER_PUBLICKEYBYTES bytes)
  23:kem.c         **** *              - uint8_t *sk: pointer to output private key
  24:kem.c         **** *                (an already allocated array of KYBER_SECRETKEYBYTES bytes)
  25:kem.c         **** *              - uint8_t *coins: pointer to input randomness
  26:kem.c         **** *                (an already allocated array filled with 2*KYBER_SYMBYTES random bytes)
  27:kem.c         **** **
  28:kem.c         **** * Returns 0 (success)
  29:kem.c         **** **************************************************/
  30:kem.c         **** static int crypto_kem_keypair_derand(uint8_t *pk,
  31:kem.c         ****         uint8_t *sk,
  32:kem.c         ****         const uint8_t *coins) {
  33:kem.c         ****     indcpa_keypair_derand(pk, sk, coins);
  34:kem.c         ****     memcpy(sk + KYBER_INDCPA_SECRETKEYBYTES, pk, KYBER_PUBLICKEYBYTES);
  35:kem.c         ****     hash_h(sk + KYBER_SECRETKEYBYTES - 2 * KYBER_SYMBYTES, pk, KYBER_PUBLICKEYBYTES);
  36:kem.c         ****     /* Value z for pseudo-random output on reject */
  37:kem.c         ****     memcpy(sk + KYBER_SECRETKEYBYTES - KYBER_SYMBYTES, coins + KYBER_SYMBYTES, KYBER_SYMBYTES);
  38:kem.c         ****     return 0;
  39:kem.c         **** }
  40:kem.c         **** 
  41:kem.c         **** /*************************************************
  42:kem.c         **** * Name:        crypto_kem_keypair
  43:kem.c         **** *
  44:kem.c         **** * Description: Generates public and private key
  45:kem.c         **** *              for CCA-secure Kyber key encapsulation mechanism
  46:kem.c         **** *
  47:kem.c         **** * Arguments:   - unsigned char *pk: pointer to output public key (an already allocated array of CRY
  48:kem.c         **** *              - unsigned char *sk: pointer to output private key (an already allocated array of CR
  49:kem.c         **** *
  50:kem.c         **** * Returns 0 (success)
  51:kem.c         **** **************************************************/
  52:kem.c         **** int crypto_kem_keypair(unsigned char *pk, unsigned char *sk) {
  28              	 .loc 1 52 62 view-0
  29              	 .cfi_startproc
  30              	 
  31              	 
  53:kem.c         ****     uint8_t coins[2 * KYBER_SYMBYTES];
  32              	 .loc 1 53 5 view .LVU1
  54:kem.c         ****     randombytes(coins, 2 * KYBER_SYMBYTES);
  33              	 .loc 1 54 5 view .LVU2
  52:kem.c         ****     uint8_t coins[2 * KYBER_SYMBYTES];
  34              	 .loc 1 52 62 is_stmt 0 view .LVU3
  35 0000 30B5     	 push {r4,r5,lr}
  36              	.LCFI0:
  37              	 .cfi_def_cfa_offset 12
  38              	 .cfi_offset 4,-12
  39              	 .cfi_offset 5,-8
  40              	 .cfi_offset 14,-4
  41 0002 91B0     	 sub sp,sp,#68
  42              	.LCFI1:
  43              	 .cfi_def_cfa_offset 80
  52:kem.c         ****     uint8_t coins[2 * KYBER_SYMBYTES];
  44              	 .loc 1 52 62 view .LVU4
  45 0004 0546     	 mov r5,r0
  46 0006 0C46     	 mov r4,r1
  47              	 .loc 1 54 5 view .LVU5
  48 0008 134B     	 ldr r3,.L4
  49 000a 4021     	 movs r1,#64
  50              	.LVL1:
  51              	 .loc 1 54 5 view .LVU6
  52 000c 6846     	 mov r0,sp
  53              	.LVL2:
  54              	 .loc 1 54 5 view .LVU7
  55 000e 9847     	 blx r3
  56              	.LVL3:
  55:kem.c         ****     crypto_kem_keypair_derand(pk, sk, coins);
  57              	 .loc 1 55 5 is_stmt 1 view .LVU8
  58              	.LBB4:
  59              	.LBI4:
  30:kem.c         ****         uint8_t *sk,
  60              	 .loc 1 30 12 view .LVU9
  61              	.LBB5:
  33:kem.c         ****     memcpy(sk + KYBER_INDCPA_SECRETKEYBYTES, pk, KYBER_PUBLICKEYBYTES);
  62              	 .loc 1 33 5 view .LVU10
  63 0010 2146     	 mov r1,r4
  64 0012 2846     	 mov r0,r5
  65 0014 114B     	 ldr r3,.L4+4
  66 0016 6A46     	 mov r2,sp
  67 0018 9847     	 blx r3
  68              	.LVL4:
  34:kem.c         ****     hash_h(sk + KYBER_SECRETKEYBYTES - 2 * KYBER_SYMBYTES, pk, KYBER_PUBLICKEYBYTES);
  69              	 .loc 1 34 5 view .LVU11
  70 001a 2946     	 mov r1,r5
  71 001c 104B     	 ldr r3,.L4+8
  72 001e 4FF44872 	 mov r2,#800
  73 0022 04F54070 	 add r0,r4,#768
  74 0026 9847     	 blx r3
  75              	.LVL5:
  35:kem.c         ****     /* Value z for pseudo-random output on reject */
  76              	 .loc 1 35 5 view .LVU12
  77 0028 4FF44872 	 mov r2,#800
  78 002c 2946     	 mov r1,r5
  79 002e 04F5C460 	 add r0,r4,#1568
  80 0032 0C4B     	 ldr r3,.L4+12
  81 0034 9847     	 blx r3
  82              	.LVL6:
  37:kem.c         ****     return 0;
  83              	 .loc 1 37 5 view .LVU13
  84 0036 04F5C864 	 add r4,r4,#1600
  85              	.LVL7:
  37:kem.c         ****     return 0;
  86              	 .loc 1 37 5 is_stmt 0 view .LVU14
  87 003a 08AA     	 add r2,sp,#32
  88 003c 10AD     	 add r5,sp,#64
  89              	.LVL8:
  90              	.L2:
  37:kem.c         ****     return 0;
  91              	 .loc 1 37 5 view .LVU15
  92 003e 1346     	 mov r3,r2
  93 0040 03CB     	 ldmia r3!,{r0,r1}
  94 0042 AB42     	 cmp r3,r5
  95 0044 2060     	 str r0,[r4]
  96 0046 6160     	 str r1,[r4,#4]
  97 0048 1A46     	 mov r2,r3
  98 004a 04F10804 	 add r4,r4,#8
  99 004e F6D1     	 bne .L2
  38:kem.c         **** }
 100              	 .loc 1 38 5 is_stmt 1 view .LVU16
 101              	.LVL9:
  38:kem.c         **** }
 102              	 .loc 1 38 5 is_stmt 0 view .LVU17
 103              	.LBE5:
 104              	.LBE4:
  56:kem.c         ****     return 0;
 105              	 .loc 1 56 5 is_stmt 1 view .LVU18
  57:kem.c         **** }
 106              	 .loc 1 57 1 is_stmt 0 view .LVU19
 107 0050 0020     	 movs r0,#0
 108 0052 11B0     	 add sp,sp,#68
 109              	.LCFI2:
 110              	 .cfi_def_cfa_offset 12
 111              	 
 112 0054 30BD     	 pop {r4,r5,pc}
 113              	.L5:
 114 0056 00BF     	 .align 2
 115              	.L4:
 116 0058 00000000 	 .word PQCLEAN_randombytes
 117 005c 00000000 	 .word indcpa_keypair_derand
 118 0060 00000000 	 .word memcpy
 119 0064 00000000 	 .word sha3_256
 120              	 .cfi_endproc
 121              	.LFE4:
 123              	 .section .text.crypto_kem_enc,"ax",%progbits
 124              	 .align 1
 125              	 .global crypto_kem_enc
 126              	 .syntax unified
 127              	 .thumb
 128              	 .thumb_func
 130              	crypto_kem_enc:
 131              	.LVL10:
 132              	.LFB6:
  58:kem.c         **** 
  59:kem.c         **** 
  60:kem.c         **** /*************************************************
  61:kem.c         **** * Name:        crypto_kem_enc_derand
  62:kem.c         **** *
  63:kem.c         **** * Description: Generates cipher text and shared
  64:kem.c         **** *              secret for given public key
  65:kem.c         **** *
  66:kem.c         **** * Arguments:   - uint8_t *ct: pointer to output cipher text
  67:kem.c         **** *                (an already allocated array of KYBER_CIPHERTEXTBYTES bytes)
  68:kem.c         **** *              - uint8_t *ss: pointer to output shared secret
  69:kem.c         **** *                (an already allocated array of KYBER_SSBYTES bytes)
  70:kem.c         **** *              - const uint8_t *pk: pointer to input public key
  71:kem.c         **** *                (an already allocated array of KYBER_PUBLICKEYBYTES bytes)
  72:kem.c         **** *              - const uint8_t *coins: pointer to input randomness
  73:kem.c         **** *                (an already allocated array filled with KYBER_SYMBYTES random bytes)
  74:kem.c         **** **
  75:kem.c         **** * Returns 0 (success)
  76:kem.c         **** **************************************************/
  77:kem.c         **** static int crypto_kem_enc_derand(uint8_t *ct,
  78:kem.c         ****         uint8_t *ss,
  79:kem.c         ****         const uint8_t *pk,
  80:kem.c         ****         const uint8_t *coins) {
  81:kem.c         ****     uint8_t buf[2 * KYBER_SYMBYTES];
  82:kem.c         ****     /* Will contain key, coins */
  83:kem.c         ****     uint8_t kr[2 * KYBER_SYMBYTES];
  84:kem.c         **** 
  85:kem.c         ****     memcpy(buf, coins, KYBER_SYMBYTES);
  86:kem.c         **** 
  87:kem.c         ****     /* Multitarget countermeasure for coins + contributory KEM */
  88:kem.c         ****     hash_h(buf + KYBER_SYMBYTES, pk, KYBER_PUBLICKEYBYTES);
  89:kem.c         ****     hash_g(kr, buf, 2 * KYBER_SYMBYTES);
  90:kem.c         **** 
  91:kem.c         ****     /* coins are in kr+KYBER_SYMBYTES */
  92:kem.c         ****     indcpa_enc(ct, buf, pk, kr + KYBER_SYMBYTES);
  93:kem.c         **** 
  94:kem.c         ****     memcpy(ss, kr, KYBER_SYMBYTES);
  95:kem.c         ****     return 0;
  96:kem.c         **** }
  97:kem.c         **** 
  98:kem.c         **** /*************************************************
  99:kem.c         **** * Name:        crypto_kem_enc
 100:kem.c         **** *
 101:kem.c         **** * Description: Generates cipher text and shared
 102:kem.c         **** *              secret for given public key
 103:kem.c         **** *
 104:kem.c         **** * Arguments:   - uint8_t *ct: pointer to output cipher text
 105:kem.c         **** *                (an already allocated array of KYBER_CIPHERTEXTBYTES bytes)
 106:kem.c         **** *              - uint8_t *ss: pointer to output shared secret
 107:kem.c         **** *                (an already allocated array of KYBER_SSBYTES bytes)
 108:kem.c         **** *              - const uint8_t *pk: pointer to input public key
 109:kem.c         **** *                (an already allocated array of KYBER_PUBLICKEYBYTES bytes)
 110:kem.c         **** *
 111:kem.c         **** * Returns 0 (success)
 112:kem.c         **** **************************************************/
 113:kem.c         **** int crypto_kem_enc(uint8_t *ct,
 114:kem.c         ****         uint8_t *ss,
 115:kem.c         ****         const uint8_t *pk) {
 133              	 .loc 1 115 28 is_stmt 1 view-0
 134              	 .cfi_startproc
 135              	 
 136              	 
 116:kem.c         ****     uint8_t coins[KYBER_SYMBYTES];
 137              	 .loc 1 116 5 view .LVU21
 117:kem.c         ****     randombytes(coins, KYBER_SYMBYTES);
 138              	 .loc 1 117 5 view .LVU22
 115:kem.c         ****     uint8_t coins[KYBER_SYMBYTES];
 139              	 .loc 1 115 28 is_stmt 0 view .LVU23
 140 0000 2DE9F043 	 push {r4,r5,r6,r7,r8,r9,lr}
 141              	.LCFI3:
 142              	 .cfi_def_cfa_offset 28
 143              	 .cfi_offset 4,-28
 144              	 .cfi_offset 5,-24
 145              	 .cfi_offset 6,-20
 146              	 .cfi_offset 7,-16
 147              	 .cfi_offset 8,-12
 148              	 .cfi_offset 9,-8
 149              	 .cfi_offset 14,-4
 150 0004 A9B0     	 sub sp,sp,#164
 151              	.LCFI4:
 152              	 .cfi_def_cfa_offset 192
 153              	 .loc 1 117 5 view .LVU24
 154 0006 184B     	 ldr r3,.L9
 115:kem.c         ****     uint8_t coins[KYBER_SYMBYTES];
 155              	 .loc 1 115 28 view .LVU25
 156 0008 8046     	 mov r8,r0
 157 000a 0E46     	 mov r6,r1
 158              	 .loc 1 117 5 view .LVU26
 159 000c 6846     	 mov r0,sp
 160              	.LVL11:
 161              	 .loc 1 117 5 view .LVU27
 162 000e 2021     	 movs r1,#32
 163              	.LVL12:
 164              	.LBB8:
 165              	.LBB9:
  85:kem.c         **** 
 166              	 .loc 1 85 5 view .LVU28
 167 0010 6C46     	 mov r4,sp
 168              	.LBE9:
 169              	.LBE8:
 115:kem.c         ****     uint8_t coins[KYBER_SYMBYTES];
 170              	 .loc 1 115 28 view .LVU29
 171 0012 1746     	 mov r7,r2
 172              	 .loc 1 117 5 view .LVU30
 173 0014 9847     	 blx r3
 174              	.LVL13:
 118:kem.c         ****     crypto_kem_enc_derand(ct, ss, pk, coins);
 175              	 .loc 1 118 5 is_stmt 1 view .LVU31
 176              	.LBB11:
 177              	.LBI8:
  77:kem.c         ****         uint8_t *ss,
 178              	 .loc 1 77 12 view .LVU32
 179              	.LBB10:
  81:kem.c         ****     /* Will contain key, coins */
 180              	 .loc 1 81 5 view .LVU33
  83:kem.c         **** 
 181              	 .loc 1 83 5 view .LVU34
  85:kem.c         **** 
 182              	 .loc 1 85 5 view .LVU35
 183 0016 0FCC     	 ldmia r4!,{r0,r1,r2,r3}
 184              	.LVL14:
  85:kem.c         **** 
 185              	 .loc 1 85 5 is_stmt 0 view .LVU36
 186 0018 08AD     	 add r5,sp,#32
 187 001a 0FC5     	 stmia r5!,{r0,r1,r2,r3}
 188 001c 94E80F00 	 ldm r4,{r0,r1,r2,r3}
 189 0020 85E80F00 	 stm r5,{r0,r1,r2,r3}
  88:kem.c         ****     hash_g(kr, buf, 2 * KYBER_SYMBYTES);
 190              	 .loc 1 88 5 is_stmt 1 view .LVU37
 191 0024 114B     	 ldr r3,.L9+4
  92:kem.c         **** 
 192              	 .loc 1 92 5 is_stmt 0 view .LVU38
 193 0026 124C     	 ldr r4,.L9+8
  88:kem.c         ****     hash_g(kr, buf, 2 * KYBER_SYMBYTES);
 194              	 .loc 1 88 5 view .LVU39
 195 0028 4FF44872 	 mov r2,#800
 196 002c 3946     	 mov r1,r7
 197 002e 10A8     	 add r0,sp,#64
 198 0030 9847     	 blx r3
 199              	.LVL15:
  89:kem.c         **** 
 200              	 .loc 1 89 5 is_stmt 1 view .LVU40
  92:kem.c         **** 
 201              	 .loc 1 92 5 is_stmt 0 view .LVU41
 202 0032 0DF18009 	 add r9,sp,#128
  89:kem.c         **** 
 203              	 .loc 1 89 5 view .LVU42
 204 0036 0F4B     	 ldr r3,.L9+12
 205 0038 4022     	 movs r2,#64
 206 003a 08A9     	 add r1,sp,#32
 207 003c 18A8     	 add r0,sp,#96
 208 003e 9847     	 blx r3
 209              	.LVL16:
  92:kem.c         **** 
 210              	 .loc 1 92 5 is_stmt 1 view .LVU43
 211 0040 3A46     	 mov r2,r7
 212 0042 4B46     	 mov r3,r9
 213 0044 08A9     	 add r1,sp,#32
 214 0046 4046     	 mov r0,r8
 215 0048 A047     	 blx r4
 216              	.LVL17:
  94:kem.c         ****     return 0;
 217              	 .loc 1 94 5 view .LVU44
 218 004a 18AC     	 add r4,sp,#96
 219 004c 3246     	 mov r2,r6
 220              	.L7:
  94:kem.c         ****     return 0;
 221              	 .loc 1 94 5 is_stmt 0 view .LVU45
 222 004e 2546     	 mov r5,r4
 223 0050 03CD     	 ldmia r5!,{r0,r1}
 224 0052 4D45     	 cmp r5,r9
 225 0054 1060     	 str r0,[r2]
 226 0056 5160     	 str r1,[r2,#4]
 227 0058 2C46     	 mov r4,r5
 228 005a 02F10802 	 add r2,r2,#8
 229 005e F6D1     	 bne .L7
  95:kem.c         **** }
 230              	 .loc 1 95 5 is_stmt 1 view .LVU46
 231              	.LVL18:
  95:kem.c         **** }
 232              	 .loc 1 95 5 is_stmt 0 view .LVU47
 233              	.LBE10:
 234              	.LBE11:
 119:kem.c         ****     return 0;
 235              	 .loc 1 119 5 is_stmt 1 view .LVU48
 120:kem.c         **** }
 236              	 .loc 1 120 1 is_stmt 0 view .LVU49
 237 0060 0020     	 movs r0,#0
 238 0062 29B0     	 add sp,sp,#164
 239              	.LCFI5:
 240              	 .cfi_def_cfa_offset 28
 241              	 
 242 0064 BDE8F083 	 pop {r4,r5,r6,r7,r8,r9,pc}
 243              	.LVL19:
 244              	.L10:
 245              	 .loc 1 120 1 view .LVU50
 246              	 .align 2
 247              	.L9:
 248 0068 00000000 	 .word PQCLEAN_randombytes
 249 006c 00000000 	 .word sha3_256
 250 0070 00000000 	 .word indcpa_enc
 251 0074 00000000 	 .word sha3_512
 252              	 .cfi_endproc
 253              	.LFE6:
 255              	 .section .text.crypto_kem_dec,"ax",%progbits
 256              	 .align 1
 257              	 .global crypto_kem_dec
 258              	 .syntax unified
 259              	 .thumb
 260              	 .thumb_func
 262              	crypto_kem_dec:
 263              	.LVL20:
 264              	.LFB7:
 121:kem.c         **** 
 122:kem.c         **** /*************************************************
 123:kem.c         **** * Name:        crypto_kem_dec
 124:kem.c         **** *
 125:kem.c         **** * Description: Generates shared secret for given
 126:kem.c         **** *              cipher text and private key
 127:kem.c         **** *
 128:kem.c         **** * Arguments:   - unsigned char *ss:       pointer to output shared secret (an already allocated arr
 129:kem.c         **** *              - const unsigned char *ct: pointer to input cipher text (an already allocated array 
 130:kem.c         **** *              - const unsigned char *sk: pointer to input private key (an already allocated array 
 131:kem.c         **** *
 132:kem.c         **** * Returns 0.
 133:kem.c         **** *
 134:kem.c         **** * On failure, ss will contain a pseudo-random value.
 135:kem.c         **** **************************************************/
 136:kem.c         **** int crypto_kem_dec(unsigned char *ss, const unsigned char *ct, const unsigned char *sk) {
 265              	 .loc 1 136 89 is_stmt 1 view-0
 266              	 .cfi_startproc
 267              	 
 268              	 
 137:kem.c         ****     int fail;
 269              	 .loc 1 137 5 view .LVU52
 138:kem.c         ****     uint8_t buf[2 * KYBER_SYMBYTES];
 270              	 .loc 1 138 5 view .LVU53
 139:kem.c         ****     /* Will contain key, coins */
 140:kem.c         ****     uint8_t kr[2 * KYBER_SYMBYTES];
 271              	 .loc 1 140 5 view .LVU54
 141:kem.c         ****     const uint8_t *pk = sk + KYBER_INDCPA_SECRETKEYBYTES;
 272              	 .loc 1 141 5 view .LVU55
 136:kem.c         ****     int fail;
 273              	 .loc 1 136 89 is_stmt 0 view .LVU56
 274 0000 F0B5     	 push {r4,r5,r6,r7,lr}
 275              	.LCFI6:
 276              	 .cfi_def_cfa_offset 20
 277              	 .cfi_offset 4,-20
 278              	 .cfi_offset 5,-16
 279              	 .cfi_offset 6,-12
 280              	 .cfi_offset 7,-8
 281              	 .cfi_offset 14,-4
 282 0002 A1B0     	 sub sp,sp,#132
 283              	.LCFI7:
 284              	 .cfi_def_cfa_offset 152
 136:kem.c         ****     int fail;
 285              	 .loc 1 136 89 view .LVU57
 286 0004 1546     	 mov r5,r2
 287              	.LVL21:
 142:kem.c         **** 
 143:kem.c         ****     indcpa_dec(buf, ct, sk);
 288              	 .loc 1 143 5 is_stmt 1 view .LVU58
 289 0006 184B     	 ldr r3,.L14
 136:kem.c         ****     int fail;
 290              	 .loc 1 136 89 is_stmt 0 view .LVU59
 291 0008 0646     	 mov r6,r0
 292              	 .loc 1 143 5 view .LVU60
 293 000a 6846     	 mov r0,sp
 294              	.LVL22:
 136:kem.c         ****     int fail;
 295              	 .loc 1 136 89 view .LVU61
 296 000c 0F46     	 mov r7,r1
 144:kem.c         **** 
 145:kem.c         ****     /* Multitarget countermeasure for coins + contributory KEM */
 146:kem.c         ****     memcpy(buf + KYBER_SYMBYTES, sk + KYBER_SECRETKEYBYTES - 2 * KYBER_SYMBYTES, KYBER_SYMBYTES);
 297              	 .loc 1 146 60 view .LVU62
 298 000e 05F5C464 	 add r4,r5,#1568
 143:kem.c         **** 
 299              	 .loc 1 143 5 view .LVU63
 300 0012 9847     	 blx r3
 301              	.LVL23:
 302              	 .loc 1 146 5 is_stmt 1 view .LVU64
 303 0014 08AA     	 add r2,sp,#32
 304 0016 05F5C86C 	 add ip,r5,#1600
 305              	.L12:
 306 001a 2068     	 ldr r0,[r4]
 307 001c 6168     	 ldr r1,[r4,#4]
 308 001e 1346     	 mov r3,r2
 309 0020 03C3     	 stmia r3!,{r0,r1}
 310 0022 0834     	 adds r4,r4,#8
 311 0024 6445     	 cmp r4,ip
 312 0026 1A46     	 mov r2,r3
 313 0028 F7D1     	 bne .L12
 147:kem.c         ****     hash_g(kr, buf, 2 * KYBER_SYMBYTES);
 314              	 .loc 1 147 5 view .LVU65
 315 002a 4022     	 movs r2,#64
 316 002c 0DEB0200 	 add r0,sp,r2
 317 0030 6946     	 mov r1,sp
 318 0032 0E4B     	 ldr r3,.L14+4
 319 0034 9847     	 blx r3
 320              	.LVL24:
 148:kem.c         **** 
 149:kem.c         ****     /* coins are in kr+KYBER_SYMBYTES */
 150:kem.c         ****     fail = indcpa_enc_cmp(ct, buf, pk, kr + KYBER_SYMBYTES);
 321              	 .loc 1 150 5 view .LVU66
 322              	 .loc 1 150 12 is_stmt 0 view .LVU67
 323 0036 18AB     	 add r3,sp,#96
 324 0038 05F54072 	 add r2,r5,#768
 325 003c 6946     	 mov r1,sp
 326 003e 0C4D     	 ldr r5,.L14+8
 327              	.LVL25:
 328              	 .loc 1 150 12 view .LVU68
 329 0040 3846     	 mov r0,r7
 330 0042 A847     	 blx r5
 331              	.LVL26:
 151:kem.c         **** 
 152:kem.c         ****     /* Compute rejection key */
 153:kem.c         ****     rkprf(ss, sk + KYBER_SECRETKEYBYTES - KYBER_SYMBYTES, ct);
 332              	 .loc 1 153 5 view .LVU69
 333 0044 3A46     	 mov r2,r7
 150:kem.c         **** 
 334              	 .loc 1 150 12 view .LVU70
 335 0046 0546     	 mov r5,r0
 336              	.LVL27:
 337              	 .loc 1 153 5 is_stmt 1 view .LVU71
 338 0048 2146     	 mov r1,r4
 339 004a 3046     	 mov r0,r6
 340 004c 094B     	 ldr r3,.L14+12
 154:kem.c         **** 
 155:kem.c         ****     /* Copy true key to return buffer if fail is false */
 156:kem.c         ****     cmov(ss, kr, KYBER_SYMBYTES, (uint8_t) (1 - fail));
 341              	 .loc 1 156 5 is_stmt 0 view .LVU72
 342 004e 0A4C     	 ldr r4,.L14+16
 153:kem.c         **** 
 343              	 .loc 1 153 5 view .LVU73
 344 0050 9847     	 blx r3
 345              	.LVL28:
 346              	 .loc 1 156 5 is_stmt 1 view .LVU74
 347 0052 C5F10103 	 rsb r3,r5,#1
 348 0056 3046     	 mov r0,r6
 349 0058 DBB2     	 uxtb r3,r3
 350 005a 2022     	 movs r2,#32
 351 005c 10A9     	 add r1,sp,#64
 352 005e A047     	 blx r4
 353              	.LVL29:
 157:kem.c         **** 
 158:kem.c         ****     return 0;
 354              	 .loc 1 158 5 view .LVU75
 159:kem.c         **** }
 355              	 .loc 1 159 1 is_stmt 0 view .LVU76
 356 0060 0020     	 movs r0,#0
 357 0062 21B0     	 add sp,sp,#132
 358              	.LCFI8:
 359              	 .cfi_def_cfa_offset 20
 360              	 
 361 0064 F0BD     	 pop {r4,r5,r6,r7,pc}
 362              	.LVL30:
 363              	.L15:
 364              	 .loc 1 159 1 view .LVU77
 365 0066 00BF     	 .align 2
 366              	.L14:
 367 0068 00000000 	 .word indcpa_dec
 368 006c 00000000 	 .word sha3_512
 369 0070 00000000 	 .word indcpa_enc_cmp
 370 0074 00000000 	 .word kyber_shake256_rkprf
 371 0078 00000000 	 .word cmov
 372              	 .cfi_endproc
 373              	.LFE7:
 375              	 .text
 376              	.Letext0:
 377              	 .file 2 "/usr/lib/gcc/arm-none-eabi/13.2.1/include/stdint.h"
 378              	 .file 3 "/usr/lib/gcc/arm-none-eabi/13.2.1/include/stddef.h"
 379              	 .file 4 "verify.h"
 380              	 .file 5 "symmetric.h"
 381              	 .file 6 "indcpa.h"
 382              	 .file 7 "fips202.h"
 383              	 .file 8 "/usr/include/newlib/string.h"
 384              	 .file 9 "randombytes.h"
 385              	 .file 10 "<built-in>"