   1              	 .cpu cortex-m4
   2              	 .arch armv7e-m
   3              	 .fpu softvfp
   4              	 .eabi_attribute 20,1
   5              	 .eabi_attribute 21,1
   6              	 .eabi_attribute 23,3
   7              	 .eabi_attribute 24,1
   8              	 .eabi_attribute 25,1
   9              	 .eabi_attribute 26,1
  10              	 .eabi_attribute 30,4
  11              	 .eabi_attribute 34,1
  12              	 .eabi_attribute 18,4
  13              	 .file "polyvec.c"
  14              	 .text
  15              	.Ltext0:
  16              	 .cfi_sections .debug_frame
  17              	 .file 1 "polyvec.c"
  18              	 .section .text.PQCLEAN_MLKEM512_CLEAN_polyvec_compress,"ax",%progbits
  19              	 .align 1
  20              	 .global PQCLEAN_MLKEM512_CLEAN_polyvec_compress
  21              	 .syntax unified
  22              	 .thumb
  23              	 .thumb_func
  25              	PQCLEAN_MLKEM512_CLEAN_polyvec_compress:
  26              	.LVL0:
  27              	.LFB0:
   1:polyvec.c     **** #include "params.h"
   2:polyvec.c     **** #include "poly.h"
   3:polyvec.c     **** #include "polyvec.h"
   4:polyvec.c     **** #include <stdint.h>
   5:polyvec.c     **** 
   6:polyvec.c     **** /*************************************************
   7:polyvec.c     **** * Name:        PQCLEAN_MLKEM512_CLEAN_polyvec_compress
   8:polyvec.c     **** *
   9:polyvec.c     **** * Description: Compress and serialize vector of polynomials
  10:polyvec.c     **** *
  11:polyvec.c     **** * Arguments:   - uint8_t *r: pointer to output byte array
  12:polyvec.c     **** *                            (needs space for KYBER_POLYVECCOMPRESSEDBYTES)
  13:polyvec.c     **** *              - const polyvec *a: pointer to input vector of polynomials
  14:polyvec.c     **** **************************************************/
  15:polyvec.c     **** void PQCLEAN_MLKEM512_CLEAN_polyvec_compress(uint8_t r[KYBER_POLYVECCOMPRESSEDBYTES], const polyvec
  28              	 .loc 1 15 105 view-0
  29              	 .cfi_startproc
  30              	 
  31              	 
  16:polyvec.c     ****     unsigned int i, j, k;
  32              	 .loc 1 16 5 view .LVU1
  17:polyvec.c     ****     uint64_t d0;
  33              	 .loc 1 17 5 view .LVU2
  18:polyvec.c     **** 
  19:polyvec.c     ****     uint16_t t[4];
  34              	 .loc 1 19 5 view .LVU3
  20:polyvec.c     ****     for (i = 0; i < KYBER_K; i++) {
  35              	 .loc 1 20 5 view .LVU4
  36              	 .loc 1 20 19 discriminator 1 view .LVU5
  15:polyvec.c     ****     unsigned int i, j, k;
  37              	 .loc 1 15 105 is_stmt 0 view .LVU6
  38 0000 2DE9F74F 	 push {r0,r1,r2,r4,r5,r6,r7,r8,r9,r10,fp,lr}
  39              	.LCFI0:
  40              	 .cfi_def_cfa_offset 48
  41              	 .cfi_offset 4,-36
  42              	 .cfi_offset 5,-32
  43              	 .cfi_offset 6,-28
  44              	 .cfi_offset 7,-24
  45              	 .cfi_offset 8,-20
  46              	 .cfi_offset 9,-16
  47              	 .cfi_offset 10,-12
  48              	 .cfi_offset 11,-8
  49              	 .cfi_offset 14,-4
  21:polyvec.c     ****         for (j = 0; j < KYBER_N / 4; j++) {
  22:polyvec.c     ****             for (k = 0; k < 4; k++) {
  23:polyvec.c     ****                 t[k]  = a->vec[i].coeffs[4 * j + k];
  24:polyvec.c     ****                 t[k] += ((int16_t)t[k] >> 15) & KYBER_Q;
  25:polyvec.c     ****                 /*      t[k]  = ((((uint32_t)t[k] << 10) + KYBER_Q/2)/ KYBER_Q) & 0x3ff; */
  26:polyvec.c     ****                 d0 = t[k];
  27:polyvec.c     ****                 d0 <<= 10;
  28:polyvec.c     ****                 d0 += 1665;
  29:polyvec.c     ****                 d0 *= 1290167;
  30:polyvec.c     ****                 d0 >>= 32;
  50              	 .loc 1 30 20 view .LVU7
  51 0004 DFF898A0 	 ldr r10,.L8
  52 0008 0026     	 movs r6,#0
  24:polyvec.c     ****                 /*      t[k]  = ((((uint32_t)t[k] << 10) + KYBER_Q/2)/ KYBER_Q) & 0x3ff; */
  53              	 .loc 1 24 47 view .LVU8
  54 000a 40F60158 	 movw r8,#3329
  28:polyvec.c     ****                 d0 *= 1290167;
  55              	 .loc 1 28 20 view .LVU9
  56 000e 40F28169 	 movw r9,#1665
  57              	.LVL1:
  58              	.L2:
  21:polyvec.c     ****         for (j = 0; j < KYBER_N / 4; j++) {
  59              	 .loc 1 21 23 is_stmt 1 discriminator 1 view .LVU10
  60 0012 421D     	 adds r2,r0,#5
  61 0014 01EBC605 	 add r5,r1,r6,lsl#3
  22:polyvec.c     ****                 t[k]  = a->vec[i].coeffs[4 * j + k];
  62              	 .loc 1 22 20 is_stmt 0 view .LVU11
  63 0018 0024     	 movs r4,#0
  64 001a 35E0     	 b .L6
  65              	.LVL2:
  66              	.L3:
  23:polyvec.c     ****                 t[k] += ((int16_t)t[k] >> 15) & KYBER_Q;
  67              	 .loc 1 23 17 is_stmt 1 view .LVU12
  23:polyvec.c     ****                 t[k] += ((int16_t)t[k] >> 15) & KYBER_Q;
  68              	 .loc 1 23 41 is_stmt 0 view .LVU13
  69 001c 3CF902BB 	 ldrsh fp,[ip],#2
  24:polyvec.c     ****                 /*      t[k]  = ((((uint32_t)t[k] << 10) + KYBER_Q/2)/ KYBER_Q) & 0x3ff; */
  70              	 .loc 1 24 17 is_stmt 1 view .LVU14
  26:polyvec.c     ****                 d0 <<= 10;
  71              	 .loc 1 26 17 view .LVU15
  24:polyvec.c     ****                 /*      t[k]  = ((((uint32_t)t[k] << 10) + KYBER_Q/2)/ KYBER_Q) & 0x3ff; */
  72              	 .loc 1 24 47 is_stmt 0 view .LVU16
  73 0020 08EAEB73 	 and r3,r8,fp,asr#31
  24:polyvec.c     ****                 /*      t[k]  = ((((uint32_t)t[k] << 10) + KYBER_Q/2)/ KYBER_Q) & 0x3ff; */
  74              	 .loc 1 24 22 view .LVU17
  75 0024 5B44     	 add r3,r3,fp
  26:polyvec.c     ****                 d0 <<= 10;
  76              	 .loc 1 26 20 view .LVU18
  77 0026 9BB2     	 uxth r3,r3
  78              	.LVL3:
  27:polyvec.c     ****                 d0 += 1665;
  79              	 .loc 1 27 17 is_stmt 1 view .LVU19
  28:polyvec.c     ****                 d0 *= 1290167;
  80              	 .loc 1 28 17 view .LVU20
  29:polyvec.c     ****                 d0 >>= 32;
  81              	 .loc 1 29 17 view .LVU21
  82              	 .loc 1 30 17 view .LVU22
  28:polyvec.c     ****                 d0 *= 1290167;
  83              	 .loc 1 28 20 is_stmt 0 view .LVU23
  84 0028 09EB8323 	 add r3,r9,r3,lsl#10
  85              	.LVL4:
  86              	 .loc 1 30 20 view .LVU24
  87 002c AAFB03B3 	 umull fp,r3,r10,r3
  88              	.LVL5:
  31:polyvec.c     ****                 t[k] = d0 & 0x3ff;
  89              	 .loc 1 31 17 is_stmt 1 view .LVU25
  22:polyvec.c     ****                 t[k]  = a->vec[i].coeffs[4 * j + k];
  90              	 .loc 1 22 33 is_stmt 0 discriminator 3 view .LVU26
  91 0030 0137     	 adds r7,r7,#1
  92              	.LVL6:
  93              	 .loc 1 31 27 view .LVU27
  94 0032 C3F30903 	 ubfx r3,r3,#0,#10
  95              	.LVL7:
  22:polyvec.c     ****                 t[k]  = a->vec[i].coeffs[4 * j + k];
  96              	 .loc 1 22 27 discriminator 1 view .LVU28
  97 0036 042F     	 cmp r7,#4
  98              	 .loc 1 31 22 view .LVU29
  99 0038 2EF8023B 	 strh r3,[lr],#2
  22:polyvec.c     ****                 t[k]  = a->vec[i].coeffs[4 * j + k];
 100              	 .loc 1 22 33 is_stmt 1 discriminator 3 view .LVU30
 101              	.LVL8:
  22:polyvec.c     ****                 t[k]  = a->vec[i].coeffs[4 * j + k];
 102              	 .loc 1 22 27 discriminator 1 view .LVU31
 103 003c EED1     	 bne .L3
  32:polyvec.c     ****             }
  33:polyvec.c     **** 
  34:polyvec.c     ****             r[0] = (uint8_t)(t[0] >> 0);
 104              	 .loc 1 34 13 view .LVU32
  35:polyvec.c     ****             r[1] = (uint8_t)((t[0] >> 8) | (t[1] << 2));
 105              	 .loc 1 35 46 is_stmt 0 view .LVU33
 106 003e BDF80270 	 ldrh r7,[sp,#2]
 107              	.LVL9:
  34:polyvec.c     ****             r[1] = (uint8_t)((t[0] >> 8) | (t[1] << 2));
 108              	 .loc 1 34 31 view .LVU34
 109 0042 BDF800C0 	 ldrh ip,[sp]
 110              	.LVL10:
  34:polyvec.c     ****             r[1] = (uint8_t)((t[0] >> 8) | (t[1] << 2));
 111              	 .loc 1 34 20 view .LVU35
 112 0046 02F805CC 	 strb ip,[r2,#-5]
 113              	 .loc 1 35 13 is_stmt 1 view .LVU36
 114              	 .loc 1 35 42 is_stmt 0 view .LVU37
 115 004a BB00     	 lsls r3,r7,#2
 116 004c 43EA1C23 	 orr r3,r3,ip,lsr#8
  36:polyvec.c     ****             r[2] = (uint8_t)((t[1] >> 6) | (t[2] << 4));
 117              	 .loc 1 36 46 view .LVU38
 118 0050 BDF804C0 	 ldrh ip,[sp,#4]
  35:polyvec.c     ****             r[1] = (uint8_t)((t[0] >> 8) | (t[1] << 2));
 119              	 .loc 1 35 18 view .LVU39
 120 0054 02F8043C 	 strb r3,[r2,#-4]
 121              	 .loc 1 36 13 is_stmt 1 view .LVU40
 122              	 .loc 1 36 42 is_stmt 0 view .LVU41
 123 0058 4FEA0C13 	 lsl r3,ip,#4
 124 005c 43EA9713 	 orr r3,r3,r7,lsr#6
 125              	 .loc 1 36 18 view .LVU42
 126 0060 02F8033C 	 strb r3,[r2,#-3]
  37:polyvec.c     ****             r[3] = (uint8_t)((t[2] >> 4) | (t[3] << 6));
 127              	 .loc 1 37 13 is_stmt 1 view .LVU43
 128              	 .loc 1 37 46 is_stmt 0 view .LVU44
 129 0064 BDF80630 	 ldrh r3,[sp,#6]
  21:polyvec.c     ****             for (k = 0; k < 4; k++) {
 130              	 .loc 1 21 23 discriminator 1 view .LVU45
 131 0068 0434     	 adds r4,r4,#4
 132              	 .loc 1 37 42 view .LVU46
 133 006a 9F01     	 lsls r7,r3,#6
 134 006c 47EA1C17 	 orr r7,r7,ip,lsr#4
  38:polyvec.c     ****             r[4] = (uint8_t)(t[3] >> 2);
 135              	 .loc 1 38 20 view .LVU47
 136 0070 9B08     	 lsrs r3,r3,#2
  21:polyvec.c     ****             for (k = 0; k < 4; k++) {
 137              	 .loc 1 21 23 discriminator 1 view .LVU48
 138 0072 B4F5807F 	 cmp r4,#256
  37:polyvec.c     ****             r[3] = (uint8_t)((t[2] >> 4) | (t[3] << 6));
 139              	 .loc 1 37 18 view .LVU49
 140 0076 02F8027C 	 strb r7,[r2,#-2]
 141              	 .loc 1 38 13 is_stmt 1 view .LVU50
 142              	 .loc 1 38 20 is_stmt 0 view .LVU51
 143 007a 02F8013C 	 strb r3,[r2,#-1]
  39:polyvec.c     ****             r += 5;
 144              	 .loc 1 39 13 is_stmt 1 view .LVU52
 145              	.LVL11:
  21:polyvec.c     ****             for (k = 0; k < 4; k++) {
 146              	 .loc 1 21 39 discriminator 2 view .LVU53
  21:polyvec.c     ****             for (k = 0; k < 4; k++) {
 147              	 .loc 1 21 23 discriminator 1 view .LVU54
 148 007e 05F10805 	 add r5,r5,#8
 149 0082 02F10502 	 add r2,r2,#5
 150              	.LVL12:
  21:polyvec.c     ****             for (k = 0; k < 4; k++) {
 151              	 .loc 1 21 23 is_stmt 0 discriminator 1 view .LVU55
 152 0086 03D0     	 beq .L4
 153              	.LVL13:
 154              	.L6:
  22:polyvec.c     ****                 t[k]  = a->vec[i].coeffs[4 * j + k];
 155              	 .loc 1 22 27 is_stmt 1 discriminator 1 view .LVU56
 156 0088 EE46     	 mov lr,sp
  15:polyvec.c     ****     unsigned int i, j, k;
 157              	 .loc 1 15 105 is_stmt 0 view .LVU57
 158 008a AC46     	 mov ip,r5
  22:polyvec.c     ****                 t[k]  = a->vec[i].coeffs[4 * j + k];
 159              	 .loc 1 22 20 view .LVU58
 160 008c 0027     	 movs r7,#0
 161 008e C5E7     	 b .L3
 162              	.LVL14:
 163              	.L4:
  22:polyvec.c     ****                 t[k]  = a->vec[i].coeffs[4 * j + k];
 164              	 .loc 1 22 20 view .LVU59
 165 0090 00F5A070 	 add r0,r0,#320
  20:polyvec.c     ****         for (j = 0; j < KYBER_N / 4; j++) {
 166              	 .loc 1 20 31 is_stmt 1 discriminator 2 view .LVU60
 167              	.LVL15:
  20:polyvec.c     ****         for (j = 0; j < KYBER_N / 4; j++) {
 168              	 .loc 1 20 19 discriminator 1 view .LVU61
 169 0094 0EB9     	 cbnz r6,.L1
 170 0096 4026     	 movs r6,#64
 171 0098 BBE7     	 b .L2
 172              	.L1:
  40:polyvec.c     ****         }
  41:polyvec.c     ****     }
  42:polyvec.c     **** }
 173              	 .loc 1 42 1 is_stmt 0 view .LVU62
 174 009a 03B0     	 add sp,sp,#12
 175              	.LCFI1:
 176              	 .cfi_def_cfa_offset 36
 177              	 
 178 009c BDE8F08F 	 pop {r4,r5,r6,r7,r8,r9,r10,fp,pc}
 179              	.L9:
 180              	 .align 2
 181              	.L8:
 182 00a0 B7AF1300 	 .word 1290167
 183              	 .cfi_endproc
 184              	.LFE0:
 186              	 .section .text.PQCLEAN_MLKEM512_CLEAN_polyvec_decompress,"ax",%progbits
 187              	 .align 1
 188              	 .global PQCLEAN_MLKEM512_CLEAN_polyvec_decompress
 189              	 .syntax unified
 190              	 .thumb
 191              	 .thumb_func
 193              	PQCLEAN_MLKEM512_CLEAN_polyvec_decompress:
 194              	.LVL16:
 195              	.LFB1:
  43:polyvec.c     **** 
  44:polyvec.c     **** /*************************************************
  45:polyvec.c     **** * Name:        PQCLEAN_MLKEM512_CLEAN_polyvec_decompress
  46:polyvec.c     **** *
  47:polyvec.c     **** * Description: De-serialize and decompress vector of polynomials;
  48:polyvec.c     **** *              approximate inverse of PQCLEAN_MLKEM512_CLEAN_polyvec_compress
  49:polyvec.c     **** *
  50:polyvec.c     **** * Arguments:   - polyvec *r:       pointer to output vector of polynomials
  51:polyvec.c     **** *              - const uint8_t *a: pointer to input byte array
  52:polyvec.c     **** *                                  (of length KYBER_POLYVECCOMPRESSEDBYTES)
  53:polyvec.c     **** **************************************************/
  54:polyvec.c     **** void PQCLEAN_MLKEM512_CLEAN_polyvec_decompress(polyvec *r, const uint8_t a[KYBER_POLYVECCOMPRESSEDB
 196              	 .loc 1 54 107 is_stmt 1 view-0
 197              	 .cfi_startproc
 198              	 
 199              	 
  55:polyvec.c     ****     unsigned int i, j, k;
 200              	 .loc 1 55 5 view .LVU64
  56:polyvec.c     **** 
  57:polyvec.c     ****     uint16_t t[4];
 201              	 .loc 1 57 5 view .LVU65
  58:polyvec.c     ****     for (i = 0; i < KYBER_K; i++) {
 202              	 .loc 1 58 5 view .LVU66
 203              	 .loc 1 58 19 discriminator 1 view .LVU67
  54:polyvec.c     ****     unsigned int i, j, k;
 204              	 .loc 1 54 107 is_stmt 0 view .LVU68
 205 0000 2DE9F341 	 push {r0,r1,r4,r5,r6,r7,r8,lr}
 206              	.LCFI2:
 207              	 .cfi_def_cfa_offset 32
 208              	 .cfi_offset 4,-24
 209              	 .cfi_offset 5,-20
 210              	 .cfi_offset 6,-16
 211              	 .cfi_offset 7,-12
 212              	 .cfi_offset 8,-8
 213              	 .cfi_offset 14,-4
 214 0004 0024     	 movs r4,#0
  59:polyvec.c     ****         for (j = 0; j < KYBER_N / 4; j++) {
  60:polyvec.c     ****             t[0] = (a[0] >> 0) | ((uint16_t)a[1] << 8);
  61:polyvec.c     ****             t[1] = (a[1] >> 2) | ((uint16_t)a[2] << 6);
  62:polyvec.c     ****             t[2] = (a[2] >> 4) | ((uint16_t)a[3] << 4);
  63:polyvec.c     ****             t[3] = (a[3] >> 6) | ((uint16_t)a[4] << 2);
  64:polyvec.c     ****             a += 5;
  65:polyvec.c     **** 
  66:polyvec.c     ****             for (k = 0; k < 4; k++) {
  67:polyvec.c     ****                 r->vec[i].coeffs[4 * j + k] = ((uint32_t)(t[k] & 0x3FF) * KYBER_Q + 512) >> 10;
 215              	 .loc 1 67 73 view .LVU69
 216 0006 40F60158 	 movw r8,#3329
 217              	.LVL17:
 218              	.L11:
 219              	 .loc 1 67 73 view .LVU70
 220 000a 04EB8403 	 add r3,r4,r4,lsl#2
 221 000e 0B44     	 add r3,r3,r1
 222              	.LVL18:
  59:polyvec.c     ****         for (j = 0; j < KYBER_N / 4; j++) {
 223              	 .loc 1 59 23 is_stmt 1 discriminator 1 view .LVU71
 224 0010 00EBC406 	 add r6,r0,r4,lsl#3
  54:polyvec.c     ****     unsigned int i, j, k;
 225              	 .loc 1 54 107 is_stmt 0 view .LVU72
 226 0014 0025     	 movs r5,#0
 227              	.LVL19:
 228              	.L13:
  60:polyvec.c     ****             t[1] = (a[1] >> 2) | ((uint16_t)a[2] << 6);
 229              	 .loc 1 60 13 is_stmt 1 view .LVU73
  61:polyvec.c     ****             t[2] = (a[2] >> 4) | ((uint16_t)a[3] << 4);
 230              	 .loc 1 61 46 is_stmt 0 view .LVU74
 231 0016 93F802C0 	 ldrb ip,[r3,#2]
  60:polyvec.c     ****             t[1] = (a[1] >> 2) | ((uint16_t)a[2] << 6);
 232              	 .loc 1 60 46 view .LVU75
 233 001a 5F78     	 ldrb r7,[r3,#1]
  60:polyvec.c     ****             t[1] = (a[1] >> 2) | ((uint16_t)a[2] << 6);
 234              	 .loc 1 60 18 view .LVU76
 235 001c 1A88     	 ldrh r2,[r3]
 236 001e ADF80020 	 strh r2,[sp]
  61:polyvec.c     ****             t[2] = (a[2] >> 4) | ((uint16_t)a[3] << 4);
 237              	 .loc 1 61 13 is_stmt 1 view .LVU77
  61:polyvec.c     ****             t[2] = (a[2] >> 4) | ((uint16_t)a[3] << 4);
 238              	 .loc 1 61 32 is_stmt 0 view .LVU78
 239 0022 4FEA8C12 	 lsl r2,ip,#6
 240 0026 42EA9702 	 orr r2,r2,r7,lsr#2
  61:polyvec.c     ****             t[2] = (a[2] >> 4) | ((uint16_t)a[3] << 4);
 241              	 .loc 1 61 18 view .LVU79
 242 002a ADF80220 	 strh r2,[sp,#2]
  62:polyvec.c     ****             t[3] = (a[3] >> 6) | ((uint16_t)a[4] << 2);
 243              	 .loc 1 62 13 is_stmt 1 view .LVU80
  62:polyvec.c     ****             t[3] = (a[3] >> 6) | ((uint16_t)a[4] << 2);
 244              	 .loc 1 62 46 is_stmt 0 view .LVU81
 245 002e DA78     	 ldrb r2,[r3,#3]
  62:polyvec.c     ****             t[3] = (a[3] >> 6) | ((uint16_t)a[4] << 2);
 246              	 .loc 1 62 32 view .LVU82
 247 0030 1701     	 lsls r7,r2,#4
 248 0032 47EA1C17 	 orr r7,r7,ip,lsr#4
  62:polyvec.c     ****             t[3] = (a[3] >> 6) | ((uint16_t)a[4] << 2);
 249              	 .loc 1 62 18 view .LVU83
 250 0036 ADF80470 	 strh r7,[sp,#4]
  63:polyvec.c     ****             a += 5;
 251              	 .loc 1 63 13 is_stmt 1 view .LVU84
  63:polyvec.c     ****             a += 5;
 252              	 .loc 1 63 32 is_stmt 0 view .LVU85
 253 003a 1F79     	 ldrb r7,[r3,#4]
 254 003c 9209     	 lsrs r2,r2,#6
 255 003e 42EA8702 	 orr r2,r2,r7,lsl#2
  63:polyvec.c     ****             a += 5;
 256              	 .loc 1 63 18 view .LVU86
 257 0042 ADF80620 	 strh r2,[sp,#6]
  64:polyvec.c     **** 
 258              	 .loc 1 64 13 is_stmt 1 view .LVU87
  64:polyvec.c     **** 
 259              	 .loc 1 64 15 is_stmt 0 view .LVU88
 260 0046 0533     	 adds r3,r3,#5
 261              	.LVL20:
  66:polyvec.c     ****                 r->vec[i].coeffs[4 * j + k] = ((uint32_t)(t[k] & 0x3FF) * KYBER_Q + 512) >> 10;
 262              	 .loc 1 66 13 is_stmt 1 view .LVU89
  66:polyvec.c     ****                 r->vec[i].coeffs[4 * j + k] = ((uint32_t)(t[k] & 0x3FF) * KYBER_Q + 512) >> 10;
 263              	 .loc 1 66 27 discriminator 1 view .LVU90
 264 0048 EE46     	 mov lr,sp
  64:polyvec.c     **** 
 265              	 .loc 1 64 15 is_stmt 0 view .LVU91
 266 004a B446     	 mov ip,r6
  66:polyvec.c     ****                 r->vec[i].coeffs[4 * j + k] = ((uint32_t)(t[k] & 0x3FF) * KYBER_Q + 512) >> 10;
 267              	 .loc 1 66 20 view .LVU92
 268 004c 0027     	 movs r7,#0
 269              	.LVL21:
 270              	.L12:
 271              	 .loc 1 67 17 is_stmt 1 view .LVU93
 272              	 .loc 1 67 60 is_stmt 0 view .LVU94
 273 004e 3EF8022B 	 ldrh r2,[lr],#2
 274              	 .loc 1 67 48 view .LVU95
 275 0052 C2F30902 	 ubfx r2,r2,#0,#10
 276              	 .loc 1 67 73 view .LVU96
 277 0056 08FB02F2 	 mul r2,r8,r2
 278              	 .loc 1 67 83 view .LVU97
 279 005a 02F50072 	 add r2,r2,#512
  66:polyvec.c     ****                 r->vec[i].coeffs[4 * j + k] = ((uint32_t)(t[k] & 0x3FF) * KYBER_Q + 512) >> 10;
 280              	 .loc 1 66 33 discriminator 3 view .LVU98
 281 005e 0137     	 adds r7,r7,#1
 282              	.LVL22:
 283              	 .loc 1 67 90 view .LVU99
 284 0060 920A     	 lsrs r2,r2,#10
  66:polyvec.c     ****                 r->vec[i].coeffs[4 * j + k] = ((uint32_t)(t[k] & 0x3FF) * KYBER_Q + 512) >> 10;
 285              	 .loc 1 66 27 discriminator 1 view .LVU100
 286 0062 042F     	 cmp r7,#4
 287              	 .loc 1 67 45 view .LVU101
 288 0064 2CF8022B 	 strh r2,[ip],#2
  66:polyvec.c     ****                 r->vec[i].coeffs[4 * j + k] = ((uint32_t)(t[k] & 0x3FF) * KYBER_Q + 512) >> 10;
 289              	 .loc 1 66 33 is_stmt 1 discriminator 3 view .LVU102
 290              	.LVL23:
  66:polyvec.c     ****                 r->vec[i].coeffs[4 * j + k] = ((uint32_t)(t[k] & 0x3FF) * KYBER_Q + 512) >> 10;
 291              	 .loc 1 66 27 discriminator 1 view .LVU103
 292 0068 F1D1     	 bne .L12
  59:polyvec.c     ****             t[0] = (a[0] >> 0) | ((uint16_t)a[1] << 8);
 293              	 .loc 1 59 39 discriminator 2 view .LVU104
  59:polyvec.c     ****             t[0] = (a[0] >> 0) | ((uint16_t)a[1] << 8);
 294              	 .loc 1 59 23 discriminator 1 view .LVU105
 295 006a 0435     	 adds r5,r5,#4
 296 006c B5F5807F 	 cmp r5,#256
 297 0070 06F10806 	 add r6,r6,#8
 298 0074 CFD1     	 bne .L13
  58:polyvec.c     ****         for (j = 0; j < KYBER_N / 4; j++) {
 299              	 .loc 1 58 31 discriminator 2 view .LVU106
 300              	.LVL24:
  58:polyvec.c     ****         for (j = 0; j < KYBER_N / 4; j++) {
 301              	 .loc 1 58 19 discriminator 1 view .LVU107
 302 0076 0CB9     	 cbnz r4,.L10
 303 0078 4024     	 movs r4,#64
 304 007a C6E7     	 b .L11
 305              	.L10:
  68:polyvec.c     ****             }
  69:polyvec.c     ****         }
  70:polyvec.c     ****     }
  71:polyvec.c     **** }
 306              	 .loc 1 71 1 is_stmt 0 view .LVU108
 307 007c 02B0     	 add sp,sp,#8
 308              	.LCFI3:
 309              	 .cfi_def_cfa_offset 24
 310              	 
 311 007e BDE8F081 	 pop {r4,r5,r6,r7,r8,pc}
 312              	 .loc 1 71 1 view .LVU109
 313              	 .cfi_endproc
 314              	.LFE1:
 316              	 .section .text.PQCLEAN_MLKEM512_CLEAN_polyvec_tobytes,"ax",%progbits
 317              	 .align 1
 318              	 .global PQCLEAN_MLKEM512_CLEAN_polyvec_tobytes
 319              	 .syntax unified
 320              	 .thumb
 321              	 .thumb_func
 323              	PQCLEAN_MLKEM512_CLEAN_polyvec_tobytes:
 324              	.LVL25:
 325              	.LFB2:
  72:polyvec.c     **** 
  73:polyvec.c     **** /*************************************************
  74:polyvec.c     **** * Name:        PQCLEAN_MLKEM512_CLEAN_polyvec_tobytes
  75:polyvec.c     **** *
  76:polyvec.c     **** * Description: Serialize vector of polynomials
  77:polyvec.c     **** *
  78:polyvec.c     **** * Arguments:   - uint8_t *r: pointer to output byte array
  79:polyvec.c     **** *                            (needs space for KYBER_POLYVECBYTES)
  80:polyvec.c     **** *              - const polyvec *a: pointer to input vector of polynomials
  81:polyvec.c     **** **************************************************/
  82:polyvec.c     **** void PQCLEAN_MLKEM512_CLEAN_polyvec_tobytes(uint8_t r[KYBER_POLYVECBYTES], const polyvec *a) {
 326              	 .loc 1 82 94 is_stmt 1 view-0
 327              	 .cfi_startproc
 328              	 
 329              	 
  83:polyvec.c     ****     unsigned int i;
 330              	 .loc 1 83 5 view .LVU111
  84:polyvec.c     ****     for (i = 0; i < KYBER_K; i++) {
 331              	 .loc 1 84 5 view .LVU112
 332              	 .loc 1 84 19 discriminator 1 view .LVU113
  85:polyvec.c     ****         PQCLEAN_MLKEM512_CLEAN_poly_tobytes(r + i * KYBER_POLYBYTES, &a->vec[i]);
 333              	 .loc 1 85 9 view .LVU114
  82:polyvec.c     ****     unsigned int i;
 334              	 .loc 1 82 94 is_stmt 0 view .LVU115
 335 0000 70B5     	 push {r4,r5,r6,lr}
 336              	.LCFI4:
 337              	 .cfi_def_cfa_offset 16
 338              	 .cfi_offset 4,-16
 339              	 .cfi_offset 5,-12
 340              	 .cfi_offset 6,-8
 341              	 .cfi_offset 14,-4
 342              	 .loc 1 85 9 view .LVU116
 343 0002 064E     	 ldr r6,.L18
  82:polyvec.c     ****     unsigned int i;
 344              	 .loc 1 82 94 view .LVU117
 345 0004 0446     	 mov r4,r0
 346 0006 0D46     	 mov r5,r1
 347              	 .loc 1 85 9 view .LVU118
 348 0008 B047     	 blx r6
 349              	.LVL26:
  84:polyvec.c     ****     for (i = 0; i < KYBER_K; i++) {
 350              	 .loc 1 84 31 is_stmt 1 discriminator 3 view .LVU119
  84:polyvec.c     ****     for (i = 0; i < KYBER_K; i++) {
 351              	 .loc 1 84 19 discriminator 1 view .LVU120
 352              	 .loc 1 85 9 view .LVU121
 353 000a 05F50071 	 add r1,r5,#512
 354 000e 04F5C070 	 add r0,r4,#384
 355 0012 3346     	 mov r3,r6
  86:polyvec.c     ****     }
  87:polyvec.c     **** }
 356              	 .loc 1 87 1 is_stmt 0 view .LVU122
 357 0014 BDE87040 	 pop {r4,r5,r6,lr}
 358              	.LCFI5:
 359              	 .cfi_restore 14
 360              	 .cfi_restore 6
 361              	 .cfi_restore 5
 362              	 .cfi_restore 4
 363              	 .cfi_def_cfa_offset 0
 364              	.LVL27:
  85:polyvec.c     ****     }
 365              	 .loc 1 85 9 view .LVU123
 366 0018 1847     	 bx r3
 367              	.LVL28:
 368              	.L19:
  85:polyvec.c     ****     }
 369              	 .loc 1 85 9 view .LVU124
 370 001a 00BF     	 .align 2
 371              	.L18:
 372 001c 00000000 	 .word PQCLEAN_MLKEM512_CLEAN_poly_tobytes
 373              	 .cfi_endproc
 374              	.LFE2:
 376              	 .section .text.PQCLEAN_MLKEM512_CLEAN_polyvec_frombytes,"ax",%progbits
 377              	 .align 1
 378              	 .global PQCLEAN_MLKEM512_CLEAN_polyvec_frombytes
 379              	 .syntax unified
 380              	 .thumb
 381              	 .thumb_func
 383              	PQCLEAN_MLKEM512_CLEAN_polyvec_frombytes:
 384              	.LVL29:
 385              	.LFB3:
  88:polyvec.c     **** 
  89:polyvec.c     **** /*************************************************
  90:polyvec.c     **** * Name:        PQCLEAN_MLKEM512_CLEAN_polyvec_frombytes
  91:polyvec.c     **** *
  92:polyvec.c     **** * Description: De-serialize vector of polynomials;
  93:polyvec.c     **** *              inverse of PQCLEAN_MLKEM512_CLEAN_polyvec_tobytes
  94:polyvec.c     **** *
  95:polyvec.c     **** * Arguments:   - uint8_t *r:       pointer to output byte array
  96:polyvec.c     **** *              - const polyvec *a: pointer to input vector of polynomials
  97:polyvec.c     **** *                                  (of length KYBER_POLYVECBYTES)
  98:polyvec.c     **** **************************************************/
  99:polyvec.c     **** void PQCLEAN_MLKEM512_CLEAN_polyvec_frombytes(polyvec *r, const uint8_t a[KYBER_POLYVECBYTES]) {
 386              	 .loc 1 99 96 is_stmt 1 view-0
 387              	 .cfi_startproc
 388              	 
 389              	 
 100:polyvec.c     ****     unsigned int i;
 390              	 .loc 1 100 5 view .LVU126
 101:polyvec.c     ****     for (i = 0; i < KYBER_K; i++) {
 391              	 .loc 1 101 5 view .LVU127
 392              	 .loc 1 101 19 discriminator 1 view .LVU128
 102:polyvec.c     ****         PQCLEAN_MLKEM512_CLEAN_poly_frombytes(&r->vec[i], a + i * KYBER_POLYBYTES);
 393              	 .loc 1 102 9 view .LVU129
  99:polyvec.c     ****     unsigned int i;
 394              	 .loc 1 99 96 is_stmt 0 view .LVU130
 395 0000 70B5     	 push {r4,r5,r6,lr}
 396              	.LCFI6:
 397              	 .cfi_def_cfa_offset 16
 398              	 .cfi_offset 4,-16
 399              	 .cfi_offset 5,-12
 400              	 .cfi_offset 6,-8
 401              	 .cfi_offset 14,-4
 402              	 .loc 1 102 9 view .LVU131
 403 0002 064E     	 ldr r6,.L21
  99:polyvec.c     ****     unsigned int i;
 404              	 .loc 1 99 96 view .LVU132
 405 0004 0446     	 mov r4,r0
 406 0006 0D46     	 mov r5,r1
 407              	 .loc 1 102 9 view .LVU133
 408 0008 B047     	 blx r6
 409              	.LVL30:
 101:polyvec.c     ****     for (i = 0; i < KYBER_K; i++) {
 410              	 .loc 1 101 31 is_stmt 1 discriminator 3 view .LVU134
 101:polyvec.c     ****     for (i = 0; i < KYBER_K; i++) {
 411              	 .loc 1 101 19 discriminator 1 view .LVU135
 412              	 .loc 1 102 9 view .LVU136
 413 000a 05F5C071 	 add r1,r5,#384
 414 000e 04F50070 	 add r0,r4,#512
 415 0012 3346     	 mov r3,r6
 103:polyvec.c     ****     }
 104:polyvec.c     **** }
 416              	 .loc 1 104 1 is_stmt 0 view .LVU137
 417 0014 BDE87040 	 pop {r4,r5,r6,lr}
 418              	.LCFI7:
 419              	 .cfi_restore 14
 420              	 .cfi_restore 6
 421              	 .cfi_restore 5
 422              	 .cfi_restore 4
 423              	 .cfi_def_cfa_offset 0
 424              	.LVL31:
 102:polyvec.c     ****     }
 425              	 .loc 1 102 9 view .LVU138
 426 0018 1847     	 bx r3
 427              	.LVL32:
 428              	.L22:
 102:polyvec.c     ****     }
 429              	 .loc 1 102 9 view .LVU139
 430 001a 00BF     	 .align 2
 431              	.L21:
 432 001c 00000000 	 .word PQCLEAN_MLKEM512_CLEAN_poly_frombytes
 433              	 .cfi_endproc
 434              	.LFE3:
 436              	 .section .text.PQCLEAN_MLKEM512_CLEAN_polyvec_ntt,"ax",%progbits
 437              	 .align 1
 438              	 .global PQCLEAN_MLKEM512_CLEAN_polyvec_ntt
 439              	 .syntax unified
 440              	 .thumb
 441              	 .thumb_func
 443              	PQCLEAN_MLKEM512_CLEAN_polyvec_ntt:
 444              	.LVL33:
 445              	.LFB4:
 105:polyvec.c     **** 
 106:polyvec.c     **** /*************************************************
 107:polyvec.c     **** * Name:        PQCLEAN_MLKEM512_CLEAN_polyvec_ntt
 108:polyvec.c     **** *
 109:polyvec.c     **** * Description: Apply forward NTT to all elements of a vector of polynomials
 110:polyvec.c     **** *
 111:polyvec.c     **** * Arguments:   - polyvec *r: pointer to in/output vector of polynomials
 112:polyvec.c     **** **************************************************/
 113:polyvec.c     **** void PQCLEAN_MLKEM512_CLEAN_polyvec_ntt(polyvec *r) {
 446              	 .loc 1 113 53 is_stmt 1 view-0
 447              	 .cfi_startproc
 448              	 
 449              	 
 114:polyvec.c     ****     unsigned int i;
 450              	 .loc 1 114 5 view .LVU141
 115:polyvec.c     ****     for (i = 0; i < KYBER_K; i++) {
 451              	 .loc 1 115 5 view .LVU142
 452              	 .loc 1 115 19 discriminator 1 view .LVU143
 116:polyvec.c     ****         PQCLEAN_MLKEM512_CLEAN_poly_ntt(&r->vec[i]);
 453              	 .loc 1 116 9 view .LVU144
 113:polyvec.c     ****     unsigned int i;
 454              	 .loc 1 113 53 is_stmt 0 view .LVU145
 455 0000 70B5     	 push {r4,r5,r6,lr}
 456              	.LCFI8:
 457              	 .cfi_def_cfa_offset 16
 458              	 .cfi_offset 4,-16
 459              	 .cfi_offset 5,-12
 460              	 .cfi_offset 6,-8
 461              	 .cfi_offset 14,-4
 462              	 .loc 1 116 9 view .LVU146
 463 0002 044D     	 ldr r5,.L24
 113:polyvec.c     ****     unsigned int i;
 464              	 .loc 1 113 53 view .LVU147
 465 0004 0446     	 mov r4,r0
 466              	 .loc 1 116 9 view .LVU148
 467 0006 A847     	 blx r5
 468              	.LVL34:
 115:polyvec.c     ****     for (i = 0; i < KYBER_K; i++) {
 469              	 .loc 1 115 31 is_stmt 1 discriminator 3 view .LVU149
 115:polyvec.c     ****     for (i = 0; i < KYBER_K; i++) {
 470              	 .loc 1 115 19 discriminator 1 view .LVU150
 471              	 .loc 1 116 9 view .LVU151
 472 0008 04F50070 	 add r0,r4,#512
 473 000c 2B46     	 mov r3,r5
 117:polyvec.c     ****     }
 118:polyvec.c     **** }
 474              	 .loc 1 118 1 is_stmt 0 view .LVU152
 475 000e BDE87040 	 pop {r4,r5,r6,lr}
 476              	.LCFI9:
 477              	 .cfi_restore 14
 478              	 .cfi_restore 6
 479              	 .cfi_restore 5
 480              	 .cfi_restore 4
 481              	 .cfi_def_cfa_offset 0
 482              	.LVL35:
 116:polyvec.c     ****     }
 483              	 .loc 1 116 9 view .LVU153
 484 0012 1847     	 bx r3
 485              	.LVL36:
 486              	.L25:
 116:polyvec.c     ****     }
 487              	 .loc 1 116 9 view .LVU154
 488              	 .align 2
 489              	.L24:
 490 0014 00000000 	 .word PQCLEAN_MLKEM512_CLEAN_poly_ntt
 491              	 .cfi_endproc
 492              	.LFE4:
 494              	 .section .text.PQCLEAN_MLKEM512_CLEAN_polyvec_invntt_tomont,"ax",%progbits
 495              	 .align 1
 496              	 .global PQCLEAN_MLKEM512_CLEAN_polyvec_invntt_tomont
 497              	 .syntax unified
 498              	 .thumb
 499              	 .thumb_func
 501              	PQCLEAN_MLKEM512_CLEAN_polyvec_invntt_tomont:
 502              	.LVL37:
 503              	.LFB5:
 119:polyvec.c     **** 
 120:polyvec.c     **** /*************************************************
 121:polyvec.c     **** * Name:        PQCLEAN_MLKEM512_CLEAN_polyvec_invntt_tomont
 122:polyvec.c     **** *
 123:polyvec.c     **** * Description: Apply inverse NTT to all elements of a vector of polynomials
 124:polyvec.c     **** *              and multiply by Montgomery factor 2^16
 125:polyvec.c     **** *
 126:polyvec.c     **** * Arguments:   - polyvec *r: pointer to in/output vector of polynomials
 127:polyvec.c     **** **************************************************/
 128:polyvec.c     **** void PQCLEAN_MLKEM512_CLEAN_polyvec_invntt_tomont(polyvec *r) {
 504              	 .loc 1 128 63 is_stmt 1 view-0
 505              	 .cfi_startproc
 506              	 
 507              	 
 129:polyvec.c     ****     unsigned int i;
 508              	 .loc 1 129 5 view .LVU156
 130:polyvec.c     ****     for (i = 0; i < KYBER_K; i++) {
 509              	 .loc 1 130 5 view .LVU157
 510              	 .loc 1 130 19 discriminator 1 view .LVU158
 131:polyvec.c     ****         PQCLEAN_MLKEM512_CLEAN_poly_invntt_tomont(&r->vec[i]);
 511              	 .loc 1 131 9 view .LVU159
 128:polyvec.c     ****     unsigned int i;
 512              	 .loc 1 128 63 is_stmt 0 view .LVU160
 513 0000 70B5     	 push {r4,r5,r6,lr}
 514              	.LCFI10:
 515              	 .cfi_def_cfa_offset 16
 516              	 .cfi_offset 4,-16
 517              	 .cfi_offset 5,-12
 518              	 .cfi_offset 6,-8
 519              	 .cfi_offset 14,-4
 520              	 .loc 1 131 9 view .LVU161
 521 0002 044D     	 ldr r5,.L27
 128:polyvec.c     ****     unsigned int i;
 522              	 .loc 1 128 63 view .LVU162
 523 0004 0446     	 mov r4,r0
 524              	 .loc 1 131 9 view .LVU163
 525 0006 A847     	 blx r5
 526              	.LVL38:
 130:polyvec.c     ****     for (i = 0; i < KYBER_K; i++) {
 527              	 .loc 1 130 31 is_stmt 1 discriminator 3 view .LVU164
 130:polyvec.c     ****     for (i = 0; i < KYBER_K; i++) {
 528              	 .loc 1 130 19 discriminator 1 view .LVU165
 529              	 .loc 1 131 9 view .LVU166
 530 0008 04F50070 	 add r0,r4,#512
 531 000c 2B46     	 mov r3,r5
 132:polyvec.c     ****     }
 133:polyvec.c     **** }
 532              	 .loc 1 133 1 is_stmt 0 view .LVU167
 533 000e BDE87040 	 pop {r4,r5,r6,lr}
 534              	.LCFI11:
 535              	 .cfi_restore 14
 536              	 .cfi_restore 6
 537              	 .cfi_restore 5
 538              	 .cfi_restore 4
 539              	 .cfi_def_cfa_offset 0
 540              	.LVL39:
 131:polyvec.c     ****     }
 541              	 .loc 1 131 9 view .LVU168
 542 0012 1847     	 bx r3
 543              	.LVL40:
 544              	.L28:
 131:polyvec.c     ****     }
 545              	 .loc 1 131 9 view .LVU169
 546              	 .align 2
 547              	.L27:
 548 0014 00000000 	 .word PQCLEAN_MLKEM512_CLEAN_poly_invntt_tomont
 549              	 .cfi_endproc
 550              	.LFE5:
 552              	 .section .text.PQCLEAN_MLKEM512_CLEAN_polyvec_basemul_acc_montgomery,"ax",%progbits
 553              	 .align 1
 554              	 .global PQCLEAN_MLKEM512_CLEAN_polyvec_basemul_acc_montgomery
 555              	 .syntax unified
 556              	 .thumb
 557              	 .thumb_func
 559              	PQCLEAN_MLKEM512_CLEAN_polyvec_basemul_acc_montgomery:
 560              	.LVL41:
 561              	.LFB6:
 134:polyvec.c     **** 
 135:polyvec.c     **** /*************************************************
 136:polyvec.c     **** * Name:        PQCLEAN_MLKEM512_CLEAN_polyvec_basemul_acc_montgomery
 137:polyvec.c     **** *
 138:polyvec.c     **** * Description: Multiply elements of a and b in NTT domain, accumulate into r,
 139:polyvec.c     **** *              and multiply by 2^-16.
 140:polyvec.c     **** *
 141:polyvec.c     **** * Arguments: - poly *r: pointer to output polynomial
 142:polyvec.c     **** *            - const polyvec *a: pointer to first input vector of polynomials
 143:polyvec.c     **** *            - const polyvec *b: pointer to second input vector of polynomials
 144:polyvec.c     **** **************************************************/
 145:polyvec.c     **** void PQCLEAN_MLKEM512_CLEAN_polyvec_basemul_acc_montgomery(poly *r, const polyvec *a, const polyvec
 562              	 .loc 1 145 105 is_stmt 1 view-0
 563              	 .cfi_startproc
 564              	 
 565              	 
 146:polyvec.c     ****     unsigned int i;
 566              	 .loc 1 146 5 view .LVU171
 147:polyvec.c     ****     poly t;
 567              	 .loc 1 147 5 view .LVU172
 148:polyvec.c     **** 
 149:polyvec.c     ****     PQCLEAN_MLKEM512_CLEAN_poly_basemul_montgomery(r, &a->vec[0], &b->vec[0]);
 568              	 .loc 1 149 5 view .LVU173
 145:polyvec.c     ****     unsigned int i;
 569              	 .loc 1 145 105 is_stmt 0 view .LVU174
 570 0000 F0B5     	 push {r4,r5,r6,r7,lr}
 571              	.LCFI12:
 572              	 .cfi_def_cfa_offset 20
 573              	 .cfi_offset 4,-20
 574              	 .cfi_offset 5,-16
 575              	 .cfi_offset 6,-12
 576              	 .cfi_offset 7,-8
 577              	 .cfi_offset 14,-4
 578              	 .loc 1 149 5 view .LVU175
 579 0002 0C4F     	 ldr r7,.L30
 145:polyvec.c     ****     unsigned int i;
 580              	 .loc 1 145 105 view .LVU176
 581 0004 ADF5017D 	 sub sp,sp,#516
 582              	.LCFI13:
 583              	 .cfi_def_cfa_offset 536
 145:polyvec.c     ****     unsigned int i;
 584              	 .loc 1 145 105 view .LVU177
 585 0008 0D46     	 mov r5,r1
 586 000a 1646     	 mov r6,r2
 587 000c 0446     	 mov r4,r0
 588              	 .loc 1 149 5 view .LVU178
 589 000e B847     	 blx r7
 590              	.LVL42:
 150:polyvec.c     ****     for (i = 1; i < KYBER_K; i++) {
 591              	 .loc 1 150 5 is_stmt 1 view .LVU179
 592              	 .loc 1 150 19 discriminator 1 view .LVU180
 151:polyvec.c     ****         PQCLEAN_MLKEM512_CLEAN_poly_basemul_montgomery(&t, &a->vec[i], &b->vec[i]);
 593              	 .loc 1 151 9 view .LVU181
 594 0010 06F50072 	 add r2,r6,#512
 595 0014 05F50071 	 add r1,r5,#512
 596 0018 6846     	 mov r0,sp
 597 001a B847     	 blx r7
 598              	.LVL43:
 152:polyvec.c     ****         PQCLEAN_MLKEM512_CLEAN_poly_add(r, r, &t);
 599              	 .loc 1 152 9 view .LVU182
 600 001c 6A46     	 mov r2,sp
 601 001e 2146     	 mov r1,r4
 602 0020 2046     	 mov r0,r4
 603 0022 054B     	 ldr r3,.L30+4
 604 0024 9847     	 blx r3
 605              	.LVL44:
 150:polyvec.c     ****     for (i = 1; i < KYBER_K; i++) {
 606              	 .loc 1 150 31 discriminator 3 view .LVU183
 150:polyvec.c     ****     for (i = 1; i < KYBER_K; i++) {
 607              	 .loc 1 150 19 discriminator 1 view .LVU184
 153:polyvec.c     ****     }
 154:polyvec.c     **** 
 155:polyvec.c     ****     PQCLEAN_MLKEM512_CLEAN_poly_reduce(r);
 608              	 .loc 1 155 5 view .LVU185
 609 0026 054B     	 ldr r3,.L30+8
 610 0028 2046     	 mov r0,r4
 611 002a 9847     	 blx r3
 612              	.LVL45:
 156:polyvec.c     **** }
 613              	 .loc 1 156 1 is_stmt 0 view .LVU186
 614 002c 0DF5017D 	 add sp,sp,#516
 615              	.LCFI14:
 616              	 .cfi_def_cfa_offset 20
 617              	 
 618 0030 F0BD     	 pop {r4,r5,r6,r7,pc}
 619              	.LVL46:
 620              	.L31:
 621              	 .loc 1 156 1 view .LVU187
 622 0032 00BF     	 .align 2
 623              	.L30:
 624 0034 00000000 	 .word PQCLEAN_MLKEM512_CLEAN_poly_basemul_montgomery
 625 0038 00000000 	 .word PQCLEAN_MLKEM512_CLEAN_poly_add
 626 003c 00000000 	 .word PQCLEAN_MLKEM512_CLEAN_poly_reduce
 627              	 .cfi_endproc
 628              	.LFE6:
 630              	 .section .text.PQCLEAN_MLKEM512_CLEAN_polyvec_reduce,"ax",%progbits
 631              	 .align 1
 632              	 .global PQCLEAN_MLKEM512_CLEAN_polyvec_reduce
 633              	 .syntax unified
 634              	 .thumb
 635              	 .thumb_func
 637              	PQCLEAN_MLKEM512_CLEAN_polyvec_reduce:
 638              	.LVL47:
 639              	.LFB7:
 157:polyvec.c     **** 
 158:polyvec.c     **** /*************************************************
 159:polyvec.c     **** * Name:        PQCLEAN_MLKEM512_CLEAN_polyvec_reduce
 160:polyvec.c     **** *
 161:polyvec.c     **** * Description: Applies Barrett reduction to each coefficient
 162:polyvec.c     **** *              of each element of a vector of polynomials;
 163:polyvec.c     **** *              for details of the Barrett reduction see comments in reduce.c
 164:polyvec.c     **** *
 165:polyvec.c     **** * Arguments:   - polyvec *r: pointer to input/output polynomial
 166:polyvec.c     **** **************************************************/
 167:polyvec.c     **** void PQCLEAN_MLKEM512_CLEAN_polyvec_reduce(polyvec *r) {
 640              	 .loc 1 167 56 is_stmt 1 view-0
 641              	 .cfi_startproc
 642              	 
 643              	 
 168:polyvec.c     ****     unsigned int i;
 644              	 .loc 1 168 5 view .LVU189
 169:polyvec.c     ****     for (i = 0; i < KYBER_K; i++) {
 645              	 .loc 1 169 5 view .LVU190
 646              	 .loc 1 169 19 discriminator 1 view .LVU191
 170:polyvec.c     ****         PQCLEAN_MLKEM512_CLEAN_poly_reduce(&r->vec[i]);
 647              	 .loc 1 170 9 view .LVU192
 167:polyvec.c     ****     unsigned int i;
 648              	 .loc 1 167 56 is_stmt 0 view .LVU193
 649 0000 70B5     	 push {r4,r5,r6,lr}
 650              	.LCFI15:
 651              	 .cfi_def_cfa_offset 16
 652              	 .cfi_offset 4,-16
 653              	 .cfi_offset 5,-12
 654              	 .cfi_offset 6,-8
 655              	 .cfi_offset 14,-4
 656              	 .loc 1 170 9 view .LVU194
 657 0002 044D     	 ldr r5,.L33
 167:polyvec.c     ****     unsigned int i;
 658              	 .loc 1 167 56 view .LVU195
 659 0004 0446     	 mov r4,r0
 660              	 .loc 1 170 9 view .LVU196
 661 0006 A847     	 blx r5
 662              	.LVL48:
 169:polyvec.c     ****     for (i = 0; i < KYBER_K; i++) {
 663              	 .loc 1 169 31 is_stmt 1 discriminator 3 view .LVU197
 169:polyvec.c     ****     for (i = 0; i < KYBER_K; i++) {
 664              	 .loc 1 169 19 discriminator 1 view .LVU198
 665              	 .loc 1 170 9 view .LVU199
 666 0008 04F50070 	 add r0,r4,#512
 667 000c 2B46     	 mov r3,r5
 171:polyvec.c     ****     }
 172:polyvec.c     **** }
 668              	 .loc 1 172 1 is_stmt 0 view .LVU200
 669 000e BDE87040 	 pop {r4,r5,r6,lr}
 670              	.LCFI16:
 671              	 .cfi_restore 14
 672              	 .cfi_restore 6
 673              	 .cfi_restore 5
 674              	 .cfi_restore 4
 675              	 .cfi_def_cfa_offset 0
 676              	.LVL49:
 170:polyvec.c     ****     }
 677              	 .loc 1 170 9 view .LVU201
 678 0012 1847     	 bx r3
 679              	.LVL50:
 680              	.L34:
 170:polyvec.c     ****     }
 681              	 .loc 1 170 9 view .LVU202
 682              	 .align 2
 683              	.L33:
 684 0014 00000000 	 .word PQCLEAN_MLKEM512_CLEAN_poly_reduce
 685              	 .cfi_endproc
 686              	.LFE7:
 688              	 .section .text.PQCLEAN_MLKEM512_CLEAN_polyvec_add,"ax",%progbits
 689              	 .align 1
 690              	 .global PQCLEAN_MLKEM512_CLEAN_polyvec_add
 691              	 .syntax unified
 692              	 .thumb
 693              	 .thumb_func
 695              	PQCLEAN_MLKEM512_CLEAN_polyvec_add:
 696              	.LVL51:
 697              	.LFB8:
 173:polyvec.c     **** 
 174:polyvec.c     **** /*************************************************
 175:polyvec.c     **** * Name:        PQCLEAN_MLKEM512_CLEAN_polyvec_add
 176:polyvec.c     **** *
 177:polyvec.c     **** * Description: Add vectors of polynomials
 178:polyvec.c     **** *
 179:polyvec.c     **** * Arguments: - polyvec *r: pointer to output vector of polynomials
 180:polyvec.c     **** *            - const polyvec *a: pointer to first input vector of polynomials
 181:polyvec.c     **** *            - const polyvec *b: pointer to second input vector of polynomials
 182:polyvec.c     **** **************************************************/
 183:polyvec.c     **** void PQCLEAN_MLKEM512_CLEAN_polyvec_add(polyvec *r, const polyvec *a, const polyvec *b) {
 698              	 .loc 1 183 89 is_stmt 1 view-0
 699              	 .cfi_startproc
 700              	 
 701              	 
 184:polyvec.c     ****     unsigned int i;
 702              	 .loc 1 184 5 view .LVU204
 185:polyvec.c     ****     for (i = 0; i < KYBER_K; i++) {
 703              	 .loc 1 185 5 view .LVU205
 704              	 .loc 1 185 19 discriminator 1 view .LVU206
 186:polyvec.c     ****         PQCLEAN_MLKEM512_CLEAN_poly_add(&r->vec[i], &a->vec[i], &b->vec[i]);
 705              	 .loc 1 186 9 view .LVU207
 183:polyvec.c     ****     unsigned int i;
 706              	 .loc 1 183 89 is_stmt 0 view .LVU208
 707 0000 2DE9F041 	 push {r4,r5,r6,r7,r8,lr}
 708              	.LCFI17:
 709              	 .cfi_def_cfa_offset 24
 710              	 .cfi_offset 4,-24
 711              	 .cfi_offset 5,-20
 712              	 .cfi_offset 6,-16
 713              	 .cfi_offset 7,-12
 714              	 .cfi_offset 8,-8
 715              	 .cfi_offset 14,-4
 716              	 .loc 1 186 9 view .LVU209
 717 0004 074F     	 ldr r7,.L36
 183:polyvec.c     ****     unsigned int i;
 718              	 .loc 1 183 89 view .LVU210
 719 0006 0446     	 mov r4,r0
 720 0008 0D46     	 mov r5,r1
 721 000a 1646     	 mov r6,r2
 722              	 .loc 1 186 9 view .LVU211
 723 000c B847     	 blx r7
 724              	.LVL52:
 185:polyvec.c     ****     for (i = 0; i < KYBER_K; i++) {
 725              	 .loc 1 185 31 is_stmt 1 discriminator 3 view .LVU212
 185:polyvec.c     ****     for (i = 0; i < KYBER_K; i++) {
 726              	 .loc 1 185 19 discriminator 1 view .LVU213
 727              	 .loc 1 186 9 view .LVU214
 728 000e 06F50072 	 add r2,r6,#512
 729 0012 05F50071 	 add r1,r5,#512
 730 0016 04F50070 	 add r0,r4,#512
 731 001a 3B46     	 mov r3,r7
 187:polyvec.c     ****     }
 188:polyvec.c     **** }
 732              	 .loc 1 188 1 is_stmt 0 view .LVU215
 733 001c BDE8F041 	 pop {r4,r5,r6,r7,r8,lr}
 734              	.LCFI18:
 735              	 .cfi_restore 14
 736              	 .cfi_restore 8
 737              	 .cfi_restore 7
 738              	 .cfi_restore 6
 739              	 .cfi_restore 5
 740              	 .cfi_restore 4
 741              	 .cfi_def_cfa_offset 0
 742              	.LVL53:
 186:polyvec.c     ****     }
 743              	 .loc 1 186 9 view .LVU216
 744 0020 1847     	 bx r3
 745              	.LVL54:
 746              	.L37:
 186:polyvec.c     ****     }
 747              	 .loc 1 186 9 view .LVU217
 748 0022 00BF     	 .align 2
 749              	.L36:
 750 0024 00000000 	 .word PQCLEAN_MLKEM512_CLEAN_poly_add
 751              	 .cfi_endproc
 752              	.LFE8:
 754              	 .text
 755              	.Letext0:
 756              	 .file 2 "/usr/lib/gcc/arm-none-eabi/14.2.1/include/stdint.h"
 757              	 .file 3 "poly.h"
 758              	 .file 4 "polyvec.h"