   1              	 .cpu cortex-m4
   2              	 .arch armv7e-m
   3              	 .fpu softvfp
   4              	 .eabi_attribute 20,1
   5              	 .eabi_attribute 21,1
   6              	 .eabi_attribute 23,3
   7              	 .eabi_attribute 24,1
   8              	 .eabi_attribute 25,1
   9              	 .eabi_attribute 26,1
  10              	 .eabi_attribute 30,4
  11              	 .eabi_attribute 34,1
  12              	 .eabi_attribute 18,4
  13              	 .file "poly.c"
  14              	 .text
  15              	.Ltext0:
  16              	 .cfi_sections .debug_frame
  17              	 .file 1 "poly.c"
  18              	 .section .text.PQCLEAN_MLKEM512_CLEAN_poly_compress,"ax",%progbits
  19              	 .align 1
  20              	 .global PQCLEAN_MLKEM512_CLEAN_poly_compress
  21              	 .syntax unified
  22              	 .thumb
  23              	 .thumb_func
  25              	PQCLEAN_MLKEM512_CLEAN_poly_compress:
  26              	.LVL0:
  27              	.LFB0:
   1:poly.c        **** #include "cbd.h"
   2:poly.c        **** #include "ntt.h"
   3:poly.c        **** #include "params.h"
   4:poly.c        **** #include "poly.h"
   5:poly.c        **** #include "reduce.h"
   6:poly.c        **** #include "symmetric.h"
   7:poly.c        **** #include "verify.h"
   8:poly.c        **** #include <stdint.h>
   9:poly.c        **** 
  10:poly.c        **** /*************************************************
  11:poly.c        **** * Name:        PQCLEAN_MLKEM512_CLEAN_poly_compress
  12:poly.c        **** *
  13:poly.c        **** * Description: Compression and subsequent serialization of a polynomial
  14:poly.c        **** *
  15:poly.c        **** * Arguments:   - uint8_t *r: pointer to output byte array
  16:poly.c        **** *                            (of length KYBER_POLYCOMPRESSEDBYTES)
  17:poly.c        **** *              - const poly *a: pointer to input polynomial
  18:poly.c        **** **************************************************/
  19:poly.c        **** void PQCLEAN_MLKEM512_CLEAN_poly_compress(uint8_t r[KYBER_POLYCOMPRESSEDBYTES], const poly *a) {
  28              	 .loc 1 19 96 view-0
  29              	 .cfi_startproc
  30              	 
  31              	 
  20:poly.c        ****     unsigned int i, j;
  32              	 .loc 1 20 5 view .LVU1
  21:poly.c        ****     int16_t u;
  33              	 .loc 1 21 5 view .LVU2
  22:poly.c        ****     uint32_t d0;
  34              	 .loc 1 22 5 view .LVU3
  23:poly.c        ****     uint8_t t[8];
  35              	 .loc 1 23 5 view .LVU4
  24:poly.c        **** 
  25:poly.c        **** 
  26:poly.c        ****     for (i = 0; i < KYBER_N / 8; i++) {
  36              	 .loc 1 26 5 view .LVU5
  37              	 .loc 1 26 19 discriminator 1 view .LVU6
  19:poly.c        ****     unsigned int i, j;
  38              	 .loc 1 19 96 is_stmt 0 view .LVU7
  39 0000 F7B5     	 push {r0,r1,r2,r4,r5,r6,r7,lr}
  40              	.LCFI0:
  41              	 .cfi_def_cfa_offset 32
  42              	 .cfi_offset 4,-20
  43              	 .cfi_offset 5,-16
  44              	 .cfi_offset 6,-12
  45              	 .cfi_offset 7,-8
  46              	 .cfi_offset 14,-4
  27:poly.c        ****         for (j = 0; j < 8; j++) {
  28:poly.c        ****             // map to positive standard representatives
  29:poly.c        ****             u  = a->coeffs[8 * i + j];
  30:poly.c        ****             u += (u >> 15) & KYBER_Q;
  31:poly.c        ****             /*    t[j] = ((((uint16_t)u << 4) + KYBER_Q/2)/KYBER_Q) & 15; */
  32:poly.c        ****             d0 = u << 4;
  33:poly.c        ****             d0 += 1665;
  34:poly.c        ****             d0 *= 80635;
  47              	 .loc 1 34 16 view .LVU8
  48 0002 214E     	 ldr r6,.L6
  49 0004 0A46     	 mov r2,r1
  50 0006 0430     	 adds r0,r0,#4
  51              	.LVL1:
  52              	 .loc 1 34 16 view .LVU9
  53 0008 0021     	 movs r1,#0
  54              	.LVL2:
  30:poly.c        ****             /*    t[j] = ((((uint16_t)u << 4) + KYBER_Q/2)/KYBER_Q) & 15; */
  55              	 .loc 1 30 28 view .LVU10
  56 000a 40F60155 	 movw r5,#3329
  57              	.LVL3:
  58              	.L2:
  27:poly.c        ****         for (j = 0; j < 8; j++) {
  59              	 .loc 1 27 23 is_stmt 1 discriminator 1 view .LVU11
  60 000e 6C46     	 mov r4,sp
  61 0010 02F11007 	 add r7,r2,#16
  62              	.LVL4:
  63              	.L3:
  29:poly.c        ****             u += (u >> 15) & KYBER_Q;
  64              	 .loc 1 29 13 view .LVU12
  29:poly.c        ****             u += (u >> 15) & KYBER_Q;
  65              	 .loc 1 29 16 is_stmt 0 view .LVU13
  66 0014 32F902CB 	 ldrsh ip,[r2],#2
  67              	.LVL5:
  30:poly.c        ****             /*    t[j] = ((((uint16_t)u << 4) + KYBER_Q/2)/KYBER_Q) & 15; */
  68              	 .loc 1 30 13 is_stmt 1 view .LVU14
  30:poly.c        ****             /*    t[j] = ((((uint16_t)u << 4) + KYBER_Q/2)/KYBER_Q) & 15; */
  69              	 .loc 1 30 28 is_stmt 0 view .LVU15
  70 0018 05EAEC73 	 and r3,r5,ip,asr#31
  30:poly.c        ****             /*    t[j] = ((((uint16_t)u << 4) + KYBER_Q/2)/KYBER_Q) & 15; */
  71              	 .loc 1 30 15 view .LVU16
  72 001c 6344     	 add r3,r3,ip
  73              	.LVL6:
  32:poly.c        ****             d0 += 1665;
  74              	 .loc 1 32 13 is_stmt 1 view .LVU17
  32:poly.c        ****             d0 += 1665;
  75              	 .loc 1 32 20 is_stmt 0 view .LVU18
  76 001e 1BB2     	 sxth r3,r3
  32:poly.c        ****             d0 += 1665;
  77              	 .loc 1 32 16 view .LVU19
  78 0020 1B01     	 lsls r3,r3,#4
  79              	.LVL7:
  33:poly.c        ****             d0 *= 80635;
  80              	 .loc 1 33 13 is_stmt 1 view .LVU20
  33:poly.c        ****             d0 *= 80635;
  81              	 .loc 1 33 16 is_stmt 0 view .LVU21
  82 0022 03F28163 	 addw r3,r3,#1665
  83              	.LVL8:
  84              	 .loc 1 34 13 is_stmt 1 view .LVU22
  85              	 .loc 1 34 16 is_stmt 0 view .LVU23
  86 0026 7343     	 muls r3,r6,r3
  87              	.LVL9:
  35:poly.c        ****             d0 >>= 28;
  88              	 .loc 1 35 13 is_stmt 1 view .LVU24
  36:poly.c        ****             t[j] = d0 & 0xf;
  89              	 .loc 1 36 13 view .LVU25
  35:poly.c        ****             d0 >>= 28;
  90              	 .loc 1 35 16 is_stmt 0 view .LVU26
  91 0028 1B0F     	 lsrs r3,r3,#28
  92              	.LVL10:
  27:poly.c        ****             // map to positive standard representatives
  93              	 .loc 1 27 23 discriminator 1 view .LVU27
  94 002a 9742     	 cmp r7,r2
  95              	 .loc 1 36 23 view .LVU28
  96 002c 04F8013B 	 strb r3,[r4],#1
  97              	.LVL11:
  27:poly.c        ****             // map to positive standard representatives
  98              	 .loc 1 27 29 is_stmt 1 discriminator 3 view .LVU29
  27:poly.c        ****             // map to positive standard representatives
  99              	 .loc 1 27 23 discriminator 1 view .LVU30
 100 0030 F0D1     	 bne .L3
  37:poly.c        ****         }
  38:poly.c        **** 
  39:poly.c        ****         r[0] = t[0] | (t[1] << 4);
 101              	 .loc 1 39 9 view .LVU31
 102              	 .loc 1 39 21 is_stmt 0 view .LVU32
 103 0032 9DF80120 	 ldrb r2,[sp,#1]
 104 0036 9DF80030 	 ldrb r3,[sp]
 105              	.LVL12:
 106              	 .loc 1 39 21 view .LVU33
 107 003a 43EA0213 	 orr r3,r3,r2,lsl#4
 108              	 .loc 1 39 14 view .LVU34
 109 003e 00F8043C 	 strb r3,[r0,#-4]
  40:poly.c        ****         r[1] = t[2] | (t[3] << 4);
 110              	 .loc 1 40 9 is_stmt 1 view .LVU35
 111              	 .loc 1 40 21 is_stmt 0 view .LVU36
 112 0042 9DF80320 	 ldrb r2,[sp,#3]
 113 0046 9DF80230 	 ldrb r3,[sp,#2]
 114 004a 43EA0213 	 orr r3,r3,r2,lsl#4
 115              	 .loc 1 40 14 view .LVU37
 116 004e 00F8033C 	 strb r3,[r0,#-3]
  41:poly.c        ****         r[2] = t[4] | (t[5] << 4);
 117              	 .loc 1 41 9 is_stmt 1 view .LVU38
 118              	 .loc 1 41 21 is_stmt 0 view .LVU39
 119 0052 9DF80520 	 ldrb r2,[sp,#5]
 120 0056 9DF80430 	 ldrb r3,[sp,#4]
 121 005a 43EA0213 	 orr r3,r3,r2,lsl#4
 122              	 .loc 1 41 14 view .LVU40
 123 005e 00F8023C 	 strb r3,[r0,#-2]
  42:poly.c        ****         r[3] = t[6] | (t[7] << 4);
 124              	 .loc 1 42 9 is_stmt 1 view .LVU41
 125              	 .loc 1 42 21 is_stmt 0 view .LVU42
 126 0062 9DF80720 	 ldrb r2,[sp,#7]
 127 0066 9DF80630 	 ldrb r3,[sp,#6]
  26:poly.c        ****         for (j = 0; j < 8; j++) {
 128              	 .loc 1 26 19 discriminator 1 view .LVU43
 129 006a 0831     	 adds r1,r1,#8
 130              	 .loc 1 42 21 view .LVU44
 131 006c 43EA0213 	 orr r3,r3,r2,lsl#4
  26:poly.c        ****         for (j = 0; j < 8; j++) {
 132              	 .loc 1 26 19 discriminator 1 view .LVU45
 133 0070 B1F5807F 	 cmp r1,#256
 134              	 .loc 1 42 14 view .LVU46
 135 0074 00F8013C 	 strb r3,[r0,#-1]
  43:poly.c        ****         r += 4;
 136              	 .loc 1 43 9 is_stmt 1 view .LVU47
 137              	.LVL13:
  26:poly.c        ****         for (j = 0; j < 8; j++) {
 138              	 .loc 1 26 35 discriminator 2 view .LVU48
  26:poly.c        ****         for (j = 0; j < 8; j++) {
 139              	 .loc 1 26 19 discriminator 1 view .LVU49
 140 0078 00F10400 	 add r0,r0,#4
 141              	.LVL14:
  26:poly.c        ****         for (j = 0; j < 8; j++) {
 142              	 .loc 1 26 19 is_stmt 0 discriminator 1 view .LVU50
 143 007c 01D0     	 beq .L1
 144 007e 3A46     	 mov r2,r7
 145 0080 C5E7     	 b .L2
 146              	.L1:
  44:poly.c        ****     }
  45:poly.c        **** }
 147              	 .loc 1 45 1 view .LVU51
 148 0082 03B0     	 add sp,sp,#12
 149              	.LCFI1:
 150              	 .cfi_def_cfa_offset 20
 151              	 
 152 0084 F0BD     	 pop {r4,r5,r6,r7,pc}
 153              	.LVL15:
 154              	.L7:
 155              	 .loc 1 45 1 view .LVU52
 156 0086 00BF     	 .align 2
 157              	.L6:
 158 0088 FB3A0100 	 .word 80635
 159              	 .cfi_endproc
 160              	.LFE0:
 162              	 .section .text.PQCLEAN_MLKEM512_CLEAN_poly_decompress,"ax",%progbits
 163              	 .align 1
 164              	 .global PQCLEAN_MLKEM512_CLEAN_poly_decompress
 165              	 .syntax unified
 166              	 .thumb
 167              	 .thumb_func
 169              	PQCLEAN_MLKEM512_CLEAN_poly_decompress:
 170              	.LVL16:
 171              	.LFB1:
  46:poly.c        **** 
  47:poly.c        **** /*************************************************
  48:poly.c        **** * Name:        PQCLEAN_MLKEM512_CLEAN_poly_decompress
  49:poly.c        **** *
  50:poly.c        **** * Description: De-serialization and subsequent decompression of a polynomial;
  51:poly.c        **** *              approximate inverse of PQCLEAN_MLKEM512_CLEAN_poly_compress
  52:poly.c        **** *
  53:poly.c        **** * Arguments:   - poly *r: pointer to output polynomial
  54:poly.c        **** *              - const uint8_t *a: pointer to input byte array
  55:poly.c        **** *                                  (of length KYBER_POLYCOMPRESSEDBYTES bytes)
  56:poly.c        **** **************************************************/
  57:poly.c        **** void PQCLEAN_MLKEM512_CLEAN_poly_decompress(poly *r, const uint8_t a[KYBER_POLYCOMPRESSEDBYTES]) {
 172              	 .loc 1 57 98 is_stmt 1 view-0
 173              	 .cfi_startproc
 174              	 
 175              	 
  58:poly.c        ****     size_t i;
 176              	 .loc 1 58 5 view .LVU54
  59:poly.c        **** 
  60:poly.c        ****     for (i = 0; i < KYBER_N / 2; i++) {
 177              	 .loc 1 60 5 view .LVU55
 178              	 .loc 1 60 19 discriminator 1 view .LVU56
  57:poly.c        ****     size_t i;
 179              	 .loc 1 57 98 is_stmt 0 view .LVU57
 180 0000 70B5     	 push {r4,r5,r6,lr}
 181              	.LCFI2:
 182              	 .cfi_def_cfa_offset 16
 183              	 .cfi_offset 4,-16
 184              	 .cfi_offset 5,-12
 185              	 .cfi_offset 6,-8
 186              	 .cfi_offset 14,-4
 187 0002 0139     	 subs r1,r1,#1
 188              	.LVL17:
 189              	 .loc 1 60 12 view .LVU58
 190 0004 0022     	 movs r2,#0
  61:poly.c        ****         r->coeffs[2 * i + 0] = (((uint16_t)(a[0] & 15) * KYBER_Q) + 8) >> 4;
 191              	 .loc 1 61 67 view .LVU59
 192 0006 40F60155 	 movw r5,#3329
 193 000a 0824     	 movs r4,#8
  62:poly.c        ****         r->coeffs[2 * i + 1] = (((uint16_t)(a[0] >> 4) * KYBER_Q) + 8) >> 4;
 194              	 .loc 1 62 30 view .LVU60
 195 000c 861C     	 adds r6,r0,#2
 196              	.LVL18:
 197              	.L9:
  61:poly.c        ****         r->coeffs[2 * i + 0] = (((uint16_t)(a[0] & 15) * KYBER_Q) + 8) >> 4;
 198              	 .loc 1 61 9 is_stmt 1 view .LVU61
  61:poly.c        ****         r->coeffs[2 * i + 0] = (((uint16_t)(a[0] & 15) * KYBER_Q) + 8) >> 4;
 199              	 .loc 1 61 34 is_stmt 0 view .LVU62
 200 000e 11F8013F 	 ldrb r3,[r1,#1]!
 201 0012 03F00F03 	 and r3,r3,#15
  61:poly.c        ****         r->coeffs[2 * i + 0] = (((uint16_t)(a[0] & 15) * KYBER_Q) + 8) >> 4;
 202              	 .loc 1 61 67 view .LVU63
 203 0016 13FB0543 	 smlabb r3,r3,r5,r4
  61:poly.c        ****         r->coeffs[2 * i + 0] = (((uint16_t)(a[0] & 15) * KYBER_Q) + 8) >> 4;
 204              	 .loc 1 61 72 view .LVU64
 205 001a 1B11     	 asrs r3,r3,#4
  61:poly.c        ****         r->coeffs[2 * i + 0] = (((uint16_t)(a[0] & 15) * KYBER_Q) + 8) >> 4;
 206              	 .loc 1 61 30 view .LVU65
 207 001c 20F82230 	 strh r3,[r0,r2,lsl#2]
 208              	 .loc 1 62 9 is_stmt 1 view .LVU66
 209              	 .loc 1 62 34 is_stmt 0 view .LVU67
 210 0020 0B78     	 ldrb r3,[r1]
 211 0022 1B09     	 lsrs r3,r3,#4
 212              	 .loc 1 62 67 view .LVU68
 213 0024 13FB0543 	 smlabb r3,r3,r5,r4
 214              	 .loc 1 62 72 view .LVU69
 215 0028 1B11     	 asrs r3,r3,#4
 216              	 .loc 1 62 30 view .LVU70
 217 002a 26F82230 	 strh r3,[r6,r2,lsl#2]
  63:poly.c        ****         a += 1;
 218              	 .loc 1 63 9 is_stmt 1 view .LVU71
 219              	.LVL19:
  60:poly.c        ****         r->coeffs[2 * i + 0] = (((uint16_t)(a[0] & 15) * KYBER_Q) + 8) >> 4;
 220              	 .loc 1 60 35 discriminator 3 view .LVU72
 221 002e 0132     	 adds r2,r2,#1
 222              	.LVL20:
  60:poly.c        ****         r->coeffs[2 * i + 0] = (((uint16_t)(a[0] & 15) * KYBER_Q) + 8) >> 4;
 223              	 .loc 1 60 19 discriminator 1 view .LVU73
 224 0030 802A     	 cmp r2,#128
 225 0032 ECD1     	 bne .L9
  64:poly.c        ****     }
  65:poly.c        **** }
 226              	 .loc 1 65 1 is_stmt 0 view .LVU74
 227 0034 70BD     	 pop {r4,r5,r6,pc}
 228              	 .cfi_endproc
 229              	.LFE1:
 231              	 .section .text.PQCLEAN_MLKEM512_CLEAN_poly_tobytes,"ax",%progbits
 232              	 .align 1
 233              	 .global PQCLEAN_MLKEM512_CLEAN_poly_tobytes
 234              	 .syntax unified
 235              	 .thumb
 236              	 .thumb_func
 238              	PQCLEAN_MLKEM512_CLEAN_poly_tobytes:
 239              	.LVL21:
 240              	.LFB2:
  66:poly.c        **** 
  67:poly.c        **** /*************************************************
  68:poly.c        **** * Name:        PQCLEAN_MLKEM512_CLEAN_poly_tobytes
  69:poly.c        **** *
  70:poly.c        **** * Description: Serialization of a polynomial
  71:poly.c        **** *
  72:poly.c        **** * Arguments:   - uint8_t *r: pointer to output byte array
  73:poly.c        **** *                            (needs space for KYBER_POLYBYTES bytes)
  74:poly.c        **** *              - const poly *a: pointer to input polynomial
  75:poly.c        **** **************************************************/
  76:poly.c        **** void PQCLEAN_MLKEM512_CLEAN_poly_tobytes(uint8_t r[KYBER_POLYBYTES], const poly *a) {
 241              	 .loc 1 76 85 is_stmt 1 view-0
 242              	 .cfi_startproc
 243              	 
 244              	 
  77:poly.c        ****     size_t i;
 245              	 .loc 1 77 5 view .LVU76
  78:poly.c        ****     uint16_t t0, t1;
 246              	 .loc 1 78 5 view .LVU77
  79:poly.c        **** 
  80:poly.c        ****     for (i = 0; i < KYBER_N / 2; i++) {
 247              	 .loc 1 80 5 view .LVU78
 248              	 .loc 1 80 19 discriminator 1 view .LVU79
  76:poly.c        ****     size_t i;
 249              	 .loc 1 76 85 is_stmt 0 view .LVU80
 250 0000 F0B5     	 push {r4,r5,r6,r7,lr}
 251              	.LCFI3:
 252              	 .cfi_def_cfa_offset 20
 253              	 .cfi_offset 4,-20
 254              	 .cfi_offset 5,-16
 255              	 .cfi_offset 6,-12
 256              	 .cfi_offset 7,-8
 257              	 .cfi_offset 14,-4
 258              	 .loc 1 80 12 view .LVU81
 259 0002 0022     	 movs r2,#0
  81:poly.c        ****         // map to positive standard representatives
  82:poly.c        ****         t0  = a->coeffs[2 * i];
  83:poly.c        ****         t0 += ((int16_t)t0 >> 15) & KYBER_Q;
 260              	 .loc 1 83 35 view .LVU82
 261 0004 40F60156 	 movw r6,#3329
  84:poly.c        ****         t1 = a->coeffs[2 * i + 1];
 262              	 .loc 1 84 23 view .LVU83
 263 0008 8F1C     	 adds r7,r1,#2
 264              	.LVL22:
 265              	.L12:
  82:poly.c        ****         t0 += ((int16_t)t0 >> 15) & KYBER_Q;
 266              	 .loc 1 82 9 is_stmt 1 view .LVU84
  82:poly.c        ****         t0 += ((int16_t)t0 >> 15) & KYBER_Q;
 267              	 .loc 1 82 24 is_stmt 0 view .LVU85
 268 000a 31F92230 	 ldrsh r3,[r1,r2,lsl#2]
  82:poly.c        ****         t0 += ((int16_t)t0 >> 15) & KYBER_Q;
 269              	 .loc 1 82 13 view .LVU86
 270 000e 31F82240 	 ldrh r4,[r1,r2,lsl#2]
 271              	.LVL23:
  83:poly.c        ****         t1 = a->coeffs[2 * i + 1];
 272              	 .loc 1 83 9 is_stmt 1 view .LVU87
 273              	 .loc 1 84 23 is_stmt 0 view .LVU88
 274 0012 37F92250 	 ldrsh r5,[r7,r2,lsl#2]
  83:poly.c        ****         t1 = a->coeffs[2 * i + 1];
 275              	 .loc 1 83 35 view .LVU89
 276 0016 06EAE373 	 and r3,r6,r3,asr#31
  83:poly.c        ****         t1 = a->coeffs[2 * i + 1];
 277              	 .loc 1 83 12 view .LVU90
 278 001a 1C44     	 add r4,r4,r3
 279              	.LVL24:
 280              	 .loc 1 84 12 view .LVU91
 281 001c 37F82230 	 ldrh r3,[r7,r2,lsl#2]
  85:poly.c        ****         t1 += ((int16_t)t1 >> 15) & KYBER_Q;
 282              	 .loc 1 85 35 view .LVU92
 283 0020 06EAE575 	 and r5,r6,r5,asr#31
 284              	 .loc 1 85 12 view .LVU93
 285 0024 2B44     	 add r3,r3,r5
 286 0026 9BB2     	 uxth r3,r3
  83:poly.c        ****         t1 = a->coeffs[2 * i + 1];
 287              	 .loc 1 83 12 view .LVU94
 288 0028 A4B2     	 uxth r4,r4
 289              	.LVL25:
  84:poly.c        ****         t1 += ((int16_t)t1 >> 15) & KYBER_Q;
 290              	 .loc 1 84 9 is_stmt 1 view .LVU95
 291              	 .loc 1 85 9 view .LVU96
  86:poly.c        ****         r[3 * i + 0] = (uint8_t)(t0 >> 0);
 292              	 .loc 1 86 9 view .LVU97
  87:poly.c        ****         r[3 * i + 1] = (uint8_t)((t0 >> 8) | (t1 << 4));
 293              	 .loc 1 87 44 is_stmt 0 view .LVU98
 294 002a 1D01     	 lsls r5,r3,#4
  80:poly.c        ****         // map to positive standard representatives
 295              	 .loc 1 80 35 discriminator 3 view .LVU99
 296 002c 0132     	 adds r2,r2,#1
 297              	.LVL26:
  86:poly.c        ****         r[3 * i + 0] = (uint8_t)(t0 >> 0);
 298              	 .loc 1 86 24 view .LVU100
 299 002e 0470     	 strb r4,[r0]
 300              	 .loc 1 87 9 is_stmt 1 view .LVU101
  88:poly.c        ****         r[3 * i + 2] = (uint8_t)(t1 >> 4);
 301              	 .loc 1 88 24 is_stmt 0 view .LVU102
 302 0030 1B09     	 lsrs r3,r3,#4
 303              	.LVL27:
  87:poly.c        ****         r[3 * i + 1] = (uint8_t)((t0 >> 8) | (t1 << 4));
 304              	 .loc 1 87 44 view .LVU103
 305 0032 45EA1424 	 orr r4,r5,r4,lsr#8
 306              	.LVL28:
  80:poly.c        ****         // map to positive standard representatives
 307              	 .loc 1 80 19 discriminator 1 view .LVU104
 308 0036 802A     	 cmp r2,#128
  87:poly.c        ****         r[3 * i + 1] = (uint8_t)((t0 >> 8) | (t1 << 4));
 309              	 .loc 1 87 22 view .LVU105
 310 0038 4470     	 strb r4,[r0,#1]
 311              	 .loc 1 88 9 is_stmt 1 view .LVU106
 312              	 .loc 1 88 24 is_stmt 0 view .LVU107
 313 003a 8370     	 strb r3,[r0,#2]
  80:poly.c        ****         // map to positive standard representatives
 314              	 .loc 1 80 35 is_stmt 1 discriminator 3 view .LVU108
 315              	.LVL29:
  80:poly.c        ****         // map to positive standard representatives
 316              	 .loc 1 80 19 discriminator 1 view .LVU109
 317 003c 00F10300 	 add r0,r0,#3
 318 0040 E3D1     	 bne .L12
  89:poly.c        ****     }
  90:poly.c        **** }
 319              	 .loc 1 90 1 is_stmt 0 view .LVU110
 320 0042 F0BD     	 pop {r4,r5,r6,r7,pc}
 321              	 .cfi_endproc
 322              	.LFE2:
 324              	 .section .text.PQCLEAN_MLKEM512_CLEAN_poly_frombytes,"ax",%progbits
 325              	 .align 1
 326              	 .global PQCLEAN_MLKEM512_CLEAN_poly_frombytes
 327              	 .syntax unified
 328              	 .thumb
 329              	 .thumb_func
 331              	PQCLEAN_MLKEM512_CLEAN_poly_frombytes:
 332              	.LVL30:
 333              	.LFB3:
  91:poly.c        **** 
  92:poly.c        **** /*************************************************
  93:poly.c        **** * Name:        PQCLEAN_MLKEM512_CLEAN_poly_frombytes
  94:poly.c        **** *
  95:poly.c        **** * Description: De-serialization of a polynomial;
  96:poly.c        **** *              inverse of PQCLEAN_MLKEM512_CLEAN_poly_tobytes
  97:poly.c        **** *
  98:poly.c        **** * Arguments:   - poly *r: pointer to output polynomial
  99:poly.c        **** *              - const uint8_t *a: pointer to input byte array
 100:poly.c        **** *                                  (of KYBER_POLYBYTES bytes)
 101:poly.c        **** **************************************************/
 102:poly.c        **** void PQCLEAN_MLKEM512_CLEAN_poly_frombytes(poly *r, const uint8_t a[KYBER_POLYBYTES]) {
 334              	 .loc 1 102 87 is_stmt 1 view-0
 335              	 .cfi_startproc
 336              	 
 337              	 
 103:poly.c        ****     size_t i;
 338              	 .loc 1 103 5 view .LVU112
 104:poly.c        ****     for (i = 0; i < KYBER_N / 2; i++) {
 339              	 .loc 1 104 5 view .LVU113
 340              	 .loc 1 104 19 discriminator 1 view .LVU114
 102:poly.c        ****     size_t i;
 341              	 .loc 1 102 87 is_stmt 0 view .LVU115
 342 0000 30B5     	 push {r4,r5,lr}
 343              	.LCFI4:
 344              	 .cfi_def_cfa_offset 12
 345              	 .cfi_offset 4,-12
 346              	 .cfi_offset 5,-8
 347              	 .cfi_offset 14,-4
 348              	 .loc 1 104 12 view .LVU116
 349 0002 0023     	 movs r3,#0
 105:poly.c        ****         r->coeffs[2 * i]   = ((a[3 * i + 0] >> 0) | ((uint16_t)a[3 * i + 1] << 8)) & 0xFFF;
 106:poly.c        ****         r->coeffs[2 * i + 1] = ((a[3 * i + 1] >> 4) | ((uint16_t)a[3 * i + 2] << 4)) & 0xFFF;
 350              	 .loc 1 106 30 view .LVU117
 351 0004 841C     	 adds r4,r0,#2
 352              	.LVL31:
 353              	.L15:
 105:poly.c        ****         r->coeffs[2 * i]   = ((a[3 * i + 0] >> 0) | ((uint16_t)a[3 * i + 1] << 8)) & 0xFFF;
 354              	 .loc 1 105 9 is_stmt 1 view .LVU118
 105:poly.c        ****         r->coeffs[2 * i]   = ((a[3 * i + 0] >> 0) | ((uint16_t)a[3 * i + 1] << 8)) & 0xFFF;
 355              	 .loc 1 105 51 is_stmt 0 view .LVU119
 356 0006 4D78     	 ldrb r5,[r1,#1]
 105:poly.c        ****         r->coeffs[2 * i]   = ((a[3 * i + 0] >> 0) | ((uint16_t)a[3 * i + 1] << 8)) & 0xFFF;
 357              	 .loc 1 105 33 view .LVU120
 358 0008 0A78     	 ldrb r2,[r1]
 105:poly.c        ****         r->coeffs[2 * i]   = ((a[3 * i + 0] >> 0) | ((uint16_t)a[3 * i + 1] << 8)) & 0xFFF;
 359              	 .loc 1 105 51 view .LVU121
 360 000a 42EA0522 	 orr r2,r2,r5,lsl#8
 105:poly.c        ****         r->coeffs[2 * i]   = ((a[3 * i + 0] >> 0) | ((uint16_t)a[3 * i + 1] << 8)) & 0xFFF;
 361              	 .loc 1 105 84 view .LVU122
 362 000e C2F30B02 	 ubfx r2,r2,#0,#12
 105:poly.c        ****         r->coeffs[2 * i]   = ((a[3 * i + 0] >> 0) | ((uint16_t)a[3 * i + 1] << 8)) & 0xFFF;
 363              	 .loc 1 105 28 view .LVU123
 364 0012 20F82320 	 strh r2,[r0,r3,lsl#2]
 365              	 .loc 1 106 9 is_stmt 1 view .LVU124
 366              	 .loc 1 106 53 is_stmt 0 view .LVU125
 367 0016 8A78     	 ldrb r2,[r1,#2]
 368 0018 4D78     	 ldrb r5,[r1,#1]
 369 001a 1201     	 lsls r2,r2,#4
 370 001c 42EA1512 	 orr r2,r2,r5,lsr#4
 371              	 .loc 1 106 30 view .LVU126
 372 0020 24F82320 	 strh r2,[r4,r3,lsl#2]
 104:poly.c        ****         r->coeffs[2 * i]   = ((a[3 * i + 0] >> 0) | ((uint16_t)a[3 * i + 1] << 8)) & 0xFFF;
 373              	 .loc 1 104 35 is_stmt 1 discriminator 3 view .LVU127
 374 0024 0133     	 adds r3,r3,#1
 375              	.LVL32:
 104:poly.c        ****         r->coeffs[2 * i]   = ((a[3 * i + 0] >> 0) | ((uint16_t)a[3 * i + 1] << 8)) & 0xFFF;
 376              	 .loc 1 104 19 discriminator 1 view .LVU128
 377 0026 802B     	 cmp r3,#128
 378 0028 01F10301 	 add r1,r1,#3
 379 002c EBD1     	 bne .L15
 107:poly.c        ****     }
 108:poly.c        **** }
 380              	 .loc 1 108 1 is_stmt 0 view .LVU129
 381 002e 30BD     	 pop {r4,r5,pc}
 382              	 .cfi_endproc
 383              	.LFE3:
 385              	 .section .text.PQCLEAN_MLKEM512_CLEAN_poly_frommsg,"ax",%progbits
 386              	 .align 1
 387              	 .global PQCLEAN_MLKEM512_CLEAN_poly_frommsg
 388              	 .syntax unified
 389              	 .thumb
 390              	 .thumb_func
 392              	PQCLEAN_MLKEM512_CLEAN_poly_frommsg:
 393              	.LVL33:
 394              	.LFB4:
 109:poly.c        **** 
 110:poly.c        **** /*************************************************
 111:poly.c        **** * Name:        PQCLEAN_MLKEM512_CLEAN_poly_frommsg
 112:poly.c        **** *
 113:poly.c        **** * Description: Convert 32-byte message to polynomial
 114:poly.c        **** *
 115:poly.c        **** * Arguments:   - poly *r: pointer to output polynomial
 116:poly.c        **** *              - const uint8_t *msg: pointer to input message
 117:poly.c        **** **************************************************/
 118:poly.c        **** void PQCLEAN_MLKEM512_CLEAN_poly_frommsg(poly *r, const uint8_t msg[KYBER_INDCPA_MSGBYTES]) {
 395              	 .loc 1 118 93 is_stmt 1 view-0
 396              	 .cfi_startproc
 397              	 
 398              	 
 119:poly.c        ****     size_t i, j;
 399              	 .loc 1 119 5 view .LVU131
 120:poly.c        **** 
 121:poly.c        ****     for (i = 0; i < KYBER_N / 8; i++) {
 400              	 .loc 1 121 5 view .LVU132
 401              	 .loc 1 121 19 discriminator 1 view .LVU133
 118:poly.c        ****     size_t i, j;
 402              	 .loc 1 118 93 is_stmt 0 view .LVU134
 403 0000 2DE9F047 	 push {r4,r5,r6,r7,r8,r9,r10,lr}
 404              	.LCFI5:
 405              	 .cfi_def_cfa_offset 32
 406              	 .cfi_offset 4,-32
 407              	 .cfi_offset 5,-28
 408              	 .cfi_offset 6,-24
 409              	 .cfi_offset 7,-20
 410              	 .cfi_offset 8,-16
 411              	 .cfi_offset 9,-12
 412              	 .cfi_offset 10,-8
 413              	 .cfi_offset 14,-4
 414              	 .loc 1 121 12 view .LVU135
 415 0004 0024     	 movs r4,#0
 122:poly.c        ****         for (j = 0; j < 8; j++) {
 123:poly.c        ****             r->coeffs[8 * i + j] = 0;
 124:poly.c        ****             PQCLEAN_MLKEM512_CLEAN_cmov_int16(r->coeffs + 8 * i + j, ((KYBER_Q + 1) / 2), (msg[i] >
 416              	 .loc 1 124 13 view .LVU136
 417 0006 DFF834A0 	 ldr r10,.L22
 118:poly.c        ****     size_t i, j;
 418              	 .loc 1 118 93 view .LVU137
 419 000a 0746     	 mov r7,r0
 420 000c 8846     	 mov r8,r1
 123:poly.c        ****             PQCLEAN_MLKEM512_CLEAN_cmov_int16(r->coeffs + 8 * i + j, ((KYBER_Q + 1) / 2), (msg[i] >
 421              	 .loc 1 123 34 view .LVU138
 422 000e A146     	 mov r9,r4
 423              	.LVL34:
 424              	.L18:
 122:poly.c        ****         for (j = 0; j < 8; j++) {
 425              	 .loc 1 122 23 is_stmt 1 discriminator 1 view .LVU139
 426 0010 07EB0416 	 add r6,r7,r4,lsl#4
 122:poly.c        ****         for (j = 0; j < 8; j++) {
 427              	 .loc 1 122 16 is_stmt 0 view .LVU140
 428 0014 0025     	 movs r5,#0
 429              	.LVL35:
 430              	.L19:
 123:poly.c        ****             PQCLEAN_MLKEM512_CLEAN_cmov_int16(r->coeffs + 8 * i + j, ((KYBER_Q + 1) / 2), (msg[i] >
 431              	 .loc 1 123 13 is_stmt 1 view .LVU141
 432 0016 3046     	 mov r0,r6
 123:poly.c        ****             PQCLEAN_MLKEM512_CLEAN_cmov_int16(r->coeffs + 8 * i + j, ((KYBER_Q + 1) / 2), (msg[i] >
 433              	 .loc 1 123 34 is_stmt 0 view .LVU142
 434 0018 26F8029B 	 strh r9,[r6],#2
 435              	 .loc 1 124 13 is_stmt 1 view .LVU143
 436              	 .loc 1 124 95 is_stmt 0 view .LVU144
 437 001c 18F80420 	 ldrb r2,[r8,r4]
 438              	 .loc 1 124 99 view .LVU145
 439 0020 2A41     	 asrs r2,r2,r5
 440              	 .loc 1 124 13 view .LVU146
 441 0022 02F00102 	 and r2,r2,#1
 442 0026 40F28161 	 movw r1,#1665
 122:poly.c        ****         for (j = 0; j < 8; j++) {
 443              	 .loc 1 122 29 discriminator 3 view .LVU147
 444 002a 0135     	 adds r5,r5,#1
 445              	.LVL36:
 446              	 .loc 1 124 13 view .LVU148
 447 002c D047     	 blx r10
 448              	.LVL37:
 122:poly.c        ****         for (j = 0; j < 8; j++) {
 449              	 .loc 1 122 29 is_stmt 1 discriminator 3 view .LVU149
 122:poly.c        ****         for (j = 0; j < 8; j++) {
 450              	 .loc 1 122 23 discriminator 1 view .LVU150
 451 002e 082D     	 cmp r5,#8
 452 0030 F1D1     	 bne .L19
 121:poly.c        ****         for (j = 0; j < 8; j++) {
 453              	 .loc 1 121 35 discriminator 2 view .LVU151
 454 0032 0134     	 adds r4,r4,#1
 455              	.LVL38:
 121:poly.c        ****         for (j = 0; j < 8; j++) {
 456              	 .loc 1 121 19 discriminator 1 view .LVU152
 457 0034 202C     	 cmp r4,#32
 458 0036 EBD1     	 bne .L18
 125:poly.c        ****         }
 126:poly.c        ****     }
 127:poly.c        **** }
 459              	 .loc 1 127 1 is_stmt 0 view .LVU153
 460 0038 BDE8F087 	 pop {r4,r5,r6,r7,r8,r9,r10,pc}
 461              	.LVL39:
 462              	.L23:
 463              	 .loc 1 127 1 view .LVU154
 464              	 .align 2
 465              	.L22:
 466 003c 00000000 	 .word PQCLEAN_MLKEM512_CLEAN_cmov_int16
 467              	 .cfi_endproc
 468              	.LFE4:
 470              	 .section .text.PQCLEAN_MLKEM512_CLEAN_poly_tomsg,"ax",%progbits
 471              	 .align 1
 472              	 .global PQCLEAN_MLKEM512_CLEAN_poly_tomsg
 473              	 .syntax unified
 474              	 .thumb
 475              	 .thumb_func
 477              	PQCLEAN_MLKEM512_CLEAN_poly_tomsg:
 478              	.LVL40:
 479              	.LFB5:
 128:poly.c        **** 
 129:poly.c        **** /*************************************************
 130:poly.c        **** * Name:        PQCLEAN_MLKEM512_CLEAN_poly_tomsg
 131:poly.c        **** *
 132:poly.c        **** * Description: Convert polynomial to 32-byte message
 133:poly.c        **** *
 134:poly.c        **** * Arguments:   - uint8_t *msg: pointer to output message
 135:poly.c        **** *              - const poly *a: pointer to input polynomial
 136:poly.c        **** **************************************************/
 137:poly.c        **** void PQCLEAN_MLKEM512_CLEAN_poly_tomsg(uint8_t msg[KYBER_INDCPA_MSGBYTES], const poly *a) {
 480              	 .loc 1 137 91 is_stmt 1 view-0
 481              	 .cfi_startproc
 482              	 
 483              	 
 138:poly.c        ****     unsigned int i, j;
 484              	 .loc 1 138 5 view .LVU156
 139:poly.c        ****     uint32_t t;
 485              	 .loc 1 139 5 view .LVU157
 140:poly.c        **** 
 141:poly.c        ****     for (i = 0; i < KYBER_N / 8; i++) {
 486              	 .loc 1 141 5 view .LVU158
 487              	 .loc 1 141 19 discriminator 1 view .LVU159
 137:poly.c        ****     unsigned int i, j;
 488              	 .loc 1 137 91 is_stmt 0 view .LVU160
 489 0000 F0B5     	 push {r4,r5,r6,r7,lr}
 490              	.LCFI6:
 491              	 .cfi_def_cfa_offset 20
 492              	 .cfi_offset 4,-20
 493              	 .cfi_offset 5,-16
 494              	 .cfi_offset 6,-12
 495              	 .cfi_offset 7,-8
 496              	 .cfi_offset 14,-4
 142:poly.c        ****         msg[i] = 0;
 143:poly.c        ****         for (j = 0; j < 8; j++) {
 144:poly.c        ****             t  = a->coeffs[8 * i + j];
 145:poly.c        ****             // t += ((int16_t)t >> 15) & KYBER_Q;
 146:poly.c        ****             // t  = (((t << 1) + KYBER_Q/2)/KYBER_Q) & 1;
 147:poly.c        ****             t <<= 1;
 148:poly.c        ****             t += 1665;
 149:poly.c        ****             t *= 80635;
 497              	 .loc 1 149 15 view .LVU161
 498 0002 DFF840C0 	 ldr ip,.L29
 137:poly.c        ****     unsigned int i, j;
 499              	 .loc 1 137 91 view .LVU162
 500 0006 0024     	 movs r4,#0
 501 0008 0138     	 subs r0,r0,#1
 502              	.LVL41:
 142:poly.c        ****         msg[i] = 0;
 503              	 .loc 1 142 16 view .LVU163
 504 000a 2746     	 mov r7,r4
 505              	.LVL42:
 506              	.L26:
 142:poly.c        ****         msg[i] = 0;
 507              	 .loc 1 142 9 is_stmt 1 view .LVU164
 142:poly.c        ****         msg[i] = 0;
 508              	 .loc 1 142 16 is_stmt 0 view .LVU165
 509 000c 0022     	 movs r2,#0
 510 000e 00F8017F 	 strb r7,[r0,#1]!
 511              	.LVL43:
 143:poly.c        ****             t  = a->coeffs[8 * i + j];
 512              	 .loc 1 143 9 is_stmt 1 view .LVU166
 143:poly.c        ****             t  = a->coeffs[8 * i + j];
 513              	 .loc 1 143 23 discriminator 1 view .LVU167
 514 0012 01EB4406 	 add r6,r1,r4,lsl#1
 143:poly.c        ****             t  = a->coeffs[8 * i + j];
 515              	 .loc 1 143 16 is_stmt 0 view .LVU168
 516 0016 1546     	 mov r5,r2
 517              	.LVL44:
 518              	.L25:
 144:poly.c        ****             // t += ((int16_t)t >> 15) & KYBER_Q;
 519              	 .loc 1 144 13 is_stmt 1 view .LVU169
 144:poly.c        ****             // t += ((int16_t)t >> 15) & KYBER_Q;
 520              	 .loc 1 144 27 is_stmt 0 view .LVU170
 521 0018 36F9023B 	 ldrsh r3,[r6],#2
 522              	.LVL45:
 147:poly.c        ****             t += 1665;
 523              	 .loc 1 147 13 is_stmt 1 view .LVU171
 147:poly.c        ****             t += 1665;
 524              	 .loc 1 147 15 is_stmt 0 view .LVU172
 525 001c 5B00     	 lsls r3,r3,#1
 526              	.LVL46:
 148:poly.c        ****             t *= 80635;
 527              	 .loc 1 148 13 is_stmt 1 view .LVU173
 148:poly.c        ****             t *= 80635;
 528              	 .loc 1 148 15 is_stmt 0 view .LVU174
 529 001e 03F28163 	 addw r3,r3,#1665
 530              	.LVL47:
 531              	 .loc 1 149 13 is_stmt 1 view .LVU175
 532              	 .loc 1 149 15 is_stmt 0 view .LVU176
 533 0022 0CFB03F3 	 mul r3,ip,r3
 534              	.LVL48:
 150:poly.c        ****             t >>= 28;
 535              	 .loc 1 150 13 is_stmt 1 view .LVU177
 151:poly.c        ****             t &= 1;
 536              	 .loc 1 151 13 view .LVU178
 152:poly.c        ****             msg[i] |= t << j;
 537              	 .loc 1 152 13 view .LVU179
 151:poly.c        ****             t &= 1;
 538              	 .loc 1 151 15 is_stmt 0 view .LVU180
 539 0026 C3F30073 	 ubfx r3,r3,#28,#1
 540              	.LVL49:
 541              	 .loc 1 152 25 view .LVU181
 542 002a AB40     	 lsls r3,r3,r5
 543              	 .loc 1 152 20 view .LVU182
 544 002c 1A43     	 orrs r2,r2,r3
 143:poly.c        ****             t  = a->coeffs[8 * i + j];
 545              	 .loc 1 143 29 discriminator 3 view .LVU183
 546 002e 0135     	 adds r5,r5,#1
 547              	.LVL50:
 548              	 .loc 1 152 20 view .LVU184
 549 0030 D2B2     	 uxtb r2,r2
 143:poly.c        ****             t  = a->coeffs[8 * i + j];
 550              	 .loc 1 143 23 discriminator 1 view .LVU185
 551 0032 082D     	 cmp r5,#8
 552              	 .loc 1 152 20 view .LVU186
 553 0034 0270     	 strb r2,[r0]
 554              	.LVL51:
 143:poly.c        ****             t  = a->coeffs[8 * i + j];
 555              	 .loc 1 143 29 is_stmt 1 discriminator 3 view .LVU187
 143:poly.c        ****             t  = a->coeffs[8 * i + j];
 556              	 .loc 1 143 23 discriminator 1 view .LVU188
 557 0036 EFD1     	 bne .L25
 141:poly.c        ****         msg[i] = 0;
 558              	 .loc 1 141 35 discriminator 2 view .LVU189
 559              	.LVL52:
 141:poly.c        ****         msg[i] = 0;
 560              	 .loc 1 141 19 discriminator 1 view .LVU190
 561 0038 0834     	 adds r4,r4,#8
 562 003a B4F5807F 	 cmp r4,#256
 563 003e E5D1     	 bne .L26
 153:poly.c        ****         }
 154:poly.c        ****     }
 155:poly.c        **** }
 564              	 .loc 1 155 1 is_stmt 0 view .LVU191
 565 0040 F0BD     	 pop {r4,r5,r6,r7,pc}
 566              	.LVL53:
 567              	.L30:
 568              	 .loc 1 155 1 view .LVU192
 569 0042 00BF     	 .align 2
 570              	.L29:
 571 0044 FB3A0100 	 .word 80635
 572              	 .cfi_endproc
 573              	.LFE5:
 575              	 .section .text.PQCLEAN_MLKEM512_CLEAN_poly_getnoise_eta1,"ax",%progbits
 576              	 .align 1
 577              	 .global PQCLEAN_MLKEM512_CLEAN_poly_getnoise_eta1
 578              	 .syntax unified
 579              	 .thumb
 580              	 .thumb_func
 582              	PQCLEAN_MLKEM512_CLEAN_poly_getnoise_eta1:
 583              	.LVL54:
 584              	.LFB6:
 156:poly.c        **** 
 157:poly.c        **** /*************************************************
 158:poly.c        **** * Name:        PQCLEAN_MLKEM512_CLEAN_poly_getnoise_eta1
 159:poly.c        **** *
 160:poly.c        **** * Description: Sample a polynomial deterministically from a seed and a nonce,
 161:poly.c        **** *              with output polynomial close to centered binomial distribution
 162:poly.c        **** *              with parameter KYBER_ETA1
 163:poly.c        **** *
 164:poly.c        **** * Arguments:   - poly *r: pointer to output polynomial
 165:poly.c        **** *              - const uint8_t *seed: pointer to input seed
 166:poly.c        **** *                                     (of length KYBER_SYMBYTES bytes)
 167:poly.c        **** *              - uint8_t nonce: one-byte input nonce
 168:poly.c        **** **************************************************/
 169:poly.c        **** void PQCLEAN_MLKEM512_CLEAN_poly_getnoise_eta1(poly *r, const uint8_t seed[KYBER_SYMBYTES], uint8_t
 585              	 .loc 1 169 108 is_stmt 1 view-0
 586              	 .cfi_startproc
 587              	 
 588              	 
 170:poly.c        ****     uint8_t buf[KYBER_ETA1 * KYBER_N / 4];
 589              	 .loc 1 170 5 view .LVU194
 171:poly.c        ****     prf(buf, sizeof(buf), seed, nonce);
 590              	 .loc 1 171 5 view .LVU195
 169:poly.c        ****     uint8_t buf[KYBER_ETA1 * KYBER_N / 4];
 591              	 .loc 1 169 108 is_stmt 0 view .LVU196
 592 0000 30B5     	 push {r4,r5,lr}
 593              	.LCFI7:
 594              	 .cfi_def_cfa_offset 12
 595              	 .cfi_offset 4,-12
 596              	 .cfi_offset 5,-8
 597              	 .cfi_offset 14,-4
 598 0002 B1B0     	 sub sp,sp,#196
 599              	.LCFI8:
 600              	 .cfi_def_cfa_offset 208
 169:poly.c        ****     uint8_t buf[KYBER_ETA1 * KYBER_N / 4];
 601              	 .loc 1 169 108 view .LVU197
 602 0004 0446     	 mov r4,r0
 603 0006 1346     	 mov r3,r2
 604              	 .loc 1 171 5 view .LVU198
 605 0008 6846     	 mov r0,sp
 606              	.LVL55:
 607              	 .loc 1 171 5 view .LVU199
 608 000a 0A46     	 mov r2,r1
 609              	.LVL56:
 610              	 .loc 1 171 5 view .LVU200
 611 000c 044D     	 ldr r5,.L32
 612 000e C021     	 movs r1,#192
 613              	.LVL57:
 614              	 .loc 1 171 5 view .LVU201
 615 0010 A847     	 blx r5
 616              	.LVL58:
 172:poly.c        ****     PQCLEAN_MLKEM512_CLEAN_poly_cbd_eta1(r, buf);
 617              	 .loc 1 172 5 is_stmt 1 view .LVU202
 618 0012 044B     	 ldr r3,.L32+4
 619 0014 6946     	 mov r1,sp
 620 0016 2046     	 mov r0,r4
 621 0018 9847     	 blx r3
 622              	.LVL59:
 173:poly.c        **** }
 623              	 .loc 1 173 1 is_stmt 0 view .LVU203
 624 001a 31B0     	 add sp,sp,#196
 625              	.LCFI9:
 626              	 .cfi_def_cfa_offset 12
 627              	 
 628 001c 30BD     	 pop {r4,r5,pc}
 629              	.LVL60:
 630              	.L33:
 631              	 .loc 1 173 1 view .LVU204
 632 001e 00BF     	 .align 2
 633              	.L32:
 634 0020 00000000 	 .word PQCLEAN_MLKEM512_CLEAN_kyber_shake256_prf
 635 0024 00000000 	 .word PQCLEAN_MLKEM512_CLEAN_poly_cbd_eta1
 636              	 .cfi_endproc
 637              	.LFE6:
 639              	 .section .text.PQCLEAN_MLKEM512_CLEAN_poly_getnoise_eta2,"ax",%progbits
 640              	 .align 1
 641              	 .global PQCLEAN_MLKEM512_CLEAN_poly_getnoise_eta2
 642              	 .syntax unified
 643              	 .thumb
 644              	 .thumb_func
 646              	PQCLEAN_MLKEM512_CLEAN_poly_getnoise_eta2:
 647              	.LVL61:
 648              	.LFB7:
 174:poly.c        **** 
 175:poly.c        **** /*************************************************
 176:poly.c        **** * Name:        PQCLEAN_MLKEM512_CLEAN_poly_getnoise_eta2
 177:poly.c        **** *
 178:poly.c        **** * Description: Sample a polynomial deterministically from a seed and a nonce,
 179:poly.c        **** *              with output polynomial close to centered binomial distribution
 180:poly.c        **** *              with parameter KYBER_ETA2
 181:poly.c        **** *
 182:poly.c        **** * Arguments:   - poly *r: pointer to output polynomial
 183:poly.c        **** *              - const uint8_t *seed: pointer to input seed
 184:poly.c        **** *                                     (of length KYBER_SYMBYTES bytes)
 185:poly.c        **** *              - uint8_t nonce: one-byte input nonce
 186:poly.c        **** **************************************************/
 187:poly.c        **** void PQCLEAN_MLKEM512_CLEAN_poly_getnoise_eta2(poly *r, const uint8_t seed[KYBER_SYMBYTES], uint8_t
 649              	 .loc 1 187 108 is_stmt 1 view-0
 650              	 .cfi_startproc
 651              	 
 652              	 
 188:poly.c        ****     uint8_t buf[KYBER_ETA2 * KYBER_N / 4];
 653              	 .loc 1 188 5 view .LVU206
 189:poly.c        ****     prf(buf, sizeof(buf), seed, nonce);
 654              	 .loc 1 189 5 view .LVU207
 187:poly.c        ****     uint8_t buf[KYBER_ETA2 * KYBER_N / 4];
 655              	 .loc 1 187 108 is_stmt 0 view .LVU208
 656 0000 30B5     	 push {r4,r5,lr}
 657              	.LCFI10:
 658              	 .cfi_def_cfa_offset 12
 659              	 .cfi_offset 4,-12
 660              	 .cfi_offset 5,-8
 661              	 .cfi_offset 14,-4
 662 0002 A1B0     	 sub sp,sp,#132
 663              	.LCFI11:
 664              	 .cfi_def_cfa_offset 144
 187:poly.c        ****     uint8_t buf[KYBER_ETA2 * KYBER_N / 4];
 665              	 .loc 1 187 108 view .LVU209
 666 0004 0446     	 mov r4,r0
 667 0006 1346     	 mov r3,r2
 668              	 .loc 1 189 5 view .LVU210
 669 0008 6846     	 mov r0,sp
 670              	.LVL62:
 671              	 .loc 1 189 5 view .LVU211
 672 000a 0A46     	 mov r2,r1
 673              	.LVL63:
 674              	 .loc 1 189 5 view .LVU212
 675 000c 044D     	 ldr r5,.L35
 676 000e 8021     	 movs r1,#128
 677              	.LVL64:
 678              	 .loc 1 189 5 view .LVU213
 679 0010 A847     	 blx r5
 680              	.LVL65:
 190:poly.c        ****     PQCLEAN_MLKEM512_CLEAN_poly_cbd_eta2(r, buf);
 681              	 .loc 1 190 5 is_stmt 1 view .LVU214
 682 0012 044B     	 ldr r3,.L35+4
 683 0014 6946     	 mov r1,sp
 684 0016 2046     	 mov r0,r4
 685 0018 9847     	 blx r3
 686              	.LVL66:
 191:poly.c        **** }
 687              	 .loc 1 191 1 is_stmt 0 view .LVU215
 688 001a 21B0     	 add sp,sp,#132
 689              	.LCFI12:
 690              	 .cfi_def_cfa_offset 12
 691              	 
 692 001c 30BD     	 pop {r4,r5,pc}
 693              	.LVL67:
 694              	.L36:
 695              	 .loc 1 191 1 view .LVU216
 696 001e 00BF     	 .align 2
 697              	.L35:
 698 0020 00000000 	 .word PQCLEAN_MLKEM512_CLEAN_kyber_shake256_prf
 699 0024 00000000 	 .word PQCLEAN_MLKEM512_CLEAN_poly_cbd_eta2
 700              	 .cfi_endproc
 701              	.LFE7:
 703              	 .section .text.PQCLEAN_MLKEM512_CLEAN_poly_invntt_tomont,"ax",%progbits
 704              	 .align 1
 705              	 .global PQCLEAN_MLKEM512_CLEAN_poly_invntt_tomont
 706              	 .syntax unified
 707              	 .thumb
 708              	 .thumb_func
 710              	PQCLEAN_MLKEM512_CLEAN_poly_invntt_tomont:
 711              	.LVL68:
 712              	.LFB9:
 192:poly.c        **** 
 193:poly.c        **** 
 194:poly.c        **** /*************************************************
 195:poly.c        **** * Name:        PQCLEAN_MLKEM512_CLEAN_poly_ntt
 196:poly.c        **** *
 197:poly.c        **** * Description: Computes negacyclic number-theoretic transform (NTT) of
 198:poly.c        **** *              a polynomial in place;
 199:poly.c        **** *              inputs assumed to be in normal order, output in bitreversed order
 200:poly.c        **** *
 201:poly.c        **** * Arguments:   - uint16_t *r: pointer to in/output polynomial
 202:poly.c        **** **************************************************/
 203:poly.c        **** void PQCLEAN_MLKEM512_CLEAN_poly_ntt(poly *r) {
 204:poly.c        ****     PQCLEAN_MLKEM512_CLEAN_ntt(r->coeffs);
 205:poly.c        ****     PQCLEAN_MLKEM512_CLEAN_poly_reduce(r);
 206:poly.c        **** }
 207:poly.c        **** 
 208:poly.c        **** /*************************************************
 209:poly.c        **** * Name:        PQCLEAN_MLKEM512_CLEAN_poly_invntt_tomont
 210:poly.c        **** *
 211:poly.c        **** * Description: Computes inverse of negacyclic number-theoretic transform (NTT)
 212:poly.c        **** *              of a polynomial in place;
 213:poly.c        **** *              inputs assumed to be in bitreversed order, output in normal order
 214:poly.c        **** *
 215:poly.c        **** * Arguments:   - uint16_t *a: pointer to in/output polynomial
 216:poly.c        **** **************************************************/
 217:poly.c        **** void PQCLEAN_MLKEM512_CLEAN_poly_invntt_tomont(poly *r) {
 713              	 .loc 1 217 57 is_stmt 1 view-0
 714              	 .cfi_startproc
 715              	 
 716              	 
 717              	 
 218:poly.c        ****     PQCLEAN_MLKEM512_CLEAN_invntt(r->coeffs);
 718              	 .loc 1 218 5 view .LVU218
 719 0000 004B     	 ldr r3,.L38
 720 0002 1847     	 bx r3
 721              	.LVL69:
 722              	.L39:
 723              	 .loc 1 218 5 is_stmt 0 view .LVU219
 724              	 .align 2
 725              	.L38:
 726 0004 00000000 	 .word PQCLEAN_MLKEM512_CLEAN_invntt
 727              	 .cfi_endproc
 728              	.LFE9:
 730              	 .section .text.PQCLEAN_MLKEM512_CLEAN_poly_basemul_montgomery,"ax",%progbits
 731              	 .align 1
 732              	 .global PQCLEAN_MLKEM512_CLEAN_poly_basemul_montgomery
 733              	 .syntax unified
 734              	 .thumb
 735              	 .thumb_func
 737              	PQCLEAN_MLKEM512_CLEAN_poly_basemul_montgomery:
 738              	.LVL70:
 739              	.LFB10:
 219:poly.c        **** }
 220:poly.c        **** 
 221:poly.c        **** /*************************************************
 222:poly.c        **** * Name:        PQCLEAN_MLKEM512_CLEAN_poly_basemul_montgomery
 223:poly.c        **** *
 224:poly.c        **** * Description: Multiplication of two polynomials in NTT domain
 225:poly.c        **** *
 226:poly.c        **** * Arguments:   - poly *r: pointer to output polynomial
 227:poly.c        **** *              - const poly *a: pointer to first input polynomial
 228:poly.c        **** *              - const poly *b: pointer to second input polynomial
 229:poly.c        **** **************************************************/
 230:poly.c        **** void PQCLEAN_MLKEM512_CLEAN_poly_basemul_montgomery(poly *r, const poly *a, const poly *b) {
 740              	 .loc 1 230 92 is_stmt 1 view-0
 741              	 .cfi_startproc
 742              	 
 743              	 
 231:poly.c        ****     size_t i;
 744              	 .loc 1 231 5 view .LVU221
 232:poly.c        ****     for (i = 0; i < KYBER_N / 4; i++) {
 745              	 .loc 1 232 5 view .LVU222
 746              	 .loc 1 232 19 discriminator 1 view .LVU223
 230:poly.c        ****     size_t i;
 747              	 .loc 1 230 92 is_stmt 0 view .LVU224
 748 0000 2DE9F047 	 push {r4,r5,r6,r7,r8,r9,r10,lr}
 749              	.LCFI13:
 750              	 .cfi_def_cfa_offset 32
 751              	 .cfi_offset 4,-32
 752              	 .cfi_offset 5,-28
 753              	 .cfi_offset 6,-24
 754              	 .cfi_offset 7,-20
 755              	 .cfi_offset 8,-16
 756              	 .cfi_offset 9,-12
 757              	 .cfi_offset 10,-8
 758              	 .cfi_offset 14,-4
 759 0004 0F4F     	 ldr r7,.L43
 233:poly.c        ****         PQCLEAN_MLKEM512_CLEAN_basemul(&r->coeffs[4 * i], &a->coeffs[4 * i], &b->coeffs[4 * i], PQC
 760              	 .loc 1 233 9 view .LVU225
 761 0006 DFF84090 	 ldr r9,.L43+4
 762 000a 061D     	 adds r6,r0,#4
 763 000c 0D1D     	 adds r5,r1,#4
 764 000e 141D     	 adds r4,r2,#4
 765 0010 07F1800A 	 add r10,r7,#128
 766              	.LVL71:
 767              	.L41:
 768              	 .loc 1 233 9 is_stmt 1 view .LVU226
 769              	 .loc 1 233 125 is_stmt 0 view .LVU227
 770 0014 37F9028F 	 ldrsh r8,[r7,#2]!
 771              	 .loc 1 233 9 view .LVU228
 772 0018 221F     	 subs r2,r4,#4
 773 001a 291F     	 subs r1,r5,#4
 774 001c 301F     	 subs r0,r6,#4
 775 001e 4346     	 mov r3,r8
 776 0020 C847     	 blx r9
 777              	.LVL72:
 234:poly.c        ****         PQCLEAN_MLKEM512_CLEAN_basemul(&r->coeffs[4 * i + 2], &a->coeffs[4 * i + 2], &b->coeffs[4 *
 778              	 .loc 1 234 9 is_stmt 1 view .LVU229
 779 0022 C8F10003 	 rsb r3,r8,#0
 780 0026 2246     	 mov r2,r4
 781 0028 2946     	 mov r1,r5
 782 002a 3046     	 mov r0,r6
 783 002c 1BB2     	 sxth r3,r3
 784 002e C847     	 blx r9
 785              	.LVL73:
 232:poly.c        ****         PQCLEAN_MLKEM512_CLEAN_basemul(&r->coeffs[4 * i], &a->coeffs[4 * i], &b->coeffs[4 * i], PQC
 786              	 .loc 1 232 35 discriminator 3 view .LVU230
 232:poly.c        ****         PQCLEAN_MLKEM512_CLEAN_basemul(&r->coeffs[4 * i], &a->coeffs[4 * i], &b->coeffs[4 * i], PQC
 787              	 .loc 1 232 19 discriminator 1 view .LVU231
 788 0030 5745     	 cmp r7,r10
 789 0032 06F10806 	 add r6,r6,#8
 790 0036 05F10805 	 add r5,r5,#8
 791 003a 04F10804 	 add r4,r4,#8
 792 003e E9D1     	 bne .L41
 235:poly.c        ****     }
 236:poly.c        **** }
 793              	 .loc 1 236 1 is_stmt 0 view .LVU232
 794 0040 BDE8F087 	 pop {r4,r5,r6,r7,r8,r9,r10,pc}
 795              	.L44:
 796              	 .align 2
 797              	.L43:
 798 0044 7E000000 	 .word PQCLEAN_MLKEM512_CLEAN_zetas+126
 799 0048 00000000 	 .word PQCLEAN_MLKEM512_CLEAN_basemul
 800              	 .cfi_endproc
 801              	.LFE10:
 803              	 .section .text.PQCLEAN_MLKEM512_CLEAN_poly_tomont,"ax",%progbits
 804              	 .align 1
 805              	 .global PQCLEAN_MLKEM512_CLEAN_poly_tomont
 806              	 .syntax unified
 807              	 .thumb
 808              	 .thumb_func
 810              	PQCLEAN_MLKEM512_CLEAN_poly_tomont:
 811              	.LVL74:
 812              	.LFB11:
 237:poly.c        **** 
 238:poly.c        **** /*************************************************
 239:poly.c        **** * Name:        PQCLEAN_MLKEM512_CLEAN_poly_tomont
 240:poly.c        **** *
 241:poly.c        **** * Description: Inplace conversion of all coefficients of a polynomial
 242:poly.c        **** *              from normal domain to Montgomery domain
 243:poly.c        **** *
 244:poly.c        **** * Arguments:   - poly *r: pointer to input/output polynomial
 245:poly.c        **** **************************************************/
 246:poly.c        **** void PQCLEAN_MLKEM512_CLEAN_poly_tomont(poly *r) {
 813              	 .loc 1 246 50 is_stmt 1 view-0
 814              	 .cfi_startproc
 815              	 
 816              	 
 247:poly.c        ****     size_t i;
 817              	 .loc 1 247 5 view .LVU234
 248:poly.c        ****     const int16_t f = (1ULL << 32) % KYBER_Q;
 818              	 .loc 1 248 5 view .LVU235
 249:poly.c        ****     for (i = 0; i < KYBER_N; i++) {
 819              	 .loc 1 249 5 view .LVU236
 820              	 .loc 1 249 19 discriminator 1 view .LVU237
 246:poly.c        ****     size_t i;
 821              	 .loc 1 246 50 is_stmt 0 view .LVU238
 822 0000 F8B5     	 push {r3,r4,r5,r6,r7,lr}
 823              	.LCFI14:
 824              	 .cfi_def_cfa_offset 24
 825              	 .cfi_offset 3,-24
 826              	 .cfi_offset 4,-20
 827              	 .cfi_offset 5,-16
 828              	 .cfi_offset 6,-12
 829              	 .cfi_offset 7,-8
 830              	 .cfi_offset 14,-4
 250:poly.c        ****         r->coeffs[i] = PQCLEAN_MLKEM512_CLEAN_montgomery_reduce((int32_t)r->coeffs[i] * f);
 831              	 .loc 1 250 24 view .LVU239
 832 0002 074E     	 ldr r6,.L48
 833 0004 851E     	 subs r5,r0,#2
 834 0006 00F5FF74 	 add r4,r0,#510
 835 000a 40F24957 	 movw r7,#1353
 836              	.LVL75:
 837              	.L46:
 838              	 .loc 1 250 9 is_stmt 1 view .LVU240
 839              	 .loc 1 250 24 is_stmt 0 view .LVU241
 840 000e 35F9020F 	 ldrsh r0,[r5,#2]!
 841 0012 7843     	 muls r0,r7,r0
 842 0014 B047     	 blx r6
 843              	.LVL76:
 249:poly.c        ****     for (i = 0; i < KYBER_N; i++) {
 844              	 .loc 1 249 19 discriminator 1 view .LVU242
 845 0016 A542     	 cmp r5,r4
 846              	 .loc 1 250 22 discriminator 1 view .LVU243
 847 0018 2880     	 strh r0,[r5]
 249:poly.c        ****     for (i = 0; i < KYBER_N; i++) {
 848              	 .loc 1 249 31 is_stmt 1 discriminator 3 view .LVU244
 249:poly.c        ****     for (i = 0; i < KYBER_N; i++) {
 849              	 .loc 1 249 19 discriminator 1 view .LVU245
 850 001a F8D1     	 bne .L46
 251:poly.c        ****     }
 252:poly.c        **** }
 851              	 .loc 1 252 1 is_stmt 0 view .LVU246
 852 001c F8BD     	 pop {r3,r4,r5,r6,r7,pc}
 853              	.LVL77:
 854              	.L49:
 855              	 .loc 1 252 1 view .LVU247
 856 001e 00BF     	 .align 2
 857              	.L48:
 858 0020 00000000 	 .word PQCLEAN_MLKEM512_CLEAN_montgomery_reduce
 859              	 .cfi_endproc
 860              	.LFE11:
 862              	 .section .text.PQCLEAN_MLKEM512_CLEAN_poly_reduce,"ax",%progbits
 863              	 .align 1
 864              	 .global PQCLEAN_MLKEM512_CLEAN_poly_reduce
 865              	 .syntax unified
 866              	 .thumb
 867              	 .thumb_func
 869              	PQCLEAN_MLKEM512_CLEAN_poly_reduce:
 870              	.LVL78:
 871              	.LFB12:
 253:poly.c        **** 
 254:poly.c        **** /*************************************************
 255:poly.c        **** * Name:        PQCLEAN_MLKEM512_CLEAN_poly_reduce
 256:poly.c        **** *
 257:poly.c        **** * Description: Applies Barrett reduction to all coefficients of a polynomial
 258:poly.c        **** *              for details of the Barrett reduction see comments in reduce.c
 259:poly.c        **** *
 260:poly.c        **** * Arguments:   - poly *r: pointer to input/output polynomial
 261:poly.c        **** **************************************************/
 262:poly.c        **** void PQCLEAN_MLKEM512_CLEAN_poly_reduce(poly *r) {
 872              	 .loc 1 262 50 is_stmt 1 view-0
 873              	 .cfi_startproc
 874              	 
 875              	 
 263:poly.c        ****     size_t i;
 876              	 .loc 1 263 5 view .LVU249
 264:poly.c        ****     for (i = 0; i < KYBER_N; i++) {
 877              	 .loc 1 264 5 view .LVU250
 878              	 .loc 1 264 19 discriminator 1 view .LVU251
 262:poly.c        ****     size_t i;
 879              	 .loc 1 262 50 is_stmt 0 view .LVU252
 880 0000 70B5     	 push {r4,r5,r6,lr}
 881              	.LCFI15:
 882              	 .cfi_def_cfa_offset 16
 883              	 .cfi_offset 4,-16
 884              	 .cfi_offset 5,-12
 885              	 .cfi_offset 6,-8
 886              	 .cfi_offset 14,-4
 265:poly.c        ****         r->coeffs[i] = PQCLEAN_MLKEM512_CLEAN_barrett_reduce(r->coeffs[i]);
 887              	 .loc 1 265 24 view .LVU253
 888 0002 054E     	 ldr r6,.L53
 889 0004 851E     	 subs r5,r0,#2
 890 0006 00F5FF74 	 add r4,r0,#510
 891              	.LVL79:
 892              	.L51:
 893              	 .loc 1 265 9 is_stmt 1 view .LVU254
 894              	 .loc 1 265 24 is_stmt 0 view .LVU255
 895 000a 35F9020F 	 ldrsh r0,[r5,#2]!
 896 000e B047     	 blx r6
 897              	.LVL80:
 264:poly.c        ****     for (i = 0; i < KYBER_N; i++) {
 898              	 .loc 1 264 19 discriminator 1 view .LVU256
 899 0010 A542     	 cmp r5,r4
 900              	 .loc 1 265 22 discriminator 1 view .LVU257
 901 0012 2880     	 strh r0,[r5]
 264:poly.c        ****     for (i = 0; i < KYBER_N; i++) {
 902              	 .loc 1 264 31 is_stmt 1 discriminator 3 view .LVU258
 264:poly.c        ****     for (i = 0; i < KYBER_N; i++) {
 903              	 .loc 1 264 19 discriminator 1 view .LVU259
 904 0014 F9D1     	 bne .L51
 266:poly.c        ****     }
 267:poly.c        **** }
 905              	 .loc 1 267 1 is_stmt 0 view .LVU260
 906 0016 70BD     	 pop {r4,r5,r6,pc}
 907              	.LVL81:
 908              	.L54:
 909              	 .loc 1 267 1 view .LVU261
 910              	 .align 2
 911              	.L53:
 912 0018 00000000 	 .word PQCLEAN_MLKEM512_CLEAN_barrett_reduce
 913              	 .cfi_endproc
 914              	.LFE12:
 916              	 .section .text.PQCLEAN_MLKEM512_CLEAN_poly_ntt,"ax",%progbits
 917              	 .align 1
 918              	 .global PQCLEAN_MLKEM512_CLEAN_poly_ntt
 919              	 .syntax unified
 920              	 .thumb
 921              	 .thumb_func
 923              	PQCLEAN_MLKEM512_CLEAN_poly_ntt:
 924              	.LVL82:
 925              	.LFB8:
 203:poly.c        ****     PQCLEAN_MLKEM512_CLEAN_ntt(r->coeffs);
 926              	 .loc 1 203 47 is_stmt 1 view-0
 927              	 .cfi_startproc
 928              	 
 929              	 
 204:poly.c        ****     PQCLEAN_MLKEM512_CLEAN_poly_reduce(r);
 930              	 .loc 1 204 5 view .LVU263
 203:poly.c        ****     PQCLEAN_MLKEM512_CLEAN_ntt(r->coeffs);
 931              	 .loc 1 203 47 is_stmt 0 view .LVU264
 932 0000 10B5     	 push {r4,lr}
 933              	.LCFI16:
 934              	 .cfi_def_cfa_offset 8
 935              	 .cfi_offset 4,-8
 936              	 .cfi_offset 14,-4
 204:poly.c        ****     PQCLEAN_MLKEM512_CLEAN_poly_reduce(r);
 937              	 .loc 1 204 5 view .LVU265
 938 0002 044B     	 ldr r3,.L56
 203:poly.c        ****     PQCLEAN_MLKEM512_CLEAN_ntt(r->coeffs);
 939              	 .loc 1 203 47 view .LVU266
 940 0004 0446     	 mov r4,r0
 204:poly.c        ****     PQCLEAN_MLKEM512_CLEAN_poly_reduce(r);
 941              	 .loc 1 204 5 view .LVU267
 942 0006 9847     	 blx r3
 943              	.LVL83:
 205:poly.c        **** }
 944              	 .loc 1 205 5 is_stmt 1 view .LVU268
 945 0008 2046     	 mov r0,r4
 946 000a 034B     	 ldr r3,.L56+4
 206:poly.c        **** 
 947              	 .loc 1 206 1 is_stmt 0 view .LVU269
 948 000c BDE81040 	 pop {r4,lr}
 949              	.LCFI17:
 950              	 .cfi_restore 14
 951              	 .cfi_restore 4
 952              	 .cfi_def_cfa_offset 0
 953              	.LVL84:
 205:poly.c        **** }
 954              	 .loc 1 205 5 view .LVU270
 955 0010 1847     	 bx r3
 956              	.LVL85:
 957              	.L57:
 205:poly.c        **** }
 958              	 .loc 1 205 5 view .LVU271
 959 0012 00BF     	 .align 2
 960              	.L56:
 961 0014 00000000 	 .word PQCLEAN_MLKEM512_CLEAN_ntt
 962 0018 00000000 	 .word PQCLEAN_MLKEM512_CLEAN_poly_reduce
 963              	 .cfi_endproc
 964              	.LFE8:
 966              	 .section .text.PQCLEAN_MLKEM512_CLEAN_poly_add,"ax",%progbits
 967              	 .align 1
 968              	 .global PQCLEAN_MLKEM512_CLEAN_poly_add
 969              	 .syntax unified
 970              	 .thumb
 971              	 .thumb_func
 973              	PQCLEAN_MLKEM512_CLEAN_poly_add:
 974              	.LVL86:
 975              	.LFB13:
 268:poly.c        **** 
 269:poly.c        **** /*************************************************
 270:poly.c        **** * Name:        PQCLEAN_MLKEM512_CLEAN_poly_add
 271:poly.c        **** *
 272:poly.c        **** * Description: Add two polynomials; no modular reduction is performed
 273:poly.c        **** *
 274:poly.c        **** * Arguments: - poly *r: pointer to output polynomial
 275:poly.c        **** *            - const poly *a: pointer to first input polynomial
 276:poly.c        **** *            - const poly *b: pointer to second input polynomial
 277:poly.c        **** **************************************************/
 278:poly.c        **** void PQCLEAN_MLKEM512_CLEAN_poly_add(poly *r, const poly *a, const poly *b) {
 976              	 .loc 1 278 77 is_stmt 1 view-0
 977              	 .cfi_startproc
 978              	 
 979              	 
 279:poly.c        ****     size_t i;
 980              	 .loc 1 279 5 view .LVU273
 280:poly.c        ****     for (i = 0; i < KYBER_N; i++) {
 981              	 .loc 1 280 5 view .LVU274
 982              	 .loc 1 280 19 discriminator 1 view .LVU275
 278:poly.c        ****     size_t i;
 983              	 .loc 1 278 77 is_stmt 0 view .LVU276
 984 0000 30B5     	 push {r4,r5,lr}
 985              	.LCFI18:
 986              	 .cfi_def_cfa_offset 12
 987              	 .cfi_offset 4,-12
 988              	 .cfi_offset 5,-8
 989              	 .cfi_offset 14,-4
 990              	 .loc 1 280 12 view .LVU277
 991 0002 0023     	 movs r3,#0
 992              	.LVL87:
 993              	.L59:
 281:poly.c        ****         r->coeffs[i] = a->coeffs[i] + b->coeffs[i];
 994              	 .loc 1 281 9 is_stmt 1 view .LVU278
 995              	 .loc 1 281 37 is_stmt 0 view .LVU279
 996 0004 31F81340 	 ldrh r4,[r1,r3,lsl#1]
 997 0008 32F81350 	 ldrh r5,[r2,r3,lsl#1]
 998 000c 2C44     	 add r4,r4,r5
 999              	 .loc 1 281 22 view .LVU280
 1000 000e 20F81340 	 strh r4,[r0,r3,lsl#1]
 280:poly.c        ****     for (i = 0; i < KYBER_N; i++) {
 1001              	 .loc 1 280 31 is_stmt 1 discriminator 3 view .LVU281
 1002 0012 0133     	 adds r3,r3,#1
 1003              	.LVL88:
 280:poly.c        ****     for (i = 0; i < KYBER_N; i++) {
 1004              	 .loc 1 280 19 discriminator 1 view .LVU282
 1005 0014 B3F5807F 	 cmp r3,#256
 1006 0018 F4D1     	 bne .L59
 282:poly.c        ****     }
 283:poly.c        **** }
 1007              	 .loc 1 283 1 is_stmt 0 view .LVU283
 1008 001a 30BD     	 pop {r4,r5,pc}
 1009              	 .cfi_endproc
 1010              	.LFE13:
 1012              	 .section .text.PQCLEAN_MLKEM512_CLEAN_poly_sub,"ax",%progbits
 1013              	 .align 1
 1014              	 .global PQCLEAN_MLKEM512_CLEAN_poly_sub
 1015              	 .syntax unified
 1016              	 .thumb
 1017              	 .thumb_func
 1019              	PQCLEAN_MLKEM512_CLEAN_poly_sub:
 1020              	.LVL89:
 1021              	.LFB14:
 284:poly.c        **** 
 285:poly.c        **** /*************************************************
 286:poly.c        **** * Name:        PQCLEAN_MLKEM512_CLEAN_poly_sub
 287:poly.c        **** *
 288:poly.c        **** * Description: Subtract two polynomials; no modular reduction is performed
 289:poly.c        **** *
 290:poly.c        **** * Arguments: - poly *r:       pointer to output polynomial
 291:poly.c        **** *            - const poly *a: pointer to first input polynomial
 292:poly.c        **** *            - const poly *b: pointer to second input polynomial
 293:poly.c        **** **************************************************/
 294:poly.c        **** void PQCLEAN_MLKEM512_CLEAN_poly_sub(poly *r, const poly *a, const poly *b) {
 1022              	 .loc 1 294 77 is_stmt 1 view-0
 1023              	 .cfi_startproc
 1024              	 
 1025              	 
 295:poly.c        ****     size_t i;
 1026              	 .loc 1 295 5 view .LVU285
 296:poly.c        ****     for (i = 0; i < KYBER_N; i++) {
 1027              	 .loc 1 296 5 view .LVU286
 1028              	 .loc 1 296 19 discriminator 1 view .LVU287
 294:poly.c        ****     size_t i;
 1029              	 .loc 1 294 77 is_stmt 0 view .LVU288
 1030 0000 30B5     	 push {r4,r5,lr}
 1031              	.LCFI19:
 1032              	 .cfi_def_cfa_offset 12
 1033              	 .cfi_offset 4,-12
 1034              	 .cfi_offset 5,-8
 1035              	 .cfi_offset 14,-4
 1036              	 .loc 1 296 12 view .LVU289
 1037 0002 0023     	 movs r3,#0
 1038              	.LVL90:
 1039              	.L62:
 297:poly.c        ****         r->coeffs[i] = a->coeffs[i] - b->coeffs[i];
 1040              	 .loc 1 297 9 is_stmt 1 view .LVU290
 1041              	 .loc 1 297 37 is_stmt 0 view .LVU291
 1042 0004 31F81340 	 ldrh r4,[r1,r3,lsl#1]
 1043 0008 32F81350 	 ldrh r5,[r2,r3,lsl#1]
 1044 000c 641B     	 subs r4,r4,r5
 1045              	 .loc 1 297 22 view .LVU292
 1046 000e 20F81340 	 strh r4,[r0,r3,lsl#1]
 296:poly.c        ****     for (i = 0; i < KYBER_N; i++) {
 1047              	 .loc 1 296 31 is_stmt 1 discriminator 3 view .LVU293
 1048 0012 0133     	 adds r3,r3,#1
 1049              	.LVL91:
 296:poly.c        ****     for (i = 0; i < KYBER_N; i++) {
 1050              	 .loc 1 296 19 discriminator 1 view .LVU294
 1051 0014 B3F5807F 	 cmp r3,#256
 1052 0018 F4D1     	 bne .L62
 298:poly.c        ****     }
 299:poly.c        **** }
 1053              	 .loc 1 299 1 is_stmt 0 view .LVU295
 1054 001a 30BD     	 pop {r4,r5,pc}
 1055              	 .cfi_endproc
 1056              	.LFE14:
 1058              	 .text
 1059              	.Letext0:
 1060              	 .file 2 "/usr/lib/gcc/arm-none-eabi/14.2.1/include/stdint.h"
 1061              	 .file 3 "poly.h"
 1062              	 .file 4 "/usr/lib/gcc/arm-none-eabi/14.2.1/include/stddef.h"
 1063              	 .file 5 "reduce.h"
 1064              	 .file 6 "ntt.h"
 1065              	 .file 7 "cbd.h"
 1066              	 .file 8 "symmetric.h"
 1067              	 .file 9 "verify.h"