   1              	 .cpu cortex-m4
   2              	 .arch armv7e-m
   3              	 .fpu softvfp
   4              	 .eabi_attribute 20,1
   5              	 .eabi_attribute 21,1
   6              	 .eabi_attribute 23,3
   7              	 .eabi_attribute 24,1
   8              	 .eabi_attribute 25,1
   9              	 .eabi_attribute 26,1
  10              	 .eabi_attribute 30,4
  11              	 .eabi_attribute 34,1
  12              	 .eabi_attribute 18,4
  13              	 .file "simpleserial-ml-kem-512.c"
  14              	 .text
  15              	.Ltext0:
  16              	 .cfi_sections .debug_frame
  17              	 .file 1 "simpleserial-ml-kem-512.c"
  18              	 .section .text.led_toggle,"ax",%progbits
  19              	 .align 1
  20              	 .global led_toggle
  21              	 .syntax unified
  22              	 .thumb
  23              	 .thumb_func
  25              	led_toggle:
  26              	.LVL0:
  27              	.LFB137:
   1:simpleserial-ml-kem-512.c **** /*
   2:simpleserial-ml-kem-512.c ****     This file is part of the ChipWhisperer Example Targets
   3:simpleserial-ml-kem-512.c ****     Copyright (C) 2012-2017 NewAE Technology Inc.
   4:simpleserial-ml-kem-512.c **** 
   5:simpleserial-ml-kem-512.c ****     This program is free software: you can redistribute it and/or modify
   6:simpleserial-ml-kem-512.c ****     it under the terms of the GNU General Public License as published by
   7:simpleserial-ml-kem-512.c ****     the Free Software Foundation, either version 3 of the License, or
   8:simpleserial-ml-kem-512.c ****     (at your option) any later version.
   9:simpleserial-ml-kem-512.c **** 
  10:simpleserial-ml-kem-512.c ****     This program is distributed in the hope that it will be useful,
  11:simpleserial-ml-kem-512.c ****     but WITHOUT ANY WARRANTY; without even the implied warranty of
  12:simpleserial-ml-kem-512.c ****     MERCHANTABILITY or FITNESS FOR A PARTICULAR PURPOSE.  See the
  13:simpleserial-ml-kem-512.c ****     GNU General Public License for more details.
  14:simpleserial-ml-kem-512.c **** 
  15:simpleserial-ml-kem-512.c ****     You should have received a copy of the GNU General Public License
  16:simpleserial-ml-kem-512.c ****     along with this program.  If not, see <http://www.gnu.org/licenses/>.
  17:simpleserial-ml-kem-512.c **** */
  18:simpleserial-ml-kem-512.c **** 
  19:simpleserial-ml-kem-512.c **** #include "hal.h"
  20:simpleserial-ml-kem-512.c **** #include "simpleserial.h"
  21:simpleserial-ml-kem-512.c **** #include <stdint.h>
  22:simpleserial-ml-kem-512.c **** #include <stdlib.h>
  23:simpleserial-ml-kem-512.c **** 
  24:simpleserial-ml-kem-512.c **** /* SAM4S GPIO includes for LED control */
  25:simpleserial-ml-kem-512.c **** #include "pio.h"
  26:simpleserial-ml-kem-512.c **** #include "gpio.h"
  27:simpleserial-ml-kem-512.c **** 
  28:simpleserial-ml-kem-512.c **** /* ML-KEM-512 includes */
  29:simpleserial-ml-kem-512.c **** #include "indcpa.h"
  30:simpleserial-ml-kem-512.c **** #include "kem.h"
  31:simpleserial-ml-kem-512.c **** #include "params.h"
  32:simpleserial-ml-kem-512.c **** #include "randombytes.h"
  33:simpleserial-ml-kem-512.c **** #include "symmetric.h"
  34:simpleserial-ml-kem-512.c **** #include "verify.h"
  35:simpleserial-ml-kem-512.c **** #include <stddef.h>
  36:simpleserial-ml-kem-512.c **** #include <stdint.h>
  37:simpleserial-ml-kem-512.c **** #include <string.h>
  38:simpleserial-ml-kem-512.c **** 
  39:simpleserial-ml-kem-512.c **** //uint8_t pk[PQCLEAN_MLKEM512_CLEAN_CRYPTO_PUBLICKEYBYTES];
  40:simpleserial-ml-kem-512.c **** //uint8_t sk[PQCLEAN_MLKEM512_CLEAN_CRYPTO_SECRETKEYBYTES];
  41:simpleserial-ml-kem-512.c **** //uint8_t ct[PQCLEAN_MLKEM512_CLEAN_CRYPTO_CIPHERTEXTBYTES];
  42:simpleserial-ml-kem-512.c **** //uint8_t ss[PQCLEAN_MLKEM512_CLEAN_CRYPTO_BYTES];
  43:simpleserial-ml-kem-512.c **** 
  44:simpleserial-ml-kem-512.c **** uint8_t pk[800] = {
  45:simpleserial-ml-kem-512.c **** 0x48, 0x81, 0x58, 0x85, 0xb5, 0x66, 0x2d, 0xd4, 0x5d, 0x77, 0x7c, 0x1c, 0xc3, 0x35, 0x2d, 0x8c, 
  46:simpleserial-ml-kem-512.c **** 0xfa, 0x8f, 0x63, 0x46, 0x02, 0xbc, 0x78, 0x52, 0x46, 0x62, 0xc2, 0x3c, 0x5a, 0x3b, 0x84, 0xa4, 
  47:simpleserial-ml-kem-512.c **** 0x27, 0x4a, 0x49, 0x0e, 0x03, 0x49, 0x86, 0x36, 0x85, 0xaf, 0x9b, 0x56, 0x6b, 0xad, 0x31, 0xa8, 
  48:simpleserial-ml-kem-512.c **** 0x78, 0xb7, 0xc2, 0x6d, 0x6c, 0x8f, 0x3f, 0xa5, 0xae, 0xf7, 0x44, 0xb1, 0xab, 0xf9, 0x58, 0x14, 
  49:simpleserial-ml-kem-512.c **** 0xbb, 0xb1, 0x3f, 0xca, 0x42, 0x95, 0xe9, 0x0b, 0xed, 0xa5, 0x8b, 0x05, 0x87, 0x95, 0x64, 0x35, 
  50:simpleserial-ml-kem-512.c **** 0x39, 0xf0, 0x43, 0x32, 0xdc, 0x61, 0x4a, 0x6f, 0x57, 0xc2, 0x6f, 0x75, 0xa1, 0x6d, 0x40, 0x73, 
  51:simpleserial-ml-kem-512.c **** 0xb5, 0x62, 0x2b, 0x40, 0xc1, 0x4b, 0xa9, 0xfb, 0x8a, 0xfe, 0xec, 0x38, 0xcd, 0x14, 0x19, 0xd6, 
  52:simpleserial-ml-kem-512.c **** 0x35, 0x6a, 0x72, 0x3a, 0xbb, 0x1a, 0x91, 0x36, 0xb7, 0x88, 0xac, 0x2b, 0x28, 0x52, 0xc0, 0xac, 
  53:simpleserial-ml-kem-512.c **** 0x28, 0x71, 0xd9, 0x60, 0x6c, 0x3a, 0x1d, 0x88, 0x40, 0xca, 0x7c, 0x3a, 0x10, 0x6a, 0x37, 0x57, 
  54:simpleserial-ml-kem-512.c **** 0xfa, 0x4b, 0x29, 0x73, 0xb9, 0x3a, 0xfe, 0xf6, 0x94, 0x8d, 0x83, 0x69, 0x60, 0x26, 0x36, 0x96, 
  55:simpleserial-ml-kem-512.c **** 0xd8, 0x17, 0x08, 0xd0, 0x01, 0x5e, 0xaa, 0x8f, 0x92, 0xe3, 0x69, 0x39, 0x96, 0xb6, 0x43, 0x61, 
  56:simpleserial-ml-kem-512.c **** 0xbc, 0x8c, 0x65, 0x59, 0xa6, 0x26, 0x22, 0x58, 0x85, 0x5e, 0x69, 0x32, 0x7e, 0xdb, 0x1a, 0xa0, 
  57:simpleserial-ml-kem-512.c **** 0x24, 0x70, 0xab, 0x6b, 0xba, 0x79, 0x08, 0xc9, 0xa8, 0xbc, 0x46, 0x55, 0x3b, 0x58, 0x2c, 0x18, 
  58:simpleserial-ml-kem-512.c **** 0x50, 0x0c, 0x20, 0x70, 0xa7, 0x58, 0xf2, 0x7b, 0x62, 0x78, 0xa7, 0xf0, 0x43, 0x91, 0x24, 0x51, 
  59:simpleserial-ml-kem-512.c **** 0x18, 0x46, 0x78, 0x2b, 0x7c, 0xf2, 0x69, 0x76, 0x03, 0x4a, 0x97, 0x49, 0x2b, 0x47, 0x93, 0x00, 
  60:simpleserial-ml-kem-512.c **** 0x87, 0x28, 0x19, 0x57, 0xc0, 0x2e, 0xbf, 0x91, 0x94, 0x28, 0x19, 0x85, 0x8a, 0xf0, 0x3b, 0x3c, 
  61:simpleserial-ml-kem-512.c **** 0x86, 0x87, 0x7e, 0x60, 0x1d, 0x37, 0xd0, 0x19, 0xd3, 0x77, 0x5c, 0x3c, 0x99, 0x31, 0x0c, 0x59, 
  62:simpleserial-ml-kem-512.c **** 0x0a, 0xbc, 0x22, 0xc2, 0x0d, 0x66, 0x4e, 0x87, 0x39, 0x3a, 0x76, 0x29, 0xcd, 0x18, 0x9a, 0x51, 
  63:simpleserial-ml-kem-512.c **** 0xfa, 0xac, 0xbd, 0x2a, 0x64, 0x86, 0x39, 0x7c, 0xae, 0x2b, 0x12, 0x99, 0xf2, 0x62, 0x3f, 0xae, 
  64:simpleserial-ml-kem-512.c **** 0x81, 0x7d, 0x56, 0xaa, 0xbc, 0xd0, 0xc1, 0x44, 0xdf, 0x83, 0xa6, 0x35, 0x61, 0x11, 0xe0, 0x12, 
  65:simpleserial-ml-kem-512.c **** 0x9b, 0x3b, 0xe6, 0x14, 0x8a, 0x45, 0x0d, 0x21, 0x30, 0xb0, 0x6e, 0x4b, 0x3b, 0x00, 0xc6, 0x9d, 
  66:simpleserial-ml-kem-512.c **** 0xe5, 0xfb, 0xa5, 0xed, 0xe8, 0x25, 0x6f, 0xdc, 0x7e, 0x9d, 0xe6, 0x29, 0xe0, 0x5a, 0x63, 0x20, 
  67:simpleserial-ml-kem-512.c **** 0xc8, 0x46, 0x29, 0xe9, 0x3b, 0xfe, 0x22, 0xb1, 0x43, 0x8b, 0x83, 0x7f, 0xdb, 0x4d, 0x0c, 0xb6, 
  68:simpleserial-ml-kem-512.c **** 0x7e, 0xbc, 0xc8, 0x14, 0x43, 0xf1, 0x2c, 0x17, 0x61, 0x4f, 0xfa, 0xe6, 0xa9, 0xd1, 0xba, 0xba, 
  69:simpleserial-ml-kem-512.c **** 0xdd, 0xa8, 0x86, 0x79, 0xbb, 0x49, 0xb5, 0x3a, 0x9e, 0xc0, 0xb6, 0x3c, 0x2c, 0x49, 0x9b, 0xf5, 
  70:simpleserial-ml-kem-512.c **** 0x28, 0x8c, 0x6c, 0x06, 0x7a, 0x5c, 0xa8, 0x52, 0xc5, 0x15, 0xbb, 0x82, 0x66, 0xb9, 0x71, 0xd0, 
  71:simpleserial-ml-kem-512.c **** 0x7f, 0xbb, 0x1a, 0x91, 0x7f, 0xc6, 0x6a, 0x8c, 0x38, 0xa0, 0xf1, 0x57, 0x8d, 0x01, 0xa5, 0x51, 
  72:simpleserial-ml-kem-512.c **** 0xe1, 0xca, 0x6b, 0x1b, 0x92, 0x78, 0xb1, 0x37, 0x93, 0xb8, 0x92, 0xc0, 0x02, 0xbc, 0x99, 0x5f, 
  73:simpleserial-ml-kem-512.c **** 0x81, 0xb5, 0xd2, 0xe3, 0xc0, 0x3b, 0xb6, 0x6e, 0xd1, 0x09, 0x19, 0x22, 0xc3, 0x88, 0x12, 0xfa, 
  74:simpleserial-ml-kem-512.c **** 0xa1, 0xf7, 0xc8, 0x7f, 0xa5, 0x32, 0x1b, 0xc7, 0x63, 0x79, 0x65, 0xb8, 0xbb, 0xbe, 0x16, 0x17, 
  75:simpleserial-ml-kem-512.c **** 0x06, 0x51, 0xc0, 0x65, 0xcb, 0xac, 0xb2, 0x40, 0x18, 0xb2, 0x5a, 0xc9, 0x36, 0x0b, 0x98, 0xa7, 
  76:simpleserial-ml-kem-512.c **** 0x17, 0x5a, 0xbd, 0xc0, 0x22, 0x1f, 0x07, 0x0d, 0xd8, 0x38, 0x3a, 0x15, 0x00, 0x74, 0x70, 0x3c, 
  77:simpleserial-ml-kem-512.c **** 0x2b, 0x87, 0xd3, 0x97, 0xf4, 0xc3, 0x37, 0xfe, 0x59, 0x51, 0xb5, 0x15, 0xb7, 0xf2, 0xca, 0x78, 
  78:simpleserial-ml-kem-512.c **** 0x3d, 0x1a, 0x97, 0x5b, 0x8b, 0x2a, 0xb7, 0x5a, 0x3c, 0xf1, 0x79, 0x5e, 0xc4, 0x24, 0x9d, 0x3b, 
  79:simpleserial-ml-kem-512.c **** 0x70, 0x53, 0x95, 0xe0, 0x90, 0xc7, 0xaa, 0xa5, 0xb2, 0x27, 0x4a, 0x4d, 0xe8, 0x33, 0x15, 0xc3, 
  80:simpleserial-ml-kem-512.c **** 0x9f, 0x5a, 0xd5, 0xa9, 0x9d, 0xb1, 0x51, 0xcb, 0xd9, 0x8a, 0x55, 0x08, 0xa6, 0xf7, 0x46, 0x75, 
  81:simpleserial-ml-kem-512.c **** 0x63, 0x2c, 0x8f, 0xda, 0x87, 0x61, 0x65, 0x88, 0x0b, 0x88, 0xa7, 0xaa, 0x30, 0x96, 0x45, 0xbd, 
  82:simpleserial-ml-kem-512.c **** 0x44, 0x6a, 0xe0, 0xa9, 0x97, 0x7d, 0xc1, 0x25, 0xda, 0xb9, 0x72, 0xd9, 0x9a, 0x3e, 0x0a, 0xd1, 
  83:simpleserial-ml-kem-512.c **** 0x1c, 0x33, 0x24, 0x6e, 0x56, 0xc0, 0x9b, 0xe3, 0xc5, 0xad, 0x11, 0x64, 0x17, 0x8f, 0x16, 0x1b, 
  84:simpleserial-ml-kem-512.c **** 0x88, 0xb7, 0x6e, 0xf5, 0x68, 0x0d, 0xd6, 0xe5, 0x4c, 0xf7, 0x78, 0x1f, 0x2a, 0x24, 0x43, 0x66, 
  85:simpleserial-ml-kem-512.c **** 0xb4, 0x13, 0xfb, 0x5b, 0x7a, 0x88, 0x86, 0x1f, 0xa6, 0x35, 0x89, 0x4a, 0x93, 0xa9, 0x31, 0xbb, 
  86:simpleserial-ml-kem-512.c **** 0x79, 0x2a, 0xb8, 0x51, 0x6b, 0x5c, 0x5a, 0xdc, 0x99, 0x3a, 0x46, 0x36, 0x21, 0x5f, 0xc8, 0x61, 
  87:simpleserial-ml-kem-512.c **** 0x67, 0x6b, 0x44, 0xca, 0x37, 0x2c, 0xc1, 0x52, 0x4c, 0xb9, 0x87, 0x72, 0x7f, 0xa6, 0x25, 0xe4, 
  88:simpleserial-ml-kem-512.c **** 0x61, 0x7d, 0x8a, 0x43, 0x02, 0x6d, 0x40, 0xc7, 0xd5, 0xf2, 0x8e, 0xa3, 0x25, 0x05, 0x58, 0x08, 
  89:simpleserial-ml-kem-512.c **** 0x45, 0xfe, 0x9a, 0xc7, 0x14, 0x44, 0xb7, 0xc4, 0x4c, 0x29, 0x91, 0x66, 0x00, 0x69, 0xf0, 0xc4, 
  90:simpleserial-ml-kem-512.c **** 0x66, 0x27, 0xb5, 0xa9, 0xd6, 0x0c, 0xe3, 0xb6, 0x3a, 0x24, 0x5a, 0xa5, 0xb9, 0xf3, 0x30, 0x76, 
  91:simpleserial-ml-kem-512.c **** 0x9c, 0x49, 0x79, 0x67, 0x5e, 0xd1, 0x48, 0x00, 0xdd, 0xd4, 0x4e, 0x69, 0xd0, 0x40, 0xb1, 0xd2, 
  92:simpleserial-ml-kem-512.c **** 0x99, 0xd4, 0x89, 0x72, 0x35, 0x02, 0x0a, 0xee, 0xf2, 0xaa, 0xef, 0x01, 0x24, 0xed, 0x3c, 0x1c, 
  93:simpleserial-ml-kem-512.c **** 0x15, 0x3f, 0xe6, 0xc6, 0x42, 0x6d, 0xb9, 0x48, 0xd4, 0x2c, 0xf5, 0xcc, 0xed, 0x5c, 0xf5, 0x48, 
  94:simpleserial-ml-kem-512.c **** 0xa4, 0x01, 0x60, 0xf1, 0x87, 0x8a, 0x9b, 0x0f, 0x80, 0x19, 0xc3, 0xae, 0x91, 0x2a, 0xd5, 0x4a
  95:simpleserial-ml-kem-512.c **** };
  96:simpleserial-ml-kem-512.c **** 
  97:simpleserial-ml-kem-512.c **** uint8_t sk[1632] = {
  98:simpleserial-ml-kem-512.c **** 0x78, 0xd3, 0x8c, 0x15, 0xd4, 0xca, 0x32, 0xa3, 0x53, 0xa7, 0xdc, 0xb5, 0x10, 0x98, 0x2b, 0x9c, 
  99:simpleserial-ml-kem-512.c **** 0x55, 0x62, 0x8a, 0x5c, 0x7d, 0xd1, 0x8a, 0x11, 0x23, 0xe4, 0x73, 0x3e, 0x22, 0x3a, 0xb6, 0xb5, 
 100:simpleserial-ml-kem-512.c **** 0x7b, 0x77, 0xa7, 0x89, 0x60, 0x4b, 0x42, 0x4f, 0xc9, 0x88, 0xf3, 0xc6, 0x20, 0x89, 0xd1, 0x72, 
 101:simpleserial-ml-kem-512.c **** 0x38, 0xac, 0x9b, 0x0e, 0xb8, 0xaf, 0x2b, 0xd2, 0x81, 0xf3, 0xdc, 0x72, 0x77, 0x82, 0xc3, 0xfd, 
 102:simpleserial-ml-kem-512.c **** 0x45, 0x87, 0x02, 0x86, 0x09, 0x37, 0x01, 0x62, 0xcd, 0xcb, 0x23, 0x29, 0x84, 0x5b, 0x13, 0x0a, 
 103:simpleserial-ml-kem-512.c **** 0x59, 0x15, 0xc0, 0x59, 0x6b, 0x59, 0xa5, 0x87, 0x67, 0x2a, 0xd1, 0xa2, 0xbd, 0x08, 0x5a, 0x94, 
 104:simpleserial-ml-kem-512.c **** 0x82, 0x23, 0x3e, 0xd1, 0xe1, 0x4d, 0x54, 0x92, 0x58, 0x3a, 0x05, 0x46, 0x82, 0x36, 0xba, 0x30, 
 105:simpleserial-ml-kem-512.c **** 0x08, 0x6d, 0xcb, 0x31, 0x1e, 0x6d, 0xf8, 0xad, 0x92, 0xf3, 0x68, 0xc6, 0x86, 0x0a, 0xc1, 0xc8, 
 106:simpleserial-ml-kem-512.c **** 0x19, 0xf6, 0x09, 0x05, 0x63, 0x4b, 0x6b, 0xe3, 0x22, 0x18, 0xa2, 0xf1, 0x1a, 0x47, 0x57, 0x29, 
 107:simpleserial-ml-kem-512.c **** 0x13, 0x27, 0x34, 0x17, 0x84, 0x44, 0x68, 0x69, 0x98, 0x87, 0x57, 0xc1, 0x34, 0x55, 0x47, 0x3a, 
 108:simpleserial-ml-kem-512.c **** 0x28, 0x84, 0xb2, 0x75, 0x21, 0x16, 0x82, 0xc6, 0xbc, 0xf9, 0x22, 0xcb, 0xd8, 0x17, 0x32, 0xb1, 
 109:simpleserial-ml-kem-512.c **** 0xc7, 0x19, 0x79, 0xc3, 0x9d, 0x59, 0x7c, 0xa7, 0x12, 0x34, 0x70, 0x60, 0xa2, 0x40, 0x69, 0xa6, 
 110:simpleserial-ml-kem-512.c **** 0xfd, 0xf7, 0xc9, 0x5d, 0x10, 0x09, 0x32, 0xc8, 0xad, 0x52, 0x3a, 0x32, 0xfa, 0x7b, 0x6a, 0x36, 
 111:simpleserial-ml-kem-512.c **** 0x19, 0x90, 0xcb, 0x67, 0x38, 0x42, 0xb0, 0x14, 0x2b, 0xc2, 0x9a, 0xd1, 0x0b, 0x84, 0x69, 0x57, 
 112:simpleserial-ml-kem-512.c **** 0x38, 0x8e, 0x59, 0xb1, 0xda, 0x5c, 0xbf, 0xb3, 0x5c, 0xcd, 0x06, 0x17, 0x88, 0x80, 0x60, 0x70, 
 113:simpleserial-ml-kem-512.c **** 0x8a, 0x75, 0x97, 0xae, 0x04, 0x2c, 0x2f, 0xaa, 0xb4, 0xa1, 0x80, 0x9a, 0x52, 0x2c, 0x52, 0xa8, 
 114:simpleserial-ml-kem-512.c **** 0xf1, 0x52, 0x43, 0x23, 0x96, 0x9c, 0x10, 0x77, 0x2e, 0x84, 0x79, 0xbc, 0x66, 0xb8, 0xef, 0xb0, 
 115:simpleserial-ml-kem-512.c **** 0x26, 0xd8, 0xd9, 0x58, 0x1d, 0x13, 0x0f, 0x0a, 0x68, 0x1a, 0xd2, 0xb2, 0x90, 0x54, 0xf5, 0x66, 
 116:simpleserial-ml-kem-512.c **** 0x59, 0xf2, 0xb3, 0x38, 0xb5, 0xae, 0x5a, 0x19, 0x33, 0x39, 0xd6, 0x4f, 0x93, 0xb2, 0xcf, 0xef, 
 117:simpleserial-ml-kem-512.c **** 0xc6, 0x09, 0x08, 0x65, 0xbb, 0x73, 0x53, 0xa8, 0x08, 0x20, 0x27, 0xb6, 0x43, 0xb8, 0x7a, 0xb2, 
 118:simpleserial-ml-kem-512.c **** 0x2a, 0x80, 0x20, 0x94, 0x15, 0x4a, 0xc1, 0xca, 0xe3, 0x70, 0x14, 0x45, 0xb3, 0xc5, 0x12, 0x0c, 
 119:simpleserial-ml-kem-512.c **** 0x11, 0xf6, 0x25, 0x3d, 0x62, 0x93, 0x64, 0x4a, 0x55, 0x12, 0x96, 0x07, 0xc4, 0x30, 0x23, 0x09, 
 120:simpleserial-ml-kem-512.c **** 0x04, 0x75, 0xc9, 0xeb, 0x78, 0x55, 0x71, 0xce, 0x09, 0xe4, 0x13, 0x2c, 0x08, 0xa2, 0x6b, 0xe4, 
 121:simpleserial-ml-kem-512.c **** 0xc0, 0x54, 0xa8, 0x80, 0x44, 0x23, 0xa3, 0x0b, 0xfb, 0xc0, 0xce, 0x58, 0x96, 0xac, 0x90, 0x25, 
 122:simpleserial-ml-kem-512.c **** 0xde, 0xd4, 0x8e, 0x87, 0x1b, 0x23, 0x5e, 0xa5, 0x49, 0x2a, 0xf3, 0x71, 0x08, 0x58, 0x6d, 0xcd, 
 123:simpleserial-ml-kem-512.c **** 0xf3, 0x88, 0x62, 0x19, 0x89, 0x69, 0x68, 0x37, 0xb9, 0xb5, 0x85, 0x77, 0xa1, 0xba, 0xe1, 0x07, 
 124:simpleserial-ml-kem-512.c **** 0x97, 0x33, 0xa0, 0x9f, 0x1c, 0x29, 0x79, 0xe4, 0x99, 0x45, 0x45, 0x26, 0x8b, 0xf5, 0x42, 0x7b, 
 125:simpleserial-ml-kem-512.c **** 0x4f, 0xcb, 0xb3, 0xe6, 0x93, 0x04, 0x5d, 0x32, 0x42, 0x5b, 0x69, 0x88, 0x0e, 0x65, 0x00, 0xd4, 
 126:simpleserial-ml-kem-512.c **** 0x66, 0x72, 0xbe, 0xa8, 0xce, 0x7e, 0x36, 0x62, 0x7c, 0x68, 0x0d, 0x6e, 0xc5, 0x3a, 0x70, 0xe0, 
 127:simpleserial-ml-kem-512.c **** 0x94, 0xf3, 0x74, 0x3d, 0x13, 0x6b, 0xc6, 0x73, 0x44, 0xa4, 0x06, 0x62, 0x51, 0x11, 0x3b, 0x6e, 
 128:simpleserial-ml-kem-512.c **** 0x37, 0x95, 0x87, 0x68, 0x27, 0xbe, 0xcb, 0x14, 0x5f, 0x53, 0xec, 0x54, 0xdb, 0xfc, 0x75, 0x6f, 
 129:simpleserial-ml-kem-512.c **** 0x9a, 0x07, 0x06, 0xd0, 0x3c, 0xa8, 0x03, 0x8d, 0x44, 0x71, 0xa1, 0x7b, 0x89, 0x34, 0xf9, 0x20, 
 130:simpleserial-ml-kem-512.c **** 0xad, 0x9f, 0xc7, 0x75, 0xc9, 0xac, 0x9d, 0x7e, 0x88, 0x8c, 0x79, 0xeb, 0x24, 0xa0, 0x77, 0x1b, 
 131:simpleserial-ml-kem-512.c **** 0x1e, 0xeb, 0xb8, 0xf6, 0x06, 0x58, 0xd7, 0x37, 0xb5, 0x19, 0xec, 0x36, 0xa9, 0x15, 0xc0, 0xa2, 
 132:simpleserial-ml-kem-512.c **** 0xa7, 0x75, 0x22, 0xf1, 0x0c, 0x04, 0x92, 0x43, 0x9c, 0x77, 0x4d, 0x16, 0x28, 0xcc, 0x16, 0x60, 
 133:simpleserial-ml-kem-512.c **** 0xaf, 0x4d, 0x1c, 0x1d, 0xb6, 0xb7, 0x21, 0x95, 0x10, 0x37, 0x00, 0x10, 0x3a, 0xc0, 0xf5, 0xca, 
 134:simpleserial-ml-kem-512.c **** 0x24, 0x61, 0xc4, 0x79, 0xda, 0x2f, 0xf0, 0x18, 0x51, 0x1f, 0xb5, 0x7c, 0x70, 0x15, 0x25, 0xc5, 
 135:simpleserial-ml-kem-512.c **** 0x0a, 0xb5, 0xe1, 0x99, 0x15, 0xaa, 0x77, 0x22, 0x8c, 0x92, 0x45, 0xe1, 0x39, 0xad, 0x21, 0xc7, 
 136:simpleserial-ml-kem-512.c **** 0xb8, 0xfb, 0x73, 0x35, 0xe2, 0x78, 0x9f, 0xed, 0x32, 0x66, 0x2f, 0x21, 0x51, 0x5d, 0xe1, 0x47, 
 137:simpleserial-ml-kem-512.c **** 0x10, 0x50, 0x1d, 0xbf, 0x99, 0x1d, 0xe1, 0x44, 0x17, 0xfe, 0xd3, 0x2f, 0x96, 0x1c, 0x5d, 0x6d, 
 138:simpleserial-ml-kem-512.c **** 0xb7, 0x77, 0x0e, 0x67, 0x6b, 0xae, 0xb6, 0x7b, 0x48, 0x5c, 0x9a, 0x4d, 0x35, 0xa1, 0x4a, 0x0a, 
 139:simpleserial-ml-kem-512.c **** 0xc8, 0x76, 0x91, 0x2e, 0x7d, 0x24, 0xc3, 0x22, 0x47, 0xc0, 0xab, 0x70, 0x4e, 0xc3, 0xab, 0x46, 
 140:simpleserial-ml-kem-512.c **** 0x8f, 0xc1, 0x0b, 0xb9, 0x63, 0x68, 0x5d, 0x26, 0x86, 0x2b, 0x0b, 0x65, 0xb5, 0xf8, 0xab, 0x51, 
 141:simpleserial-ml-kem-512.c **** 0x84, 0x1a, 0xf4, 0x74, 0x8e, 0x19, 0x37, 0x12, 0xf2, 0xcb, 0x82, 0xe4, 0x76, 0x67, 0x34, 0x66, 
 142:simpleserial-ml-kem-512.c **** 0xb3, 0x5e, 0x56, 0x26, 0x9c, 0xc9, 0x3c, 0x5f, 0x3a, 0x85, 0x63, 0x34, 0x3a, 0x8a, 0x9a, 0x9b, 
 143:simpleserial-ml-kem-512.c **** 0xa1, 0x7a, 0xc6, 0x86, 0x08, 0x60, 0xdf, 0x09, 0x16, 0xda, 0x6b, 0xae, 0x83, 0x52, 0x58, 0x7c, 
 144:simpleserial-ml-kem-512.c **** 0x92, 0x56, 0xaa, 0x77, 0xc8, 0x6e, 0x9a, 0xbb, 0xed, 0x37, 0x65, 0xbb, 0x79, 0x3d, 0xff, 0x17, 
 145:simpleserial-ml-kem-512.c **** 0x78, 0x4e, 0x25, 0xbc, 0x78, 0x6b, 0x35, 0xa0, 0x37, 0x98, 0x23, 0x09, 0x24, 0xc8, 0x24, 0x7a, 
 146:simpleserial-ml-kem-512.c **** 0x48, 0x81, 0x58, 0x85, 0xb5, 0x66, 0x2d, 0xd4, 0x5d, 0x77, 0x7c, 0x1c, 0xc3, 0x35, 0x2d, 0x8c, 
 147:simpleserial-ml-kem-512.c **** 0xfa, 0x8f, 0x63, 0x46, 0x02, 0xbc, 0x78, 0x52, 0x46, 0x62, 0xc2, 0x3c, 0x5a, 0x3b, 0x84, 0xa4, 
 148:simpleserial-ml-kem-512.c **** 0x27, 0x4a, 0x49, 0x0e, 0x03, 0x49, 0x86, 0x36, 0x85, 0xaf, 0x9b, 0x56, 0x6b, 0xad, 0x31, 0xa8, 
 149:simpleserial-ml-kem-512.c **** 0x78, 0xb7, 0xc2, 0x6d, 0x6c, 0x8f, 0x3f, 0xa5, 0xae, 0xf7, 0x44, 0xb1, 0xab, 0xf9, 0x58, 0x14, 
 150:simpleserial-ml-kem-512.c **** 0xbb, 0xb1, 0x3f, 0xca, 0x42, 0x95, 0xe9, 0x0b, 0xed, 0xa5, 0x8b, 0x05, 0x87, 0x95, 0x64, 0x35, 
 151:simpleserial-ml-kem-512.c **** 0x39, 0xf0, 0x43, 0x32, 0xdc, 0x61, 0x4a, 0x6f, 0x57, 0xc2, 0x6f, 0x75, 0xa1, 0x6d, 0x40, 0x73, 
 152:simpleserial-ml-kem-512.c **** 0xb5, 0x62, 0x2b, 0x40, 0xc1, 0x4b, 0xa9, 0xfb, 0x8a, 0xfe, 0xec, 0x38, 0xcd, 0x14, 0x19, 0xd6, 
 153:simpleserial-ml-kem-512.c **** 0x35, 0x6a, 0x72, 0x3a, 0xbb, 0x1a, 0x91, 0x36, 0xb7, 0x88, 0xac, 0x2b, 0x28, 0x52, 0xc0, 0xac, 
 154:simpleserial-ml-kem-512.c **** 0x28, 0x71, 0xd9, 0x60, 0x6c, 0x3a, 0x1d, 0x88, 0x40, 0xca, 0x7c, 0x3a, 0x10, 0x6a, 0x37, 0x57, 
 155:simpleserial-ml-kem-512.c **** 0xfa, 0x4b, 0x29, 0x73, 0xb9, 0x3a, 0xfe, 0xf6, 0x94, 0x8d, 0x83, 0x69, 0x60, 0x26, 0x36, 0x96, 
 156:simpleserial-ml-kem-512.c **** 0xd8, 0x17, 0x08, 0xd0, 0x01, 0x5e, 0xaa, 0x8f, 0x92, 0xe3, 0x69, 0x39, 0x96, 0xb6, 0x43, 0x61, 
 157:simpleserial-ml-kem-512.c **** 0xbc, 0x8c, 0x65, 0x59, 0xa6, 0x26, 0x22, 0x58, 0x85, 0x5e, 0x69, 0x32, 0x7e, 0xdb, 0x1a, 0xa0, 
 158:simpleserial-ml-kem-512.c **** 0x24, 0x70, 0xab, 0x6b, 0xba, 0x79, 0x08, 0xc9, 0xa8, 0xbc, 0x46, 0x55, 0x3b, 0x58, 0x2c, 0x18, 
 159:simpleserial-ml-kem-512.c **** 0x50, 0x0c, 0x20, 0x70, 0xa7, 0x58, 0xf2, 0x7b, 0x62, 0x78, 0xa7, 0xf0, 0x43, 0x91, 0x24, 0x51, 
 160:simpleserial-ml-kem-512.c **** 0x18, 0x46, 0x78, 0x2b, 0x7c, 0xf2, 0x69, 0x76, 0x03, 0x4a, 0x97, 0x49, 0x2b, 0x47, 0x93, 0x00, 
 161:simpleserial-ml-kem-512.c **** 0x87, 0x28, 0x19, 0x57, 0xc0, 0x2e, 0xbf, 0x91, 0x94, 0x28, 0x19, 0x85, 0x8a, 0xf0, 0x3b, 0x3c, 
 162:simpleserial-ml-kem-512.c **** 0x86, 0x87, 0x7e, 0x60, 0x1d, 0x37, 0xd0, 0x19, 0xd3, 0x77, 0x5c, 0x3c, 0x99, 0x31, 0x0c, 0x59, 
 163:simpleserial-ml-kem-512.c **** 0x0a, 0xbc, 0x22, 0xc2, 0x0d, 0x66, 0x4e, 0x87, 0x39, 0x3a, 0x76, 0x29, 0xcd, 0x18, 0x9a, 0x51, 
 164:simpleserial-ml-kem-512.c **** 0xfa, 0xac, 0xbd, 0x2a, 0x64, 0x86, 0x39, 0x7c, 0xae, 0x2b, 0x12, 0x99, 0xf2, 0x62, 0x3f, 0xae, 
 165:simpleserial-ml-kem-512.c **** 0x81, 0x7d, 0x56, 0xaa, 0xbc, 0xd0, 0xc1, 0x44, 0xdf, 0x83, 0xa6, 0x35, 0x61, 0x11, 0xe0, 0x12, 
 166:simpleserial-ml-kem-512.c **** 0x9b, 0x3b, 0xe6, 0x14, 0x8a, 0x45, 0x0d, 0x21, 0x30, 0xb0, 0x6e, 0x4b, 0x3b, 0x00, 0xc6, 0x9d, 
 167:simpleserial-ml-kem-512.c **** 0xe5, 0xfb, 0xa5, 0xed, 0xe8, 0x25, 0x6f, 0xdc, 0x7e, 0x9d, 0xe6, 0x29, 0xe0, 0x5a, 0x63, 0x20, 
 168:simpleserial-ml-kem-512.c **** 0xc8, 0x46, 0x29, 0xe9, 0x3b, 0xfe, 0x22, 0xb1, 0x43, 0x8b, 0x83, 0x7f, 0xdb, 0x4d, 0x0c, 0xb6, 
 169:simpleserial-ml-kem-512.c **** 0x7e, 0xbc, 0xc8, 0x14, 0x43, 0xf1, 0x2c, 0x17, 0x61, 0x4f, 0xfa, 0xe6, 0xa9, 0xd1, 0xba, 0xba, 
 170:simpleserial-ml-kem-512.c **** 0xdd, 0xa8, 0x86, 0x79, 0xbb, 0x49, 0xb5, 0x3a, 0x9e, 0xc0, 0xb6, 0x3c, 0x2c, 0x49, 0x9b, 0xf5, 
 171:simpleserial-ml-kem-512.c **** 0x28, 0x8c, 0x6c, 0x06, 0x7a, 0x5c, 0xa8, 0x52, 0xc5, 0x15, 0xbb, 0x82, 0x66, 0xb9, 0x71, 0xd0, 
 172:simpleserial-ml-kem-512.c **** 0x7f, 0xbb, 0x1a, 0x91, 0x7f, 0xc6, 0x6a, 0x8c, 0x38, 0xa0, 0xf1, 0x57, 0x8d, 0x01, 0xa5, 0x51, 
 173:simpleserial-ml-kem-512.c **** 0xe1, 0xca, 0x6b, 0x1b, 0x92, 0x78, 0xb1, 0x37, 0x93, 0xb8, 0x92, 0xc0, 0x02, 0xbc, 0x99, 0x5f, 
 174:simpleserial-ml-kem-512.c **** 0x81, 0xb5, 0xd2, 0xe3, 0xc0, 0x3b, 0xb6, 0x6e, 0xd1, 0x09, 0x19, 0x22, 0xc3, 0x88, 0x12, 0xfa, 
 175:simpleserial-ml-kem-512.c **** 0xa1, 0xf7, 0xc8, 0x7f, 0xa5, 0x32, 0x1b, 0xc7, 0x63, 0x79, 0x65, 0xb8, 0xbb, 0xbe, 0x16, 0x17, 
 176:simpleserial-ml-kem-512.c **** 0x06, 0x51, 0xc0, 0x65, 0xcb, 0xac, 0xb2, 0x40, 0x18, 0xb2, 0x5a, 0xc9, 0x36, 0x0b, 0x98, 0xa7, 
 177:simpleserial-ml-kem-512.c **** 0x17, 0x5a, 0xbd, 0xc0, 0x22, 0x1f, 0x07, 0x0d, 0xd8, 0x38, 0x3a, 0x15, 0x00, 0x74, 0x70, 0x3c, 
 178:simpleserial-ml-kem-512.c **** 0x2b, 0x87, 0xd3, 0x97, 0xf4, 0xc3, 0x37, 0xfe, 0x59, 0x51, 0xb5, 0x15, 0xb7, 0xf2, 0xca, 0x78, 
 179:simpleserial-ml-kem-512.c **** 0x3d, 0x1a, 0x97, 0x5b, 0x8b, 0x2a, 0xb7, 0x5a, 0x3c, 0xf1, 0x79, 0x5e, 0xc4, 0x24, 0x9d, 0x3b, 
 180:simpleserial-ml-kem-512.c **** 0x70, 0x53, 0x95, 0xe0, 0x90, 0xc7, 0xaa, 0xa5, 0xb2, 0x27, 0x4a, 0x4d, 0xe8, 0x33, 0x15, 0xc3, 
 181:simpleserial-ml-kem-512.c **** 0x9f, 0x5a, 0xd5, 0xa9, 0x9d, 0xb1, 0x51, 0xcb, 0xd9, 0x8a, 0x55, 0x08, 0xa6, 0xf7, 0x46, 0x75, 
 182:simpleserial-ml-kem-512.c **** 0x63, 0x2c, 0x8f, 0xda, 0x87, 0x61, 0x65, 0x88, 0x0b, 0x88, 0xa7, 0xaa, 0x30, 0x96, 0x45, 0xbd, 
 183:simpleserial-ml-kem-512.c **** 0x44, 0x6a, 0xe0, 0xa9, 0x97, 0x7d, 0xc1, 0x25, 0xda, 0xb9, 0x72, 0xd9, 0x9a, 0x3e, 0x0a, 0xd1, 
 184:simpleserial-ml-kem-512.c **** 0x1c, 0x33, 0x24, 0x6e, 0x56, 0xc0, 0x9b, 0xe3, 0xc5, 0xad, 0x11, 0x64, 0x17, 0x8f, 0x16, 0x1b, 
 185:simpleserial-ml-kem-512.c **** 0x88, 0xb7, 0x6e, 0xf5, 0x68, 0x0d, 0xd6, 0xe5, 0x4c, 0xf7, 0x78, 0x1f, 0x2a, 0x24, 0x43, 0x66, 
 186:simpleserial-ml-kem-512.c **** 0xb4, 0x13, 0xfb, 0x5b, 0x7a, 0x88, 0x86, 0x1f, 0xa6, 0x35, 0x89, 0x4a, 0x93, 0xa9, 0x31, 0xbb, 
 187:simpleserial-ml-kem-512.c **** 0x79, 0x2a, 0xb8, 0x51, 0x6b, 0x5c, 0x5a, 0xdc, 0x99, 0x3a, 0x46, 0x36, 0x21, 0x5f, 0xc8, 0x61, 
 188:simpleserial-ml-kem-512.c **** 0x67, 0x6b, 0x44, 0xca, 0x37, 0x2c, 0xc1, 0x52, 0x4c, 0xb9, 0x87, 0x72, 0x7f, 0xa6, 0x25, 0xe4, 
 189:simpleserial-ml-kem-512.c **** 0x61, 0x7d, 0x8a, 0x43, 0x02, 0x6d, 0x40, 0xc7, 0xd5, 0xf2, 0x8e, 0xa3, 0x25, 0x05, 0x58, 0x08, 
 190:simpleserial-ml-kem-512.c **** 0x45, 0xfe, 0x9a, 0xc7, 0x14, 0x44, 0xb7, 0xc4, 0x4c, 0x29, 0x91, 0x66, 0x00, 0x69, 0xf0, 0xc4, 
 191:simpleserial-ml-kem-512.c **** 0x66, 0x27, 0xb5, 0xa9, 0xd6, 0x0c, 0xe3, 0xb6, 0x3a, 0x24, 0x5a, 0xa5, 0xb9, 0xf3, 0x30, 0x76, 
 192:simpleserial-ml-kem-512.c **** 0x9c, 0x49, 0x79, 0x67, 0x5e, 0xd1, 0x48, 0x00, 0xdd, 0xd4, 0x4e, 0x69, 0xd0, 0x40, 0xb1, 0xd2, 
 193:simpleserial-ml-kem-512.c **** 0x99, 0xd4, 0x89, 0x72, 0x35, 0x02, 0x0a, 0xee, 0xf2, 0xaa, 0xef, 0x01, 0x24, 0xed, 0x3c, 0x1c, 
 194:simpleserial-ml-kem-512.c **** 0x15, 0x3f, 0xe6, 0xc6, 0x42, 0x6d, 0xb9, 0x48, 0xd4, 0x2c, 0xf5, 0xcc, 0xed, 0x5c, 0xf5, 0x48, 
 195:simpleserial-ml-kem-512.c **** 0xa4, 0x01, 0x60, 0xf1, 0x87, 0x8a, 0x9b, 0x0f, 0x80, 0x19, 0xc3, 0xae, 0x91, 0x2a, 0xd5, 0x4a, 
 196:simpleserial-ml-kem-512.c **** 0x73, 0x3d, 0x6f, 0xb4, 0xd9, 0x2d, 0x2c, 0x89, 0x6d, 0x3f, 0x1d, 0x16, 0x89, 0x00, 0xe5, 0x35, 
 197:simpleserial-ml-kem-512.c **** 0x29, 0x9f, 0x8e, 0xf4, 0xd8, 0x30, 0x53, 0x99, 0xe2, 0x9f, 0x0f, 0x35, 0xf6, 0x57, 0x1b, 0x08, 
 198:simpleserial-ml-kem-512.c **** 0x0f, 0x32, 0xa1, 0xdd, 0x56, 0x97, 0x91, 0x71, 0xab, 0xcf, 0x86, 0x30, 0x2b, 0x6c, 0x9a, 0x41, 
 199:simpleserial-ml-kem-512.c **** 0x80, 0xde, 0x4e, 0x8a, 0xec, 0xe9, 0x8d, 0x92, 0x60, 0x49, 0xd1, 0xe9, 0xf5, 0x92, 0x92, 0xfd
 200:simpleserial-ml-kem-512.c **** };
 201:simpleserial-ml-kem-512.c **** 
 202:simpleserial-ml-kem-512.c **** uint8_t ct[768] = {
 203:simpleserial-ml-kem-512.c **** 0x46, 0x3f, 0xc0, 0x99, 0x19, 0x47, 0x9c, 0xd6, 0x68, 0xdf, 0x97, 0x01, 0xc7, 0x65, 0x69, 0xbc, 
 204:simpleserial-ml-kem-512.c **** 0xaa, 0xc4, 0x3b, 0x7c, 0xa5, 0x41, 0xaa, 0xa0, 0x72, 0xb1, 0x02, 0x35, 0x9a, 0x1e, 0x13, 0xc5, 
 205:simpleserial-ml-kem-512.c **** 0x64, 0x03, 0xa3, 0x9c, 0xcb, 0x50, 0xbc, 0xd5, 0xab, 0x7f, 0xf9, 0x6e, 0xae, 0x23, 0x34, 0x62, 
 206:simpleserial-ml-kem-512.c **** 0x16, 0x52, 0xb9, 0xd7, 0xc9, 0xdb, 0x34, 0x57, 0x60, 0x6b, 0x86, 0x06, 0xa9, 0x4e, 0xfd, 0xb9, 
 207:simpleserial-ml-kem-512.c **** 0xe5, 0x72, 0x65, 0x44, 0x31, 0xb6, 0xf2, 0x3a, 0xc7, 0xe4, 0xaa, 0xb9, 0x9b, 0x15, 0x78, 0x77, 
 208:simpleserial-ml-kem-512.c **** 0x1e, 0x8a, 0x30, 0xb9, 0xbb, 0xb6, 0x78, 0x71, 0xb8, 0xdf, 0xe6, 0x6b, 0xae, 0xbe, 0x30, 0x63, 
 209:simpleserial-ml-kem-512.c **** 0xf8, 0xd3, 0xcb, 0x9c, 0x6c, 0x9d, 0x5c, 0xa1, 0x28, 0x64, 0x0e, 0x0a, 0x47, 0xb2, 0x7a, 0x5e, 
 210:simpleserial-ml-kem-512.c **** 0x96, 0xa1, 0x9e, 0x6a, 0xd2, 0x06, 0xaf, 0x59, 0x42, 0xd2, 0xf2, 0xaa, 0x35, 0x20, 0x0f, 0xa2, 
 211:simpleserial-ml-kem-512.c **** 0x54, 0x18, 0xd7, 0xd2, 0x23, 0x51, 0x4b, 0xa4, 0xee, 0x3a, 0x9f, 0xd8, 0xb5, 0x7e, 0x3d, 0x16, 
 212:simpleserial-ml-kem-512.c **** 0x8e, 0x35, 0xd1, 0x91, 0x8c, 0x66, 0xb3, 0x1c, 0x44, 0x29, 0xaf, 0x05, 0x4f, 0xbd, 0x2b, 0x9d, 
 213:simpleserial-ml-kem-512.c **** 0x8d, 0x03, 0xc6, 0x09, 0x86, 0xb8, 0xc6, 0x80, 0x22, 0x33, 0xa5, 0x75, 0xf5, 0xa5, 0x16, 0xcf, 
 214:simpleserial-ml-kem-512.c **** 0xda, 0x0a, 0xbe, 0xe0, 0xce, 0x89, 0x6c, 0x7b, 0x9c, 0x75, 0xaf, 0xd8, 0xac, 0x07, 0x94, 0x14, 
 215:simpleserial-ml-kem-512.c **** 0x5e, 0x17, 0x14, 0x05, 0x0c, 0xf7, 0x37, 0x95, 0xc4, 0xc4, 0x52, 0x9d, 0x34, 0xe2, 0x3a, 0xe2, 
 216:simpleserial-ml-kem-512.c **** 0x6b, 0xc0, 0x1d, 0xee, 0x8b, 0xde, 0x60, 0xa5, 0xc4, 0x38, 0x1c, 0xea, 0x82, 0xcf, 0xb9, 0x59, 
 217:simpleserial-ml-kem-512.c **** 0x97, 0xba, 0x8a, 0xe0, 0x39, 0x47, 0xb5, 0xe7, 0x28, 0x8e, 0x58, 0x73, 0x77, 0xc4, 0x54, 0x23, 
 218:simpleserial-ml-kem-512.c **** 0x34, 0xba, 0xf3, 0xf2, 0xca, 0xe5, 0x50, 0x1b, 0x86, 0x16, 0x15, 0x3b, 0x01, 0x05, 0x3f, 0xe2, 
 219:simpleserial-ml-kem-512.c **** 0xc5, 0x3f, 0xe9, 0x1a, 0xbe, 0xdc, 0xf1, 0xd8, 0x45, 0x54, 0x17, 0xe9, 0x6e, 0xcb, 0xf9, 0xf9, 
 220:simpleserial-ml-kem-512.c **** 0x6f, 0x63, 0x36, 0xd7, 0x9f, 0x24, 0x54, 0x77, 0xbf, 0xe8, 0x62, 0xb4, 0x1b, 0xee, 0xa7, 0xd0, 
 221:simpleserial-ml-kem-512.c **** 0x5c, 0x2f, 0x84, 0xe4, 0x2b, 0xc0, 0xe5, 0x90, 0xd1, 0x57, 0xc0, 0x80, 0xaf, 0x17, 0xf6, 0x77, 
 222:simpleserial-ml-kem-512.c **** 0x0f, 0x28, 0xcc, 0x1d, 0xd3, 0xcf, 0x70, 0x34, 0xa1, 0xfb, 0xe7, 0xa3, 0x92, 0x84, 0x4a, 0x89, 
 223:simpleserial-ml-kem-512.c **** 0x7d, 0x8e, 0xb7, 0x2e, 0x60, 0x21, 0xfa, 0x3c, 0xa4, 0xb0, 0xad, 0xbc, 0x6a, 0x46, 0xb4, 0xa3, 
 224:simpleserial-ml-kem-512.c **** 0x17, 0x14, 0x3b, 0xac, 0x57, 0x7e, 0xad, 0x29, 0x3c, 0xbc, 0x9e, 0x10, 0xd3, 0xc9, 0xd9, 0x84, 
 225:simpleserial-ml-kem-512.c **** 0x9b, 0xe4, 0x50, 0xbf, 0xb5, 0x1b, 0x4d, 0x97, 0x7b, 0x91, 0xb0, 0x68, 0x51, 0xcd, 0x4b, 0x7e, 
 226:simpleserial-ml-kem-512.c **** 0xc0, 0x4c, 0x76, 0x76, 0xb7, 0xd1, 0xe4, 0x0d, 0x3a, 0xce, 0xbf, 0xe8, 0x55, 0x76, 0x58, 0xf6, 
 227:simpleserial-ml-kem-512.c **** 0xdd, 0x77, 0x83, 0x33, 0xe2, 0xe1, 0xf0, 0xce, 0x40, 0xdd, 0x95, 0x1f, 0x82, 0x71, 0x74, 0xfb, 
 228:simpleserial-ml-kem-512.c **** 0xe9, 0xf0, 0x53, 0x3c, 0xa7, 0x32, 0x60, 0xce, 0x81, 0x9f, 0x16, 0x8f, 0xb1, 0x31, 0x62, 0x6d, 
 229:simpleserial-ml-kem-512.c **** 0x90, 0x18, 0xc5, 0x73, 0x56, 0x54, 0x84, 0xfa, 0x45, 0x27, 0x88, 0x9b, 0x8c, 0x68, 0xab, 0x58, 
 230:simpleserial-ml-kem-512.c **** 0x75, 0x6c, 0x30, 0xa5, 0x2b, 0x40, 0x81, 0x66, 0xb1, 0x08, 0xee, 0x0e, 0x17, 0x14, 0x23, 0xa2, 
 231:simpleserial-ml-kem-512.c **** 0x2a, 0xd8, 0xaa, 0x59, 0xa8, 0xfa, 0xd1, 0x99, 0x24, 0x24, 0xb7, 0x97, 0x70, 0x23, 0xc2, 0xea, 
 232:simpleserial-ml-kem-512.c **** 0xc8, 0xda, 0x38, 0xb9, 0xcb, 0x82, 0xd5, 0xb8, 0x74, 0xa9, 0xeb, 0xaa, 0xaf, 0x02, 0x19, 0x48, 
 233:simpleserial-ml-kem-512.c **** 0xc4, 0xc5, 0xdb, 0x57, 0x4c, 0xc0, 0xf5, 0x3c, 0xbc, 0xfd, 0x45, 0xd4, 0x0b, 0x8a, 0xf8, 0x8a, 
 234:simpleserial-ml-kem-512.c **** 0x2e, 0x83, 0x1e, 0x54, 0x7f, 0x63, 0x67, 0xf7, 0xec, 0x50, 0x77, 0x42, 0x9e, 0x83, 0x8f, 0x98, 
 235:simpleserial-ml-kem-512.c **** 0xaf, 0x1f, 0x8c, 0xa2, 0xc9, 0x0a, 0x21, 0x06, 0x01, 0x26, 0x5a, 0xed, 0xec, 0x7e, 0x19, 0x91, 
 236:simpleserial-ml-kem-512.c **** 0xc7, 0x2c, 0x37, 0x7b, 0xf1, 0xb2, 0x57, 0xb3, 0xff, 0xd5, 0xbc, 0x86, 0x39, 0xeb, 0xca, 0x4e, 
 237:simpleserial-ml-kem-512.c **** 0xce, 0x52, 0xc3, 0x4e, 0x06, 0x9c, 0x9e, 0xdb, 0x7d, 0xd9, 0x8f, 0x44, 0xce, 0xe4, 0x6c, 0xda, 
 238:simpleserial-ml-kem-512.c **** 0xa0, 0x70, 0x2a, 0x2f, 0x94, 0x90, 0xb0, 0xf5, 0x61, 0xa5, 0x7c, 0x1c, 0xff, 0xfa, 0x50, 0xb9, 
 239:simpleserial-ml-kem-512.c **** 0x75, 0xd5, 0x26, 0xf2, 0x91, 0x80, 0x82, 0xd6, 0xa6, 0xdf, 0xe3, 0x09, 0x40, 0x71, 0xfe, 0xe4, 
 240:simpleserial-ml-kem-512.c **** 0xff, 0xcc, 0xb7, 0x6c, 0x15, 0x0d, 0x5e, 0x55, 0xf6, 0x5a, 0x87, 0xd9, 0x6d, 0xce, 0xeb, 0x06, 
 241:simpleserial-ml-kem-512.c **** 0xd3, 0xe8, 0xf5, 0xca, 0x16, 0xfe, 0x96, 0x86, 0x45, 0xee, 0x6e, 0xfd, 0xd3, 0x4a, 0x50, 0x53, 
 242:simpleserial-ml-kem-512.c **** 0x74, 0xfd, 0x13, 0xc9, 0xd6, 0x0f, 0xf7, 0xd5, 0x72, 0xc7, 0xcc, 0x4c, 0x53, 0x7c, 0xc2, 0x53, 
 243:simpleserial-ml-kem-512.c **** 0xba, 0xa1, 0x77, 0xf3, 0xfb, 0x62, 0x19, 0xac, 0x27, 0x31, 0x8b, 0x14, 0x5e, 0xa1, 0x7d, 0x81, 
 244:simpleserial-ml-kem-512.c **** 0xe5, 0x05, 0x0b, 0x4c, 0x56, 0xdf, 0x01, 0xd3, 0x4e, 0xbf, 0xb8, 0xde, 0x46, 0x63, 0x99, 0x45, 
 245:simpleserial-ml-kem-512.c **** 0xbd, 0x5d, 0xe8, 0xeb, 0x07, 0xa9, 0x7b, 0x3f, 0x95, 0xa7, 0x21, 0x82, 0x93, 0xb8, 0xf9, 0x93, 
 246:simpleserial-ml-kem-512.c **** 0x1f, 0x15, 0x66, 0x81, 0x0e, 0x73, 0xd0, 0xab, 0xea, 0x8b, 0xed, 0x3b, 0xc8, 0x5a, 0xf6, 0x35, 
 247:simpleserial-ml-kem-512.c **** 0x16, 0x34, 0x6e, 0x18, 0x94, 0xb3, 0x3c, 0x4b, 0x76, 0x77, 0x64, 0x16, 0x6a, 0x5d, 0x5e, 0xd9, 
 248:simpleserial-ml-kem-512.c **** 0x37, 0x82, 0x2e, 0x31, 0x4e, 0xfa, 0x91, 0x92, 0x4c, 0xe7, 0x29, 0x07, 0x4f, 0xa5, 0x38, 0x71, 
 249:simpleserial-ml-kem-512.c **** 0x25, 0x7e, 0x61, 0x5c, 0x2b, 0xbb, 0x37, 0x14, 0xeb, 0x91, 0xdd, 0x1f, 0xc8, 0x96, 0xb5, 0x6d, 
 250:simpleserial-ml-kem-512.c **** 0xe6, 0x46, 0x45, 0xa3, 0x67, 0x8c, 0x1e, 0x7a, 0xaf, 0xe3, 0x39, 0x18, 0x91, 0x31, 0x08, 0xef
 251:simpleserial-ml-kem-512.c **** };
 252:simpleserial-ml-kem-512.c **** 
 253:simpleserial-ml-kem-512.c **** uint8_t ss[32] = {
 254:simpleserial-ml-kem-512.c **** 0x17, 0xe1, 0x59, 0x71, 0x05, 0x4c, 0xd3, 0xac, 0x2b, 0x41, 0x6e, 0xf4, 0x18, 0xd7, 0x74, 0xed, 
 255:simpleserial-ml-kem-512.c **** 0xe0, 0x46, 0x25, 0xd8, 0x05, 0x10, 0x2e, 0x24, 0x6b, 0xed, 0x45, 0x46, 0x80, 0x07, 0x53, 0x0e
 256:simpleserial-ml-kem-512.c **** };
 257:simpleserial-ml-kem-512.c **** 
 258:simpleserial-ml-kem-512.c **** uint8_t ss2[32] = {
 259:simpleserial-ml-kem-512.c **** 0xfb, 0x73, 0x85, 0xbf, 0x22, 0x39, 0xcb, 0x99, 0x56, 0x5b, 0x3d, 0xd8, 0xfa, 0xeb, 0xe3, 0x3c, 
 260:simpleserial-ml-kem-512.c **** 0x6f, 0xee, 0xc2, 0x65, 0x46, 0x4b, 0xd8, 0xc9, 0x34, 0xa0, 0x2e, 0x7f, 0xfb, 0xae, 0xa3, 0xf0
 261:simpleserial-ml-kem-512.c **** 
 262:simpleserial-ml-kem-512.c **** };
 263:simpleserial-ml-kem-512.c **** 
 264:simpleserial-ml-kem-512.c **** static uint8_t ss_result[KYBER_SSBYTES];
 265:simpleserial-ml-kem-512.c **** 
 266:simpleserial-ml-kem-512.c **** #if SS_VER == SS_VER_2_1
 267:simpleserial-ml-kem-512.c **** #define MLKEM_SS_V21_CMD         0x01
 268:simpleserial-ml-kem-512.c **** #define MLKEM_SS_V21_CHUNK_SK    204u
 269:simpleserial-ml-kem-512.c **** #define MLKEM_SS_V21_CHUNK_PK    200u
 270:simpleserial-ml-kem-512.c **** #define MLKEM_SS_V21_CHUNK_CT    192u
 271:simpleserial-ml-kem-512.c **** #define MLKEM_SS_V21_SK_CHUNKS   8u
 272:simpleserial-ml-kem-512.c **** #define MLKEM_SS_V21_PK_CHUNKS   4u
 273:simpleserial-ml-kem-512.c **** #define MLKEM_SS_V21_CT_CHUNKS   4u
 274:simpleserial-ml-kem-512.c **** #define MLKEM_SS_V21_SK_MASK     ((1u << MLKEM_SS_V21_SK_CHUNKS) - 1u)
 275:simpleserial-ml-kem-512.c **** #define MLKEM_SS_V21_PK_MASK     ((1u << MLKEM_SS_V21_PK_CHUNKS) - 1u)
 276:simpleserial-ml-kem-512.c **** #define MLKEM_SS_V21_CT_MASK     ((1u << MLKEM_SS_V21_CT_CHUNKS) - 1u)
 277:simpleserial-ml-kem-512.c **** 
 278:simpleserial-ml-kem-512.c **** enum {
 279:simpleserial-ml-kem-512.c ****     MLKEM_SS_V21_SCMD_SK_BASE = 0x00,
 280:simpleserial-ml-kem-512.c ****     MLKEM_SS_V21_SCMD_PK_BASE = 0x10,
 281:simpleserial-ml-kem-512.c ****     MLKEM_SS_V21_SCMD_CT_BASE = 0x20,
 282:simpleserial-ml-kem-512.c ****     MLKEM_SS_V21_SCMD_SS = 0x30,
 283:simpleserial-ml-kem-512.c ****     MLKEM_SS_V21_SCMD_DECAP = 0x40
 284:simpleserial-ml-kem-512.c **** };
 285:simpleserial-ml-kem-512.c **** 
 286:simpleserial-ml-kem-512.c **** static uint8_t sk_chunks_loaded = 0;
 287:simpleserial-ml-kem-512.c **** static uint8_t pk_chunks_loaded = 0;
 288:simpleserial-ml-kem-512.c **** static uint8_t ct_chunks_loaded = 0;
 289:simpleserial-ml-kem-512.c **** static uint8_t ss_loaded = 0;
 290:simpleserial-ml-kem-512.c **** #endif
 291:simpleserial-ml-kem-512.c **** 
 292:simpleserial-ml-kem-512.c **** /*Led functions*/
 293:simpleserial-ml-kem-512.c **** /* LED Control Functions for CW313/SAM4S (CWHUSKY)
 294:simpleserial-ml-kem-512.c ****    Pins: 14, 15, 16 correspond to LED3, LED2, LED1 on the board */
 295:simpleserial-ml-kem-512.c **** /* Using direct pin numbers instead of PIO_PA*_IDX to avoid header issues */
 296:simpleserial-ml-kem-512.c **** #define LED1    16  /* Pin 16 on port A */
 297:simpleserial-ml-kem-512.c **** #define LED2    15  /* Pin 15 on port A */
 298:simpleserial-ml-kem-512.c **** #define LED3    14  /* Pin 14 on port A */
 299:simpleserial-ml-kem-512.c **** 
 300:simpleserial-ml-kem-512.c **** /* LED State variables to track on/off status */
 301:simpleserial-ml-kem-512.c **** static volatile uint8_t LED1State = 0;  /* 0 = off, 1 = on */
 302:simpleserial-ml-kem-512.c **** static volatile uint8_t LED2State = 0;
 303:simpleserial-ml-kem-512.c **** static volatile uint8_t LED3State = 0;
 304:simpleserial-ml-kem-512.c **** 
 305:simpleserial-ml-kem-512.c **** /* function to delay almost a second */
 306:simpleserial-ml-kem-512.c **** static void delay_seconds(uint32_t seconds)
 307:simpleserial-ml-kem-512.c **** {
 308:simpleserial-ml-kem-512.c ****     const uint32_t loops_per_sec = 7000000u;
 309:simpleserial-ml-kem-512.c ****     for (uint32_t s = 0; s < seconds; s++) {
 310:simpleserial-ml-kem-512.c ****         for (volatile uint32_t i = 0; i < loops_per_sec; i++) {
 311:simpleserial-ml-kem-512.c ****             __asm__ volatile ("nop");
 312:simpleserial-ml-kem-512.c ****         }
 313:simpleserial-ml-kem-512.c ****     }
 314:simpleserial-ml-kem-512.c **** }
 315:simpleserial-ml-kem-512.c **** 
 316:simpleserial-ml-kem-512.c **** uint8_t led_toggle(uint8_t* m, uint8_t len){
  28              	 .loc 1 316 44 view-0
  29              	 .cfi_startproc
  30              	 
  31              	 
 317:simpleserial-ml-kem-512.c ****     int led = m[0];  // Get LED number from input byte (14=LED3, 15=LED2, 16=LED1)
  32              	 .loc 1 317 5 view .LVU1
 316:simpleserial-ml-kem-512.c ****     int led = m[0];  // Get LED number from input byte (14=LED3, 15=LED2, 16=LED1)
  33              	 .loc 1 316 44 is_stmt 0 view .LVU2
  34 0000 10B5     	 push {r4,lr}
  35              	.LCFI0:
  36              	 .cfi_def_cfa_offset 8
  37              	 .cfi_offset 4,-8
  38              	 .cfi_offset 14,-4
  39              	 .loc 1 317 16 view .LVU3
  40 0002 0478     	 ldrb r4,[r0]
  41              	.LVL1:
 318:simpleserial-ml-kem-512.c ****     uint8_t current_state = 0;
  42              	 .loc 1 318 5 is_stmt 1 view .LVU4
 319:simpleserial-ml-kem-512.c ****     
 320:simpleserial-ml-kem-512.c ****     // Get current state
 321:simpleserial-ml-kem-512.c ****     if(led == LED1) current_state = LED1State;
  43              	 .loc 1 321 5 view .LVU5
  44              	 .loc 1 321 7 is_stmt 0 view .LVU6
  45 0004 102C     	 cmp r4,#16
  46 0006 0FD1     	 bne .L2
  47              	 .loc 1 321 21 is_stmt 1 discriminator 1 view .LVU7
  48              	 .loc 1 321 35 is_stmt 0 discriminator 1 view .LVU8
  49 0008 164B     	 ldr r3,.L14
  50              	.L11:
 322:simpleserial-ml-kem-512.c ****     else if(led == LED2) current_state = LED2State;
 323:simpleserial-ml-kem-512.c ****     else if(led == LED3) current_state = LED3State;
  51              	 .loc 1 323 40 discriminator 1 view .LVU9
  52 000a 1B78     	 ldrb r3,[r3]
  53 000c DBB2     	 uxtb r3,r3
  54              	.LVL2:
 324:simpleserial-ml-kem-512.c ****     
 325:simpleserial-ml-kem-512.c ****     // Toggle: if on, turn off; if off, turn on
 326:simpleserial-ml-kem-512.c ****     if(current_state == 1){
  55              	 .loc 1 326 5 is_stmt 1 view .LVU10
  56              	 .loc 1 326 7 is_stmt 0 view .LVU11
  57 000e 012B     	 cmp r3,#1
  58 0010 17D1     	 bne .L5
 327:simpleserial-ml-kem-512.c ****         gpio_set_pin_low(led);
  59              	 .loc 1 327 9 is_stmt 1 view .LVU12
  60 0012 154B     	 ldr r3,.L14+4
  61              	.LVL3:
  62              	 .loc 1 327 9 is_stmt 0 view .LVU13
  63 0014 2046     	 mov r0,r4
  64              	.LVL4:
  65              	 .loc 1 327 9 view .LVU14
  66 0016 9847     	 blx r3
  67              	.LVL5:
 328:simpleserial-ml-kem-512.c ****         if(led == LED1) LED1State = 0;
  68              	 .loc 1 328 9 is_stmt 1 view .LVU15
  69              	 .loc 1 328 11 is_stmt 0 view .LVU16
  70 0018 102C     	 cmp r4,#16
  71 001a 4FF00003 	 mov r3,#0
  72 001e 0BD1     	 bne .L6
  73              	 .loc 1 328 25 is_stmt 1 discriminator 1 view .LVU17
  74              	 .loc 1 328 35 is_stmt 0 discriminator 1 view .LVU18
  75 0020 104A     	 ldr r2,.L14
  76              	.L12:
 329:simpleserial-ml-kem-512.c ****         else if(led == LED2) LED2State = 0;
 330:simpleserial-ml-kem-512.c ****         else if(led == LED3) LED3State = 0;
  77              	 .loc 1 330 40 discriminator 1 view .LVU19
  78 0022 1370     	 strb r3,[r2]
  79              	.LVL6:
  80              	.L7:
 331:simpleserial-ml-kem-512.c ****     } else {
 332:simpleserial-ml-kem-512.c ****         gpio_set_pin_high(led);
 333:simpleserial-ml-kem-512.c ****         if(led == LED1) LED1State = 1;
 334:simpleserial-ml-kem-512.c ****         else if(led == LED2) LED2State = 1;
 335:simpleserial-ml-kem-512.c ****         else if(led == LED3) LED3State = 1;
 336:simpleserial-ml-kem-512.c ****     }
 337:simpleserial-ml-kem-512.c ****     
 338:simpleserial-ml-kem-512.c ****     return 0;
  81              	 .loc 1 338 5 is_stmt 1 view .LVU20
 339:simpleserial-ml-kem-512.c **** }
  82              	 .loc 1 339 1 is_stmt 0 view .LVU21
  83 0024 0020     	 movs r0,#0
  84 0026 10BD     	 pop {r4,pc}
  85              	.LVL7:
  86              	.L2:
 322:simpleserial-ml-kem-512.c ****     else if(led == LED3) current_state = LED3State;
  87              	 .loc 1 322 10 is_stmt 1 view .LVU22
 322:simpleserial-ml-kem-512.c ****     else if(led == LED3) current_state = LED3State;
  88              	 .loc 1 322 12 is_stmt 0 view .LVU23
  89 0028 0F2C     	 cmp r4,#15
  90 002a 01D1     	 bne .L4
 322:simpleserial-ml-kem-512.c ****     else if(led == LED3) current_state = LED3State;
  91              	 .loc 1 322 26 is_stmt 1 discriminator 1 view .LVU24
 322:simpleserial-ml-kem-512.c ****     else if(led == LED3) current_state = LED3State;
  92              	 .loc 1 322 40 is_stmt 0 discriminator 1 view .LVU25
  93 002c 0F4B     	 ldr r3,.L14+8
  94 002e ECE7     	 b .L11
  95              	.L4:
 323:simpleserial-ml-kem-512.c ****     
  96              	 .loc 1 323 10 is_stmt 1 view .LVU26
 323:simpleserial-ml-kem-512.c ****     
  97              	 .loc 1 323 12 is_stmt 0 view .LVU27
  98 0030 0E2C     	 cmp r4,#14
  99 0032 06D1     	 bne .L5
 323:simpleserial-ml-kem-512.c ****     
 100              	 .loc 1 323 26 is_stmt 1 discriminator 1 view .LVU28
 323:simpleserial-ml-kem-512.c ****     
 101              	 .loc 1 323 40 is_stmt 0 discriminator 1 view .LVU29
 102 0034 0E4B     	 ldr r3,.L14+12
 103 0036 E8E7     	 b .L11
 104              	.LVL8:
 105              	.L6:
 329:simpleserial-ml-kem-512.c ****         else if(led == LED3) LED3State = 0;
 106              	 .loc 1 329 14 is_stmt 1 view .LVU30
 329:simpleserial-ml-kem-512.c ****         else if(led == LED3) LED3State = 0;
 107              	 .loc 1 329 16 is_stmt 0 view .LVU31
 108 0038 0F2C     	 cmp r4,#15
 329:simpleserial-ml-kem-512.c ****         else if(led == LED3) LED3State = 0;
 109              	 .loc 1 329 30 is_stmt 1 discriminator 1 view .LVU32
 329:simpleserial-ml-kem-512.c ****         else if(led == LED3) LED3State = 0;
 110              	 .loc 1 329 40 is_stmt 0 discriminator 1 view .LVU33
 111 003a 0CBF     	 ite eq
 112 003c 0B4A     	 ldreq r2,.L14+8
 330:simpleserial-ml-kem-512.c ****     } else {
 113              	 .loc 1 330 14 is_stmt 1 view .LVU34
 330:simpleserial-ml-kem-512.c ****     } else {
 114              	 .loc 1 330 30 discriminator 1 view .LVU35
 330:simpleserial-ml-kem-512.c ****     } else {
 115              	 .loc 1 330 40 is_stmt 0 discriminator 1 view .LVU36
 116 003e 0C4A     	 ldrne r2,.L14+12
 117 0040 EFE7     	 b .L12
 118              	.LVL9:
 119              	.L5:
 332:simpleserial-ml-kem-512.c ****         if(led == LED1) LED1State = 1;
 120              	 .loc 1 332 9 is_stmt 1 view .LVU37
 121 0042 0C4B     	 ldr r3,.L14+16
 122 0044 2046     	 mov r0,r4
 123              	.LVL10:
 332:simpleserial-ml-kem-512.c ****         if(led == LED1) LED1State = 1;
 124              	 .loc 1 332 9 is_stmt 0 view .LVU38
 125 0046 9847     	 blx r3
 126              	.LVL11:
 333:simpleserial-ml-kem-512.c ****         else if(led == LED2) LED2State = 1;
 127              	 .loc 1 333 9 is_stmt 1 view .LVU39
 333:simpleserial-ml-kem-512.c ****         else if(led == LED2) LED2State = 1;
 128              	 .loc 1 333 11 is_stmt 0 view .LVU40
 129 0048 102C     	 cmp r4,#16
 130 004a 03D1     	 bne .L9
 333:simpleserial-ml-kem-512.c ****         else if(led == LED2) LED2State = 1;
 131              	 .loc 1 333 25 is_stmt 1 discriminator 1 view .LVU41
 333:simpleserial-ml-kem-512.c ****         else if(led == LED2) LED2State = 1;
 132              	 .loc 1 333 35 is_stmt 0 discriminator 1 view .LVU42
 133 004c 054B     	 ldr r3,.L14
 134              	.L13:
 335:simpleserial-ml-kem-512.c ****     }
 135              	 .loc 1 335 40 discriminator 1 view .LVU43
 136 004e 0122     	 movs r2,#1
 137 0050 1A70     	 strb r2,[r3]
 138 0052 E7E7     	 b .L7
 139              	.L9:
 334:simpleserial-ml-kem-512.c ****         else if(led == LED3) LED3State = 1;
 140              	 .loc 1 334 14 is_stmt 1 view .LVU44
 334:simpleserial-ml-kem-512.c ****         else if(led == LED3) LED3State = 1;
 141              	 .loc 1 334 16 is_stmt 0 view .LVU45
 142 0054 0F2C     	 cmp r4,#15
 143 0056 01D1     	 bne .L10
 334:simpleserial-ml-kem-512.c ****         else if(led == LED3) LED3State = 1;
 144              	 .loc 1 334 30 is_stmt 1 discriminator 1 view .LVU46
 334:simpleserial-ml-kem-512.c ****         else if(led == LED3) LED3State = 1;
 145              	 .loc 1 334 40 is_stmt 0 discriminator 1 view .LVU47
 146 0058 044B     	 ldr r3,.L14+8
 147 005a F8E7     	 b .L13
 148              	.L10:
 335:simpleserial-ml-kem-512.c ****     }
 149              	 .loc 1 335 14 is_stmt 1 view .LVU48
 335:simpleserial-ml-kem-512.c ****     }
 150              	 .loc 1 335 16 is_stmt 0 view .LVU49
 151 005c 0E2C     	 cmp r4,#14
 152 005e E1D1     	 bne .L7
 335:simpleserial-ml-kem-512.c ****     }
 153              	 .loc 1 335 30 is_stmt 1 discriminator 1 view .LVU50
 335:simpleserial-ml-kem-512.c ****     }
 154              	 .loc 1 335 40 is_stmt 0 discriminator 1 view .LVU51
 155 0060 034B     	 ldr r3,.L14+12
 156 0062 F4E7     	 b .L13
 157              	.L15:
 158              	 .align 2
 159              	.L14:
 160 0064 00000000 	 .word LED1State
 161 0068 00000000 	 .word pio_set_pin_low
 162 006c 00000000 	 .word LED2State
 163 0070 00000000 	 .word LED3State
 164 0074 00000000 	 .word pio_set_pin_high
 165              	 .cfi_endproc
 166              	.LFE137:
 168              	 .section .text.led_toggle_v21,"ax",%progbits
 169              	 .align 1
 170              	 .syntax unified
 171              	 .thumb
 172              	 .thumb_func
 174              	led_toggle_v21:
 175              	.LVL12:
 176              	.LFB148:
 340:simpleserial-ml-kem-512.c **** 
 341:simpleserial-ml-kem-512.c **** // Serial command callbacks for LED control
 342:simpleserial-ml-kem-512.c **** uint8_t led_on_cmd(uint8_t* m, uint8_t len){
 343:simpleserial-ml-kem-512.c ****     int led = m[0];  // Get LED number from input byte
 344:simpleserial-ml-kem-512.c ****     gpio_set_pin_high(led);
 345:simpleserial-ml-kem-512.c ****     if(led == LED1) LED1State = 1;
 346:simpleserial-ml-kem-512.c ****     else if(led == LED2) LED2State = 1;
 347:simpleserial-ml-kem-512.c ****     else if(led == LED3) LED3State = 1;
 348:simpleserial-ml-kem-512.c ****     return 0;
 349:simpleserial-ml-kem-512.c **** }
 350:simpleserial-ml-kem-512.c **** 
 351:simpleserial-ml-kem-512.c **** uint8_t led_off_cmd(uint8_t* m, uint8_t len){
 352:simpleserial-ml-kem-512.c ****     int led = m[0];  // Get LED number from input byte
 353:simpleserial-ml-kem-512.c ****     gpio_set_pin_low(led);
 354:simpleserial-ml-kem-512.c ****     if(led == LED1) LED1State = 0;
 355:simpleserial-ml-kem-512.c ****     else if(led == LED2) LED2State = 0;
 356:simpleserial-ml-kem-512.c ****     else if(led == LED3) LED3State = 0;
 357:simpleserial-ml-kem-512.c ****     return 0;
 358:simpleserial-ml-kem-512.c **** }
 359:simpleserial-ml-kem-512.c **** 
 360:simpleserial-ml-kem-512.c **** // Helper functions for direct LED control in code (not via serial)
 361:simpleserial-ml-kem-512.c **** void led_on(int led) {
 362:simpleserial-ml-kem-512.c ****     gpio_set_pin_high(led);
 363:simpleserial-ml-kem-512.c ****     if(led == LED1) LED1State = 1;
 364:simpleserial-ml-kem-512.c ****     else if(led == LED2) LED2State = 1;
 365:simpleserial-ml-kem-512.c ****     else if(led == LED3) LED3State = 1;
 366:simpleserial-ml-kem-512.c **** }
 367:simpleserial-ml-kem-512.c **** 
 368:simpleserial-ml-kem-512.c **** void led_off(int led) {
 369:simpleserial-ml-kem-512.c ****     gpio_set_pin_low(led);
 370:simpleserial-ml-kem-512.c ****     if(led == LED1) LED1State = 0;
 371:simpleserial-ml-kem-512.c ****     else if(led == LED2) LED2State = 0;
 372:simpleserial-ml-kem-512.c ****     else if(led == LED3) LED3State = 0;
 373:simpleserial-ml-kem-512.c **** }
 374:simpleserial-ml-kem-512.c **** 
 375:simpleserial-ml-kem-512.c **** // Get LED state - returns 1 if LED is on, 0 if off
 376:simpleserial-ml-kem-512.c **** uint8_t get_led_state(int led) {
 377:simpleserial-ml-kem-512.c ****     if(led == LED1) return LED1State;
 378:simpleserial-ml-kem-512.c ****     else if(led == LED2) return LED2State;
 379:simpleserial-ml-kem-512.c ****     else if(led == LED3) return LED3State;
 380:simpleserial-ml-kem-512.c ****     return 0;
 381:simpleserial-ml-kem-512.c **** }
 382:simpleserial-ml-kem-512.c **** /*Led functions done*/
 383:simpleserial-ml-kem-512.c **** 
 384:simpleserial-ml-kem-512.c **** /* ML-KEM-512 Decapsulation: Complete with indcpa_dec, hash_g, verify, cmov */
 385:simpleserial-ml-kem-512.c **** uint8_t ml_kem_512_decap(uint8_t* k, uint8_t len)
 386:simpleserial-ml-kem-512.c **** {
 387:simpleserial-ml-kem-512.c ****     uint8_t buf[2 * KYBER_SYMBYTES];
 388:simpleserial-ml-kem-512.c ****     uint8_t kr[2 * KYBER_SYMBYTES];
 389:simpleserial-ml-kem-512.c ****     uint8_t cmp[KYBER_CIPHERTEXTBYTES + KYBER_SYMBYTES];
 390:simpleserial-ml-kem-512.c ****     uint8_t decrypted_buf[KYBER_SYMBYTES];
 391:simpleserial-ml-kem-512.c ****     int fail;  /* Global fail variable for cmov comparison */
 392:simpleserial-ml-kem-512.c ****     const uint8_t *pk = sk + KYBER_INDCPA_SECRETKEYBYTES;
 393:simpleserial-ml-kem-512.c ****     
 394:simpleserial-ml-kem-512.c ****     led_off(LED3);  /* Ensure LED3 is off at the start of decapsulation */
 395:simpleserial-ml-kem-512.c ****     led_on(LED1);  /* Step 1: indcpa_dec starting */
 396:simpleserial-ml-kem-512.c ****     
 397:simpleserial-ml-kem-512.c ****     
 398:simpleserial-ml-kem-512.c ****     /* Decrypt ciphertext using secret key */
 399:simpleserial-ml-kem-512.c ****     PQCLEAN_MLKEM512_CLEAN_indcpa_dec(decrypted_buf, ct, sk);
 400:simpleserial-ml-kem-512.c ****     
 401:simpleserial-ml-kem-512.c ****     /* Prepare buffer for hash_g (decrypted_msg || secret_seed) */
 402:simpleserial-ml-kem-512.c ****     memcpy(buf, decrypted_buf, KYBER_SYMBYTES);
 403:simpleserial-ml-kem-512.c ****     memcpy(buf + KYBER_SYMBYTES, sk + KYBER_SECRETKEYBYTES - 2 * KYBER_SYMBYTES, KYBER_SYMBYTES);
 404:simpleserial-ml-kem-512.c ****     
 405:simpleserial-ml-kem-512.c ****     /* Compute hash_g(kr, buf, 2 * KYBER_SYMBYTES) */
 406:simpleserial-ml-kem-512.c ****     hash_g(kr, buf, 2 * KYBER_SYMBYTES);
 407:simpleserial-ml-kem-512.c ****     
 408:simpleserial-ml-kem-512.c ****     led_off(LED1);
 409:simpleserial-ml-kem-512.c ****     led_on(LED2);  /* Step 2: hash_g done, coins extraction */
 410:simpleserial-ml-kem-512.c ****     
 411:simpleserial-ml-kem-512.c ****     /* coins are in kr+KYBER_SYMBYTES */
 412:simpleserial-ml-kem-512.c ****     //PQCLEAN_MLKEM512_CLEAN_indcpa_enc(cmp, decrypted_buf, pk, kr + KYBER_SYMBYTES);
 413:simpleserial-ml-kem-512.c ****     
 414:simpleserial-ml-kem-512.c ****     /* Verify: compare input ct with re-encrypted cmp */
 415:simpleserial-ml-kem-512.c ****     fail = PQCLEAN_MLKEM512_CLEAN_verify(ct, ct, KYBER_CIPHERTEXTBYTES);
 416:simpleserial-ml-kem-512.c ****     
 417:simpleserial-ml-kem-512.c ****     /* Compute rejection key for invalid ciphertexts */
 418:simpleserial-ml-kem-512.c ****     rkprf(ss_result, sk + KYBER_SECRETKEYBYTES - KYBER_SYMBYTES, ct);
 419:simpleserial-ml-kem-512.c **** 
 420:simpleserial-ml-kem-512.c ****     led_off(LED2);
 421:simpleserial-ml-kem-512.c ****     
 422:simpleserial-ml-kem-512.c ****     /* CONDITIONAL MOVE: Copy true key if fail==0 (valid), else keep rejection key */
 423:simpleserial-ml-kem-512.c ****     trigger_high();
 424:simpleserial-ml-kem-512.c ****     PQCLEAN_MLKEM512_CLEAN_cmov(ss_result, kr, KYBER_SYMBYTES, (uint8_t)(1 - fail));
 425:simpleserial-ml-kem-512.c ****     trigger_low();
 426:simpleserial-ml-kem-512.c **** 
 427:simpleserial-ml-kem-512.c **** 
 428:simpleserial-ml-kem-512.c ****     led_on(LED3);  /* Step 3: verify done, computing rejection key */
 429:simpleserial-ml-kem-512.c ****     
 430:simpleserial-ml-kem-512.c ****     /* Send shared secret back */
 431:simpleserial-ml-kem-512.c ****     //simpleserial_put('r', PQCLEAN_MLKEM512_CLEAN_CRYPTO_BYTES, ss);
 432:simpleserial-ml-kem-512.c ****     
 433:simpleserial-ml-kem-512.c **** 	return 0x00;
 434:simpleserial-ml-kem-512.c **** }
 435:simpleserial-ml-kem-512.c **** 
 436:simpleserial-ml-kem-512.c **** #if SS_VER == SS_VER_2_1
 437:simpleserial-ml-kem-512.c **** static uint8_t v21_copy_chunk(uint8_t *dst, size_t dst_len, uint8_t chunk_len,
 438:simpleserial-ml-kem-512.c ****                               uint8_t chunk_index, uint8_t total_chunks,
 439:simpleserial-ml-kem-512.c ****                               uint8_t len, const uint8_t *buf)
 440:simpleserial-ml-kem-512.c **** {
 441:simpleserial-ml-kem-512.c ****     size_t offset;
 442:simpleserial-ml-kem-512.c **** 
 443:simpleserial-ml-kem-512.c ****     if ((chunk_index >= total_chunks) || (len != chunk_len)) {
 444:simpleserial-ml-kem-512.c ****         return SS_ERR_LEN;
 445:simpleserial-ml-kem-512.c ****     }
 446:simpleserial-ml-kem-512.c **** 
 447:simpleserial-ml-kem-512.c ****     offset = (size_t)chunk_index * chunk_len;
 448:simpleserial-ml-kem-512.c ****     if ((offset + chunk_len) > dst_len) {
 449:simpleserial-ml-kem-512.c ****         return SS_ERR_LEN;
 450:simpleserial-ml-kem-512.c ****     }
 451:simpleserial-ml-kem-512.c **** 
 452:simpleserial-ml-kem-512.c ****     memcpy(dst + offset, buf, chunk_len);
 453:simpleserial-ml-kem-512.c ****     return SS_ERR_OK;
 454:simpleserial-ml-kem-512.c **** }
 455:simpleserial-ml-kem-512.c **** 
 456:simpleserial-ml-kem-512.c **** static void v21_sync_pk_into_sk(void)
 457:simpleserial-ml-kem-512.c **** {
 458:simpleserial-ml-kem-512.c ****     memcpy(sk + KYBER_INDCPA_SECRETKEYBYTES, pk, KYBER_PUBLICKEYBYTES);
 459:simpleserial-ml-kem-512.c ****     hash_h(sk + KYBER_SECRETKEYBYTES - 2 * KYBER_SYMBYTES, pk, KYBER_PUBLICKEYBYTES);
 460:simpleserial-ml-kem-512.c **** }
 461:simpleserial-ml-kem-512.c **** 
 462:simpleserial-ml-kem-512.c **** static uint8_t led_on_cmd_v21(uint8_t cmd, uint8_t scmd, uint8_t len, uint8_t *buf)
 463:simpleserial-ml-kem-512.c **** {
 464:simpleserial-ml-kem-512.c ****     (void)cmd;
 465:simpleserial-ml-kem-512.c ****     (void)scmd;
 466:simpleserial-ml-kem-512.c ****     if (len != 1) {
 467:simpleserial-ml-kem-512.c ****         return SS_ERR_LEN;
 468:simpleserial-ml-kem-512.c ****     }
 469:simpleserial-ml-kem-512.c ****     return led_on_cmd(buf, len);
 470:simpleserial-ml-kem-512.c **** }
 471:simpleserial-ml-kem-512.c **** 
 472:simpleserial-ml-kem-512.c **** static uint8_t led_off_cmd_v21(uint8_t cmd, uint8_t scmd, uint8_t len, uint8_t *buf)
 473:simpleserial-ml-kem-512.c **** {
 474:simpleserial-ml-kem-512.c ****     (void)cmd;
 475:simpleserial-ml-kem-512.c ****     (void)scmd;
 476:simpleserial-ml-kem-512.c ****     if (len != 1) {
 477:simpleserial-ml-kem-512.c ****         return SS_ERR_LEN;
 478:simpleserial-ml-kem-512.c ****     }
 479:simpleserial-ml-kem-512.c ****     return led_off_cmd(buf, len);
 480:simpleserial-ml-kem-512.c **** }
 481:simpleserial-ml-kem-512.c **** 
 482:simpleserial-ml-kem-512.c **** static uint8_t led_toggle_v21(uint8_t cmd, uint8_t scmd, uint8_t len, uint8_t *buf)
 483:simpleserial-ml-kem-512.c **** {
 177              	 .loc 1 483 1 is_stmt 1 view-0
 178              	 .cfi_startproc
 179              	 
 180              	 
 484:simpleserial-ml-kem-512.c ****     (void)cmd;
 181              	 .loc 1 484 5 view .LVU53
 485:simpleserial-ml-kem-512.c ****     (void)scmd;
 182              	 .loc 1 485 5 view .LVU54
 486:simpleserial-ml-kem-512.c ****     if (len != 1) {
 183              	 .loc 1 486 5 view .LVU55
 184              	 .loc 1 486 8 is_stmt 0 view .LVU56
 185 0000 012A     	 cmp r2,#1
 483:simpleserial-ml-kem-512.c ****     (void)cmd;
 186              	 .loc 1 483 1 view .LVU57
 187 0002 08B5     	 push {r3,lr}
 188              	.LCFI1:
 189              	 .cfi_def_cfa_offset 8
 190              	 .cfi_offset 3,-8
 191              	 .cfi_offset 14,-4
 483:simpleserial-ml-kem-512.c ****     (void)cmd;
 192              	 .loc 1 483 1 view .LVU58
 193 0004 1146     	 mov r1,r2
 194              	.LVL13:
 483:simpleserial-ml-kem-512.c ****     (void)cmd;
 195              	 .loc 1 483 1 view .LVU59
 196 0006 1846     	 mov r0,r3
 197              	.LVL14:
 198              	 .loc 1 486 8 view .LVU60
 199 0008 03D1     	 bne .L18
 487:simpleserial-ml-kem-512.c ****         return SS_ERR_LEN;
 488:simpleserial-ml-kem-512.c ****     }
 489:simpleserial-ml-kem-512.c ****     return led_toggle(buf, len);
 200              	 .loc 1 489 5 is_stmt 1 view .LVU61
 201              	 .loc 1 489 12 is_stmt 0 view .LVU62
 202 000a 034B     	 ldr r3,.L19
 203              	.LVL15:
 204              	 .loc 1 489 12 view .LVU63
 205 000c 9847     	 blx r3
 206              	.LVL16:
 207              	 .loc 1 489 12 view .LVU64
 208 000e 0020     	 movs r0,#0
 209              	.L17:
 490:simpleserial-ml-kem-512.c **** }
 210              	 .loc 1 490 1 view .LVU65
 211 0010 08BD     	 pop {r3,pc}
 212              	.LVL17:
 213              	.L18:
 487:simpleserial-ml-kem-512.c ****         return SS_ERR_LEN;
 214              	 .loc 1 487 16 view .LVU66
 215 0012 0420     	 movs r0,#4
 216              	.LVL18:
 487:simpleserial-ml-kem-512.c ****         return SS_ERR_LEN;
 217              	 .loc 1 487 16 view .LVU67
 218 0014 FCE7     	 b .L17
 219              	.L20:
 220 0016 00BF     	 .align 2
 221              	.L19:
 222 0018 00000000 	 .word led_toggle
 223              	 .cfi_endproc
 224              	.LFE148:
 226              	 .section .text.led_on_cmd,"ax",%progbits
 227              	 .align 1
 228              	 .global led_on_cmd
 229              	 .syntax unified
 230              	 .thumb
 231              	 .thumb_func
 233              	led_on_cmd:
 234              	.LVL19:
 235              	.LFB138:
 342:simpleserial-ml-kem-512.c ****     int led = m[0];  // Get LED number from input byte
 236              	 .loc 1 342 44 is_stmt 1 view-0
 237              	 .cfi_startproc
 238              	 
 239              	 
 343:simpleserial-ml-kem-512.c ****     gpio_set_pin_high(led);
 240              	 .loc 1 343 5 view .LVU69
 342:simpleserial-ml-kem-512.c ****     int led = m[0];  // Get LED number from input byte
 241              	 .loc 1 342 44 is_stmt 0 view .LVU70
 242 0000 10B5     	 push {r4,lr}
 243              	.LCFI2:
 244              	 .cfi_def_cfa_offset 8
 245              	 .cfi_offset 4,-8
 246              	 .cfi_offset 14,-4
 343:simpleserial-ml-kem-512.c ****     gpio_set_pin_high(led);
 247              	 .loc 1 343 16 view .LVU71
 248 0002 0478     	 ldrb r4,[r0]
 249              	.LVL20:
 344:simpleserial-ml-kem-512.c ****     if(led == LED1) LED1State = 1;
 250              	 .loc 1 344 5 is_stmt 1 view .LVU72
 251 0004 084B     	 ldr r3,.L26
 252 0006 2046     	 mov r0,r4
 253              	.LVL21:
 344:simpleserial-ml-kem-512.c ****     if(led == LED1) LED1State = 1;
 254              	 .loc 1 344 5 is_stmt 0 view .LVU73
 255 0008 9847     	 blx r3
 256              	.LVL22:
 345:simpleserial-ml-kem-512.c ****     else if(led == LED2) LED2State = 1;
 257              	 .loc 1 345 5 is_stmt 1 view .LVU74
 345:simpleserial-ml-kem-512.c ****     else if(led == LED2) LED2State = 1;
 258              	 .loc 1 345 7 is_stmt 0 view .LVU75
 259 000a 102C     	 cmp r4,#16
 260 000c 04D1     	 bne .L22
 345:simpleserial-ml-kem-512.c ****     else if(led == LED2) LED2State = 1;
 261              	 .loc 1 345 21 is_stmt 1 discriminator 1 view .LVU76
 345:simpleserial-ml-kem-512.c ****     else if(led == LED2) LED2State = 1;
 262              	 .loc 1 345 31 is_stmt 0 discriminator 1 view .LVU77
 263 000e 074B     	 ldr r3,.L26+4
 264              	.L25:
 347:simpleserial-ml-kem-512.c ****     return 0;
 265              	 .loc 1 347 36 discriminator 1 view .LVU78
 266 0010 0122     	 movs r2,#1
 267 0012 1A70     	 strb r2,[r3]
 268              	.L23:
 348:simpleserial-ml-kem-512.c **** }
 269              	 .loc 1 348 5 is_stmt 1 view .LVU79
 349:simpleserial-ml-kem-512.c **** 
 270              	 .loc 1 349 1 is_stmt 0 view .LVU80
 271 0014 0020     	 movs r0,#0
 272 0016 10BD     	 pop {r4,pc}
 273              	.LVL23:
 274              	.L22:
 346:simpleserial-ml-kem-512.c ****     else if(led == LED3) LED3State = 1;
 275              	 .loc 1 346 10 is_stmt 1 view .LVU81
 346:simpleserial-ml-kem-512.c ****     else if(led == LED3) LED3State = 1;
 276              	 .loc 1 346 12 is_stmt 0 view .LVU82
 277 0018 0F2C     	 cmp r4,#15
 278 001a 01D1     	 bne .L24
 346:simpleserial-ml-kem-512.c ****     else if(led == LED3) LED3State = 1;
 279              	 .loc 1 346 26 is_stmt 1 discriminator 1 view .LVU83
 346:simpleserial-ml-kem-512.c ****     else if(led == LED3) LED3State = 1;
 280              	 .loc 1 346 36 is_stmt 0 discriminator 1 view .LVU84
 281 001c 044B     	 ldr r3,.L26+8
 282 001e F7E7     	 b .L25
 283              	.L24:
 347:simpleserial-ml-kem-512.c ****     return 0;
 284              	 .loc 1 347 10 is_stmt 1 view .LVU85
 347:simpleserial-ml-kem-512.c ****     return 0;
 285              	 .loc 1 347 12 is_stmt 0 view .LVU86
 286 0020 0E2C     	 cmp r4,#14
 287 0022 F7D1     	 bne .L23
 347:simpleserial-ml-kem-512.c ****     return 0;
 288              	 .loc 1 347 26 is_stmt 1 discriminator 1 view .LVU87
 347:simpleserial-ml-kem-512.c ****     return 0;
 289              	 .loc 1 347 36 is_stmt 0 discriminator 1 view .LVU88
 290 0024 034B     	 ldr r3,.L26+12
 291 0026 F3E7     	 b .L25
 292              	.L27:
 293              	 .align 2
 294              	.L26:
 295 0028 00000000 	 .word pio_set_pin_high
 296 002c 00000000 	 .word LED1State
 297 0030 00000000 	 .word LED2State
 298 0034 00000000 	 .word LED3State
 299              	 .cfi_endproc
 300              	.LFE138:
 302              	 .section .text.led_on_cmd_v21,"ax",%progbits
 303              	 .align 1
 304              	 .syntax unified
 305              	 .thumb
 306              	 .thumb_func
 308              	led_on_cmd_v21:
 309              	.LVL24:
 310              	.LFB146:
 463:simpleserial-ml-kem-512.c ****     (void)cmd;
 311              	 .loc 1 463 1 is_stmt 1 view-0
 312              	 .cfi_startproc
 313              	 
 314              	 
 464:simpleserial-ml-kem-512.c ****     (void)scmd;
 315              	 .loc 1 464 5 view .LVU90
 465:simpleserial-ml-kem-512.c ****     if (len != 1) {
 316              	 .loc 1 465 5 view .LVU91
 466:simpleserial-ml-kem-512.c ****         return SS_ERR_LEN;
 317              	 .loc 1 466 5 view .LVU92
 466:simpleserial-ml-kem-512.c ****         return SS_ERR_LEN;
 318              	 .loc 1 466 8 is_stmt 0 view .LVU93
 319 0000 012A     	 cmp r2,#1
 463:simpleserial-ml-kem-512.c ****     (void)cmd;
 320              	 .loc 1 463 1 view .LVU94
 321 0002 08B5     	 push {r3,lr}
 322              	.LCFI3:
 323              	 .cfi_def_cfa_offset 8
 324              	 .cfi_offset 3,-8
 325              	 .cfi_offset 14,-4
 463:simpleserial-ml-kem-512.c ****     (void)cmd;
 326              	 .loc 1 463 1 view .LVU95
 327 0004 1146     	 mov r1,r2
 328              	.LVL25:
 463:simpleserial-ml-kem-512.c ****     (void)cmd;
 329              	 .loc 1 463 1 view .LVU96
 330 0006 1846     	 mov r0,r3
 331              	.LVL26:
 466:simpleserial-ml-kem-512.c ****         return SS_ERR_LEN;
 332              	 .loc 1 466 8 view .LVU97
 333 0008 03D1     	 bne .L30
 469:simpleserial-ml-kem-512.c **** }
 334              	 .loc 1 469 5 is_stmt 1 view .LVU98
 469:simpleserial-ml-kem-512.c **** }
 335              	 .loc 1 469 12 is_stmt 0 view .LVU99
 336 000a 034B     	 ldr r3,.L31
 337              	.LVL27:
 469:simpleserial-ml-kem-512.c **** }
 338              	 .loc 1 469 12 view .LVU100
 339 000c 9847     	 blx r3
 340              	.LVL28:
 469:simpleserial-ml-kem-512.c **** }
 341              	 .loc 1 469 12 view .LVU101
 342 000e 0020     	 movs r0,#0
 343              	.L29:
 470:simpleserial-ml-kem-512.c **** 
 344              	 .loc 1 470 1 view .LVU102
 345 0010 08BD     	 pop {r3,pc}
 346              	.LVL29:
 347              	.L30:
 467:simpleserial-ml-kem-512.c ****     }
 348              	 .loc 1 467 16 view .LVU103
 349 0012 0420     	 movs r0,#4
 350              	.LVL30:
 467:simpleserial-ml-kem-512.c ****     }
 351              	 .loc 1 467 16 view .LVU104
 352 0014 FCE7     	 b .L29
 353              	.L32:
 354 0016 00BF     	 .align 2
 355              	.L31:
 356 0018 00000000 	 .word led_on_cmd
 357              	 .cfi_endproc
 358              	.LFE146:
 360              	 .section .text.led_off_cmd,"ax",%progbits
 361              	 .align 1
 362              	 .global led_off_cmd
 363              	 .syntax unified
 364              	 .thumb
 365              	 .thumb_func
 367              	led_off_cmd:
 368              	.LVL31:
 369              	.LFB139:
 351:simpleserial-ml-kem-512.c ****     int led = m[0];  // Get LED number from input byte
 370              	 .loc 1 351 45 is_stmt 1 view-0
 371              	 .cfi_startproc
 372              	 
 373              	 
 352:simpleserial-ml-kem-512.c ****     gpio_set_pin_low(led);
 374              	 .loc 1 352 5 view .LVU106
 351:simpleserial-ml-kem-512.c ****     int led = m[0];  // Get LED number from input byte
 375              	 .loc 1 351 45 is_stmt 0 view .LVU107
 376 0000 10B5     	 push {r4,lr}
 377              	.LCFI4:
 378              	 .cfi_def_cfa_offset 8
 379              	 .cfi_offset 4,-8
 380              	 .cfi_offset 14,-4
 352:simpleserial-ml-kem-512.c ****     gpio_set_pin_low(led);
 381              	 .loc 1 352 16 view .LVU108
 382 0002 0478     	 ldrb r4,[r0]
 383              	.LVL32:
 353:simpleserial-ml-kem-512.c ****     if(led == LED1) LED1State = 0;
 384              	 .loc 1 353 5 is_stmt 1 view .LVU109
 385 0004 084B     	 ldr r3,.L38
 386 0006 2046     	 mov r0,r4
 387              	.LVL33:
 353:simpleserial-ml-kem-512.c ****     if(led == LED1) LED1State = 0;
 388              	 .loc 1 353 5 is_stmt 0 view .LVU110
 389 0008 9847     	 blx r3
 390              	.LVL34:
 354:simpleserial-ml-kem-512.c ****     else if(led == LED2) LED2State = 0;
 391              	 .loc 1 354 5 is_stmt 1 view .LVU111
 354:simpleserial-ml-kem-512.c ****     else if(led == LED2) LED2State = 0;
 392              	 .loc 1 354 7 is_stmt 0 view .LVU112
 393 000a 102C     	 cmp r4,#16
 394 000c 04D1     	 bne .L34
 354:simpleserial-ml-kem-512.c ****     else if(led == LED2) LED2State = 0;
 395              	 .loc 1 354 21 is_stmt 1 discriminator 1 view .LVU113
 354:simpleserial-ml-kem-512.c ****     else if(led == LED2) LED2State = 0;
 396              	 .loc 1 354 31 is_stmt 0 discriminator 1 view .LVU114
 397 000e 074B     	 ldr r3,.L38+4
 398              	.L37:
 356:simpleserial-ml-kem-512.c ****     return 0;
 399              	 .loc 1 356 36 discriminator 1 view .LVU115
 400 0010 0022     	 movs r2,#0
 401 0012 1A70     	 strb r2,[r3]
 402              	.L35:
 357:simpleserial-ml-kem-512.c **** }
 403              	 .loc 1 357 5 is_stmt 1 view .LVU116
 358:simpleserial-ml-kem-512.c **** 
 404              	 .loc 1 358 1 is_stmt 0 view .LVU117
 405 0014 0020     	 movs r0,#0
 406 0016 10BD     	 pop {r4,pc}
 407              	.LVL35:
 408              	.L34:
 355:simpleserial-ml-kem-512.c ****     else if(led == LED3) LED3State = 0;
 409              	 .loc 1 355 10 is_stmt 1 view .LVU118
 355:simpleserial-ml-kem-512.c ****     else if(led == LED3) LED3State = 0;
 410              	 .loc 1 355 12 is_stmt 0 view .LVU119
 411 0018 0F2C     	 cmp r4,#15
 412 001a 01D1     	 bne .L36
 355:simpleserial-ml-kem-512.c ****     else if(led == LED3) LED3State = 0;
 413              	 .loc 1 355 26 is_stmt 1 discriminator 1 view .LVU120
 355:simpleserial-ml-kem-512.c ****     else if(led == LED3) LED3State = 0;
 414              	 .loc 1 355 36 is_stmt 0 discriminator 1 view .LVU121
 415 001c 044B     	 ldr r3,.L38+8
 416 001e F7E7     	 b .L37
 417              	.L36:
 356:simpleserial-ml-kem-512.c ****     return 0;
 418              	 .loc 1 356 10 is_stmt 1 view .LVU122
 356:simpleserial-ml-kem-512.c ****     return 0;
 419              	 .loc 1 356 12 is_stmt 0 view .LVU123
 420 0020 0E2C     	 cmp r4,#14
 421 0022 F7D1     	 bne .L35
 356:simpleserial-ml-kem-512.c ****     return 0;
 422              	 .loc 1 356 26 is_stmt 1 discriminator 1 view .LVU124
 356:simpleserial-ml-kem-512.c ****     return 0;
 423              	 .loc 1 356 36 is_stmt 0 discriminator 1 view .LVU125
 424 0024 034B     	 ldr r3,.L38+12
 425 0026 F3E7     	 b .L37
 426              	.L39:
 427              	 .align 2
 428              	.L38:
 429 0028 00000000 	 .word pio_set_pin_low
 430 002c 00000000 	 .word LED1State
 431 0030 00000000 	 .word LED2State
 432 0034 00000000 	 .word LED3State
 433              	 .cfi_endproc
 434              	.LFE139:
 436              	 .section .text.led_off_cmd_v21,"ax",%progbits
 437              	 .align 1
 438              	 .syntax unified
 439              	 .thumb
 440              	 .thumb_func
 442              	led_off_cmd_v21:
 443              	.LVL36:
 444              	.LFB147:
 473:simpleserial-ml-kem-512.c ****     (void)cmd;
 445              	 .loc 1 473 1 is_stmt 1 view-0
 446              	 .cfi_startproc
 447              	 
 448              	 
 474:simpleserial-ml-kem-512.c ****     (void)scmd;
 449              	 .loc 1 474 5 view .LVU127
 475:simpleserial-ml-kem-512.c ****     if (len != 1) {
 450              	 .loc 1 475 5 view .LVU128
 476:simpleserial-ml-kem-512.c ****         return SS_ERR_LEN;
 451              	 .loc 1 476 5 view .LVU129
 476:simpleserial-ml-kem-512.c ****         return SS_ERR_LEN;
 452              	 .loc 1 476 8 is_stmt 0 view .LVU130
 453 0000 012A     	 cmp r2,#1
 473:simpleserial-ml-kem-512.c ****     (void)cmd;
 454              	 .loc 1 473 1 view .LVU131
 455 0002 08B5     	 push {r3,lr}
 456              	.LCFI5:
 457              	 .cfi_def_cfa_offset 8
 458              	 .cfi_offset 3,-8
 459              	 .cfi_offset 14,-4
 473:simpleserial-ml-kem-512.c ****     (void)cmd;
 460              	 .loc 1 473 1 view .LVU132
 461 0004 1146     	 mov r1,r2
 462              	.LVL37:
 473:simpleserial-ml-kem-512.c ****     (void)cmd;
 463              	 .loc 1 473 1 view .LVU133
 464 0006 1846     	 mov r0,r3
 465              	.LVL38:
 476:simpleserial-ml-kem-512.c ****         return SS_ERR_LEN;
 466              	 .loc 1 476 8 view .LVU134
 467 0008 03D1     	 bne .L42
 479:simpleserial-ml-kem-512.c **** }
 468              	 .loc 1 479 5 is_stmt 1 view .LVU135
 479:simpleserial-ml-kem-512.c **** }
 469              	 .loc 1 479 12 is_stmt 0 view .LVU136
 470 000a 034B     	 ldr r3,.L43
 471              	.LVL39:
 479:simpleserial-ml-kem-512.c **** }
 472              	 .loc 1 479 12 view .LVU137
 473 000c 9847     	 blx r3
 474              	.LVL40:
 479:simpleserial-ml-kem-512.c **** }
 475              	 .loc 1 479 12 view .LVU138
 476 000e 0020     	 movs r0,#0
 477              	.L41:
 480:simpleserial-ml-kem-512.c **** 
 478              	 .loc 1 480 1 view .LVU139
 479 0010 08BD     	 pop {r3,pc}
 480              	.LVL41:
 481              	.L42:
 477:simpleserial-ml-kem-512.c ****     }
 482              	 .loc 1 477 16 view .LVU140
 483 0012 0420     	 movs r0,#4
 484              	.LVL42:
 477:simpleserial-ml-kem-512.c ****     }
 485              	 .loc 1 477 16 view .LVU141
 486 0014 FCE7     	 b .L41
 487              	.L44:
 488 0016 00BF     	 .align 2
 489              	.L43:
 490 0018 00000000 	 .word led_off_cmd
 491              	 .cfi_endproc
 492              	.LFE147:
 494              	 .section .text.led_on,"ax",%progbits
 495              	 .align 1
 496              	 .global led_on
 497              	 .syntax unified
 498              	 .thumb
 499              	 .thumb_func
 501              	led_on:
 502              	.LVL43:
 503              	.LFB140:
 361:simpleserial-ml-kem-512.c ****     gpio_set_pin_high(led);
 504              	 .loc 1 361 22 is_stmt 1 view-0
 505              	 .cfi_startproc
 506              	 
 507              	 
 362:simpleserial-ml-kem-512.c ****     if(led == LED1) LED1State = 1;
 508              	 .loc 1 362 5 view .LVU143
 361:simpleserial-ml-kem-512.c ****     gpio_set_pin_high(led);
 509              	 .loc 1 361 22 is_stmt 0 view .LVU144
 510 0000 10B5     	 push {r4,lr}
 511              	.LCFI6:
 512              	 .cfi_def_cfa_offset 8
 513              	 .cfi_offset 4,-8
 514              	 .cfi_offset 14,-4
 362:simpleserial-ml-kem-512.c ****     if(led == LED1) LED1State = 1;
 515              	 .loc 1 362 5 view .LVU145
 516 0002 084B     	 ldr r3,.L50
 361:simpleserial-ml-kem-512.c ****     gpio_set_pin_high(led);
 517              	 .loc 1 361 22 view .LVU146
 518 0004 0446     	 mov r4,r0
 362:simpleserial-ml-kem-512.c ****     if(led == LED1) LED1State = 1;
 519              	 .loc 1 362 5 view .LVU147
 520 0006 9847     	 blx r3
 521              	.LVL44:
 363:simpleserial-ml-kem-512.c ****     else if(led == LED2) LED2State = 1;
 522              	 .loc 1 363 5 is_stmt 1 view .LVU148
 363:simpleserial-ml-kem-512.c ****     else if(led == LED2) LED2State = 1;
 523              	 .loc 1 363 7 is_stmt 0 view .LVU149
 524 0008 102C     	 cmp r4,#16
 525 000a 03D1     	 bne .L46
 363:simpleserial-ml-kem-512.c ****     else if(led == LED2) LED2State = 1;
 526              	 .loc 1 363 21 is_stmt 1 discriminator 1 view .LVU150
 363:simpleserial-ml-kem-512.c ****     else if(led == LED2) LED2State = 1;
 527              	 .loc 1 363 31 is_stmt 0 discriminator 1 view .LVU151
 528 000c 064B     	 ldr r3,.L50+4
 529              	.L49:
 530              	.LBB4:
 531              	.LBB5:
 365:simpleserial-ml-kem-512.c **** }
 532              	 .loc 1 365 36 discriminator 1 view .LVU152
 533 000e 0122     	 movs r2,#1
 534 0010 1A70     	 strb r2,[r3]
 535              	.L45:
 536              	.LBE5:
 537              	.LBE4:
 366:simpleserial-ml-kem-512.c **** 
 538              	 .loc 1 366 1 view .LVU153
 539 0012 10BD     	 pop {r4,pc}
 540              	.LVL45:
 541              	.L46:
 364:simpleserial-ml-kem-512.c ****     else if(led == LED3) LED3State = 1;
 542              	 .loc 1 364 10 is_stmt 1 view .LVU154
 364:simpleserial-ml-kem-512.c ****     else if(led == LED3) LED3State = 1;
 543              	 .loc 1 364 12 is_stmt 0 view .LVU155
 544 0014 0F2C     	 cmp r4,#15
 545 0016 01D1     	 bne .L48
 364:simpleserial-ml-kem-512.c ****     else if(led == LED3) LED3State = 1;
 546              	 .loc 1 364 26 is_stmt 1 discriminator 1 view .LVU156
 364:simpleserial-ml-kem-512.c ****     else if(led == LED3) LED3State = 1;
 547              	 .loc 1 364 36 is_stmt 0 discriminator 1 view .LVU157
 548 0018 044B     	 ldr r3,.L50+8
 549 001a F8E7     	 b .L49
 550              	.L48:
 551              	.LVL46:
 552              	.LBB7:
 553              	.LBI4:
 361:simpleserial-ml-kem-512.c ****     gpio_set_pin_high(led);
 554              	 .loc 1 361 6 is_stmt 1 view .LVU158
 555              	.LBB6:
 365:simpleserial-ml-kem-512.c **** }
 556              	 .loc 1 365 10 view .LVU159
 365:simpleserial-ml-kem-512.c **** }
 557              	 .loc 1 365 12 is_stmt 0 view .LVU160
 558 001c 0E2C     	 cmp r4,#14
 559 001e F8D1     	 bne .L45
 365:simpleserial-ml-kem-512.c **** }
 560              	 .loc 1 365 26 is_stmt 1 discriminator 1 view .LVU161
 365:simpleserial-ml-kem-512.c **** }
 561              	 .loc 1 365 36 is_stmt 0 discriminator 1 view .LVU162
 562 0020 034B     	 ldr r3,.L50+12
 563 0022 F4E7     	 b .L49
 564              	.L51:
 565              	 .align 2
 566              	.L50:
 567 0024 00000000 	 .word pio_set_pin_high
 568 0028 00000000 	 .word LED1State
 569 002c 00000000 	 .word LED2State
 570 0030 00000000 	 .word LED3State
 571              	.LBE6:
 572              	.LBE7:
 573              	 .cfi_endproc
 574              	.LFE140:
 576              	 .section .text.led_off,"ax",%progbits
 577              	 .align 1
 578              	 .global led_off
 579              	 .syntax unified
 580              	 .thumb
 581              	 .thumb_func
 583              	led_off:
 584              	.LVL47:
 585              	.LFB141:
 368:simpleserial-ml-kem-512.c ****     gpio_set_pin_low(led);
 586              	 .loc 1 368 23 is_stmt 1 view-0
 587              	 .cfi_startproc
 588              	 
 589              	 
 369:simpleserial-ml-kem-512.c ****     if(led == LED1) LED1State = 0;
 590              	 .loc 1 369 5 view .LVU164
 368:simpleserial-ml-kem-512.c ****     gpio_set_pin_low(led);
 591              	 .loc 1 368 23 is_stmt 0 view .LVU165
 592 0000 10B5     	 push {r4,lr}
 593              	.LCFI7:
 594              	 .cfi_def_cfa_offset 8
 595              	 .cfi_offset 4,-8
 596              	 .cfi_offset 14,-4
 369:simpleserial-ml-kem-512.c ****     if(led == LED1) LED1State = 0;
 597              	 .loc 1 369 5 view .LVU166
 598 0002 084B     	 ldr r3,.L57
 368:simpleserial-ml-kem-512.c ****     gpio_set_pin_low(led);
 599              	 .loc 1 368 23 view .LVU167
 600 0004 0446     	 mov r4,r0
 369:simpleserial-ml-kem-512.c ****     if(led == LED1) LED1State = 0;
 601              	 .loc 1 369 5 view .LVU168
 602 0006 9847     	 blx r3
 603              	.LVL48:
 370:simpleserial-ml-kem-512.c ****     else if(led == LED2) LED2State = 0;
 604              	 .loc 1 370 5 is_stmt 1 view .LVU169
 370:simpleserial-ml-kem-512.c ****     else if(led == LED2) LED2State = 0;
 605              	 .loc 1 370 7 is_stmt 0 view .LVU170
 606 0008 102C     	 cmp r4,#16
 607 000a 03D1     	 bne .L53
 370:simpleserial-ml-kem-512.c ****     else if(led == LED2) LED2State = 0;
 608              	 .loc 1 370 21 is_stmt 1 discriminator 1 view .LVU171
 370:simpleserial-ml-kem-512.c ****     else if(led == LED2) LED2State = 0;
 609              	 .loc 1 370 31 is_stmt 0 discriminator 1 view .LVU172
 610 000c 064B     	 ldr r3,.L57+4
 611              	.L56:
 612              	.LBB10:
 613              	.LBB11:
 372:simpleserial-ml-kem-512.c **** }
 614              	 .loc 1 372 36 discriminator 1 view .LVU173
 615 000e 0022     	 movs r2,#0
 616 0010 1A70     	 strb r2,[r3]
 617              	.L52:
 618              	.LBE11:
 619              	.LBE10:
 373:simpleserial-ml-kem-512.c **** 
 620              	 .loc 1 373 1 view .LVU174
 621 0012 10BD     	 pop {r4,pc}
 622              	.LVL49:
 623              	.L53:
 371:simpleserial-ml-kem-512.c ****     else if(led == LED3) LED3State = 0;
 624              	 .loc 1 371 10 is_stmt 1 view .LVU175
 371:simpleserial-ml-kem-512.c ****     else if(led == LED3) LED3State = 0;
 625              	 .loc 1 371 12 is_stmt 0 view .LVU176
 626 0014 0F2C     	 cmp r4,#15
 627 0016 01D1     	 bne .L55
 371:simpleserial-ml-kem-512.c ****     else if(led == LED3) LED3State = 0;
 628              	 .loc 1 371 26 is_stmt 1 discriminator 1 view .LVU177
 371:simpleserial-ml-kem-512.c ****     else if(led == LED3) LED3State = 0;
 629              	 .loc 1 371 36 is_stmt 0 discriminator 1 view .LVU178
 630 0018 044B     	 ldr r3,.L57+8
 631 001a F8E7     	 b .L56
 632              	.L55:
 633              	.LVL50:
 634              	.LBB13:
 635              	.LBI10:
 368:simpleserial-ml-kem-512.c ****     gpio_set_pin_low(led);
 636              	 .loc 1 368 6 is_stmt 1 view .LVU179
 637              	.LBB12:
 372:simpleserial-ml-kem-512.c **** }
 638              	 .loc 1 372 10 view .LVU180
 372:simpleserial-ml-kem-512.c **** }
 639              	 .loc 1 372 12 is_stmt 0 view .LVU181
 640 001c 0E2C     	 cmp r4,#14
 641 001e F8D1     	 bne .L52
 372:simpleserial-ml-kem-512.c **** }
 642              	 .loc 1 372 26 is_stmt 1 discriminator 1 view .LVU182
 372:simpleserial-ml-kem-512.c **** }
 643              	 .loc 1 372 36 is_stmt 0 discriminator 1 view .LVU183
 644 0020 034B     	 ldr r3,.L57+12
 645 0022 F4E7     	 b .L56
 646              	.L58:
 647              	 .align 2
 648              	.L57:
 649 0024 00000000 	 .word pio_set_pin_low
 650 0028 00000000 	 .word LED1State
 651 002c 00000000 	 .word LED2State
 652 0030 00000000 	 .word LED3State
 653              	.LBE12:
 654              	.LBE13:
 655              	 .cfi_endproc
 656              	.LFE141:
 658              	 .section .text.get_led_state,"ax",%progbits
 659              	 .align 1
 660              	 .global get_led_state
 661              	 .syntax unified
 662              	 .thumb
 663              	 .thumb_func
 665              	get_led_state:
 666              	.LVL51:
 667              	.LFB142:
 376:simpleserial-ml-kem-512.c ****     if(led == LED1) return LED1State;
 668              	 .loc 1 376 32 is_stmt 1 view-0
 669              	 .cfi_startproc
 670              	 
 671              	 
 672              	 
 377:simpleserial-ml-kem-512.c ****     else if(led == LED2) return LED2State;
 673              	 .loc 1 377 5 view .LVU185
 377:simpleserial-ml-kem-512.c ****     else if(led == LED2) return LED2State;
 674              	 .loc 1 377 7 is_stmt 0 view .LVU186
 675 0000 1028     	 cmp r0,#16
 676 0002 03D1     	 bne .L60
 377:simpleserial-ml-kem-512.c ****     else if(led == LED2) return LED2State;
 677              	 .loc 1 377 21 is_stmt 1 discriminator 1 view .LVU187
 377:simpleserial-ml-kem-512.c ****     else if(led == LED2) return LED2State;
 678              	 .loc 1 377 28 is_stmt 0 discriminator 1 view .LVU188
 679 0004 064B     	 ldr r3,.L65
 680              	.L64:
 378:simpleserial-ml-kem-512.c ****     else if(led == LED3) return LED3State;
 681              	 .loc 1 378 33 discriminator 1 view .LVU189
 682 0006 1878     	 ldrb r0,[r3]
 683              	.LVL52:
 378:simpleserial-ml-kem-512.c ****     else if(led == LED3) return LED3State;
 684              	 .loc 1 378 33 discriminator 1 view .LVU190
 685 0008 C0B2     	 uxtb r0,r0
 378:simpleserial-ml-kem-512.c ****     else if(led == LED3) return LED3State;
 686              	 .loc 1 378 33 view .LVU191
 687 000a 7047     	 bx lr
 688              	.LVL53:
 689              	.L60:
 378:simpleserial-ml-kem-512.c ****     else if(led == LED3) return LED3State;
 690              	 .loc 1 378 10 is_stmt 1 view .LVU192
 378:simpleserial-ml-kem-512.c ****     else if(led == LED3) return LED3State;
 691              	 .loc 1 378 12 is_stmt 0 view .LVU193
 692 000c 0F28     	 cmp r0,#15
 693 000e 01D1     	 bne .L62
 378:simpleserial-ml-kem-512.c ****     else if(led == LED3) return LED3State;
 694              	 .loc 1 378 26 is_stmt 1 discriminator 1 view .LVU194
 378:simpleserial-ml-kem-512.c ****     else if(led == LED3) return LED3State;
 695              	 .loc 1 378 33 is_stmt 0 discriminator 1 view .LVU195
 696 0010 044B     	 ldr r3,.L65+4
 697 0012 F8E7     	 b .L64
 698              	.L62:
 379:simpleserial-ml-kem-512.c ****     return 0;
 699              	 .loc 1 379 10 is_stmt 1 view .LVU196
 379:simpleserial-ml-kem-512.c ****     return 0;
 700              	 .loc 1 379 12 is_stmt 0 view .LVU197
 701 0014 0E28     	 cmp r0,#14
 702 0016 01D1     	 bne .L63
 379:simpleserial-ml-kem-512.c ****     return 0;
 703              	 .loc 1 379 26 is_stmt 1 discriminator 1 view .LVU198
 379:simpleserial-ml-kem-512.c ****     return 0;
 704              	 .loc 1 379 33 is_stmt 0 discriminator 1 view .LVU199
 705 0018 034B     	 ldr r3,.L65+8
 706 001a F4E7     	 b .L64
 707              	.L63:
 380:simpleserial-ml-kem-512.c **** }
 708              	 .loc 1 380 12 view .LVU200
 709 001c 0020     	 movs r0,#0
 710              	.LVL54:
 381:simpleserial-ml-kem-512.c **** /*Led functions done*/
 711              	 .loc 1 381 1 view .LVU201
 712 001e 7047     	 bx lr
 713              	.L66:
 714              	 .align 2
 715              	.L65:
 716 0020 00000000 	 .word LED1State
 717 0024 00000000 	 .word LED2State
 718 0028 00000000 	 .word LED3State
 719              	 .cfi_endproc
 720              	.LFE142:
 722              	 .section .text.ml_kem_512_decap,"ax",%progbits
 723              	 .align 1
 724              	 .global ml_kem_512_decap
 725              	 .syntax unified
 726              	 .thumb
 727              	 .thumb_func
 729              	ml_kem_512_decap:
 730              	.LVL55:
 731              	.LFB143:
 386:simpleserial-ml-kem-512.c ****     uint8_t buf[2 * KYBER_SYMBYTES];
 732              	 .loc 1 386 1 is_stmt 1 view-0
 733              	 .cfi_startproc
 734              	 
 735              	 
 387:simpleserial-ml-kem-512.c ****     uint8_t kr[2 * KYBER_SYMBYTES];
 736              	 .loc 1 387 5 view .LVU203
 388:simpleserial-ml-kem-512.c ****     uint8_t cmp[KYBER_CIPHERTEXTBYTES + KYBER_SYMBYTES];
 737              	 .loc 1 388 5 view .LVU204
 389:simpleserial-ml-kem-512.c ****     uint8_t decrypted_buf[KYBER_SYMBYTES];
 738              	 .loc 1 389 5 view .LVU205
 390:simpleserial-ml-kem-512.c ****     int fail;  /* Global fail variable for cmov comparison */
 739              	 .loc 1 390 5 view .LVU206
 391:simpleserial-ml-kem-512.c ****     const uint8_t *pk = sk + KYBER_INDCPA_SECRETKEYBYTES;
 740              	 .loc 1 391 5 view .LVU207
 392:simpleserial-ml-kem-512.c ****     
 741              	 .loc 1 392 5 view .LVU208
 394:simpleserial-ml-kem-512.c ****     led_on(LED1);  /* Step 1: indcpa_dec starting */
 742              	 .loc 1 394 5 view .LVU209
 386:simpleserial-ml-kem-512.c ****     uint8_t buf[2 * KYBER_SYMBYTES];
 743              	 .loc 1 386 1 is_stmt 0 view .LVU210
 744 0000 F0B5     	 push {r4,r5,r6,r7,lr}
 745              	.LCFI8:
 746              	 .cfi_def_cfa_offset 20
 747              	 .cfi_offset 4,-20
 748              	 .cfi_offset 5,-16
 749              	 .cfi_offset 6,-12
 750              	 .cfi_offset 7,-8
 751              	 .cfi_offset 14,-4
 394:simpleserial-ml-kem-512.c ****     led_on(LED1);  /* Step 1: indcpa_dec starting */
 752              	 .loc 1 394 5 view .LVU211
 753 0002 0E20     	 movs r0,#14
 754              	.LVL56:
 386:simpleserial-ml-kem-512.c ****     uint8_t buf[2 * KYBER_SYMBYTES];
 755              	 .loc 1 386 1 view .LVU212
 756 0004 A9B0     	 sub sp,sp,#164
 757              	.LCFI9:
 758              	 .cfi_def_cfa_offset 184
 394:simpleserial-ml-kem-512.c ****     led_on(LED1);  /* Step 1: indcpa_dec starting */
 759              	 .loc 1 394 5 view .LVU213
 760 0006 234E     	 ldr r6,.L70
 395:simpleserial-ml-kem-512.c ****     
 761              	 .loc 1 395 5 view .LVU214
 762 0008 234F     	 ldr r7,.L70+4
 394:simpleserial-ml-kem-512.c ****     led_on(LED1);  /* Step 1: indcpa_dec starting */
 763              	 .loc 1 394 5 view .LVU215
 764 000a B047     	 blx r6
 765              	.LVL57:
 395:simpleserial-ml-kem-512.c ****     
 766              	 .loc 1 395 5 is_stmt 1 view .LVU216
 767 000c 1020     	 movs r0,#16
 768 000e B847     	 blx r7
 769              	.LVL58:
 399:simpleserial-ml-kem-512.c ****     
 770              	 .loc 1 399 5 view .LVU217
 402:simpleserial-ml-kem-512.c ****     memcpy(buf + KYBER_SYMBYTES, sk + KYBER_SECRETKEYBYTES - 2 * KYBER_SYMBYTES, KYBER_SYMBYTES);
 771              	 .loc 1 402 5 is_stmt 0 view .LVU218
 772 0010 6C46     	 mov r4,sp
 399:simpleserial-ml-kem-512.c ****     
 773              	 .loc 1 399 5 view .LVU219
 774 0012 224A     	 ldr r2,.L70+8
 775 0014 2249     	 ldr r1,.L70+12
 776 0016 234B     	 ldr r3,.L70+16
 777 0018 6846     	 mov r0,sp
 778 001a 9847     	 blx r3
 779              	.LVL59:
 402:simpleserial-ml-kem-512.c ****     memcpy(buf + KYBER_SYMBYTES, sk + KYBER_SECRETKEYBYTES - 2 * KYBER_SYMBYTES, KYBER_SYMBYTES);
 780              	 .loc 1 402 5 is_stmt 1 view .LVU220
 781 001c 0FCC     	 ldmia r4!,{r0,r1,r2,r3}
 782 001e 08AD     	 add r5,sp,#32
 783 0020 0FC5     	 stmia r5!,{r0,r1,r2,r3}
 784 0022 94E80F00 	 ldm r4,{r0,r1,r2,r3}
 785 0026 85E80F00 	 stm r5,{r0,r1,r2,r3}
 403:simpleserial-ml-kem-512.c ****     
 786              	 .loc 1 403 5 view .LVU221
 787 002a 1F4B     	 ldr r3,.L70+20
 788 002c 10AD     	 add r5,sp,#64
 789 002e 03F1200C 	 add ip,r3,#32
 790              	.L68:
 791 0032 1868     	 ldr r0,[r3]
 792 0034 5968     	 ldr r1,[r3,#4]
 793 0036 2A46     	 mov r2,r5
 794 0038 03C2     	 stmia r2!,{r0,r1}
 795 003a 0833     	 adds r3,r3,#8
 796 003c 6345     	 cmp r3,ip
 797 003e 1546     	 mov r5,r2
 798 0040 F7D1     	 bne .L68
 406:simpleserial-ml-kem-512.c ****     
 799              	 .loc 1 406 5 view .LVU222
 800 0042 08A9     	 add r1,sp,#32
 801 0044 194B     	 ldr r3,.L70+24
 802 0046 4022     	 movs r2,#64
 803 0048 18A8     	 add r0,sp,#96
 804 004a 9847     	 blx r3
 805              	.LVL60:
 408:simpleserial-ml-kem-512.c ****     led_on(LED2);  /* Step 2: hash_g done, coins extraction */
 806              	 .loc 1 408 5 view .LVU223
 807 004c 1020     	 movs r0,#16
 808 004e B047     	 blx r6
 809              	.LVL61:
 409:simpleserial-ml-kem-512.c ****     
 810              	 .loc 1 409 5 view .LVU224
 811 0050 0F20     	 movs r0,#15
 812 0052 B847     	 blx r7
 813              	.LVL62:
 415:simpleserial-ml-kem-512.c ****     
 814              	 .loc 1 415 5 view .LVU225
 415:simpleserial-ml-kem-512.c ****     
 815              	 .loc 1 415 12 is_stmt 0 view .LVU226
 816 0054 1249     	 ldr r1,.L70+12
 817 0056 164B     	 ldr r3,.L70+28
 818 0058 4FF44072 	 mov r2,#768
 819 005c 0846     	 mov r0,r1
 820 005e 9847     	 blx r3
 821              	.LVL63:
 418:simpleserial-ml-kem-512.c **** 
 822              	 .loc 1 418 5 view .LVU227
 823 0060 0F4A     	 ldr r2,.L70+12
 824 0062 1449     	 ldr r1,.L70+32
 825 0064 144B     	 ldr r3,.L70+36
 415:simpleserial-ml-kem-512.c ****     
 826              	 .loc 1 415 12 view .LVU228
 827 0066 0546     	 mov r5,r0
 828              	.LVL64:
 418:simpleserial-ml-kem-512.c **** 
 829              	 .loc 1 418 5 is_stmt 1 view .LVU229
 830 0068 1448     	 ldr r0,.L70+40
 831              	.LVL65:
 418:simpleserial-ml-kem-512.c **** 
 832              	 .loc 1 418 5 is_stmt 0 view .LVU230
 833 006a 9847     	 blx r3
 834              	.LVL66:
 420:simpleserial-ml-kem-512.c ****     
 835              	 .loc 1 420 5 is_stmt 1 view .LVU231
 836 006c 0F20     	 movs r0,#15
 837 006e B047     	 blx r6
 838              	.LVL67:
 423:simpleserial-ml-kem-512.c ****     PQCLEAN_MLKEM512_CLEAN_cmov(ss_result, kr, KYBER_SYMBYTES, (uint8_t)(1 - fail));
 839              	 .loc 1 423 5 view .LVU232
 840 0070 134B     	 ldr r3,.L70+44
 841 0072 9847     	 blx r3
 842              	.LVL68:
 424:simpleserial-ml-kem-512.c ****     trigger_low();
 843              	 .loc 1 424 5 view .LVU233
 844 0074 C5F10103 	 rsb r3,r5,#1
 845 0078 2022     	 movs r2,#32
 846 007a 18A9     	 add r1,sp,#96
 847 007c 0F48     	 ldr r0,.L70+40
 848 007e 114D     	 ldr r5,.L70+48
 849              	.LVL69:
 424:simpleserial-ml-kem-512.c ****     trigger_low();
 850              	 .loc 1 424 5 is_stmt 0 view .LVU234
 851 0080 DBB2     	 uxtb r3,r3
 852 0082 A847     	 blx r5
 853              	.LVL70:
 425:simpleserial-ml-kem-512.c **** 
 854              	 .loc 1 425 5 is_stmt 1 view .LVU235
 855 0084 104B     	 ldr r3,.L70+52
 856 0086 9847     	 blx r3
 857              	.LVL71:
 428:simpleserial-ml-kem-512.c ****     
 858              	 .loc 1 428 5 view .LVU236
 859 0088 0E20     	 movs r0,#14
 860 008a B847     	 blx r7
 861              	.LVL72:
 433:simpleserial-ml-kem-512.c **** }
 862              	 .loc 1 433 2 view .LVU237
 434:simpleserial-ml-kem-512.c **** 
 863              	 .loc 1 434 1 is_stmt 0 view .LVU238
 864 008c 0020     	 movs r0,#0
 865 008e 29B0     	 add sp,sp,#164
 866              	.LCFI10:
 867              	 .cfi_def_cfa_offset 20
 868              	 
 869 0090 F0BD     	 pop {r4,r5,r6,r7,pc}
 870              	.L71:
 871 0092 00BF     	 .align 2
 872              	.L70:
 873 0094 00000000 	 .word led_off
 874 0098 00000000 	 .word led_on
 875 009c 00000000 	 .word sk
 876 00a0 00000000 	 .word ct
 877 00a4 00000000 	 .word PQCLEAN_MLKEM512_CLEAN_indcpa_dec
 878 00a8 20060000 	 .word sk+1568
 879 00ac 00000000 	 .word sha3_512
 880 00b0 00000000 	 .word PQCLEAN_MLKEM512_CLEAN_verify
 881 00b4 40060000 	 .word sk+1600
 882 00b8 00000000 	 .word PQCLEAN_MLKEM512_CLEAN_kyber_shake256_rkprf
 883 00bc 00000000 	 .word ss_result
 884 00c0 00000000 	 .word trigger_high
 885 00c4 00000000 	 .word PQCLEAN_MLKEM512_CLEAN_cmov
 886 00c8 00000000 	 .word trigger_low
 887              	 .cfi_endproc
 888              	.LFE143:
 890              	 .section .text.ml_kem_512,"ax",%progbits
 891              	 .align 1
 892              	 .global ml_kem_512
 893              	 .syntax unified
 894              	 .thumb
 895              	 .thumb_func
 897              	ml_kem_512:
 898              	.LVL73:
 899              	.LFB149:
 491:simpleserial-ml-kem-512.c **** 
 492:simpleserial-ml-kem-512.c **** uint8_t ml_kem_512(uint8_t cmd, uint8_t scmd, uint8_t len, uint8_t *buf)
 493:simpleserial-ml-kem-512.c **** {
 900              	 .loc 1 493 1 is_stmt 1 view-0
 901              	 .cfi_startproc
 902              	 
 903              	 
 494:simpleserial-ml-kem-512.c ****     uint8_t chunk_index;
 904              	 .loc 1 494 5 view .LVU240
 495:simpleserial-ml-kem-512.c ****     uint8_t err;
 905              	 .loc 1 495 5 view .LVU241
 496:simpleserial-ml-kem-512.c **** 
 497:simpleserial-ml-kem-512.c ****     (void)cmd;
 906              	 .loc 1 497 5 view .LVU242
 498:simpleserial-ml-kem-512.c **** 
 499:simpleserial-ml-kem-512.c ****     if ((scmd >= MLKEM_SS_V21_SCMD_SK_BASE) &&
 907              	 .loc 1 499 5 view .LVU243
 908              	 .loc 1 499 8 is_stmt 0 view .LVU244
 909 0000 0729     	 cmp r1,#7
 493:simpleserial-ml-kem-512.c ****     uint8_t chunk_index;
 910              	 .loc 1 493 1 view .LVU245
 911 0002 2DE9F047 	 push {r4,r5,r6,r7,r8,r9,r10,lr}
 912              	.LCFI11:
 913              	 .cfi_def_cfa_offset 32
 914              	 .cfi_offset 4,-32
 915              	 .cfi_offset 5,-28
 916              	 .cfi_offset 6,-24
 917              	 .cfi_offset 7,-20
 918              	 .cfi_offset 8,-16
 919              	 .cfi_offset 9,-12
 920              	 .cfi_offset 10,-8
 921              	 .cfi_offset 14,-4
 493:simpleserial-ml-kem-512.c ****     uint8_t chunk_index;
 922              	 .loc 1 493 1 view .LVU246
 923 0006 0E46     	 mov r6,r1
 924 0008 1546     	 mov r5,r2
 925 000a 1C46     	 mov r4,r3
 926              	 .loc 1 499 8 view .LVU247
 927 000c 11D8     	 bhi .L73
 500:simpleserial-ml-kem-512.c ****         (scmd < (MLKEM_SS_V21_SCMD_SK_BASE + MLKEM_SS_V21_SK_CHUNKS))) {
 501:simpleserial-ml-kem-512.c ****         chunk_index = scmd - MLKEM_SS_V21_SCMD_SK_BASE;
 928              	 .loc 1 501 9 is_stmt 1 view .LVU248
 929              	.LVL74:
 502:simpleserial-ml-kem-512.c ****         err = v21_copy_chunk(sk, sizeof(sk), MLKEM_SS_V21_CHUNK_SK, chunk_index,
 930              	 .loc 1 502 9 view .LVU249
 931              	.LBB28:
 932              	.LBI28:
 437:simpleserial-ml-kem-512.c ****                               uint8_t chunk_index, uint8_t total_chunks,
 933              	 .loc 1 437 16 view .LVU250
 934              	.LBB29:
 441:simpleserial-ml-kem-512.c **** 
 935              	 .loc 1 441 5 view .LVU251
 443:simpleserial-ml-kem-512.c ****         return SS_ERR_LEN;
 936              	 .loc 1 443 5 view .LVU252
 443:simpleserial-ml-kem-512.c ****         return SS_ERR_LEN;
 937              	 .loc 1 443 39 is_stmt 0 discriminator 1 view .LVU253
 938 000e CC2A     	 cmp r2,#204
 939 0010 40F08780 	 bne .L89
 940              	.LVL75:
 941              	.LBB30:
 942              	.LBI30:
 437:simpleserial-ml-kem-512.c ****                               uint8_t chunk_index, uint8_t total_chunks,
 943              	 .loc 1 437 16 is_stmt 1 view .LVU254
 944              	.LBB31:
 447:simpleserial-ml-kem-512.c ****     if ((offset + chunk_len) > dst_len) {
 945              	 .loc 1 447 5 view .LVU255
 448:simpleserial-ml-kem-512.c ****         return SS_ERR_LEN;
 946              	 .loc 1 448 5 view .LVU256
 452:simpleserial-ml-kem-512.c ****     return SS_ERR_OK;
 947              	 .loc 1 452 5 view .LVU257
 948 0014 4448     	 ldr r0,.L92
 949              	.LVL76:
 452:simpleserial-ml-kem-512.c ****     return SS_ERR_OK;
 950              	 .loc 1 452 5 is_stmt 0 view .LVU258
 951 0016 1946     	 mov r1,r3
 952              	.LVL77:
 452:simpleserial-ml-kem-512.c ****     return SS_ERR_OK;
 953              	 .loc 1 452 5 view .LVU259
 954 0018 02FB0600 	 mla r0,r2,r6,r0
 955 001c 434B     	 ldr r3,.L92+4
 956              	.LVL78:
 452:simpleserial-ml-kem-512.c ****     return SS_ERR_OK;
 957              	 .loc 1 452 5 view .LVU260
 958 001e 9847     	 blx r3
 959              	.LVL79:
 453:simpleserial-ml-kem-512.c **** }
 960              	 .loc 1 453 5 is_stmt 1 view .LVU261
 453:simpleserial-ml-kem-512.c **** }
 961              	 .loc 1 453 5 is_stmt 0 view .LVU262
 962              	.LBE31:
 963              	.LBE30:
 964              	.LBE29:
 965              	.LBE28:
 503:simpleserial-ml-kem-512.c ****                              MLKEM_SS_V21_SK_CHUNKS, len, buf);
 504:simpleserial-ml-kem-512.c ****         if (err == SS_ERR_OK) {
 966              	 .loc 1 504 9 is_stmt 1 view .LVU263
 505:simpleserial-ml-kem-512.c ****             sk_chunks_loaded |= (uint8_t)(1u << chunk_index);
 967              	 .loc 1 505 13 view .LVU264
 968              	 .loc 1 505 46 is_stmt 0 view .LVU265
 969 0020 0123     	 movs r3,#1
 970              	 .loc 1 505 30 view .LVU266
 971 0022 434A     	 ldr r2,.L92+8
 972              	 .loc 1 505 46 view .LVU267
 973 0024 B340     	 lsls r3,r3,r6
 974              	.LVL80:
 975              	.L91:
 976              	 .loc 1 505 30 view .LVU268
 977 0026 1178     	 ldrb r1,[r2]
 978 0028 0B43     	 orrs r3,r3,r1
 979 002a 1370     	 strb r3,[r2]
 980              	.LVL81:
 981              	.L76:
 506:simpleserial-ml-kem-512.c ****         }
 507:simpleserial-ml-kem-512.c ****         return err;
 982              	 .loc 1 507 16 view .LVU269
 983 002c 0020     	 movs r0,#0
 984              	.L74:
 508:simpleserial-ml-kem-512.c ****     }
 509:simpleserial-ml-kem-512.c **** 
 510:simpleserial-ml-kem-512.c ****     if ((scmd >= MLKEM_SS_V21_SCMD_PK_BASE) &&
 511:simpleserial-ml-kem-512.c ****         (scmd < (MLKEM_SS_V21_SCMD_PK_BASE + MLKEM_SS_V21_PK_CHUNKS))) {
 512:simpleserial-ml-kem-512.c ****         chunk_index = scmd - MLKEM_SS_V21_SCMD_PK_BASE;
 513:simpleserial-ml-kem-512.c ****         err = v21_copy_chunk(pk, sizeof(pk), MLKEM_SS_V21_CHUNK_PK, chunk_index,
 514:simpleserial-ml-kem-512.c ****                              MLKEM_SS_V21_PK_CHUNKS, len, buf);
 515:simpleserial-ml-kem-512.c ****         if (err == SS_ERR_OK) {
 516:simpleserial-ml-kem-512.c ****             pk_chunks_loaded |= (uint8_t)(1u << chunk_index);
 517:simpleserial-ml-kem-512.c ****             memcpy(sk + KYBER_INDCPA_SECRETKEYBYTES + ((size_t)chunk_index * MLKEM_SS_V21_CHUNK_PK)
 518:simpleserial-ml-kem-512.c ****                    buf,
 519:simpleserial-ml-kem-512.c ****                    MLKEM_SS_V21_CHUNK_PK);
 520:simpleserial-ml-kem-512.c ****             if (pk_chunks_loaded == MLKEM_SS_V21_PK_MASK) {
 521:simpleserial-ml-kem-512.c ****                 v21_sync_pk_into_sk();
 522:simpleserial-ml-kem-512.c ****             }
 523:simpleserial-ml-kem-512.c ****         }
 524:simpleserial-ml-kem-512.c ****         return err;
 525:simpleserial-ml-kem-512.c ****     }
 526:simpleserial-ml-kem-512.c **** 
 527:simpleserial-ml-kem-512.c ****     if ((scmd >= MLKEM_SS_V21_SCMD_CT_BASE) &&
 528:simpleserial-ml-kem-512.c ****         (scmd < (MLKEM_SS_V21_SCMD_CT_BASE + MLKEM_SS_V21_CT_CHUNKS))) {
 529:simpleserial-ml-kem-512.c ****         chunk_index = scmd - MLKEM_SS_V21_SCMD_CT_BASE;
 530:simpleserial-ml-kem-512.c ****         err = v21_copy_chunk(ct, sizeof(ct), MLKEM_SS_V21_CHUNK_CT, chunk_index,
 531:simpleserial-ml-kem-512.c ****                              MLKEM_SS_V21_CT_CHUNKS, len, buf);
 532:simpleserial-ml-kem-512.c ****         if (err == SS_ERR_OK) {
 533:simpleserial-ml-kem-512.c ****             ct_chunks_loaded |= (uint8_t)(1u << chunk_index);
 534:simpleserial-ml-kem-512.c ****         }
 535:simpleserial-ml-kem-512.c ****         return err;
 536:simpleserial-ml-kem-512.c ****     }
 537:simpleserial-ml-kem-512.c **** 
 538:simpleserial-ml-kem-512.c ****     if (scmd == MLKEM_SS_V21_SCMD_SS) {
 539:simpleserial-ml-kem-512.c ****         if (len != KYBER_SSBYTES) {
 540:simpleserial-ml-kem-512.c ****             return SS_ERR_LEN;
 541:simpleserial-ml-kem-512.c ****         }
 542:simpleserial-ml-kem-512.c ****         memcpy(ss, buf, KYBER_SSBYTES);
 543:simpleserial-ml-kem-512.c ****         ss_loaded = 1;
 544:simpleserial-ml-kem-512.c ****         return SS_ERR_OK;
 545:simpleserial-ml-kem-512.c ****     }
 546:simpleserial-ml-kem-512.c **** 
 547:simpleserial-ml-kem-512.c ****     if (scmd == MLKEM_SS_V21_SCMD_DECAP) {
 548:simpleserial-ml-kem-512.c ****         if (len != 0) {
 549:simpleserial-ml-kem-512.c ****             return SS_ERR_LEN;
 550:simpleserial-ml-kem-512.c ****         }
 551:simpleserial-ml-kem-512.c ****         if ((sk_chunks_loaded != MLKEM_SS_V21_SK_MASK) ||
 552:simpleserial-ml-kem-512.c ****             (pk_chunks_loaded != MLKEM_SS_V21_PK_MASK) ||
 553:simpleserial-ml-kem-512.c ****             (ct_chunks_loaded != MLKEM_SS_V21_CT_MASK) ||
 554:simpleserial-ml-kem-512.c ****             (ss_loaded == 0)) {
 555:simpleserial-ml-kem-512.c ****             return SS_ERR_LEN;
 556:simpleserial-ml-kem-512.c ****         }
 557:simpleserial-ml-kem-512.c ****         err = ml_kem_512_decap(NULL, 0);
 558:simpleserial-ml-kem-512.c ****         if (err != SS_ERR_OK) {
 559:simpleserial-ml-kem-512.c ****             return err;
 560:simpleserial-ml-kem-512.c ****         }
 561:simpleserial-ml-kem-512.c ****         simpleserial_put('r', KYBER_SSBYTES, ss_result);
 562:simpleserial-ml-kem-512.c ****         return PQCLEAN_MLKEM512_CLEAN_verify(ss, ss_result, KYBER_SSBYTES);
 563:simpleserial-ml-kem-512.c ****     }
 564:simpleserial-ml-kem-512.c **** 
 565:simpleserial-ml-kem-512.c ****     return SS_ERR_CMD;
 566:simpleserial-ml-kem-512.c **** }
 985              	 .loc 1 566 1 view .LVU270
 986 002e BDE8F087 	 pop {r4,r5,r6,r7,r8,r9,r10,pc}
 987              	.LVL82:
 988              	.L73:
 510:simpleserial-ml-kem-512.c ****         (scmd < (MLKEM_SS_V21_SCMD_PK_BASE + MLKEM_SS_V21_PK_CHUNKS))) {
 989              	 .loc 1 510 5 is_stmt 1 view .LVU271
 510:simpleserial-ml-kem-512.c ****         (scmd < (MLKEM_SS_V21_SCMD_PK_BASE + MLKEM_SS_V21_PK_CHUNKS))) {
 990              	 .loc 1 510 45 is_stmt 0 view .LVU272
 991 0032 A1F1100A 	 sub r10,r1,#16
 992 0036 5FFA8AFA 	 uxtb r10,r10
 510:simpleserial-ml-kem-512.c ****         (scmd < (MLKEM_SS_V21_SCMD_PK_BASE + MLKEM_SS_V21_PK_CHUNKS))) {
 993              	 .loc 1 510 8 view .LVU273
 994 003a BAF1030F 	 cmp r10,#3
 995 003e 2AD8     	 bhi .L75
 512:simpleserial-ml-kem-512.c ****         err = v21_copy_chunk(pk, sizeof(pk), MLKEM_SS_V21_CHUNK_PK, chunk_index,
 996              	 .loc 1 512 9 is_stmt 1 view .LVU274
 997              	.LVL83:
 513:simpleserial-ml-kem-512.c ****                              MLKEM_SS_V21_PK_CHUNKS, len, buf);
 998              	 .loc 1 513 9 view .LVU275
 999              	.LBB32:
 1000              	.LBI32:
 437:simpleserial-ml-kem-512.c ****                               uint8_t chunk_index, uint8_t total_chunks,
 1001              	 .loc 1 437 16 view .LVU276
 1002              	.LBB33:
 441:simpleserial-ml-kem-512.c **** 
 1003              	 .loc 1 441 5 view .LVU277
 443:simpleserial-ml-kem-512.c ****         return SS_ERR_LEN;
 1004              	 .loc 1 443 5 view .LVU278
 443:simpleserial-ml-kem-512.c ****         return SS_ERR_LEN;
 1005              	 .loc 1 443 39 is_stmt 0 discriminator 1 view .LVU279
 1006 0040 C82A     	 cmp r2,#200
 1007 0042 6ED1     	 bne .L89
 1008              	.LVL84:
 1009              	.LBB34:
 1010              	.LBI34:
 437:simpleserial-ml-kem-512.c ****                               uint8_t chunk_index, uint8_t total_chunks,
 1011              	 .loc 1 437 16 is_stmt 1 view .LVU280
 1012              	.LBB35:
 447:simpleserial-ml-kem-512.c ****     if ((offset + chunk_len) > dst_len) {
 1013              	 .loc 1 447 5 view .LVU281
 452:simpleserial-ml-kem-512.c ****     return SS_ERR_OK;
 1014              	 .loc 1 452 16 is_stmt 0 view .LVU282
 1015 0044 DFF8EC80 	 ldr r8,.L92+12
 452:simpleserial-ml-kem-512.c ****     return SS_ERR_OK;
 1016              	 .loc 1 452 5 view .LVU283
 1017 0048 DFF8E090 	 ldr r9,.L92+4
 447:simpleserial-ml-kem-512.c ****     if ((offset + chunk_len) > dst_len) {
 1018              	 .loc 1 447 12 view .LVU284
 1019 004c 02FB0AF7 	 mul r7,r2,r10
 1020              	.LVL85:
 448:simpleserial-ml-kem-512.c ****         return SS_ERR_LEN;
 1021              	 .loc 1 448 5 is_stmt 1 view .LVU285
 452:simpleserial-ml-kem-512.c ****     return SS_ERR_OK;
 1022              	 .loc 1 452 5 view .LVU286
 1023 0050 1946     	 mov r1,r3
 1024              	.LVL86:
 452:simpleserial-ml-kem-512.c ****     return SS_ERR_OK;
 1025              	 .loc 1 452 5 is_stmt 0 view .LVU287
 1026 0052 08EB0700 	 add r0,r8,r7
 1027              	.LVL87:
 452:simpleserial-ml-kem-512.c ****     return SS_ERR_OK;
 1028              	 .loc 1 452 5 view .LVU288
 1029 0056 C847     	 blx r9
 1030              	.LVL88:
 453:simpleserial-ml-kem-512.c **** }
 1031              	 .loc 1 453 5 is_stmt 1 view .LVU289
 453:simpleserial-ml-kem-512.c **** }
 1032              	 .loc 1 453 5 is_stmt 0 view .LVU290
 1033              	.LBE35:
 1034              	.LBE34:
 1035              	.LBE33:
 1036              	.LBE32:
 515:simpleserial-ml-kem-512.c ****             pk_chunks_loaded |= (uint8_t)(1u << chunk_index);
 1037              	 .loc 1 515 9 is_stmt 1 view .LVU291
 516:simpleserial-ml-kem-512.c ****             memcpy(sk + KYBER_INDCPA_SECRETKEYBYTES + ((size_t)chunk_index * MLKEM_SS_V21_CHUNK_PK)
 1038              	 .loc 1 516 13 view .LVU292
 516:simpleserial-ml-kem-512.c ****             memcpy(sk + KYBER_INDCPA_SECRETKEYBYTES + ((size_t)chunk_index * MLKEM_SS_V21_CHUNK_PK)
 1039              	 .loc 1 516 30 is_stmt 0 view .LVU293
 1040 0058 374B     	 ldr r3,.L92+16
 516:simpleserial-ml-kem-512.c ****             memcpy(sk + KYBER_INDCPA_SECRETKEYBYTES + ((size_t)chunk_index * MLKEM_SS_V21_CHUNK_PK)
 1041              	 .loc 1 516 46 view .LVU294
 1042 005a 0126     	 movs r6,#1
 1043              	.LVL89:
 516:simpleserial-ml-kem-512.c ****             memcpy(sk + KYBER_INDCPA_SECRETKEYBYTES + ((size_t)chunk_index * MLKEM_SS_V21_CHUNK_PK)
 1044              	 .loc 1 516 30 view .LVU295
 1045 005c 1A78     	 ldrb r2,[r3]
 517:simpleserial-ml-kem-512.c ****                    buf,
 1046              	 .loc 1 517 53 view .LVU296
 1047 005e 07F54070 	 add r0,r7,#768
 516:simpleserial-ml-kem-512.c ****             memcpy(sk + KYBER_INDCPA_SECRETKEYBYTES + ((size_t)chunk_index * MLKEM_SS_V21_CHUNK_PK)
 1048              	 .loc 1 516 46 view .LVU297
 1049 0062 06FA0AF6 	 lsl r6,r6,r10
 517:simpleserial-ml-kem-512.c ****                    buf,
 1050              	 .loc 1 517 13 view .LVU298
 1051 0066 304F     	 ldr r7,.L92
 516:simpleserial-ml-kem-512.c ****             memcpy(sk + KYBER_INDCPA_SECRETKEYBYTES + ((size_t)chunk_index * MLKEM_SS_V21_CHUNK_PK)
 1052              	 .loc 1 516 30 view .LVU299
 1053 0068 1643     	 orrs r6,r6,r2
 1054 006a F6B2     	 uxtb r6,r6
 517:simpleserial-ml-kem-512.c ****                    buf,
 1055              	 .loc 1 517 13 view .LVU300
 1056 006c 2A46     	 mov r2,r5
 1057 006e 2146     	 mov r1,r4
 1058 0070 3844     	 add r0,r0,r7
 516:simpleserial-ml-kem-512.c ****             memcpy(sk + KYBER_INDCPA_SECRETKEYBYTES + ((size_t)chunk_index * MLKEM_SS_V21_CHUNK_PK)
 1059              	 .loc 1 516 30 view .LVU301
 1060 0072 1E70     	 strb r6,[r3]
 517:simpleserial-ml-kem-512.c ****                    buf,
 1061              	 .loc 1 517 13 is_stmt 1 view .LVU302
 1062 0074 C847     	 blx r9
 1063              	.LVL90:
 520:simpleserial-ml-kem-512.c ****                 v21_sync_pk_into_sk();
 1064              	 .loc 1 520 13 view .LVU303
 520:simpleserial-ml-kem-512.c ****                 v21_sync_pk_into_sk();
 1065              	 .loc 1 520 16 is_stmt 0 view .LVU304
 1066 0076 0F2E     	 cmp r6,#15
 1067 0078 D8D1     	 bne .L76
 521:simpleserial-ml-kem-512.c ****             }
 1068              	 .loc 1 521 17 is_stmt 1 view .LVU305
 1069              	.LBB36:
 1070              	.LBI36:
 456:simpleserial-ml-kem-512.c **** {
 1071              	 .loc 1 456 13 view .LVU306
 1072              	.LBB37:
 458:simpleserial-ml-kem-512.c ****     hash_h(sk + KYBER_SECRETKEYBYTES - 2 * KYBER_SYMBYTES, pk, KYBER_PUBLICKEYBYTES);
 1073              	 .loc 1 458 5 view .LVU307
 1074 007a 4146     	 mov r1,r8
 1075 007c 4FF44872 	 mov r2,#800
 1076 0080 07F54070 	 add r0,r7,#768
 1077 0084 C847     	 blx r9
 1078              	.LVL91:
 459:simpleserial-ml-kem-512.c **** }
 1079              	 .loc 1 459 5 view .LVU308
 1080 0086 2D4B     	 ldr r3,.L92+20
 1081 0088 4FF44872 	 mov r2,#800
 1082 008c 4146     	 mov r1,r8
 1083 008e 07F5C460 	 add r0,r7,#1568
 1084 0092 9847     	 blx r3
 1085              	.LVL92:
 460:simpleserial-ml-kem-512.c **** 
 1086              	 .loc 1 460 1 is_stmt 0 view .LVU309
 1087 0094 CAE7     	 b .L76
 1088              	.LVL93:
 1089              	.L75:
 460:simpleserial-ml-kem-512.c **** 
 1090              	 .loc 1 460 1 view .LVU310
 1091              	.LBE37:
 1092              	.LBE36:
 527:simpleserial-ml-kem-512.c ****         (scmd < (MLKEM_SS_V21_SCMD_CT_BASE + MLKEM_SS_V21_CT_CHUNKS))) {
 1093              	 .loc 1 527 5 is_stmt 1 view .LVU311
 527:simpleserial-ml-kem-512.c ****         (scmd < (MLKEM_SS_V21_SCMD_CT_BASE + MLKEM_SS_V21_CT_CHUNKS))) {
 1094              	 .loc 1 527 45 is_stmt 0 view .LVU312
 1095 0096 A1F12007 	 sub r7,r1,#32
 1096 009a FFB2     	 uxtb r7,r7
 527:simpleserial-ml-kem-512.c ****         (scmd < (MLKEM_SS_V21_SCMD_CT_BASE + MLKEM_SS_V21_CT_CHUNKS))) {
 1097              	 .loc 1 527 8 view .LVU313
 1098 009c 032F     	 cmp r7,#3
 1099 009e 0BD8     	 bhi .L77
 529:simpleserial-ml-kem-512.c ****         err = v21_copy_chunk(ct, sizeof(ct), MLKEM_SS_V21_CHUNK_CT, chunk_index,
 1100              	 .loc 1 529 9 is_stmt 1 view .LVU314
 1101              	.LVL94:
 530:simpleserial-ml-kem-512.c ****                              MLKEM_SS_V21_CT_CHUNKS, len, buf);
 1102              	 .loc 1 530 9 view .LVU315
 1103              	.LBB38:
 1104              	.LBI38:
 437:simpleserial-ml-kem-512.c ****                               uint8_t chunk_index, uint8_t total_chunks,
 1105              	 .loc 1 437 16 view .LVU316
 1106              	.LBB39:
 441:simpleserial-ml-kem-512.c **** 
 1107              	 .loc 1 441 5 view .LVU317
 443:simpleserial-ml-kem-512.c ****         return SS_ERR_LEN;
 1108              	 .loc 1 443 5 view .LVU318
 443:simpleserial-ml-kem-512.c ****         return SS_ERR_LEN;
 1109              	 .loc 1 443 39 is_stmt 0 discriminator 1 view .LVU319
 1110 00a0 C02A     	 cmp r2,#192
 1111 00a2 3ED1     	 bne .L89
 1112              	.LVL95:
 1113              	.LBB40:
 1114              	.LBI40:
 437:simpleserial-ml-kem-512.c ****                               uint8_t chunk_index, uint8_t total_chunks,
 1115              	 .loc 1 437 16 is_stmt 1 view .LVU320
 1116              	.LBB41:
 447:simpleserial-ml-kem-512.c ****     if ((offset + chunk_len) > dst_len) {
 1117              	 .loc 1 447 5 view .LVU321
 448:simpleserial-ml-kem-512.c ****         return SS_ERR_LEN;
 1118              	 .loc 1 448 5 view .LVU322
 452:simpleserial-ml-kem-512.c ****     return SS_ERR_OK;
 1119              	 .loc 1 452 5 view .LVU323
 1120 00a4 2648     	 ldr r0,.L92+24
 1121              	.LVL96:
 452:simpleserial-ml-kem-512.c ****     return SS_ERR_OK;
 1122              	 .loc 1 452 5 is_stmt 0 view .LVU324
 1123 00a6 1946     	 mov r1,r3
 1124              	.LVL97:
 452:simpleserial-ml-kem-512.c ****     return SS_ERR_OK;
 1125              	 .loc 1 452 5 view .LVU325
 1126 00a8 02FB0700 	 mla r0,r2,r7,r0
 1127 00ac 1F4B     	 ldr r3,.L92+4
 1128              	.LVL98:
 452:simpleserial-ml-kem-512.c ****     return SS_ERR_OK;
 1129              	 .loc 1 452 5 view .LVU326
 1130 00ae 9847     	 blx r3
 1131              	.LVL99:
 453:simpleserial-ml-kem-512.c **** }
 1132              	 .loc 1 453 5 is_stmt 1 view .LVU327
 453:simpleserial-ml-kem-512.c **** }
 1133              	 .loc 1 453 5 is_stmt 0 view .LVU328
 1134              	.LBE41:
 1135              	.LBE40:
 1136              	.LBE39:
 1137              	.LBE38:
 532:simpleserial-ml-kem-512.c ****             ct_chunks_loaded |= (uint8_t)(1u << chunk_index);
 1138              	 .loc 1 532 9 is_stmt 1 view .LVU329
 533:simpleserial-ml-kem-512.c ****         }
 1139              	 .loc 1 533 13 view .LVU330
 533:simpleserial-ml-kem-512.c ****         }
 1140              	 .loc 1 533 46 is_stmt 0 view .LVU331
 1141 00b0 0123     	 movs r3,#1
 533:simpleserial-ml-kem-512.c ****         }
 1142              	 .loc 1 533 30 view .LVU332
 1143 00b2 244A     	 ldr r2,.L92+28
 533:simpleserial-ml-kem-512.c ****         }
 1144              	 .loc 1 533 46 view .LVU333
 1145 00b4 BB40     	 lsls r3,r3,r7
 1146 00b6 B6E7     	 b .L91
 1147              	.LVL100:
 1148              	.L77:
 538:simpleserial-ml-kem-512.c ****         if (len != KYBER_SSBYTES) {
 1149              	 .loc 1 538 5 is_stmt 1 view .LVU334
 538:simpleserial-ml-kem-512.c ****         if (len != KYBER_SSBYTES) {
 1150              	 .loc 1 538 8 is_stmt 0 view .LVU335
 1151 00b8 3029     	 cmp r1,#48
 1152 00ba 0ED1     	 bne .L78
 539:simpleserial-ml-kem-512.c ****             return SS_ERR_LEN;
 1153              	 .loc 1 539 9 is_stmt 1 view .LVU336
 539:simpleserial-ml-kem-512.c ****             return SS_ERR_LEN;
 1154              	 .loc 1 539 12 is_stmt 0 view .LVU337
 1155 00bc 202A     	 cmp r2,#32
 1156 00be 30D1     	 bne .L89
 542:simpleserial-ml-kem-512.c ****         ss_loaded = 1;
 1157              	 .loc 1 542 9 is_stmt 1 view .LVU338
 1158 00c0 214B     	 ldr r3,.L92+32
 1159              	.LVL101:
 542:simpleserial-ml-kem-512.c ****         ss_loaded = 1;
 1160              	 .loc 1 542 9 is_stmt 0 view .LVU339
 1161 00c2 04F12002 	 add r2,r4,#32
 1162              	.LVL102:
 1163              	.L79:
 542:simpleserial-ml-kem-512.c ****         ss_loaded = 1;
 1164              	 .loc 1 542 9 view .LVU340
 1165 00c6 54F8041B 	 ldr r1,[r4],#4
 1166 00ca 43F8041B 	 str r1,[r3],#4
 1167 00ce 9442     	 cmp r4,r2
 1168 00d0 F9D1     	 bne .L79
 543:simpleserial-ml-kem-512.c ****         return SS_ERR_OK;
 1169              	 .loc 1 543 9 is_stmt 1 view .LVU341
 543:simpleserial-ml-kem-512.c ****         return SS_ERR_OK;
 1170              	 .loc 1 543 19 is_stmt 0 view .LVU342
 1171 00d2 1E4B     	 ldr r3,.L92+36
 1172 00d4 0122     	 movs r2,#1
 1173              	.LVL103:
 543:simpleserial-ml-kem-512.c ****         return SS_ERR_OK;
 1174              	 .loc 1 543 19 view .LVU343
 1175 00d6 1A70     	 strb r2,[r3]
 544:simpleserial-ml-kem-512.c ****     }
 1176              	 .loc 1 544 9 is_stmt 1 view .LVU344
 544:simpleserial-ml-kem-512.c ****     }
 1177              	 .loc 1 544 16 is_stmt 0 view .LVU345
 1178 00d8 A8E7     	 b .L76
 1179              	.LVL104:
 1180              	.L78:
 547:simpleserial-ml-kem-512.c ****         if (len != 0) {
 1181              	 .loc 1 547 5 is_stmt 1 view .LVU346
 547:simpleserial-ml-kem-512.c ****         if (len != 0) {
 1182              	 .loc 1 547 8 is_stmt 0 view .LVU347
 1183 00da 4029     	 cmp r1,#64
 1184 00dc 1FD1     	 bne .L84
 548:simpleserial-ml-kem-512.c ****             return SS_ERR_LEN;
 1185              	 .loc 1 548 9 is_stmt 1 view .LVU348
 548:simpleserial-ml-kem-512.c ****             return SS_ERR_LEN;
 1186              	 .loc 1 548 12 is_stmt 0 view .LVU349
 1187 00de 02BB     	 cbnz r2,.L89
 551:simpleserial-ml-kem-512.c ****             (pk_chunks_loaded != MLKEM_SS_V21_PK_MASK) ||
 1188              	 .loc 1 551 9 is_stmt 1 view .LVU350
 551:simpleserial-ml-kem-512.c ****             (pk_chunks_loaded != MLKEM_SS_V21_PK_MASK) ||
 1189              	 .loc 1 551 31 is_stmt 0 view .LVU351
 1190 00e0 134B     	 ldr r3,.L92+8
 1191              	.LVL105:
 551:simpleserial-ml-kem-512.c ****             (pk_chunks_loaded != MLKEM_SS_V21_PK_MASK) ||
 1192              	 .loc 1 551 12 view .LVU352
 1193 00e2 1B78     	 ldrb r3,[r3]
 1194 00e4 FF2B     	 cmp r3,#255
 1195 00e6 1CD1     	 bne .L89
 552:simpleserial-ml-kem-512.c ****             (ct_chunks_loaded != MLKEM_SS_V21_CT_MASK) ||
 1196              	 .loc 1 552 31 view .LVU353
 1197 00e8 134B     	 ldr r3,.L92+16
 551:simpleserial-ml-kem-512.c ****             (pk_chunks_loaded != MLKEM_SS_V21_PK_MASK) ||
 1198              	 .loc 1 551 56 discriminator 1 view .LVU354
 1199 00ea 1B78     	 ldrb r3,[r3]
 1200 00ec 0F2B     	 cmp r3,#15
 1201 00ee 18D1     	 bne .L89
 553:simpleserial-ml-kem-512.c ****             (ss_loaded == 0)) {
 1202              	 .loc 1 553 31 view .LVU355
 1203 00f0 144B     	 ldr r3,.L92+28
 552:simpleserial-ml-kem-512.c ****             (ct_chunks_loaded != MLKEM_SS_V21_CT_MASK) ||
 1204              	 .loc 1 552 56 view .LVU356
 1205 00f2 1B78     	 ldrb r3,[r3]
 1206 00f4 0F2B     	 cmp r3,#15
 1207 00f6 14D1     	 bne .L89
 554:simpleserial-ml-kem-512.c ****             return SS_ERR_LEN;
 1208              	 .loc 1 554 24 view .LVU357
 1209 00f8 144B     	 ldr r3,.L92+36
 553:simpleserial-ml-kem-512.c ****             (ss_loaded == 0)) {
 1210              	 .loc 1 553 56 view .LVU358
 1211 00fa 1B78     	 ldrb r3,[r3]
 1212 00fc 8BB1     	 cbz r3,.L89
 557:simpleserial-ml-kem-512.c ****         if (err != SS_ERR_OK) {
 1213              	 .loc 1 557 9 is_stmt 1 view .LVU359
 557:simpleserial-ml-kem-512.c ****         if (err != SS_ERR_OK) {
 1214              	 .loc 1 557 15 is_stmt 0 view .LVU360
 1215 00fe 0021     	 movs r1,#0
 1216              	.LVL106:
 557:simpleserial-ml-kem-512.c ****         if (err != SS_ERR_OK) {
 1217              	 .loc 1 557 15 view .LVU361
 1218 0100 134B     	 ldr r3,.L92+40
 1219 0102 0846     	 mov r0,r1
 1220              	.LVL107:
 557:simpleserial-ml-kem-512.c ****         if (err != SS_ERR_OK) {
 1221              	 .loc 1 557 15 view .LVU362
 1222 0104 9847     	 blx r3
 1223              	.LVL108:
 558:simpleserial-ml-kem-512.c ****             return err;
 1224              	 .loc 1 558 9 is_stmt 1 view .LVU363
 561:simpleserial-ml-kem-512.c ****         return PQCLEAN_MLKEM512_CLEAN_verify(ss, ss_result, KYBER_SSBYTES);
 1225              	 .loc 1 561 9 view .LVU364
 1226 0106 134A     	 ldr r2,.L92+44
 1227 0108 134B     	 ldr r3,.L92+48
 1228 010a 2021     	 movs r1,#32
 1229 010c 7220     	 movs r0,#114
 1230 010e 9847     	 blx r3
 1231              	.LVL109:
 562:simpleserial-ml-kem-512.c ****     }
 1232              	 .loc 1 562 9 view .LVU365
 562:simpleserial-ml-kem-512.c ****     }
 1233              	 .loc 1 562 16 is_stmt 0 view .LVU366
 1234 0110 1049     	 ldr r1,.L92+44
 1235 0112 0D48     	 ldr r0,.L92+32
 1236 0114 114B     	 ldr r3,.L92+52
 1237 0116 2022     	 movs r2,#32
 1238 0118 9847     	 blx r3
 1239              	.LVL110:
 562:simpleserial-ml-kem-512.c ****     }
 1240              	 .loc 1 562 16 discriminator 1 view .LVU367
 1241 011a C0B2     	 uxtb r0,r0
 562:simpleserial-ml-kem-512.c ****     }
 1242              	 .loc 1 562 16 view .LVU368
 1243 011c 87E7     	 b .L74
 1244              	.LVL111:
 1245              	.L84:
 565:simpleserial-ml-kem-512.c **** }
 1246              	 .loc 1 565 12 view .LVU369
 1247 011e 0120     	 movs r0,#1
 1248              	.LVL112:
 565:simpleserial-ml-kem-512.c **** }
 1249              	 .loc 1 565 12 view .LVU370
 1250 0120 85E7     	 b .L74
 1251              	.LVL113:
 1252              	.L89:
 507:simpleserial-ml-kem-512.c ****     }
 1253              	 .loc 1 507 16 view .LVU371
 1254 0122 0420     	 movs r0,#4
 1255              	.LVL114:
 507:simpleserial-ml-kem-512.c ****     }
 1256              	 .loc 1 507 16 view .LVU372
 1257 0124 83E7     	 b .L74
 1258              	.L93:
 1259 0126 00BF     	 .align 2
 1260              	.L92:
 1261 0128 00000000 	 .word sk
 1262 012c 00000000 	 .word memcpy
 1263 0130 00000000 	 .word sk_chunks_loaded
 1264 0134 00000000 	 .word pk
 1265 0138 00000000 	 .word pk_chunks_loaded
 1266 013c 00000000 	 .word sha3_256
 1267 0140 00000000 	 .word ct
 1268 0144 00000000 	 .word ct_chunks_loaded
 1269 0148 00000000 	 .word ss
 1270 014c 00000000 	 .word ss_loaded
 1271 0150 00000000 	 .word ml_kem_512_decap
 1272 0154 00000000 	 .word ss_result
 1273 0158 00000000 	 .word simpleserial_put
 1274 015c 00000000 	 .word PQCLEAN_MLKEM512_CLEAN_verify
 1275              	 .cfi_endproc
 1276              	.LFE149:
 1278              	 .section .text.startup.main,"ax",%progbits
 1279              	 .align 1
 1280              	 .global main
 1281              	 .syntax unified
 1282              	 .thumb
 1283              	 .thumb_func
 1285              	main:
 1286              	.LFB150:
 567:simpleserial-ml-kem-512.c **** #endif
 568:simpleserial-ml-kem-512.c **** 
 569:simpleserial-ml-kem-512.c **** int main(void)
 570:simpleserial-ml-kem-512.c **** {
 1287              	 .loc 1 570 1 is_stmt 1 view-0
 1288              	 .cfi_startproc
 1289              	 
 1290              	 
 1291              	 
 571:simpleserial-ml-kem-512.c ****     /* Setup the LEDs */
 572:simpleserial-ml-kem-512.c ****     gpio_configure_pin(LED1, PIO_OUTPUT_0 | PIO_DEFAULT);
 1292              	 .loc 1 572 5 view .LVU374
 570:simpleserial-ml-kem-512.c ****     /* Setup the LEDs */
 1293              	 .loc 1 570 1 is_stmt 0 view .LVU375
 1294 0000 07B5     	 push {r0,r1,r2,lr}
 1295              	.LCFI12:
 1296              	 .cfi_def_cfa_offset 16
 1297              	 .cfi_offset 14,-4
 1298              	 .loc 1 572 5 view .LVU376
 1299 0002 214C     	 ldr r4,.L98
 1300 0004 4FF04051 	 mov r1,#805306368
 1301 0008 1020     	 movs r0,#16
 1302 000a A047     	 blx r4
 1303              	.LVL115:
 573:simpleserial-ml-kem-512.c ****     gpio_configure_pin(LED2, PIO_OUTPUT_0 | PIO_DEFAULT);
 1304              	 .loc 1 573 5 is_stmt 1 view .LVU377
 1305 000c 4FF04051 	 mov r1,#805306368
 1306 0010 0F20     	 movs r0,#15
 1307 0012 A047     	 blx r4
 1308              	.LVL116:
 574:simpleserial-ml-kem-512.c ****     gpio_configure_pin(LED3, PIO_OUTPUT_0 | PIO_DEFAULT);
 1309              	 .loc 1 574 5 view .LVU378
 1310 0014 4FF04051 	 mov r1,#805306368
 1311 0018 0E20     	 movs r0,#14
 1312 001a A047     	 blx r4
 1313              	.LVL117:
 575:simpleserial-ml-kem-512.c **** 
 576:simpleserial-ml-kem-512.c ****     platform_init();
 1314              	 .loc 1 576 5 view .LVU379
 1315 001c 1B4B     	 ldr r3,.L98+4
 577:simpleserial-ml-kem-512.c ****     init_uart();
 578:simpleserial-ml-kem-512.c ****     trigger_setup();
 579:simpleserial-ml-kem-512.c **** 
 580:simpleserial-ml-kem-512.c **** 	simpleserial_init();
 581:simpleserial-ml-kem-512.c **** 
 582:simpleserial-ml-kem-512.c ****     /* Indicate startup */
 583:simpleserial-ml-kem-512.c ****     gpio_set_pin_high(LED1);
 1316              	 .loc 1 583 5 is_stmt 0 view .LVU380
 1317 001e 1C4C     	 ldr r4,.L98+8
 576:simpleserial-ml-kem-512.c ****     init_uart();
 1318              	 .loc 1 576 5 view .LVU381
 1319 0020 9847     	 blx r3
 1320              	.LVL118:
 577:simpleserial-ml-kem-512.c ****     init_uart();
 1321              	 .loc 1 577 5 is_stmt 1 view .LVU382
 1322 0022 1C4B     	 ldr r3,.L98+12
 1323 0024 9847     	 blx r3
 1324              	.LVL119:
 578:simpleserial-ml-kem-512.c **** 
 1325              	 .loc 1 578 5 view .LVU383
 1326 0026 1C4B     	 ldr r3,.L98+16
 1327 0028 9847     	 blx r3
 1328              	.LVL120:
 580:simpleserial-ml-kem-512.c **** 
 1329              	 .loc 1 580 2 view .LVU384
 1330 002a 1C4B     	 ldr r3,.L98+20
 1331 002c 9847     	 blx r3
 1332              	.LVL121:
 1333              	 .loc 1 583 5 view .LVU385
 1334 002e 1020     	 movs r0,#16
 1335 0030 A047     	 blx r4
 1336              	.LVL122:
 584:simpleserial-ml-kem-512.c ****     gpio_set_pin_high(LED2);
 1337              	 .loc 1 584 5 view .LVU386
 1338 0032 0F20     	 movs r0,#15
 1339 0034 A047     	 blx r4
 1340              	.LVL123:
 585:simpleserial-ml-kem-512.c ****     gpio_set_pin_high(LED3);
 1341              	 .loc 1 585 5 view .LVU387
 1342 0036 0E20     	 movs r0,#14
 1343 0038 A047     	 blx r4
 1344              	.LVL124:
 586:simpleserial-ml-kem-512.c **** 
 587:simpleserial-ml-kem-512.c ****     delay_seconds(1);        //Wait for a second to make sure the user can see the LEDs turn on
 1345              	 .loc 1 587 5 view .LVU388
 1346              	.LBB48:
 1347              	.LBI48:
 306:simpleserial-ml-kem-512.c **** {
 1348              	 .loc 1 306 13 view .LVU389
 1349              	.LBB49:
 308:simpleserial-ml-kem-512.c ****     for (uint32_t s = 0; s < seconds; s++) {
 1350              	 .loc 1 308 5 view .LVU390
 309:simpleserial-ml-kem-512.c ****         for (volatile uint32_t i = 0; i < loops_per_sec; i++) {
 1351              	 .loc 1 309 5 view .LVU391
 1352              	.LBB50:
 309:simpleserial-ml-kem-512.c ****         for (volatile uint32_t i = 0; i < loops_per_sec; i++) {
 1353              	 .loc 1 309 10 view .LVU392
 309:simpleserial-ml-kem-512.c ****         for (volatile uint32_t i = 0; i < loops_per_sec; i++) {
 1354              	 .loc 1 309 28 discriminator 1 view .LVU393
 310:simpleserial-ml-kem-512.c ****             __asm__ volatile ("nop");
 1355              	 .loc 1 310 9 view .LVU394
 1356              	.LBB51:
 310:simpleserial-ml-kem-512.c ****             __asm__ volatile ("nop");
 1357              	 .loc 1 310 14 view .LVU395
 310:simpleserial-ml-kem-512.c ****             __asm__ volatile ("nop");
 1358              	 .loc 1 310 32 is_stmt 0 view .LVU396
 1359 003a 0023     	 movs r3,#0
 310:simpleserial-ml-kem-512.c ****             __asm__ volatile ("nop");
 1360              	 .loc 1 310 41 discriminator 1 view .LVU397
 1361 003c 184A     	 ldr r2,.L98+24
 310:simpleserial-ml-kem-512.c ****             __asm__ volatile ("nop");
 1362              	 .loc 1 310 32 view .LVU398
 1363 003e 0193     	 str r3,[sp,#4]
 1364              	.L95:
 310:simpleserial-ml-kem-512.c ****             __asm__ volatile ("nop");
 1365              	 .loc 1 310 41 is_stmt 1 discriminator 1 view .LVU399
 1366 0040 019B     	 ldr r3,[sp,#4]
 1367 0042 9342     	 cmp r3,r2
 1368 0044 1AD3     	 bcc .L96
 1369              	.LVL125:
 310:simpleserial-ml-kem-512.c ****             __asm__ volatile ("nop");
 1370              	 .loc 1 310 41 is_stmt 0 discriminator 1 view .LVU400
 1371              	.LBE51:
 309:simpleserial-ml-kem-512.c ****         for (volatile uint32_t i = 0; i < loops_per_sec; i++) {
 1372              	 .loc 1 309 28 is_stmt 1 discriminator 1 view .LVU401
 309:simpleserial-ml-kem-512.c ****         for (volatile uint32_t i = 0; i < loops_per_sec; i++) {
 1373              	 .loc 1 309 28 is_stmt 0 discriminator 1 view .LVU402
 1374              	.LBE50:
 1375              	.LBE49:
 1376              	.LBE48:
 588:simpleserial-ml-kem-512.c **** 
 589:simpleserial-ml-kem-512.c ****     /*now turn off the leds */
 590:simpleserial-ml-kem-512.c ****     /*tur off the leds with the funcion led_off */
 591:simpleserial-ml-kem-512.c ****     led_off(LED1); //Turn on LED1 using led_on function
 1377              	 .loc 1 591 5 is_stmt 1 view .LVU403
 1378 0046 174C     	 ldr r4,.L98+28
 1379 0048 1020     	 movs r0,#16
 1380 004a A047     	 blx r4
 1381              	.LVL126:
 592:simpleserial-ml-kem-512.c ****     led_off(LED2); //Turn on LED2 using led_on function
 1382              	 .loc 1 592 5 view .LVU404
 1383 004c 0F20     	 movs r0,#15
 1384 004e A047     	 blx r4
 1385              	.LVL127:
 593:simpleserial-ml-kem-512.c ****     led_off(LED3); //Turn on LED3 using led_on function
 1386              	 .loc 1 593 5 view .LVU405
 1387 0050 0E20     	 movs r0,#14
 1388 0052 A047     	 blx r4
 1389              	.LVL128:
 594:simpleserial-ml-kem-512.c **** 
 595:simpleserial-ml-kem-512.c ****     #if SS_VER == SS_VER_2_1
 596:simpleserial-ml-kem-512.c ****     simpleserial_addcmd(MLKEM_SS_V21_CMD, MLKEM_SS_V21_CHUNK_SK, ml_kem_512);
 1390              	 .loc 1 596 5 view .LVU406
 1391 0054 144C     	 ldr r4,.L98+32
 1392 0056 154A     	 ldr r2,.L98+36
 1393 0058 CC21     	 movs r1,#204
 1394 005a 0120     	 movs r0,#1
 1395 005c A047     	 blx r4
 1396              	.LVL129:
 597:simpleserial-ml-kem-512.c ****     simpleserial_addcmd('h', 1, led_on_cmd_v21);
 1397              	 .loc 1 597 5 view .LVU407
 1398 005e 144A     	 ldr r2,.L98+40
 1399 0060 0121     	 movs r1,#1
 1400 0062 6820     	 movs r0,#104
 1401 0064 A047     	 blx r4
 1402              	.LVL130:
 598:simpleserial-ml-kem-512.c ****     simpleserial_addcmd('l', 1, led_off_cmd_v21);
 1403              	 .loc 1 598 5 view .LVU408
 1404 0066 134A     	 ldr r2,.L98+44
 1405 0068 0121     	 movs r1,#1
 1406 006a 6C20     	 movs r0,#108
 1407 006c A047     	 blx r4
 1408              	.LVL131:
 599:simpleserial-ml-kem-512.c ****     simpleserial_addcmd('t', 1, led_toggle_v21);
 1409              	 .loc 1 599 5 view .LVU409
 1410 006e 124A     	 ldr r2,.L98+48
 1411 0070 0121     	 movs r1,#1
 1412 0072 7420     	 movs r0,#116
 1413 0074 A047     	 blx r4
 1414              	.LVL132:
 600:simpleserial-ml-kem-512.c ****     #else
 601:simpleserial-ml-kem-512.c ****     simpleserial_addcmd('k', 16, get_key);
 602:simpleserial-ml-kem-512.c ****     simpleserial_addcmd('h', 1, led_on_cmd);
 603:simpleserial-ml-kem-512.c ****     simpleserial_addcmd('l', 1, led_off_cmd);
 604:simpleserial-ml-kem-512.c ****     simpleserial_addcmd('t', 1, led_toggle);
 605:simpleserial-ml-kem-512.c ****     #endif
 606:simpleserial-ml-kem-512.c **** 
 607:simpleserial-ml-kem-512.c ****     while(1)
 608:simpleserial-ml-kem-512.c ****         simpleserial_get();
 1415              	 .loc 1 608 9 is_stmt 0 discriminator 1 view .LVU410
 1416 0076 114C     	 ldr r4,.L98+52
 1417              	.L97:
 607:simpleserial-ml-kem-512.c ****         simpleserial_get();
 1418              	 .loc 1 607 5 is_stmt 1 view .LVU411
 1419              	 .loc 1 608 9 discriminator 1 view .LVU412
 1420 0078 A047     	 blx r4
 1421              	.LVL133:
 607:simpleserial-ml-kem-512.c ****         simpleserial_get();
 1422              	 .loc 1 607 10 view .LVU413
 1423 007a FDE7     	 b .L97
 1424              	.LVL134:
 1425              	.L96:
 1426              	.LBB55:
 1427              	.LBB54:
 1428              	.LBB53:
 1429              	.LBB52:
 311:simpleserial-ml-kem-512.c ****         }
 1430              	 .loc 1 311 13 view .LVU414
 1431              	 .syntax unified
 1432              	
 1433 007c 00BF     	 nop
 1434              	
 310:simpleserial-ml-kem-512.c ****             __asm__ volatile ("nop");
 1435              	 .loc 1 310 59 discriminator 3 view .LVU415
 1436              	 .thumb
 1437              	 .syntax unified
 1438 007e 019B     	 ldr r3,[sp,#4]
 1439 0080 0133     	 adds r3,r3,#1
 1440 0082 0193     	 str r3,[sp,#4]
 1441 0084 DCE7     	 b .L95
 1442              	.L99:
 1443 0086 00BF     	 .align 2
 1444              	.L98:
 1445 0088 00000000 	 .word pio_configure_pin
 1446 008c 00000000 	 .word platform_init
 1447 0090 00000000 	 .word pio_set_pin_high
 1448 0094 00000000 	 .word init_uart
 1449 0098 00000000 	 .word trigger_setup
 1450 009c 00000000 	 .word simpleserial_init
 1451 00a0 C0CF6A00 	 .word 7000000
 1452 00a4 00000000 	 .word led_off
 1453 00a8 00000000 	 .word simpleserial_addcmd
 1454 00ac 00000000 	 .word ml_kem_512
 1455 00b0 00000000 	 .word led_on_cmd_v21
 1456 00b4 00000000 	 .word led_off_cmd_v21
 1457 00b8 00000000 	 .word led_toggle_v21
 1458 00bc 00000000 	 .word simpleserial_get
 1459              	.LBE52:
 1460              	.LBE53:
 1461              	.LBE54:
 1462              	.LBE55:
 1463              	 .cfi_endproc
 1464              	.LFE150:
 1466              	 .section .bss.LED3State,"aw",%nobits
 1469              	LED3State:
 1470 0000 00       	 .space 1
 1471              	 .section .bss.LED2State,"aw",%nobits
 1474              	LED2State:
 1475 0000 00       	 .space 1
 1476              	 .section .bss.LED1State,"aw",%nobits
 1479              	LED1State:
 1480 0000 00       	 .space 1
 1481              	 .section .bss.ss_loaded,"aw",%nobits
 1484              	ss_loaded:
 1485 0000 00       	 .space 1
 1486              	 .section .bss.ct_chunks_loaded,"aw",%nobits
 1489              	ct_chunks_loaded:
 1490 0000 00       	 .space 1
 1491              	 .section .bss.pk_chunks_loaded,"aw",%nobits
 1494              	pk_chunks_loaded:
 1495 0000 00       	 .space 1
 1496              	 .section .bss.sk_chunks_loaded,"aw",%nobits
 1499              	sk_chunks_loaded:
 1500 0000 00       	 .space 1
 1501              	 .section .bss.ss_result,"aw",%nobits
 1504              	ss_result:
 1505 0000 00000000 	 .space 32
 1505      00000000 
 1505      00000000 
 1505      00000000 
 1505      00000000 
 1506              	 .global ss2
 1507              	 .section .data.ss2,"aw"
 1510              	ss2:
 1511 0000 FB7385BF 	 .ascii "\373s\205\277\"9\313\231V[=\330\372\353\343<o\356\302"
 1511      2239CB99 
 1511      565B3DD8 
 1511      FAEBE33C 
 1511      6FEEC2
 1512 0013 65464BD8 	 .ascii "eFK\330\3114\240.\177\373\256\243\360"
 1512      C934A02E 
 1512      7FFBAEA3 
 1512      F0
 1513              	 .global ss
 1514              	 .section .data.ss,"aw"
 1517              	ss:
 1518 0000 17E15971 	 .ascii "\027\341Yq\005L\323\254+An\364\030\327t\355\340F%\330"
 1518      054CD3AC 
 1518      2B416EF4 
 1518      18D774ED 
 1518      E04625D8 
 1519 0014 05102E24 	 .ascii "\005\020.$k\355EF\200\007S\016"
 1519      6BED4546 
 1519      8007530E 
 1520              	 .global ct
 1521              	 .section .data.ct,"aw"
 1524              	ct:
 1525 0000 463FC099 	 .ascii "F?\300\231\031G\234\326h\337\227\001\307ei\274\252\304"
 1525      19479CD6 
 1525      68DF9701 
 1525      C76569BC 
 1525      AAC4
 1526 0012 3B7CA541 	 .ascii ";|\245A\252\240r\261\0025\232\036\023\305d\003\243\234"
 1526      AAA072B1 
 1526      02359A1E 
 1526      13C56403 
 1526      A39C
 1527 0024 CB50BCD5 	 .ascii "\313P\274\325\253\177\371n\256#4b\026R\271\327\311\333"
 1527      AB7FF96E 
 1527      AE233462 
 1527      1652B9D7 
 1527      C9DB
 1528 0036 3457606B 	 .ascii "4W`k\206\006\251N\375\271\345reD1\266\362:\307\344\252"
 1528      8606A94E 
 1528      FDB9E572 
 1528      654431B6 
 1528      F23AC7E4 
 1529 004b B99B1578 	 .ascii "\271\233\025xw\036\2120\271\273\266xq\270\337\346k\256"
 1529      771E8A30 
 1529      B9BBB678 
 1529      71B8DFE6 
 1529      6BAE
 1530 005d BE3063F8 	 .ascii "\2760c\370\323\313\234l\235\\\241(d\016\012G\262z^\226"
 1530      D3CB9C6C 
 1530      9D5CA128 
 1530      640E0A47 
 1530      B27A5E96 
 1531 0071 A19E6AD2 	 .ascii "\241\236j\322\006\257YB\322\362\2525 \017\242T\030\327"
 1531      06AF5942 
 1531      D2F2AA35 
 1531      200FA254 
 1531      18D7
 1532 0083 D223514B 	 .ascii "\322#QK\244\356:\237\330\265~=\026\2165\321\221\214"
 1532      A4EE3A9F 
 1532      D8B57E3D 
 1532      168E35D1 
 1532      918C
 1533 0095 66B31C44 	 .ascii "f\263\034D)\257\005O\275+\235\215\003\306\011\206\270"
 1533      29AF054F 
 1533      BD2B9D8D 
 1533      03C60986 
 1533      B8
 1534 00a6 C6802233 	 .ascii "\306\200\"3\245u\365\245\026\317\332\012\276\340\316"
 1534      A575F5A5 
 1534      16CFDA0A 
 1534      BEE0CE
 1535 00b5 896C7B9C 	 .ascii "\211l{\234u\257\330\254\007\224\024^\027\024\005\014"
 1535      75AFD8AC 
 1535      0794145E 
 1535      1714050C 
 1536 00c5 F73795C4 	 .ascii "\3677\225\304\304R\2354\342:\342k\300\035\356\213\336"
 1536      C4529D34 
 1536      E23AE26B 
 1536      C01DEE8B 
 1536      DE
 1537 00d6 60A5C438 	 .ascii "`\245\3048\034\352\202\317\271Y\227\272\212\3409G\265"
 1537      1CEA82CF 
 1537      B95997BA 
 1537      8AE03947 
 1537      B5
 1538 00e7 E7288E58 	 .ascii "\347(\216Xsw\304T#4\272\363\362\312\345P\033\206\026"
 1538      7377C454 
 1538      2334BAF3 
 1538      F2CAE550 
 1538      1B8616
 1539 00fa 153B0105 	 .ascii "\025;\001\005?\342\305?\351\032\276\334\361\330ET\027"
 1539      3FE2C53F 
 1539      E91ABEDC 
 1539      F1D84554 
 1539      17
 1540 010b E96ECBF9 	 .ascii "\351n\313\371\371oc6\327\237$Tw\277\350b\264\033\356"
 1540      F96F6336 
 1540      D79F2454 
 1540      77BFE862 
 1540      B41BEE
 1541 011e A7D05C2F 	 .ascii "\247\320\\/\204\344+\300\345\220\321W\300\200\257\027"
 1541      84E42BC0 
 1541      E590D157 
 1541      C080AF17 
 1542 012e F6770F28 	 .ascii "\366w\017(\314\035\323\317p4\241\373\347\243\222\204"
 1542      CC1DD3CF 
 1542      7034A1FB 
 1542      E7A39284 
 1543 013e 4A897D8E 	 .ascii "J\211}\216\267.`!\372<\244\260\255\274jF\264\243\027"
 1543      B72E6021 
 1543      FA3CA4B0 
 1543      ADBC6A46 
 1543      B4A317
 1544 0151 143BAC57 	 .ascii "\024;\254W~\255)<\274\236\020\323\311\331\204\233\344"
 1544      7EAD293C 
 1544      BC9E10D3 
 1544      C9D9849B 
 1544      E4
 1545 0162 50BFB51B 	 .ascii "P\277\265\033M\227{\221\260hQ\315K~\300Lvv\267\321\344"
 1545      4D977B91 
 1545      B06851CD 
 1545      4B7EC04C 
 1545      7676B7D1 
 1546 0177 0D3ACEBF 	 .ascii "\015:\316\277\350UvX\366\335w\2033\342\341\360\316@"
 1546      E8557658 
 1546      F6DD7783 
 1546      33E2E1F0 
 1546      CE40
 1547 0189 DD951F82 	 .ascii "\335\225\037\202qt\373\351\360S<\2472`\316\201\237\026"
 1547      7174FBE9 
 1547      F0533CA7 
 1547      3260CE81 
 1547      9F16
 1548 019b 8FB13162 	 .ascii "\217\2611bm\220\030\305sVT\204\372E'\210\233\214h\253"
 1548      6D9018C5 
 1548      73565484 
 1548      FA452788 
 1548      9B8C68AB 
 1549 01af 58756C30 	 .ascii "Xul0\245+@\201f\261\010\356\016\027\024#\242*\330\252"
 1549      A52B4081 
 1549      66B108EE 
 1549      0E171423 
 1549      A22AD8AA 
 1550 01c3 59A8FAD1 	 .ascii "Y\250\372\321\231$$\267\227p#\302\352\310\3328\271\313"
 1550      992424B7 
 1550      977023C2 
 1550      EAC8DA38 
 1550      B9CB
 1551 01d5 82D5B874 	 .ascii "\202\325\270t\251\353\252\257\002\031H\304\305\333W"
 1551      A9EBAAAF 
 1551      021948C4 
 1551      C5DB57
 1552 01e4 4CC0F53C 	 .ascii "L\300\365<\274\375E\324\013\212\370\212.\203\036T\177"
 1552      BCFD45D4 
 1552      0B8AF88A 
 1552      2E831E54 
 1552      7F
 1553 01f5 6367F7EC 	 .ascii "cg\367\354PwB\236\203\217\230\257\037\214\242\311\012"
 1553      5077429E 
 1553      838F98AF 
 1553      1F8CA2C9 
 1553      0A
 1554 0206 21060126 	 .ascii "!\006\001&Z\355\354~\031\221\307,7{\361\262W\263\377"
 1554      5AEDEC7E 
 1554      1991C72C 
 1554      377BF1B2 
 1554      57B3FF
 1555 0219 D5BC8639 	 .ascii "\325\274\2069\353\312N\316R\303N\006\234\236\333}\331"
 1555      EBCA4ECE 
 1555      52C34E06 
 1555      9C9EDB7D 
 1555      D9
 1556 022a 8F44CEE4 	 .ascii "\217D\316\344l\332\240p*/\224\220\260\365a\245|\034"
 1556      6CDAA070 
 1556      2A2F9490 
 1556      B0F561A5 
 1556      7C1C
 1557 023c FFFA50B9 	 .ascii "\377\372P\271u\325&\362\221\200\202\326\246\337\343"
 1557      75D526F2 
 1557      918082D6 
 1557      A6DFE3
 1558 024b 094071FE 	 .ascii "\011@q\376\344\377\314\267l\025\015^U\366Z\207\331m"
 1558      E4FFCCB7 
 1558      6C150D5E 
 1558      55F65A87 
 1558      D96D
 1559 025d CEEB06D3 	 .ascii "\316\353\006\323\350\365\312\026\376\226\206E\356n\375"
 1559      E8F5CA16 
 1559      FE968645 
 1559      EE6EFD
 1560 026c D34A5053 	 .ascii "\323JPSt\375\023\311\326\017\367\325r\307\314LS|\302"
 1560      74FD13C9 
 1560      D60FF7D5 
 1560      72C7CC4C 
 1560      537CC2
 1561 027f 53BAA177 	 .ascii "S\272\241w\363\373b\031\254'1\213\024^\241}\201\345"
 1561      F3FB6219 
 1561      AC27318B 
 1561      145EA17D 
 1561      81E5
 1562 0291 050B4C56 	 .ascii "\005\013LV\337\001\323N\277\270\336Fc\231E\275]\350"
 1562      DF01D34E 
 1562      BFB8DE46 
 1562      639945BD 
 1562      5DE8
 1563 02a3 EB07A97B 	 .ascii "\353\007\251{?\225\247!\202\223\270\371\223\037\025"
 1563      3F95A721 
 1563      8293B8F9 
 1563      931F15
 1564 02b2 66810E73 	 .ascii "f\201\016s\320\253\352\213\355;\310Z\3665\0264n\030"
 1564      D0ABEA8B 
 1564      ED3BC85A 
 1564      F6351634 
 1564      6E18
 1565 02c4 94B33C4B 	 .ascii "\224\263<Kvwd\026j]^\3317\202.1N\372\221\222L\347)\007"
 1565      76776416 
 1565      6A5D5ED9 
 1565      37822E31 
 1565      4EFA9192 
 1566 02dc 4FA53871 	 .ascii "O\2458q%~a\\+\2737\024\353\221\335\037\310\226\265m"
 1566      257E615C 
 1566      2BBB3714 
 1566      EB91DD1F 
 1566      C896B56D 
 1567 02f0 E64645A3 	 .ascii "\346FE\243g\214\036z\257\3439\030\2211\010\357"
 1567      678C1E7A 
 1567      AFE33918 
 1567      913108EF 
 1568              	 .global sk
 1569              	 .section .data.sk,"aw"
 1572              	sk:
 1573 0000 78D38C15 	 .ascii "x\323\214\025\324\3122\243S\247\334\265\020\230+\234"
 1573      D4CA32A3 
 1573      53A7DCB5 
 1573      10982B9C 
 1574 0010 55628A5C 	 .ascii "Ub\212\\}\321\212\021#\344s>\":\266\265{w\247\211`K"
 1574      7DD18A11 
 1574      23E4733E 
 1574      223AB6B5 
 1574      7B77A789 
 1575 0026 424FC988 	 .ascii "BO\311\210\363\306 \211\321r8\254\233\016\270\257+\322"
 1575      F3C62089 
 1575      D17238AC 
 1575      9B0EB8AF 
 1575      2BD2
 1576 0038 81F3DC72 	 .ascii "\201\363\334rw\202\303\375E\207\002\206\0117\001b\315"
 1576      7782C3FD 
 1576      45870286 
 1576      09370162 
 1576      CD
 1577 0049 CB232984 	 .ascii "\313#)\204[\023\012Y\025\300YkY\245\207g*\321\242\275"
 1577      5B130A59 
 1577      15C0596B 
 1577      59A58767 
 1577      2AD1A2BD 
 1578 005d 085A9482 	 .ascii "\010Z\224\202#>\321\341MT\222X:\005F\2026\2720\010m"
 1578      233ED1E1 
 1578      4D549258 
 1578      3A054682 
 1578      36BA3008 
 1579 0072 CB311E6D 	 .ascii "\3131\036m\370\255\222\363h\306\206\012\301\310\031"
 1579      F8AD92F3 
 1579      68C6860A 
 1579      C1C819
 1580 0081 F6090563 	 .ascii "\366\011\005cKk\343\"\030\242\361\032GW)\023'4\027\204"
 1580      4B6BE322 
 1580      18A2F11A 
 1580      47572913 
 1580      27341784 
 1581 0095 44686998 	 .ascii "Dhi\230\207W\3014UG:(\204\262u!\026\202\306\274\371"
 1581      8757C134 
 1581      55473A28 
 1581      84B27521 
 1581      1682C6BC 
 1582 00aa 22CBD817 	 .ascii "\"\313\330\0272\261\307\031y\303\235Y|\247\0224p`\242"
 1582      32B1C719 
 1582      79C39D59 
 1582      7CA71234 
 1582      7060A2
 1583 00bd 4069A6FD 	 .ascii "@i\246\375\367\311]\020\0112\310\255R:2\372{j6\031\220"
 1583      F7C95D10 
 1583      0932C8AD 
 1583      523A32FA 
 1583      7B6A3619 
 1584 00d2 CB673842 	 .ascii "\313g8B\260\024+\302\232\321\013\204iW8\216Y\261\332"
 1584      B0142BC2 
 1584      9AD10B84 
 1584      6957388E 
 1584      59B1DA
 1585 00e5 5CBFB35C 	 .ascii "\\\277\263\\\315\006\027\210\200`p\212u\227\256\004"
 1585      CD061788 
 1585      8060708A 
 1585      7597AE04 
 1586 00f5 2C2FAAB4 	 .ascii ",/\252\264\241\200\232R,R\250\361RC#\226\234\020w.\204"
 1586      A1809A52 
 1586      2C52A8F1 
 1586      52432396 
 1586      9C10772E 
 1587 010a 79BC66B8 	 .ascii "y\274f\270\357\260&\330\331X\035\023\017\012h\032\322"
 1587      EFB026D8 
 1587      D9581D13 
 1587      0F0A681A 
 1587      D2
 1588 011b B29054F5 	 .ascii "\262\220T\365fY\362\2638\265\256Z\03139\326O\223\262"
 1588      6659F2B3 
 1588      38B5AE5A 
 1588      193339D6 
 1588      4F93B2
 1589 012e CFEFC609 	 .ascii "\317\357\306\011\010e\273sS\250\010 '\266C\270z\262"
 1589      0865BB73 
 1589      53A80820 
 1589      27B643B8 
 1589      7AB2
 1590 0140 2A802094 	 .ascii "*\200 \224\025J\301\312\343p\024E\263\305\022\014\021"
 1590      154AC1CA 
 1590      E3701445 
 1590      B3C5120C 
 1590      11
 1591 0151 F6253D62 	 .ascii "\366%=b\223dJU\022\226\007\3040#\011\004u\311\353xU"
 1591      93644A55 
 1591      129607C4 
 1591      30230904 
 1591      75C9EB78 
 1592 0166 71CE09E4 	 .ascii "q\316\011\344\023,\010\242k\344\300T\250\200D#\243\013"
 1592      132C08A2 
 1592      6BE4C054 
 1592      A8804423 
 1592      A30B
 1593 0178 FBC0CE58 	 .ascii "\373\300\316X\226\254\220%\336\324\216\207\033#^\245"
 1593      96AC9025 
 1593      DED48E87 
 1593      1B235EA5 
 1594 0188 492AF371 	 .ascii "I*\363q\010Xm\315\363\210b\031\211ih7\271\265\205w\241"
 1594      08586DCD 
 1594      F3886219 
 1594      89696837 
 1594      B9B58577 
 1595 019d BAE10797 	 .ascii "\272\341\007\2273\240\237\034)y\344\231EE&\213\365B"
 1595      33A09F1C 
 1595      2979E499 
 1595      4545268B 
 1595      F542
 1596 01af 7B4FCBB3 	 .ascii "{O\313\263\346\223\004]2B[i\210\016e\000\324fr\276\250"
 1596      E693045D 
 1596      32425B69 
 1596      880E6500 
 1596      D46672BE 
 1597 01c4 CE7E3662 	 .ascii "\316~6b|h\015n\305:p\340\224\363t=\023k\306sD\244\006"
 1597      7C680D6E 
 1597      C53A70E0 
 1597      94F3743D 
 1597      136BC673 
 1598 01db 6251113B 	 .ascii "bQ\021;n7\225\207h'\276\313\024_S\354T\333\374uo\232"
 1598      6E379587 
 1598      6827BECB 
 1598      145F53EC 
 1598      54DBFC75 
 1599 01f1 0706D03C 	 .ascii "\007\006\320<\250\003\215Dq\241{\2114\371 \255\237\307"
 1599      A8038D44 
 1599      71A17B89 
 1599      34F920AD 
 1599      9FC7
 1600 0203 75C9AC9D 	 .ascii "u\311\254\235~\210\214y\353$\240w\033\036\353\270\366"
 1600      7E888C79 
 1600      EB24A077 
 1600      1B1EEBB8 
 1600      F6
 1601 0214 0658D737 	 .ascii "\006X\3277\265\031\3546\251\025\300\242\247u\"\361\014"
 1601      B519EC36 
 1601      A915C0A2 
 1601      A77522F1 
 1601      0C
 1602 0225 0492439C 	 .ascii "\004\222C\234wM\026(\314\026`\257M\034\035\266\267!"
 1602      774D1628 
 1602      CC1660AF 
 1602      4D1C1DB6 
 1602      B721
 1603 0237 95103700 	 .ascii "\225\0207\000\020:\300\365\312$a\304y\332/\360\030Q"
 1603      103AC0F5 
 1603      CA2461C4 
 1603      79DA2FF0 
 1603      1851
 1604 0249 1FB57C70 	 .ascii "\037\265|p\025%\305\012\265\341\231\025\252w\"\214\222"
 1604      1525C50A 
 1604      B5E19915 
 1604      AA77228C 
 1604      92
 1605 025a 45E139AD 	 .ascii "E\3419\255!\307\270\373s5\342x\237\3552f/!Q]\341G\020"
 1605      21C7B8FB 
 1605      7335E278 
 1605      9FED3266 
 1605      2F21515D 
 1606 0271 501DBF99 	 .ascii "P\035\277\231\035\341D\027\376\323/\226\034]m\267w\016"
 1606      1DE14417 
 1606      FED32F96 
 1606      1C5D6DB7 
 1606      770E
 1607 0283 676BAEB6 	 .ascii "gk\256\266{H\\\232M5\241J\012\310v\221.}$\303\"G\300"
 1607      7B485C9A 
 1607      4D35A14A 
 1607      0AC87691 
 1607      2E7D24C3 
 1608 029a AB704EC3 	 .ascii "\253pN\303\253F\217\301\013\271ch]&\206+\013e\265\370"
 1608      AB468FC1 
 1608      0BB96368 
 1608      5D26862B 
 1608      0B65B5F8 
 1609 02ae AB51841A 	 .ascii "\253Q\204\032\364t\216\0317\022\362\313\202\344vg4f"
 1609      F4748E19 
 1609      3712F2CB 
 1609      82E47667 
 1609      3466
 1610 02c0 B35E5626 	 .ascii "\263^V&\234\311<_:\205c4:\212\232\233\241z\306\206\010"
 1610      9CC93C5F 
 1610      3A856334 
 1610      3A8A9A9B 
 1610      A17AC686 
 1611 02d5 60DF0916 	 .ascii "`\337\011\026\332k\256\203RX|\222V\252w\310n\232\273"
 1611      DA6BAE83 
 1611      52587C92 
 1611      56AA77C8 
 1611      6E9ABB
 1612 02e8 ED3765BB 	 .ascii "\3557e\273y=\377\027xN%\274xk5\2407\230#\011$\310$z"
 1612      793DFF17 
 1612      784E25BC 
 1612      786B35A0 
 1612      37982309 
 1613 0300 48815885 	 .ascii "H\201X\205\265f-\324]w|\034\3035-\214\372\217cF\002"
 1613      B5662DD4 
 1613      5D777C1C 
 1613      C3352D8C 
 1613      FA8F6346 
 1614 0315 BC785246 	 .ascii "\274xRFb\302<Z;\204\244'JI\016\003I\2066\205\257\233"
 1614      62C23C5A 
 1614      3B84A427 
 1614      4A490E03 
 1614      49863685 
 1615 032b 566BAD31 	 .ascii "Vk\2551\250x\267\302ml\217?\245\256\367D\261\253\371"
 1615      A878B7C2 
 1615      6D6C8F3F 
 1615      A5AEF744 
 1615      B1ABF9
 1616 033e 5814BBB1 	 .ascii "X\024\273\261?\312B\225\351\013\355\245\213\005\207"
 1616      3FCA4295 
 1616      E90BEDA5 
 1616      8B0587
 1617 034d 95643539 	 .ascii "\225d59\360C2\334aJoW\302ou\241m@s\265b+@\301K\251\373"
 1617      F04332DC 
 1617      614A6F57 
 1617      C26F75A1 
 1617      6D4073B5 
 1618 0368 8AFEEC38 	 .ascii "\212\376\3548\315\024\031\3265jr:\273\032\2216\267\210"
 1618      CD1419D6 
 1618      356A723A 
 1618      BB1A9136 
 1618      B788
 1619 037a AC2B2852 	 .ascii "\254+(R\300\254(q\331`l:\035\210@\312|:\020j7W\372K"
 1619      C0AC2871 
 1619      D9606C3A 
 1619      1D8840CA 
 1619      7C3A106A 
 1620 0392 2973B93A 	 .ascii ")s\271:\376\366\224\215\203i`&6\226\330\027\010\320"
 1620      FEF6948D 
 1620      83696026 
 1620      3696D817 
 1620      08D0
 1621 03a4 015EAA8F 	 .ascii "\001^\252\217\222\343i9\226\266Ca\274\214eY\246&\"X"
 1621      92E36939 
 1621      96B64361 
 1621      BC8C6559 
 1621      A6262258 
 1622 03b8 855E6932 	 .ascii "\205^i2~\333\032\240$p\253k\272y\010\311\250\274FU;"
 1622      7EDB1AA0 
 1622      2470AB6B 
 1622      BA7908C9 
 1622      A8BC4655 
 1623 03cd 582C1850 	 .ascii "X,\030P\014 p\247X\362{bx\247\360C\221$Q\030Fx+|\362"
 1623      0C2070A7 
 1623      58F27B62 
 1623      78A7F043 
 1623      91245118 
 1624 03e6 6976034A 	 .ascii "iv\003J\227I+G\223\000\207(\031W\300.\277\221\224(\031"
 1624      97492B47 
 1624      93008728 
 1624      1957C02E 
 1624      BF919428 
 1625 03fb 858AF03B 	 .ascii "\205\212\360;<\206\207~`\0357\320\031\323w\\<\2311\014"
 1625      3C86877E 
 1625      601D37D0 
 1625      19D3775C 
 1625      3C99310C 
 1626 040f 590ABC22 	 .ascii "Y\012\274\"\302\015fN\2079:v)\315\030\232Q\372\254\275"
 1626      C20D664E 
 1626      87393A76 
 1626      29CD189A 
 1626      51FAACBD 
 1627 0423 2A648639 	 .ascii "*d\2069|\256+\022\231\362b?\256\201}V\252\274\320\301"
 1627      7CAE2B12 
 1627      99F2623F 
 1627      AE817D56 
 1627      AABCD0C1 
 1628 0437 44DF83A6 	 .ascii "D\337\203\2465a\021\340\022\233;\346\024\212E\015!0"
 1628      356111E0 
 1628      129B3BE6 
 1628      148A450D 
 1628      2130
 1629 0449 B06E4B3B 	 .ascii "\260nK;\000\306\235\345\373\245\355\350%o\334~\235\346"
 1629      00C69DE5 
 1629      FBA5EDE8 
 1629      256FDC7E 
 1629      9DE6
 1630 045b 29E05A63 	 .ascii ")\340Zc \310F)\351;\376\"\261C\213\203\177\333M\014"
 1630      20C84629 
 1630      E93BFE22 
 1630      B1438B83 
 1630      7FDB4D0C 
 1631 046f B67EBCC8 	 .ascii "\266~\274\310\024C\361,\027aO\372\346\251\321\272\272"
 1631      1443F12C 
 1631      17614FFA 
 1631      E6A9D1BA 
 1631      BA
 1632 0480 DDA88679 	 .ascii "\335\250\206y\273I\265:\236\300\266<,I\233\365(\214"
 1632      BB49B53A 
 1632      9EC0B63C 
 1632      2C499BF5 
 1632      288C
 1633 0492 6C067A5C 	 .ascii "l\006z\\\250R\305\025\273\202f\271q\320\177\273\032"
 1633      A852C515 
 1633      BB8266B9 
 1633      71D07FBB 
 1633      1A
 1634 04a3 917FC66A 	 .ascii "\221\177\306j\2148\240\361W\215\001\245Q\341\312k\033"
 1634      8C38A0F1 
 1634      578D01A5 
 1634      51E1CA6B 
 1634      1B
 1635 04b4 9278B137 	 .ascii "\222x\2617\223\270\222\300\002\274\231_\201\265\322"
 1635      93B892C0 
 1635      02BC995F 
 1635      81B5D2
 1636 04c3 E3C03BB6 	 .ascii "\343\300;\266n\321\011\031\"\303\210\022\372\241\367"
 1636      6ED10919 
 1636      22C38812 
 1636      FAA1F7
 1637 04d2 C87FA532 	 .ascii "\310\177\2452\033\307cye\270\273\276\026\027\006Q\300"
 1637      1BC76379 
 1637      65B8BBBE 
 1637      16170651 
 1637      C0
 1638 04e3 65CBACB2 	 .ascii "e\313\254\262@\030\262Z\3116\013\230\247\027Z\275\300"
 1638      4018B25A 
 1638      C9360B98 
 1638      A7175ABD 
 1638      C0
 1639 04f4 221F070D 	 .ascii "\"\037\007\015\3308:\025\000tp<+\207\323\227\364\303"
 1639      D8383A15 
 1639      0074703C 
 1639      2B87D397 
 1639      F4C3
 1640 0506 37FE5951 	 .ascii "7\376YQ\265\025\267\362\312x=\032\227[\213*\267Z<\361"
 1640      B515B7F2 
 1640      CA783D1A 
 1640      975B8B2A 
 1640      B75A3CF1 
 1641 051a 795EC424 	 .ascii "y^\304$\235;pS\225\340\220\307\252\245\262'JM\3503\025"
 1641      9D3B7053 
 1641      95E090C7 
 1641      AAA5B227 
 1641      4A4DE833 
 1642 052f C39F5AD5 	 .ascii "\303\237Z\325\251\235\261Q\313\331\212U\010\246\367"
 1642      A99DB151 
 1642      CBD98A55 
 1642      08A6F7
 1643 053e 4675632C 	 .ascii "Fuc,\217\332\207ae\210\013\210\247\2520\226E\275Dj\340"
 1643      8FDA8761 
 1643      65880B88 
 1643      A7AA3096 
 1643      45BD446A 
 1644 0553 A9977DC1 	 .ascii "\251\227}\301%\332\271r\331\232>\012\321\0343$nV\300"
 1644      25DAB972 
 1644      D99A3E0A 
 1644      D11C3324 
 1644      6E56C0
 1645 0566 9BE3C5AD 	 .ascii "\233\343\305\255\021d\027\217\026\033\210\267n\365h"
 1645      1164178F 
 1645      161B88B7 
 1645      6EF568
 1646 0575 0DD6E54C 	 .ascii "\015\326\345L\367x\037*$Cf\264\023\373[z\210\206\037"
 1646      F7781F2A 
 1646      244366B4 
 1646      13FB5B7A 
 1646      88861F
 1647 0588 A635894A 	 .ascii "\2465\211J\223\2511\273y*\270Qk\\Z\334\231:F6!_\310"
 1647      93A931BB 
 1647      792AB851 
 1647      6B5C5ADC 
 1647      993A4636 
 1648 059f 61676B44 	 .ascii "agkD\3127,\301RL\271\207r\177\246%\344a}\212C\002m@"
 1648      CA372CC1 
 1648      524CB987 
 1648      727FA625 
 1648      E4617D8A 
 1649 05b7 C7D5F28E 	 .ascii "\307\325\362\216\243%\005X\010E\376\232\307\024D\267"
 1649      A3250558 
 1649      0845FE9A 
 1649      C71444B7 
 1650 05c7 C44C2991 	 .ascii "\304L)\221f\000i\360\304f'\265\251\326\014\343\266:"
 1650      660069F0 
 1650      C46627B5 
 1650      A9D60CE3 
 1650      B63A
 1651 05d9 245AA5B9 	 .ascii "$Z\245\271\3630v\234Iyg^\321H\000\335\324Ni\320@\261"
 1651      F330769C 
 1651      4979675E 
 1651      D14800DD 
 1651      D44E69D0 
 1652 05ef D299D489 	 .ascii "\322\231\324\211r5\002\012\356\362\252\357\001$\355"
 1652      7235020A 
 1652      EEF2AAEF 
 1652      0124ED
 1653 05fe 3C1C153F 	 .ascii "<\034\025?\346\306Bm\271H\324,\365\314\355\\\365H\244"
 1653      E6C6426D 
 1653      B948D42C 
 1653      F5CCED5C 
 1653      F548A4
 1654 0611 0160F187 	 .ascii "\001`\361\207\212\233\017\200\031\303\256\221*\325J"
 1654      8A9B0F80 
 1654      19C3AE91 
 1654      2AD54A
 1655 0620 733D6FB4 	 .ascii "s=o\264\331-,\211m?\035\026\211\000\3455)\237\216\364"
 1655      D92D2C89 
 1655      6D3F1D16 
 1655      8900E535 
 1655      299F8EF4 
 1656 0634 D8305399 	 .ascii "\3300S\231\342\237\0175\366W\033\010\0172\241\335V\227"
 1656      E29F0F35 
 1656      F6571B08 
 1656      0F32A1DD 
 1656      5697
 1657 0646 9171ABCF 	 .ascii "\221q\253\317\2060+l\232A\200\336N\212\354\351\215\222"
 1657      86302B6C 
 1657      9A4180DE 
 1657      4E8AECE9 
 1657      8D92
 1658 0658 6049D1E9 	 .ascii "`I\321\351\365\222\222\375"
 1658      F59292FD 
 1659              	 .global pk
 1660              	 .section .data.pk,"aw"
 1663              	pk:
 1664 0000 48815885 	 .ascii "H\201X\205\265f-\324]w|\034\3035-\214\372\217cF\002"
 1664      B5662DD4 
 1664      5D777C1C 
 1664      C3352D8C 
 1664      FA8F6346 
 1665 0015 BC785246 	 .ascii "\274xRFb\302<Z;\204\244'JI\016\003I\2066\205\257\233"
 1665      62C23C5A 
 1665      3B84A427 
 1665      4A490E03 
 1665      49863685 
 1666 002b 566BAD31 	 .ascii "Vk\2551\250x\267\302ml\217?\245\256\367D\261\253\371"
 1666      A878B7C2 
 1666      6D6C8F3F 
 1666      A5AEF744 
 1666      B1ABF9
 1667 003e 5814BBB1 	 .ascii "X\024\273\261?\312B\225\351\013\355\245\213\005\207"
 1667      3FCA4295 
 1667      E90BEDA5 
 1667      8B0587
 1668 004d 95643539 	 .ascii "\225d59\360C2\334aJoW\302ou\241m@s\265b+@\301K\251\373"
 1668      F04332DC 
 1668      614A6F57 
 1668      C26F75A1 
 1668      6D4073B5 
 1669 0068 8AFEEC38 	 .ascii "\212\376\3548\315\024\031\3265jr:\273\032\2216\267\210"
 1669      CD1419D6 
 1669      356A723A 
 1669      BB1A9136 
 1669      B788
 1670 007a AC2B2852 	 .ascii "\254+(R\300\254(q\331`l:\035\210@\312|:\020j7W\372K"
 1670      C0AC2871 
 1670      D9606C3A 
 1670      1D8840CA 
 1670      7C3A106A 
 1671 0092 2973B93A 	 .ascii ")s\271:\376\366\224\215\203i`&6\226\330\027\010\320"
 1671      FEF6948D 
 1671      83696026 
 1671      3696D817 
 1671      08D0
 1672 00a4 015EAA8F 	 .ascii "\001^\252\217\222\343i9\226\266Ca\274\214eY\246&\"X"
 1672      92E36939 
 1672      96B64361 
 1672      BC8C6559 
 1672      A6262258 
 1673 00b8 855E6932 	 .ascii "\205^i2~\333\032\240$p\253k\272y\010\311\250\274FU;"
 1673      7EDB1AA0 
 1673      2470AB6B 
 1673      BA7908C9 
 1673      A8BC4655 
 1674 00cd 582C1850 	 .ascii "X,\030P\014 p\247X\362{bx\247\360C\221$Q\030Fx+|\362"
 1674      0C2070A7 
 1674      58F27B62 
 1674      78A7F043 
 1674      91245118 
 1675 00e6 6976034A 	 .ascii "iv\003J\227I+G\223\000\207(\031W\300.\277\221\224(\031"
 1675      97492B47 
 1675      93008728 
 1675      1957C02E 
 1675      BF919428 
 1676 00fb 858AF03B 	 .ascii "\205\212\360;<\206\207~`\0357\320\031\323w\\<\2311\014"
 1676      3C86877E 
 1676      601D37D0 
 1676      19D3775C 
 1676      3C99310C 
 1677 010f 590ABC22 	 .ascii "Y\012\274\"\302\015fN\2079:v)\315\030\232Q\372\254\275"
 1677      C20D664E 
 1677      87393A76 
 1677      29CD189A 
 1677      51FAACBD 
 1678 0123 2A648639 	 .ascii "*d\2069|\256+\022\231\362b?\256\201}V\252\274\320\301"
 1678      7CAE2B12 
 1678      99F2623F 
 1678      AE817D56 
 1678      AABCD0C1 
 1679 0137 44DF83A6 	 .ascii "D\337\203\2465a\021\340\022\233;\346\024\212E\015!0"
 1679      356111E0 
 1679      129B3BE6 
 1679      148A450D 
 1679      2130
 1680 0149 B06E4B3B 	 .ascii "\260nK;\000\306\235\345\373\245\355\350%o\334~\235\346"
 1680      00C69DE5 
 1680      FBA5EDE8 
 1680      256FDC7E 
 1680      9DE6
 1681 015b 29E05A63 	 .ascii ")\340Zc \310F)\351;\376\"\261C\213\203\177\333M\014"
 1681      20C84629 
 1681      E93BFE22 
 1681      B1438B83 
 1681      7FDB4D0C 
 1682 016f B67EBCC8 	 .ascii "\266~\274\310\024C\361,\027aO\372\346\251\321\272\272"
 1682      1443F12C 
 1682      17614FFA 
 1682      E6A9D1BA 
 1682      BA
 1683 0180 DDA88679 	 .ascii "\335\250\206y\273I\265:\236\300\266<,I\233\365(\214"
 1683      BB49B53A 
 1683      9EC0B63C 
 1683      2C499BF5 
 1683      288C
 1684 0192 6C067A5C 	 .ascii "l\006z\\\250R\305\025\273\202f\271q\320\177\273\032"
 1684      A852C515 
 1684      BB8266B9 
 1684      71D07FBB 
 1684      1A
 1685 01a3 917FC66A 	 .ascii "\221\177\306j\2148\240\361W\215\001\245Q\341\312k\033"
 1685      8C38A0F1 
 1685      578D01A5 
 1685      51E1CA6B 
 1685      1B
 1686 01b4 9278B137 	 .ascii "\222x\2617\223\270\222\300\002\274\231_\201\265\322"
 1686      93B892C0 
 1686      02BC995F 
 1686      81B5D2
 1687 01c3 E3C03BB6 	 .ascii "\343\300;\266n\321\011\031\"\303\210\022\372\241\367"
 1687      6ED10919 
 1687      22C38812 
 1687      FAA1F7
 1688 01d2 C87FA532 	 .ascii "\310\177\2452\033\307cye\270\273\276\026\027\006Q\300"
 1688      1BC76379 
 1688      65B8BBBE 
 1688      16170651 
 1688      C0
 1689 01e3 65CBACB2 	 .ascii "e\313\254\262@\030\262Z\3116\013\230\247\027Z\275\300"
 1689      4018B25A 
 1689      C9360B98 
 1689      A7175ABD 
 1689      C0
 1690 01f4 221F070D 	 .ascii "\"\037\007\015\3308:\025\000tp<+\207\323\227\364\303"
 1690      D8383A15 
 1690      0074703C 
 1690      2B87D397 
 1690      F4C3
 1691 0206 37FE5951 	 .ascii "7\376YQ\265\025\267\362\312x=\032\227[\213*\267Z<\361"
 1691      B515B7F2 
 1691      CA783D1A 
 1691      975B8B2A 
 1691      B75A3CF1 
 1692 021a 795EC424 	 .ascii "y^\304$\235;pS\225\340\220\307\252\245\262'JM\3503\025"
 1692      9D3B7053 
 1692      95E090C7 
 1692      AAA5B227 
 1692      4A4DE833 
 1693 022f C39F5AD5 	 .ascii "\303\237Z\325\251\235\261Q\313\331\212U\010\246\367"
 1693      A99DB151 
 1693      CBD98A55 
 1693      08A6F7
 1694 023e 4675632C 	 .ascii "Fuc,\217\332\207ae\210\013\210\247\2520\226E\275Dj\340"
 1694      8FDA8761 
 1694      65880B88 
 1694      A7AA3096 
 1694      45BD446A 
 1695 0253 A9977DC1 	 .ascii "\251\227}\301%\332\271r\331\232>\012\321\0343$nV\300"
 1695      25DAB972 
 1695      D99A3E0A 
 1695      D11C3324 
 1695      6E56C0
 1696 0266 9BE3C5AD 	 .ascii "\233\343\305\255\021d\027\217\026\033\210\267n\365h"
 1696      1164178F 
 1696      161B88B7 
 1696      6EF568
 1697 0275 0DD6E54C 	 .ascii "\015\326\345L\367x\037*$Cf\264\023\373[z\210\206\037"
 1697      F7781F2A 
 1697      244366B4 
 1697      13FB5B7A 
 1697      88861F
 1698 0288 A635894A 	 .ascii "\2465\211J\223\2511\273y*\270Qk\\Z\334\231:F6!_\310"
 1698      93A931BB 
 1698      792AB851 
 1698      6B5C5ADC 
 1698      993A4636 
 1699 029f 61676B44 	 .ascii "agkD\3127,\301RL\271\207r\177\246%\344a}\212C\002m@"
 1699      CA372CC1 
 1699      524CB987 
 1699      727FA625 
 1699      E4617D8A 
 1700 02b7 C7D5F28E 	 .ascii "\307\325\362\216\243%\005X\010E\376\232\307\024D\267"
 1700      A3250558 
 1700      0845FE9A 
 1700      C71444B7 
 1701 02c7 C44C2991 	 .ascii "\304L)\221f\000i\360\304f'\265\251\326\014\343\266:"
 1701      660069F0 
 1701      C46627B5 
 1701      A9D60CE3 
 1701      B63A
 1702 02d9 245AA5B9 	 .ascii "$Z\245\271\3630v\234Iyg^\321H\000\335\324Ni\320@\261"
 1702      F330769C 
 1702      4979675E 
 1702      D14800DD 
 1702      D44E69D0 
 1703 02ef D299D489 	 .ascii "\322\231\324\211r5\002\012\356\362\252\357\001$\355"
 1703      7235020A 
 1703      EEF2AAEF 
 1703      0124ED
 1704 02fe 3C1C153F 	 .ascii "<\034\025?\346\306Bm\271H\324,\365\314\355\\\365H\244"
 1704      E6C6426D 
 1704      B948D42C 
 1704      F5CCED5C 
 1704      F548A4
 1705 0311 0160F187 	 .ascii "\001`\361\207\212\233\017\200\031\303\256\221*\325J"
 1705      8A9B0F80 
 1705      19C3AE91 
 1705      2AD54A
 1706              	 .section .bss.cpu_irq_prev_interrupt_state,"aw",%nobits
 1709              	cpu_irq_prev_interrupt_state:
 1710 0000 00       	 .space 1
 1711              	 .section .bss.cpu_irq_critical_section_counter,"aw",%nobits
 1712              	 .align 2
 1715              	cpu_irq_critical_section_counter:
 1716 0000 00000000 	 .space 4
 1717              	 .text
 1718              	.Letext0:
 1719              	 .file 2 "/usr/lib/gcc/arm-none-eabi/14.2.1/include/stdint.h"
 1720              	 .file 3 "/usr/lib/gcc/arm-none-eabi/14.2.1/include/stddef.h"
 1721              	 .file 4 ".././hal//sam4s/inc/interrupt/interrupt_sam_nvic.h"
 1722              	 .file 5 ".././simpleserial/simpleserial.h"
 1723              	 .file 6 ".././hal//sam4s/inc/pio.h"
 1724              	 .file 7 ".././hal/sam4s/sam4s_hal.h"
 1725              	 .file 8 ".././hal/hal.h"
 1726              	 .file 9 "fips202.h"
 1727              	 .file 10 "verify.h"
 1728              	 .file 11 "symmetric.h"
 1729              	 .file 12 "/usr/include/newlib/string.h"
 1730              	 .file 13 "indcpa.h"
 1731              	 .file 14 "<built-in>"
DEFINED SYMBOLS
                            *ABS*:00000000 simpleserial-ml-kem-512.c
    {standard input}:19     .text.led_toggle:00000000 $t
    {standard input}:25     .text.led_toggle:00000000 led_toggle
    {standard input}:160    .text.led_toggle:00000064 $d
    {standard input}:1479   .bss.LED1State:00000000 LED1State
    {standard input}:1474   .bss.LED2State:00000000 LED2State
    {standard input}:1469   .bss.LED3State:00000000 LED3State
    {standard input}:169    .text.led_toggle_v21:00000000 $t
    {standard input}:174    .text.led_toggle_v21:00000000 led_toggle_v21
    {standard input}:222    .text.led_toggle_v21:00000018 $d
    {standard input}:227    .text.led_on_cmd:00000000 $t
    {standard input}:233    .text.led_on_cmd:00000000 led_on_cmd
    {standard input}:295    .text.led_on_cmd:00000028 $d
    {standard input}:303    .text.led_on_cmd_v21:00000000 $t
    {standard input}:308    .text.led_on_cmd_v21:00000000 led_on_cmd_v21
    {standard input}:356    .text.led_on_cmd_v21:00000018 $d
    {standard input}:361    .text.led_off_cmd:00000000 $t
    {standard input}:367    .text.led_off_cmd:00000000 led_off_cmd
    {standard input}:429    .text.led_off_cmd:00000028 $d
    {standard input}:437    .text.led_off_cmd_v21:00000000 $t
    {standard input}:442    .text.led_off_cmd_v21:00000000 led_off_cmd_v21
    {standard input}:490    .text.led_off_cmd_v21:00000018 $d
    {standard input}:495    .text.led_on:00000000 $t
    {standard input}:501    .text.led_on:00000000 led_on
    {standard input}:567    .text.led_on:00000024 $d
    {standard input}:577    .text.led_off:00000000 $t
    {standard input}:583    .text.led_off:00000000 led_off
    {standard input}:649    .text.led_off:00000024 $d
    {standard input}:659    .text.get_led_state:00000000 $t
    {standard input}:665    .text.get_led_state:00000000 get_led_state
    {standard input}:716    .text.get_led_state:00000020 $d
    {standard input}:723    .text.ml_kem_512_decap:00000000 $t
    {standard input}:729    .text.ml_kem_512_decap:00000000 ml_kem_512_decap
    {standard input}:873    .text.ml_kem_512_decap:00000094 $d
    {standard input}:1572   .data.sk:00000000 sk
    {standard input}:1524   .data.ct:00000000 ct
    {standard input}:1504   .bss.ss_result:00000000 ss_result
    {standard input}:891    .text.ml_kem_512:00000000 $t
    {standard input}:897    .text.ml_kem_512:00000000 ml_kem_512
    {standard input}:1261   .text.ml_kem_512:00000128 $d
    {standard input}:1499   .bss.sk_chunks_loaded:00000000 sk_chunks_loaded
    {standard input}:1663   .data.pk:00000000 pk
    {standard input}:1494   .bss.pk_chunks_loaded:00000000 pk_chunks_loaded
    {standard input}:1489   .bss.ct_chunks_loaded:00000000 ct_chunks_loaded
    {standard input}:1517   .data.ss:00000000 ss
    {standard input}:1484   .bss.ss_loaded:00000000 ss_loaded
    {standard input}:1279   .text.startup.main:00000000 $t
    {standard input}:1285   .text.startup.main:00000000 main
    {standard input}:1445   .text.startup.main:00000088 $d
    {standard input}:1470   .bss.LED3State:00000000 $d
    {standard input}:1475   .bss.LED2State:00000000 $d
    {standard input}:1480   .bss.LED1State:00000000 $d
    {standard input}:1485   .bss.ss_loaded:00000000 $d
    {standard input}:1490   .bss.ct_chunks_loaded:00000000 $d
    {standard input}:1495   .bss.pk_chunks_loaded:00000000 $d
    {standard input}:1500   .bss.sk_chunks_loaded:00000000 $d
    {standard input}:1505   .bss.ss_result:00000000 $d
    {standard input}:1510   .data.ss2:00000000 ss2
    {standard input}:1709   .bss.cpu_irq_prev_interrupt_state:00000000 cpu_irq_prev_interrupt_state
    {standard input}:1710   .bss.cpu_irq_prev_interrupt_state:00000000 $d
    {standard input}:1712   .bss.cpu_irq_critical_section_counter:00000000 $d
    {standard input}:1715   .bss.cpu_irq_critical_section_counter:00000000 cpu_irq_critical_section_counter
                           .group:00000000 wm4.0.534b8d408cafabed4abbc6a1c4e55e02
                           .group:00000000 wm4.stdint.h.29.6d480f4ba0f60596e88234283d42444f
                           .group:00000000 wm4.hal.h.27.7074d56fee637e30bfe28f5452443c14
                           .group:00000000 wm4.simpleserial.h.5.c96c6e95969d4c6e0b7b683e18b3c16d
                           .group:00000000 wm4.ieeefp.h.77.b6f5ce903562917fbd9193ee87d4fa47
                           .group:00000000 wm4._newlib_version.h.4.0eb654b64686e2bd29646258853f6c22
                           .group:00000000 wm4.newlib.h.27.07bf1b8b16da454ae07478107717878b
                           .group:00000000 wm4.features.h.22.03467e2205ec9ffbc20524d97cdbdf6a
                           .group:00000000 wm4.config.h.224.10ee1ad185d877c6e334e6581faab44d
                           .group:00000000 wm4._ansi.h.31.de524f58584151836e90d8620a16f8e8
                           .group:00000000 wm4.stdlib.h.13.4ed386f5c1a80d71e72172885d946ef2
                           .group:00000000 wm4.stddef.h.185.882514a1a6169ceba9142f401cbe27c6
                           .group:00000000 wm4.stddef.h.39.ce75d04d8242e588a8427ce8922e2e35
                           .group:00000000 wm4._default_types.h.6.959254cf5f09734ea7516c89e8bb21bd
                           .group:00000000 wm4.cdefs.h.49.bafb023044e47a1dcdd854e4d6521f7d
                           .group:00000000 wm4._types.h.20.dd0d04dca3800a0d2a6129b87f3adbb2
                           .group:00000000 wm4.stddef.h.158.6f8e08a347b1cff664332fa350bfceb3
                           .group:00000000 wm4._types.h.127.3bdfe3ff8ea2d0985b03d9cbe93480e3
                           .group:00000000 wm4.reent.h.18.25503cdc8b7e55dd0d6ea7b3e5af7a03
                           .group:00000000 wm4.lock.h.2.c0958401bd0ce484d507ee19aacab817
                           .group:00000000 wm4.reent.h.78.6b87466b04591b1f1cb88c14fdf2ba9e
                           .group:00000000 wm4.alloca.h.8.dfc0c703c47ec3e69746825b17d9e66d
                           .group:00000000 wm4.stdlib.h.56.f4862cfbf4363a1db01842d5bdf72c18
                           .group:00000000 wm4.parts.h.38.09ccce703cc30b12360b0e797fac8cb6
                           .group:00000000 wm4.tpaste.h.38.f9caafafc33cddaf7097f68661fce374
                           .group:00000000 wm4.stringz.h.38.451b1c9629f877d07c6b3529fe5b37b2
                           .group:00000000 wm4.mrepeat.h.52.224450943b2762ae34ad2cae2fa96ad2
                           .group:00000000 wm4.sam4s2b.h.46.0f6cf15cc0eb3f1d5e6ab7e6cadb7a8c
                           .group:00000000 wm4.core_cm4.h.43.9593ac0dcec24a3a6f1d638d754e90b2
                           .group:00000000 wm4.core_cmInstr.h.39.53f0cdf363d7ba01993152fdcb6be5d3
                           .group:00000000 wm4.core_cmSimd.h.43.c355993beb49ccd10586af5b1cfe5aee
                           .group:00000000 wm4.core_cm4.h.201.504dd1a6bdf57a6296d26f255ae618b9
                           .group:00000000 wm4.component_acc.h.36.308f7d4c1685c8ebd00910c37bbeab26
                           .group:00000000 wm4.component_adc.h.36.b8477219496e42be1d01ccb1b6f6b02b
                           .group:00000000 wm4.component_chipid.h.36.cb4a4222aca9bee8d01f4aa49afe4d6d
                           .group:00000000 wm4.component_crccu.h.36.1d71ce61706000275b271d03beaec6d2
                           .group:00000000 wm4.component_dacc.h.36.0b87b1e719912b5885bdf9531e0e43d6
                           .group:00000000 wm4.component_efc.h.36.a6b4458c43d27669aaa6147006e1eb74
                           .group:00000000 wm4.component_gpbr.h.36.595122ea9c79505c4e73c9e7421802a8
                           .group:00000000 wm4.component_hsmci.h.36.ccf6dd1a128877835aec3d40c12745dd
                           .group:00000000 wm4.component_matrix.h.36.8f1d7aeed86a08ab4d936e5a0f026440
                           .group:00000000 wm4.component_pdc.h.36.363e6546b41ce8a14a922d18930df184
                           .group:00000000 wm4.component_pio.h.36.f033c3341fbeea7d2a04545c9a72bd24
                           .group:00000000 wm4.component_pmc.h.36.2771b76afbda6351cb4cf4c6708887d5
                           .group:00000000 wm4.component_pwm.h.36.0cd735c74e99ef7d330cb87d1f16c213
                           .group:00000000 wm4.component_rstc.h.36.1af4b8140176d86bc0af5b861fd3a623
                           .group:00000000 wm4.component_rtc.h.36.c865407d28492a40a128dee548893efe
                           .group:00000000 wm4.component_rtt.h.36.46adad6456893b38ef49ae9a2d0afea1
                           .group:00000000 wm4.component_spi.h.36.a18850bcdd90fcb2d130155fa94829ea
                           .group:00000000 wm4.component_ssc.h.36.6ffc46b5a0a9219bd5c90b3f63510b0f
                           .group:00000000 wm4.component_supc.h.36.0db4554695c6e864e5338e4faca84d88
                           .group:00000000 wm4.component_tc.h.36.af47419b07ade32b2d1423414983d2f7
                           .group:00000000 wm4.component_twi.h.36.3496bc3884f63f906fd446649da75de1
                           .group:00000000 wm4.component_uart.h.36.74e9355d463b56860c56764a9be37213
                           .group:00000000 wm4.component_udp.h.36.8cb9530d4bf5319aabe6158f5e738b3d
                           .group:00000000 wm4.component_usart.h.36.5e91c114006f7b551a45955ae29cb6cf
                           .group:00000000 wm4.component_wdt.h.36.277adc27b017beabbb9f7b11b0fa46f2
                           .group:00000000 wm4.instance_hsmci.h.36.9855cb84ff287cffb479099857800873
                           .group:00000000 wm4.instance_ssc.h.36.630afe78e802d5fc05c6224c23890fe1
                           .group:00000000 wm4.instance_spi.h.36.325bf539a06b58ad3327698a7ef68d81
                           .group:00000000 wm4.instance_tc0.h.36.fbfa021f96aebd3d46fa1937156b0b0a
                           .group:00000000 wm4.instance_twi0.h.36.13a0f0822f7bd9074e9b846b04ed10b9
                           .group:00000000 wm4.instance_twi1.h.36.6c6b55c3fab76b3818eb5314bf7bc410
                           .group:00000000 wm4.instance_pwm.h.36.1b555f9fd14d69df968818a3882b2cde
                           .group:00000000 wm4.instance_usart0.h.36.3b6138f7be7c01038525724f6c5d6c1e
                           .group:00000000 wm4.instance_usart1.h.36.137c36ec170c7ca2c1f8e046f5d0e0c9
                           .group:00000000 wm4.instance_udp.h.36.b94eabb27893117a74b4d6faebd80bc6
                           .group:00000000 wm4.instance_adc.h.36.84184448551cb0a3c52160d178904d14
                           .group:00000000 wm4.instance_dacc.h.36.28a68c12285ab1a6b24d06876c4b8807
                           .group:00000000 wm4.instance_acc.h.36.71d96a8f2214f8a9d18eec4d2d93f130
                           .group:00000000 wm4.instance_crccu.h.36.549cca511b407ab33982b56bae0c25ac
                           .group:00000000 wm4.instance_matrix.h.36.da03b47f7e819cfcead8ef1cd71b60ce
                           .group:00000000 wm4.instance_pmc.h.36.002f4765e9f18dc4b183b779163ab06e
                           .group:00000000 wm4.instance_uart0.h.36.fa62b2ed6ce17806cd77556aa65a73f5
                           .group:00000000 wm4.instance_chipid.h.36.6f5f676d52e3e21dba5d88a4bb87d922
                           .group:00000000 wm4.instance_uart1.h.36.bc11f9c4189a4ac15cce81cf9f40fcf9
                           .group:00000000 wm4.instance_efc0.h.36.67a3a70e962ac1d6ef8fcee0e9fd4a9b
                           .group:00000000 wm4.instance_pioa.h.36.27d92aa6d00d8b6a2b34acdeee1aa60a
                           .group:00000000 wm4.instance_piob.h.36.b0f95d3fb66ff01bcd91fb6a4cb54dc3
                           .group:00000000 wm4.instance_rstc.h.36.f8bcddbd3310cbb6a39c155e9e6b3cfb
                           .group:00000000 wm4.instance_supc.h.36.17878f57a77a9d368090917738ff3e02
                           .group:00000000 wm4.instance_rtt.h.36.8759ab7e2580c101b6db702769407cb0
                           .group:00000000 wm4.instance_wdt.h.36.ab83587b138c65dcd29a29119835b92a
                           .group:00000000 wm4.instance_rtc.h.36.52aa67a6a7c945bf00db9fb9d057e3e0
                           .group:00000000 wm4.instance_gpbr.h.36.b2cfd4dee03ed0c28ecb9eb233d2ac42
                           .group:00000000 wm4.sam4s2b.h.313.04ed20c80f538f8fadb9388a8469283e
                           .group:00000000 wm4.pio_sam4s2b.h.36.e1b33fead6a6e1ee98b2f4cba4bb11b4
                           .group:00000000 wm4.sam4s2b.h.450.98a9c8ea67d90470c8554ffe87c8398a
                           .group:00000000 wm4.stdio.h.27.3fc80220048df77954e38daec3bb9670
                           .group:00000000 wm4.stddef.h.158.eec8bf00b5213f43d095cb984c5f22e3
                           .group:00000000 wm4.stdarg.h.34.3a23a216c0c293b3d2ea2e89281481e6
                           .group:00000000 wm4.stdio.h.47.dc31ec4674d7bcb103c9f08809549f45
                           .group:00000000 wm4.stdio.h.2.4aa87247282eca6c8f36f9de33d8df1a
                           .group:00000000 wm4.stdio.h.87.a1e20d2651f9bfb66e51bfbe849db00a
                           .group:00000000 wm4.stdbool.h.29.c08aa3eec75cf5b9b5003883f43253f0
                           .group:00000000 wm4.compiler.h.81.f75af8228a71cd19fa09df23f58333e2
                           .group:00000000 wm4.interrupt_sam_nvic.h.77.5650b866702c5f625c80d648ec551823
                           .group:00000000 wm4.compiler.h.420.b563cf39b91298e26f28e0fd38c47072
                           .group:00000000 wm4.pio.h.47.0a673ba4b4d02ffef34e2316f66d501b
                           .group:00000000 wm4.sam_gpio.h.38.025fa01e9a8b28efa5cd82d5f53d12f0
                           .group:00000000 wm4.params.h.2.d79c82d51e9988956f2b45f64d62e466
                           .group:00000000 wm4.kem.h.2.56668591a24983f31f46d2cc2781fe08
                           .group:00000000 wm4.unistd.h.2.39165d5b7784d1815ef4b0c4be6df560
                           .group:00000000 wm4.types.h.40.8b6acba56cefbb11746718204edc8f5e
                           .group:00000000 wm4._stdint.h.10.c24fa3af3bc1706662bb5593a907e841
                           .group:00000000 wm4._endian.h.31.65a10590763c3dde1ac4a7f66d7d4891
                           .group:00000000 wm4.endian.h.9.49f3a4695c1b61e8a0808de3c4a106cb
                           .group:00000000 wm4._timeval.h.32.bec3221fa7a9bb0bdde696c9c57e47d2
                           .group:00000000 wm4.timespec.h.41.d855182eb0e690443ab8651bcedca6e1
                           .group:00000000 wm4.select.h.19.8c04bee5682eafa577cf6325dd7ee64c
                           .group:00000000 wm4.types.h.51.5ecfc21b937ad2a3fcc45d8f305131a2
                           .group:00000000 wm4.sched.h.22.c60982713a5c428609783c78f9c78d95
                           .group:00000000 wm4._pthreadtypes.h.36.fcee9961c35163dde6267ef772ad1972
                           .group:00000000 wm4.unistd.h.166.64f46862ce0a3925984c663d49123e22
                           .group:00000000 wm4.fips202.h.7.7c5a967a0fe68eaeb1c480396f442363
                           .group:00000000 wm4.symmetric.h.20.00c0704dbdff25fff62e37c48b3f3a76
                           .group:00000000 wm4.string.h.8.c4b8571ce60dff2817f43fec8b86aecd

UNDEFINED SYMBOLS
pio_set_pin_low
pio_set_pin_high
PQCLEAN_MLKEM512_CLEAN_indcpa_dec
sha3_512
PQCLEAN_MLKEM512_CLEAN_verify
PQCLEAN_MLKEM512_CLEAN_kyber_shake256_rkprf
trigger_high
PQCLEAN_MLKEM512_CLEAN_cmov
trigger_low
memcpy
sha3_256
simpleserial_put
pio_configure_pin
platform_init
init_uart
trigger_setup
simpleserial_init
simpleserial_addcmd
simpleserial_get
