   1              	 .cpu cortex-m4
   2              	 .arch armv7e-m
   3              	 .fpu softvfp
   4              	 .eabi_attribute 20,1
   5              	 .eabi_attribute 21,1
   6              	 .eabi_attribute 23,3
   7              	 .eabi_attribute 24,1
   8              	 .eabi_attribute 25,1
   9              	 .eabi_attribute 26,1
  10              	 .eabi_attribute 30,4
  11              	 .eabi_attribute 34,1
  12              	 .eabi_attribute 18,4
  13              	 .file "simpleserial-ml-kem-512.c"
  14              	 .text
  15              	.Ltext0:
  16              	 .cfi_sections .debug_frame
  17              	 .file 1 "simpleserial-ml-kem-512.c"
  18              	 .section .text.ml_kem_512_tx_chunk,"ax",%progbits
  19              	 .align 1
  20              	 .syntax unified
  21              	 .thumb
  22              	 .thumb_func
  24              	ml_kem_512_tx_chunk:
  25              	.LVL0:
  26              	.LFB154:
   1:simpleserial-ml-kem-512.c **** /*
   2:simpleserial-ml-kem-512.c ****     This file is part of the ChipWhisperer Example Targets
   3:simpleserial-ml-kem-512.c ****     Copyright (C) 2012-2017 NewAE Technology Inc.
   4:simpleserial-ml-kem-512.c **** 
   5:simpleserial-ml-kem-512.c ****     This program is free software: you can redistribute it and/or modify
   6:simpleserial-ml-kem-512.c ****     it under the terms of the GNU General Public License as published by
   7:simpleserial-ml-kem-512.c ****     the Free Software Foundation, either version 3 of the License, or
   8:simpleserial-ml-kem-512.c ****     (at your option) any later version.
   9:simpleserial-ml-kem-512.c **** 
  10:simpleserial-ml-kem-512.c ****     This program is distributed in the hope that it will be useful,
  11:simpleserial-ml-kem-512.c ****     but WITHOUT ANY WARRANTY; without even the implied warranty of
  12:simpleserial-ml-kem-512.c ****     MERCHANTABILITY or FITNESS FOR A PARTICULAR PURPOSE.  See the
  13:simpleserial-ml-kem-512.c ****     GNU General Public License for more details.
  14:simpleserial-ml-kem-512.c **** 
  15:simpleserial-ml-kem-512.c ****     You should have received a copy of the GNU General Public License
  16:simpleserial-ml-kem-512.c ****     along with this program.  If not, see <http://www.gnu.org/licenses/>.
  17:simpleserial-ml-kem-512.c **** */
  18:simpleserial-ml-kem-512.c **** 
  19:simpleserial-ml-kem-512.c **** #include "hal.h"
  20:simpleserial-ml-kem-512.c **** #include "simpleserial.h"
  21:simpleserial-ml-kem-512.c **** #include <stdint.h>
  22:simpleserial-ml-kem-512.c **** #include <stdlib.h>
  23:simpleserial-ml-kem-512.c **** 
  24:simpleserial-ml-kem-512.c **** /* SAM4S GPIO includes for LED control */
  25:simpleserial-ml-kem-512.c **** #include "pio.h"
  26:simpleserial-ml-kem-512.c **** #include "gpio.h"
  27:simpleserial-ml-kem-512.c **** 
  28:simpleserial-ml-kem-512.c **** /* ML-KEM-512 includes */
  29:simpleserial-ml-kem-512.c **** #include "indcpa.h"
  30:simpleserial-ml-kem-512.c **** #include "kem.h"
  31:simpleserial-ml-kem-512.c **** #include "params.h"
  32:simpleserial-ml-kem-512.c **** #include "randombytes.h"
  33:simpleserial-ml-kem-512.c **** #include "symmetric.h"
  34:simpleserial-ml-kem-512.c **** #include "verify.h"
  35:simpleserial-ml-kem-512.c **** #include <stddef.h>
  36:simpleserial-ml-kem-512.c **** #include <stdint.h>
  37:simpleserial-ml-kem-512.c **** #include <string.h>
  38:simpleserial-ml-kem-512.c **** 
  39:simpleserial-ml-kem-512.c **** //uint8_t pk[PQCLEAN_MLKEM512_CLEAN_CRYPTO_PUBLICKEYBYTES];
  40:simpleserial-ml-kem-512.c **** //uint8_t sk[PQCLEAN_MLKEM512_CLEAN_CRYPTO_SECRETKEYBYTES];
  41:simpleserial-ml-kem-512.c **** //uint8_t ct[PQCLEAN_MLKEM512_CLEAN_CRYPTO_CIPHERTEXTBYTES];
  42:simpleserial-ml-kem-512.c **** //uint8_t ss[PQCLEAN_MLKEM512_CLEAN_CRYPTO_BYTES];
  43:simpleserial-ml-kem-512.c **** 
  44:simpleserial-ml-kem-512.c **** uint8_t pk[KYBER_PUBLICKEYBYTES] = {0};
  45:simpleserial-ml-kem-512.c **** 
  46:simpleserial-ml-kem-512.c **** uint8_t sk[KYBER_SECRETKEYBYTES] = {0};
  47:simpleserial-ml-kem-512.c **** 
  48:simpleserial-ml-kem-512.c **** uint8_t ct[KYBER_CIPHERTEXTBYTES] = {0};
  49:simpleserial-ml-kem-512.c **** 
  50:simpleserial-ml-kem-512.c **** uint8_t ss[KYBER_SSBYTES] = {0};
  51:simpleserial-ml-kem-512.c **** 
  52:simpleserial-ml-kem-512.c **** uint8_t ss2[KYBER_SSBYTES] = {0};
  53:simpleserial-ml-kem-512.c **** 
  54:simpleserial-ml-kem-512.c **** static uint8_t ss_result[KYBER_SSBYTES];
  55:simpleserial-ml-kem-512.c **** static uint8_t decap_buf[2 * KYBER_SYMBYTES];
  56:simpleserial-ml-kem-512.c **** static uint8_t decap_kr[2 * KYBER_SYMBYTES];
  57:simpleserial-ml-kem-512.c **** static uint8_t decap_decrypted_buf[KYBER_SYMBYTES];
  58:simpleserial-ml-kem-512.c **** 
  59:simpleserial-ml-kem-512.c **** #if SS_VER == SS_VER_2_1
  60:simpleserial-ml-kem-512.c **** #define MLKEM_SS_V21_CMD         0x01
  61:simpleserial-ml-kem-512.c **** #define MLKEM_SS_V21_CMD_RX      0x02
  62:simpleserial-ml-kem-512.c **** #define MLKEM_SS_V21_CMD_TX      0x03
  63:simpleserial-ml-kem-512.c **** #define MLKEM_SS_V21_CHUNK_SK    204u
  64:simpleserial-ml-kem-512.c **** #define MLKEM_SS_V21_CHUNK_PK    200u
  65:simpleserial-ml-kem-512.c **** #define MLKEM_SS_V21_CHUNK_CT    192u
  66:simpleserial-ml-kem-512.c **** #define MLKEM_SS_V21_SK_CHUNKS   8u
  67:simpleserial-ml-kem-512.c **** #define MLKEM_SS_V21_PK_CHUNKS   4u
  68:simpleserial-ml-kem-512.c **** #define MLKEM_SS_V21_CT_CHUNKS   4u
  69:simpleserial-ml-kem-512.c **** #define MLKEM_SS_V21_SK_MASK     ((1u << MLKEM_SS_V21_SK_CHUNKS) - 1u)
  70:simpleserial-ml-kem-512.c **** #define MLKEM_SS_V21_PK_MASK     ((1u << MLKEM_SS_V21_PK_CHUNKS) - 1u)
  71:simpleserial-ml-kem-512.c **** #define MLKEM_SS_V21_CT_MASK     ((1u << MLKEM_SS_V21_CT_CHUNKS) - 1u)
  72:simpleserial-ml-kem-512.c **** 
  73:simpleserial-ml-kem-512.c **** enum {
  74:simpleserial-ml-kem-512.c ****     MLKEM_SS_V21_SCMD_SK_BASE = 0x00,
  75:simpleserial-ml-kem-512.c ****     MLKEM_SS_V21_SCMD_PK_BASE = 0x10,
  76:simpleserial-ml-kem-512.c ****     MLKEM_SS_V21_SCMD_CT_BASE = 0x20,
  77:simpleserial-ml-kem-512.c ****     MLKEM_SS_V21_SCMD_SS = 0x30,
  78:simpleserial-ml-kem-512.c ****     MLKEM_SS_V21_SCMD_DECAP = 0x40
  79:simpleserial-ml-kem-512.c **** };
  80:simpleserial-ml-kem-512.c **** 
  81:simpleserial-ml-kem-512.c **** static uint8_t sk_chunks_loaded = 0;
  82:simpleserial-ml-kem-512.c **** static uint8_t pk_chunks_loaded = 0;
  83:simpleserial-ml-kem-512.c **** static uint8_t ct_chunks_loaded = 0;
  84:simpleserial-ml-kem-512.c **** static uint8_t ss_loaded = 0;
  85:simpleserial-ml-kem-512.c **** #endif
  86:simpleserial-ml-kem-512.c **** 
  87:simpleserial-ml-kem-512.c **** /*Led functions*/
  88:simpleserial-ml-kem-512.c **** /* LED Control Functions for CW313/SAM4S (CWHUSKY)
  89:simpleserial-ml-kem-512.c ****    Pins: 14, 15, 16 correspond to LED3, LED2, LED1 on the board */
  90:simpleserial-ml-kem-512.c **** /* Using direct pin numbers instead of PIO_PA*_IDX to avoid header issues */
  91:simpleserial-ml-kem-512.c **** #define LED1    16  /* Pin 16 on port A */
  92:simpleserial-ml-kem-512.c **** #define LED2    15  /* Pin 15 on port A */
  93:simpleserial-ml-kem-512.c **** #define LED3    14  /* Pin 14 on port A */
  94:simpleserial-ml-kem-512.c **** 
  95:simpleserial-ml-kem-512.c **** /* LED State variables to track on/off status */
  96:simpleserial-ml-kem-512.c **** static volatile uint8_t LED1State = 0;  /* 0 = off, 1 = on */
  97:simpleserial-ml-kem-512.c **** static volatile uint8_t LED2State = 0;
  98:simpleserial-ml-kem-512.c **** static volatile uint8_t LED3State = 0;
  99:simpleserial-ml-kem-512.c **** 
 100:simpleserial-ml-kem-512.c **** /* function to delay almost a second */
 101:simpleserial-ml-kem-512.c **** static void delay_seconds(uint32_t seconds)
 102:simpleserial-ml-kem-512.c **** {
 103:simpleserial-ml-kem-512.c ****     const uint32_t loops_per_sec = 7000000u;
 104:simpleserial-ml-kem-512.c ****     for (uint32_t s = 0; s < seconds; s++) {
 105:simpleserial-ml-kem-512.c ****         for (volatile uint32_t i = 0; i < loops_per_sec; i++) {
 106:simpleserial-ml-kem-512.c ****             __asm__ volatile ("nop");
 107:simpleserial-ml-kem-512.c ****         }
 108:simpleserial-ml-kem-512.c ****     }
 109:simpleserial-ml-kem-512.c **** }
 110:simpleserial-ml-kem-512.c **** 
 111:simpleserial-ml-kem-512.c **** uint8_t led_toggle(uint8_t* m, uint8_t len){
 112:simpleserial-ml-kem-512.c ****     int led = m[0];  // Get LED number from input byte (14=LED3, 15=LED2, 16=LED1)
 113:simpleserial-ml-kem-512.c ****     uint8_t current_state = 0;
 114:simpleserial-ml-kem-512.c ****     
 115:simpleserial-ml-kem-512.c ****     // Get current state
 116:simpleserial-ml-kem-512.c ****     if(led == LED1) current_state = LED1State;
 117:simpleserial-ml-kem-512.c ****     else if(led == LED2) current_state = LED2State;
 118:simpleserial-ml-kem-512.c ****     else if(led == LED3) current_state = LED3State;
 119:simpleserial-ml-kem-512.c ****     
 120:simpleserial-ml-kem-512.c ****     // Toggle: if on, turn off; if off, turn on
 121:simpleserial-ml-kem-512.c ****     if(current_state == 1){
 122:simpleserial-ml-kem-512.c ****         gpio_set_pin_low(led);
 123:simpleserial-ml-kem-512.c ****         if(led == LED1) LED1State = 0;
 124:simpleserial-ml-kem-512.c ****         else if(led == LED2) LED2State = 0;
 125:simpleserial-ml-kem-512.c ****         else if(led == LED3) LED3State = 0;
 126:simpleserial-ml-kem-512.c ****     } else {
 127:simpleserial-ml-kem-512.c ****         gpio_set_pin_high(led);
 128:simpleserial-ml-kem-512.c ****         if(led == LED1) LED1State = 1;
 129:simpleserial-ml-kem-512.c ****         else if(led == LED2) LED2State = 1;
 130:simpleserial-ml-kem-512.c ****         else if(led == LED3) LED3State = 1;
 131:simpleserial-ml-kem-512.c ****     }
 132:simpleserial-ml-kem-512.c ****     
 133:simpleserial-ml-kem-512.c ****     return 0;
 134:simpleserial-ml-kem-512.c **** }
 135:simpleserial-ml-kem-512.c **** 
 136:simpleserial-ml-kem-512.c **** // Serial command callbacks for LED control
 137:simpleserial-ml-kem-512.c **** uint8_t led_on_cmd(uint8_t* m, uint8_t len){
 138:simpleserial-ml-kem-512.c ****     int led = m[0];  // Get LED number from input byte
 139:simpleserial-ml-kem-512.c ****     gpio_set_pin_high(led);
 140:simpleserial-ml-kem-512.c ****     if(led == LED1) LED1State = 1;
 141:simpleserial-ml-kem-512.c ****     else if(led == LED2) LED2State = 1;
 142:simpleserial-ml-kem-512.c ****     else if(led == LED3) LED3State = 1;
 143:simpleserial-ml-kem-512.c ****     return 0;
 144:simpleserial-ml-kem-512.c **** }
 145:simpleserial-ml-kem-512.c **** 
 146:simpleserial-ml-kem-512.c **** uint8_t led_off_cmd(uint8_t* m, uint8_t len){
 147:simpleserial-ml-kem-512.c ****     int led = m[0];  // Get LED number from input byte
 148:simpleserial-ml-kem-512.c ****     gpio_set_pin_low(led);
 149:simpleserial-ml-kem-512.c ****     if(led == LED1) LED1State = 0;
 150:simpleserial-ml-kem-512.c ****     else if(led == LED2) LED2State = 0;
 151:simpleserial-ml-kem-512.c ****     else if(led == LED3) LED3State = 0;
 152:simpleserial-ml-kem-512.c ****     return 0;
 153:simpleserial-ml-kem-512.c **** }
 154:simpleserial-ml-kem-512.c **** 
 155:simpleserial-ml-kem-512.c **** // Helper functions for direct LED control in code (not via serial)
 156:simpleserial-ml-kem-512.c **** void led_on(int led) {
 157:simpleserial-ml-kem-512.c ****     gpio_set_pin_high(led);
 158:simpleserial-ml-kem-512.c ****     if(led == LED1) LED1State = 1;
 159:simpleserial-ml-kem-512.c ****     else if(led == LED2) LED2State = 1;
 160:simpleserial-ml-kem-512.c ****     else if(led == LED3) LED3State = 1;
 161:simpleserial-ml-kem-512.c **** }
 162:simpleserial-ml-kem-512.c **** 
 163:simpleserial-ml-kem-512.c **** void led_off(int led) {
 164:simpleserial-ml-kem-512.c ****     gpio_set_pin_low(led);
 165:simpleserial-ml-kem-512.c ****     if(led == LED1) LED1State = 0;
 166:simpleserial-ml-kem-512.c ****     else if(led == LED2) LED2State = 0;
 167:simpleserial-ml-kem-512.c ****     else if(led == LED3) LED3State = 0;
 168:simpleserial-ml-kem-512.c **** }
 169:simpleserial-ml-kem-512.c **** 
 170:simpleserial-ml-kem-512.c **** static void set_led_pattern(uint8_t led1_on, uint8_t led2_on, uint8_t led3_on)
 171:simpleserial-ml-kem-512.c **** {
 172:simpleserial-ml-kem-512.c ****     if (led1_on) led_on(LED1);
 173:simpleserial-ml-kem-512.c ****     else led_off(LED1);
 174:simpleserial-ml-kem-512.c **** 
 175:simpleserial-ml-kem-512.c ****     if (led2_on) led_on(LED2);
 176:simpleserial-ml-kem-512.c ****     else led_off(LED2);
 177:simpleserial-ml-kem-512.c **** 
 178:simpleserial-ml-kem-512.c ****     if (led3_on) led_on(LED3);
 179:simpleserial-ml-kem-512.c ****     else led_off(LED3);
 180:simpleserial-ml-kem-512.c **** }
 181:simpleserial-ml-kem-512.c **** 
 182:simpleserial-ml-kem-512.c **** // Get LED state - returns 1 if LED is on, 0 if off
 183:simpleserial-ml-kem-512.c **** uint8_t get_led_state(int led) {
 184:simpleserial-ml-kem-512.c ****     if(led == LED1) return LED1State;
 185:simpleserial-ml-kem-512.c ****     else if(led == LED2) return LED2State;
 186:simpleserial-ml-kem-512.c ****     else if(led == LED3) return LED3State;
 187:simpleserial-ml-kem-512.c ****     return 0;
 188:simpleserial-ml-kem-512.c **** }
 189:simpleserial-ml-kem-512.c **** /*Led functions done*/
 190:simpleserial-ml-kem-512.c **** 
 191:simpleserial-ml-kem-512.c **** /* ML-KEM-512 Decapsulation: Complete with indcpa_dec, hash_g, verify, cmov */
 192:simpleserial-ml-kem-512.c **** uint8_t ml_kem_512_decap(uint8_t* k, uint8_t len)
 193:simpleserial-ml-kem-512.c **** {
 194:simpleserial-ml-kem-512.c ****     int fail;  /* Global fail variable for cmov comparison */
 195:simpleserial-ml-kem-512.c ****     (void)k;
 196:simpleserial-ml-kem-512.c ****     (void)len;
 197:simpleserial-ml-kem-512.c ****     
 198:simpleserial-ml-kem-512.c ****     set_led_pattern(1, 0, 0);  /* Stage 1: entering indcpa_dec */
 199:simpleserial-ml-kem-512.c ****     
 200:simpleserial-ml-kem-512.c ****     
 201:simpleserial-ml-kem-512.c ****     /* Decrypt ciphertext using secret key */
 202:simpleserial-ml-kem-512.c ****     PQCLEAN_MLKEM512_CLEAN_indcpa_dec(decap_decrypted_buf, ct, sk);
 203:simpleserial-ml-kem-512.c ****     
 204:simpleserial-ml-kem-512.c ****     /* Prepare buffer for hash_g (decrypted_msg || secret_seed) */
 205:simpleserial-ml-kem-512.c ****     memcpy(decap_buf, decap_decrypted_buf, KYBER_SYMBYTES);
 206:simpleserial-ml-kem-512.c ****     memcpy(decap_buf + KYBER_SYMBYTES, sk + KYBER_SECRETKEYBYTES - 2 * KYBER_SYMBYTES, KYBER_SYMBYT
 207:simpleserial-ml-kem-512.c ****     
 208:simpleserial-ml-kem-512.c ****     /* Compute hash_g(kr, buf, 2 * KYBER_SYMBYTES) */
 209:simpleserial-ml-kem-512.c ****     hash_g(decap_kr, decap_buf, 2 * KYBER_SYMBYTES);
 210:simpleserial-ml-kem-512.c ****     
 211:simpleserial-ml-kem-512.c ****     set_led_pattern(0, 1, 0);  /* Stage 2: hash_g done */
 212:simpleserial-ml-kem-512.c ****     
 213:simpleserial-ml-kem-512.c ****     /* coins are in kr+KYBER_SYMBYTES */
 214:simpleserial-ml-kem-512.c ****     //PQCLEAN_MLKEM512_CLEAN_indcpa_enc(cmp, decrypted_buf, pk, kr + KYBER_SYMBYTES);
 215:simpleserial-ml-kem-512.c ****     
 216:simpleserial-ml-kem-512.c ****     /* Verify: compare input ct with re-encrypted cmp */
 217:simpleserial-ml-kem-512.c ****     set_led_pattern(1, 1, 0);  /* Stage 3: entering verify */
 218:simpleserial-ml-kem-512.c ****     fail = PQCLEAN_MLKEM512_CLEAN_verify(ct, ct, KYBER_CIPHERTEXTBYTES);
 219:simpleserial-ml-kem-512.c ****     
 220:simpleserial-ml-kem-512.c ****     /* Compute rejection key for invalid ciphertexts */
 221:simpleserial-ml-kem-512.c ****     set_led_pattern(0, 1, 1);  /* Stage 4: entering rkprf */
 222:simpleserial-ml-kem-512.c ****     rkprf(ss_result, sk + KYBER_SECRETKEYBYTES - KYBER_SYMBYTES, ct);
 223:simpleserial-ml-kem-512.c **** 
 224:simpleserial-ml-kem-512.c ****     set_led_pattern(1, 0, 1);  /* Stage 5: entering cmov */
 225:simpleserial-ml-kem-512.c ****     
 226:simpleserial-ml-kem-512.c ****     /* CONDITIONAL MOVE: Copy true key if fail==0 (valid), else keep rejection key */
 227:simpleserial-ml-kem-512.c ****     trigger_high();
 228:simpleserial-ml-kem-512.c ****     PQCLEAN_MLKEM512_CLEAN_cmov(ss_result, decap_kr, KYBER_SYMBYTES, (uint8_t)(1 - fail));
 229:simpleserial-ml-kem-512.c ****     trigger_low();
 230:simpleserial-ml-kem-512.c **** 
 231:simpleserial-ml-kem-512.c ****     set_led_pattern(0, 0, 1);  /* Stage 6: decap finished */
 232:simpleserial-ml-kem-512.c ****     
 233:simpleserial-ml-kem-512.c ****     /* Send shared secret back */
 234:simpleserial-ml-kem-512.c ****     //simpleserial_put('r', PQCLEAN_MLKEM512_CLEAN_CRYPTO_BYTES, ss);
 235:simpleserial-ml-kem-512.c ****     
 236:simpleserial-ml-kem-512.c **** 	return 0x00;
 237:simpleserial-ml-kem-512.c **** }
 238:simpleserial-ml-kem-512.c **** 
 239:simpleserial-ml-kem-512.c **** #if SS_VER == SS_VER_2_1
 240:simpleserial-ml-kem-512.c **** static uint8_t v21_copy_chunk(uint8_t *dst, size_t dst_len, uint8_t chunk_len,
 241:simpleserial-ml-kem-512.c ****                               uint8_t chunk_index, uint8_t total_chunks,
 242:simpleserial-ml-kem-512.c ****                               uint8_t len, const uint8_t *buf)
 243:simpleserial-ml-kem-512.c **** {
 244:simpleserial-ml-kem-512.c ****     size_t offset;
 245:simpleserial-ml-kem-512.c **** 
 246:simpleserial-ml-kem-512.c ****     if ((chunk_index >= total_chunks) || (len != chunk_len)) {
 247:simpleserial-ml-kem-512.c ****         return SS_ERR_LEN;
 248:simpleserial-ml-kem-512.c ****     }
 249:simpleserial-ml-kem-512.c **** 
 250:simpleserial-ml-kem-512.c ****     offset = (size_t)chunk_index * chunk_len;
 251:simpleserial-ml-kem-512.c ****     if ((offset + chunk_len) > dst_len) {
 252:simpleserial-ml-kem-512.c ****         return SS_ERR_LEN;
 253:simpleserial-ml-kem-512.c ****     }
 254:simpleserial-ml-kem-512.c **** 
 255:simpleserial-ml-kem-512.c ****     memcpy(dst + offset, buf, chunk_len);
 256:simpleserial-ml-kem-512.c ****     return SS_ERR_OK;
 257:simpleserial-ml-kem-512.c **** }
 258:simpleserial-ml-kem-512.c **** 
 259:simpleserial-ml-kem-512.c **** static void v21_sync_pk_into_sk(void)
 260:simpleserial-ml-kem-512.c **** {
 261:simpleserial-ml-kem-512.c ****     memcpy(sk + KYBER_INDCPA_SECRETKEYBYTES, pk, KYBER_PUBLICKEYBYTES);
 262:simpleserial-ml-kem-512.c ****     hash_h(sk + KYBER_SECRETKEYBYTES - 2 * KYBER_SYMBYTES, pk, KYBER_PUBLICKEYBYTES);
 263:simpleserial-ml-kem-512.c **** }
 264:simpleserial-ml-kem-512.c **** 
 265:simpleserial-ml-kem-512.c **** static uint8_t v21_handle_vector_write(uint8_t scmd, uint8_t len, const uint8_t *buf)
 266:simpleserial-ml-kem-512.c **** {
 267:simpleserial-ml-kem-512.c ****     uint8_t chunk_index;
 268:simpleserial-ml-kem-512.c ****     uint8_t err;
 269:simpleserial-ml-kem-512.c **** 
 270:simpleserial-ml-kem-512.c ****     if ((scmd >= MLKEM_SS_V21_SCMD_SK_BASE) &&
 271:simpleserial-ml-kem-512.c ****         (scmd < (MLKEM_SS_V21_SCMD_SK_BASE + MLKEM_SS_V21_SK_CHUNKS))) {
 272:simpleserial-ml-kem-512.c ****         chunk_index = scmd - MLKEM_SS_V21_SCMD_SK_BASE;
 273:simpleserial-ml-kem-512.c ****         err = v21_copy_chunk(sk, sizeof(sk), MLKEM_SS_V21_CHUNK_SK, chunk_index,
 274:simpleserial-ml-kem-512.c ****                              MLKEM_SS_V21_SK_CHUNKS, len, buf);
 275:simpleserial-ml-kem-512.c ****         if (err == SS_ERR_OK) {
 276:simpleserial-ml-kem-512.c ****             sk_chunks_loaded |= (uint8_t)(1u << chunk_index);
 277:simpleserial-ml-kem-512.c ****         }
 278:simpleserial-ml-kem-512.c ****         return err;
 279:simpleserial-ml-kem-512.c ****     }
 280:simpleserial-ml-kem-512.c **** 
 281:simpleserial-ml-kem-512.c ****     if ((scmd >= MLKEM_SS_V21_SCMD_PK_BASE) &&
 282:simpleserial-ml-kem-512.c ****         (scmd < (MLKEM_SS_V21_SCMD_PK_BASE + MLKEM_SS_V21_PK_CHUNKS))) {
 283:simpleserial-ml-kem-512.c ****         chunk_index = scmd - MLKEM_SS_V21_SCMD_PK_BASE;
 284:simpleserial-ml-kem-512.c ****         err = v21_copy_chunk(pk, sizeof(pk), MLKEM_SS_V21_CHUNK_PK, chunk_index,
 285:simpleserial-ml-kem-512.c ****                              MLKEM_SS_V21_PK_CHUNKS, len, buf);
 286:simpleserial-ml-kem-512.c ****         if (err == SS_ERR_OK) {
 287:simpleserial-ml-kem-512.c ****             pk_chunks_loaded |= (uint8_t)(1u << chunk_index);
 288:simpleserial-ml-kem-512.c ****             memcpy(sk + KYBER_INDCPA_SECRETKEYBYTES + ((size_t)chunk_index * MLKEM_SS_V21_CHUNK_PK)
 289:simpleserial-ml-kem-512.c ****                    buf,
 290:simpleserial-ml-kem-512.c ****                    MLKEM_SS_V21_CHUNK_PK);
 291:simpleserial-ml-kem-512.c ****             if (pk_chunks_loaded == MLKEM_SS_V21_PK_MASK) {
 292:simpleserial-ml-kem-512.c ****                 v21_sync_pk_into_sk();
 293:simpleserial-ml-kem-512.c ****             }
 294:simpleserial-ml-kem-512.c ****         }
 295:simpleserial-ml-kem-512.c ****         return err;
 296:simpleserial-ml-kem-512.c ****     }
 297:simpleserial-ml-kem-512.c **** 
 298:simpleserial-ml-kem-512.c ****     if ((scmd >= MLKEM_SS_V21_SCMD_CT_BASE) &&
 299:simpleserial-ml-kem-512.c ****         (scmd < (MLKEM_SS_V21_SCMD_CT_BASE + MLKEM_SS_V21_CT_CHUNKS))) {
 300:simpleserial-ml-kem-512.c ****         chunk_index = scmd - MLKEM_SS_V21_SCMD_CT_BASE;
 301:simpleserial-ml-kem-512.c ****         err = v21_copy_chunk(ct, sizeof(ct), MLKEM_SS_V21_CHUNK_CT, chunk_index,
 302:simpleserial-ml-kem-512.c ****                              MLKEM_SS_V21_CT_CHUNKS, len, buf);
 303:simpleserial-ml-kem-512.c ****         if (err == SS_ERR_OK) {
 304:simpleserial-ml-kem-512.c ****             ct_chunks_loaded |= (uint8_t)(1u << chunk_index);
 305:simpleserial-ml-kem-512.c ****         }
 306:simpleserial-ml-kem-512.c ****         return err;
 307:simpleserial-ml-kem-512.c ****     }
 308:simpleserial-ml-kem-512.c **** 
 309:simpleserial-ml-kem-512.c ****     if (scmd == MLKEM_SS_V21_SCMD_SS) {
 310:simpleserial-ml-kem-512.c ****         if (len != KYBER_SSBYTES) {
 311:simpleserial-ml-kem-512.c ****             return SS_ERR_LEN;
 312:simpleserial-ml-kem-512.c ****         }
 313:simpleserial-ml-kem-512.c ****         memcpy(ss, buf, KYBER_SSBYTES);
 314:simpleserial-ml-kem-512.c ****         ss_loaded = 1;
 315:simpleserial-ml-kem-512.c ****         return SS_ERR_OK;
 316:simpleserial-ml-kem-512.c ****     }
 317:simpleserial-ml-kem-512.c **** 
 318:simpleserial-ml-kem-512.c ****     return SS_ERR_CMD;
 319:simpleserial-ml-kem-512.c **** }
 320:simpleserial-ml-kem-512.c **** 
 321:simpleserial-ml-kem-512.c **** static uint8_t v21_readback_bounds(uint8_t scmd, const uint8_t **src, uint8_t *out_len)
 322:simpleserial-ml-kem-512.c **** {
 323:simpleserial-ml-kem-512.c ****     uint8_t chunk_index;
 324:simpleserial-ml-kem-512.c ****     size_t offset;
 325:simpleserial-ml-kem-512.c **** 
 326:simpleserial-ml-kem-512.c ****     if ((scmd >= MLKEM_SS_V21_SCMD_SK_BASE) &&
 327:simpleserial-ml-kem-512.c ****         (scmd < (MLKEM_SS_V21_SCMD_SK_BASE + MLKEM_SS_V21_SK_CHUNKS))) {
 328:simpleserial-ml-kem-512.c ****         chunk_index = scmd - MLKEM_SS_V21_SCMD_SK_BASE;
 329:simpleserial-ml-kem-512.c ****         offset = (size_t)chunk_index * MLKEM_SS_V21_CHUNK_SK;
 330:simpleserial-ml-kem-512.c ****         *src = sk + offset;
 331:simpleserial-ml-kem-512.c ****         *out_len = MLKEM_SS_V21_CHUNK_SK;
 332:simpleserial-ml-kem-512.c ****         return SS_ERR_OK;
 333:simpleserial-ml-kem-512.c ****     }
 334:simpleserial-ml-kem-512.c **** 
 335:simpleserial-ml-kem-512.c ****     if ((scmd >= MLKEM_SS_V21_SCMD_PK_BASE) &&
 336:simpleserial-ml-kem-512.c ****         (scmd < (MLKEM_SS_V21_SCMD_PK_BASE + MLKEM_SS_V21_PK_CHUNKS))) {
 337:simpleserial-ml-kem-512.c ****         chunk_index = scmd - MLKEM_SS_V21_SCMD_PK_BASE;
 338:simpleserial-ml-kem-512.c ****         offset = (size_t)chunk_index * MLKEM_SS_V21_CHUNK_PK;
 339:simpleserial-ml-kem-512.c ****         *src = pk + offset;
 340:simpleserial-ml-kem-512.c ****         *out_len = MLKEM_SS_V21_CHUNK_PK;
 341:simpleserial-ml-kem-512.c ****         return SS_ERR_OK;
 342:simpleserial-ml-kem-512.c ****     }
 343:simpleserial-ml-kem-512.c **** 
 344:simpleserial-ml-kem-512.c ****     if ((scmd >= MLKEM_SS_V21_SCMD_CT_BASE) &&
 345:simpleserial-ml-kem-512.c ****         (scmd < (MLKEM_SS_V21_SCMD_CT_BASE + MLKEM_SS_V21_CT_CHUNKS))) {
 346:simpleserial-ml-kem-512.c ****         chunk_index = scmd - MLKEM_SS_V21_SCMD_CT_BASE;
 347:simpleserial-ml-kem-512.c ****         offset = (size_t)chunk_index * MLKEM_SS_V21_CHUNK_CT;
 348:simpleserial-ml-kem-512.c ****         *src = ct + offset;
 349:simpleserial-ml-kem-512.c ****         *out_len = MLKEM_SS_V21_CHUNK_CT;
 350:simpleserial-ml-kem-512.c ****         return SS_ERR_OK;
 351:simpleserial-ml-kem-512.c ****     }
 352:simpleserial-ml-kem-512.c **** 
 353:simpleserial-ml-kem-512.c ****     if (scmd == MLKEM_SS_V21_SCMD_SS) {
 354:simpleserial-ml-kem-512.c ****         *src = ss;
 355:simpleserial-ml-kem-512.c ****         *out_len = KYBER_SSBYTES;
 356:simpleserial-ml-kem-512.c ****         return SS_ERR_OK;
 357:simpleserial-ml-kem-512.c ****     }
 358:simpleserial-ml-kem-512.c **** 
 359:simpleserial-ml-kem-512.c ****     return SS_ERR_CMD;
 360:simpleserial-ml-kem-512.c **** }
 361:simpleserial-ml-kem-512.c **** 
 362:simpleserial-ml-kem-512.c **** static uint8_t led_on_cmd_v21(uint8_t cmd, uint8_t scmd, uint8_t len, uint8_t *buf)
 363:simpleserial-ml-kem-512.c **** {
 364:simpleserial-ml-kem-512.c ****     (void)cmd;
 365:simpleserial-ml-kem-512.c ****     (void)scmd;
 366:simpleserial-ml-kem-512.c ****     if (len != 1) {
 367:simpleserial-ml-kem-512.c ****         return SS_ERR_LEN;
 368:simpleserial-ml-kem-512.c ****     }
 369:simpleserial-ml-kem-512.c ****     return led_on_cmd(buf, len);
 370:simpleserial-ml-kem-512.c **** }
 371:simpleserial-ml-kem-512.c **** 
 372:simpleserial-ml-kem-512.c **** static uint8_t led_off_cmd_v21(uint8_t cmd, uint8_t scmd, uint8_t len, uint8_t *buf)
 373:simpleserial-ml-kem-512.c **** {
 374:simpleserial-ml-kem-512.c ****     (void)cmd;
 375:simpleserial-ml-kem-512.c ****     (void)scmd;
 376:simpleserial-ml-kem-512.c ****     if (len != 1) {
 377:simpleserial-ml-kem-512.c ****         return SS_ERR_LEN;
 378:simpleserial-ml-kem-512.c ****     }
 379:simpleserial-ml-kem-512.c ****     return led_off_cmd(buf, len);
 380:simpleserial-ml-kem-512.c **** }
 381:simpleserial-ml-kem-512.c **** 
 382:simpleserial-ml-kem-512.c **** static uint8_t led_toggle_v21(uint8_t cmd, uint8_t scmd, uint8_t len, uint8_t *buf)
 383:simpleserial-ml-kem-512.c **** {
 384:simpleserial-ml-kem-512.c ****     (void)cmd;
 385:simpleserial-ml-kem-512.c ****     (void)scmd;
 386:simpleserial-ml-kem-512.c ****     if (len != 1) {
 387:simpleserial-ml-kem-512.c ****         return SS_ERR_LEN;
 388:simpleserial-ml-kem-512.c ****     }
 389:simpleserial-ml-kem-512.c ****     return led_toggle(buf, len);
 390:simpleserial-ml-kem-512.c **** }
 391:simpleserial-ml-kem-512.c **** 
 392:simpleserial-ml-kem-512.c **** uint8_t ml_kem_512(uint8_t cmd, uint8_t scmd, uint8_t len, uint8_t *buf)
 393:simpleserial-ml-kem-512.c **** {
 394:simpleserial-ml-kem-512.c ****     uint8_t err;
 395:simpleserial-ml-kem-512.c **** 
 396:simpleserial-ml-kem-512.c ****     (void)cmd;
 397:simpleserial-ml-kem-512.c **** 
 398:simpleserial-ml-kem-512.c ****     err = v21_handle_vector_write(scmd, len, buf);
 399:simpleserial-ml-kem-512.c ****     if (err != SS_ERR_CMD) {
 400:simpleserial-ml-kem-512.c ****         return err;
 401:simpleserial-ml-kem-512.c ****     }
 402:simpleserial-ml-kem-512.c **** 
 403:simpleserial-ml-kem-512.c ****     if (scmd == MLKEM_SS_V21_SCMD_DECAP) {
 404:simpleserial-ml-kem-512.c ****         if (len != 0) {
 405:simpleserial-ml-kem-512.c ****             return SS_ERR_LEN;
 406:simpleserial-ml-kem-512.c ****         }
 407:simpleserial-ml-kem-512.c ****         if ((sk_chunks_loaded != MLKEM_SS_V21_SK_MASK) ||
 408:simpleserial-ml-kem-512.c ****             (pk_chunks_loaded != MLKEM_SS_V21_PK_MASK) ||
 409:simpleserial-ml-kem-512.c ****             (ct_chunks_loaded != MLKEM_SS_V21_CT_MASK) ||
 410:simpleserial-ml-kem-512.c ****             (ss_loaded == 0)) {
 411:simpleserial-ml-kem-512.c ****             return SS_ERR_LEN;
 412:simpleserial-ml-kem-512.c ****         }
 413:simpleserial-ml-kem-512.c ****         err = ml_kem_512_decap(NULL, 0);
 414:simpleserial-ml-kem-512.c ****         if (err != SS_ERR_OK) {
 415:simpleserial-ml-kem-512.c ****             return err;
 416:simpleserial-ml-kem-512.c ****         }
 417:simpleserial-ml-kem-512.c ****         return PQCLEAN_MLKEM512_CLEAN_verify(ss, ss_result, KYBER_SSBYTES);
 418:simpleserial-ml-kem-512.c ****     }
 419:simpleserial-ml-kem-512.c **** 
 420:simpleserial-ml-kem-512.c ****     return SS_ERR_CMD;
 421:simpleserial-ml-kem-512.c **** }
 422:simpleserial-ml-kem-512.c **** 
 423:simpleserial-ml-kem-512.c **** static uint8_t ml_kem_512_rx_chunk(uint8_t cmd, uint8_t scmd, uint8_t len, uint8_t *buf)
 424:simpleserial-ml-kem-512.c **** {
 425:simpleserial-ml-kem-512.c ****     (void)cmd;
 426:simpleserial-ml-kem-512.c ****     return v21_handle_vector_write(scmd, len, buf);
 427:simpleserial-ml-kem-512.c **** }
 428:simpleserial-ml-kem-512.c **** 
 429:simpleserial-ml-kem-512.c **** static uint8_t ml_kem_512_tx_chunk(uint8_t cmd, uint8_t scmd, uint8_t len, uint8_t *buf)
 430:simpleserial-ml-kem-512.c **** {
  27              	 .loc 1 430 1 view-0
  28              	 .cfi_startproc
  29              	 
  30              	 
 431:simpleserial-ml-kem-512.c ****     const uint8_t *src;
  31              	 .loc 1 431 5 view .LVU1
 432:simpleserial-ml-kem-512.c ****     uint8_t out_len;
  32              	 .loc 1 432 5 view .LVU2
 433:simpleserial-ml-kem-512.c ****     uint8_t err;
  33              	 .loc 1 433 5 view .LVU3
 434:simpleserial-ml-kem-512.c **** 
 435:simpleserial-ml-kem-512.c ****     (void)cmd;
  34              	 .loc 1 435 5 view .LVU4
 436:simpleserial-ml-kem-512.c ****     (void)buf;
  35              	 .loc 1 436 5 view .LVU5
 437:simpleserial-ml-kem-512.c **** 
 438:simpleserial-ml-kem-512.c ****     if (len != 0) {
  36              	 .loc 1 438 5 view .LVU6
 430:simpleserial-ml-kem-512.c ****     const uint8_t *src;
  37              	 .loc 1 430 1 is_stmt 0 view .LVU7
  38 0000 10B5     	 push {r4,lr}
  39              	.LCFI0:
  40              	 .cfi_def_cfa_offset 8
  41              	 .cfi_offset 4,-8
  42              	 .cfi_offset 14,-4
 430:simpleserial-ml-kem-512.c ****     const uint8_t *src;
  43              	 .loc 1 430 1 view .LVU8
  44 0002 0846     	 mov r0,r1
  45              	.LVL1:
  46              	 .loc 1 438 8 view .LVU9
  47 0004 1446     	 mov r4,r2
  48 0006 0ABB     	 cbnz r2,.L7
  49              	.LVL2:
  50              	.LBB6:
  51              	.LBI6:
 429:simpleserial-ml-kem-512.c **** {
  52              	 .loc 1 429 16 is_stmt 1 view .LVU10
  53              	.LBB7:
 439:simpleserial-ml-kem-512.c ****         return SS_ERR_LEN;
 440:simpleserial-ml-kem-512.c ****     }
 441:simpleserial-ml-kem-512.c **** 
 442:simpleserial-ml-kem-512.c ****     err = v21_readback_bounds(scmd, &src, &out_len);
  54              	 .loc 1 442 5 view .LVU11
  55              	.LBB8:
  56              	.LBI8:
 321:simpleserial-ml-kem-512.c **** {
  57              	 .loc 1 321 16 view .LVU12
  58              	.LBB9:
 323:simpleserial-ml-kem-512.c ****     size_t offset;
  59              	 .loc 1 323 5 view .LVU13
 324:simpleserial-ml-kem-512.c **** 
  60              	 .loc 1 324 5 view .LVU14
 326:simpleserial-ml-kem-512.c ****         (scmd < (MLKEM_SS_V21_SCMD_SK_BASE + MLKEM_SS_V21_SK_CHUNKS))) {
  61              	 .loc 1 326 5 view .LVU15
 326:simpleserial-ml-kem-512.c ****         (scmd < (MLKEM_SS_V21_SCMD_SK_BASE + MLKEM_SS_V21_SK_CHUNKS))) {
  62              	 .loc 1 326 8 is_stmt 0 view .LVU16
  63 0008 0729     	 cmp r1,#7
  64 000a 08D8     	 bhi .L3
 328:simpleserial-ml-kem-512.c ****         offset = (size_t)chunk_index * MLKEM_SS_V21_CHUNK_SK;
  65              	 .loc 1 328 9 is_stmt 1 view .LVU17
  66              	.LVL3:
 329:simpleserial-ml-kem-512.c ****         *src = sk + offset;
  67              	 .loc 1 329 9 view .LVU18
 330:simpleserial-ml-kem-512.c ****         *out_len = MLKEM_SS_V21_CHUNK_SK;
  68              	 .loc 1 330 9 view .LVU19
 330:simpleserial-ml-kem-512.c ****         *out_len = MLKEM_SS_V21_CHUNK_SK;
  69              	 .loc 1 330 19 is_stmt 0 view .LVU20
  70 000c 114A     	 ldr r2,.L10
  71              	.LVL4:
 329:simpleserial-ml-kem-512.c ****         *src = sk + offset;
  72              	 .loc 1 329 16 view .LVU21
  73 000e CC21     	 movs r1,#204
  74              	.LVL5:
 330:simpleserial-ml-kem-512.c ****         *out_len = MLKEM_SS_V21_CHUNK_SK;
  75              	 .loc 1 330 19 view .LVU22
  76 0010 01FB0022 	 mla r2,r1,r0,r2
  77              	.LVL6:
 331:simpleserial-ml-kem-512.c ****         return SS_ERR_OK;
  78              	 .loc 1 331 9 is_stmt 1 view .LVU23
 332:simpleserial-ml-kem-512.c ****     }
  79              	 .loc 1 332 9 view .LVU24
 332:simpleserial-ml-kem-512.c ****     }
  80              	 .loc 1 332 9 is_stmt 0 view .LVU25
  81              	.LBE9:
  82              	.LBE8:
 443:simpleserial-ml-kem-512.c ****     if (err != SS_ERR_OK) {
  83              	 .loc 1 443 5 is_stmt 1 view .LVU26
  84              	.L4:
 444:simpleserial-ml-kem-512.c ****         return err;
 445:simpleserial-ml-kem-512.c ****     }
 446:simpleserial-ml-kem-512.c **** 
 447:simpleserial-ml-kem-512.c ****     simpleserial_put('k', out_len, src);
  85              	 .loc 1 447 5 view .LVU27
  86 0014 104B     	 ldr r3,.L10+4
  87 0016 6B20     	 movs r0,#107
  88              	.LVL7:
  89              	 .loc 1 447 5 is_stmt 0 view .LVU28
  90 0018 9847     	 blx r3
  91              	.LVL8:
 448:simpleserial-ml-kem-512.c ****     return SS_ERR_OK;
  92              	 .loc 1 448 5 is_stmt 1 view .LVU29
  93              	.L2:
  94              	 .loc 1 448 5 is_stmt 0 view .LVU30
  95              	.LBE7:
  96              	.LBE6:
 449:simpleserial-ml-kem-512.c **** }
  97              	 .loc 1 449 1 view .LVU31
  98 001a 2046     	 mov r0,r4
  99 001c 10BD     	 pop {r4,pc}
 100              	.LVL9:
 101              	.L3:
 102              	.LBB16:
 103              	.LBB14:
 104              	.LBB12:
 105              	.LBB10:
 335:simpleserial-ml-kem-512.c ****         (scmd < (MLKEM_SS_V21_SCMD_PK_BASE + MLKEM_SS_V21_PK_CHUNKS))) {
 106              	 .loc 1 335 5 is_stmt 1 view .LVU32
 335:simpleserial-ml-kem-512.c ****         (scmd < (MLKEM_SS_V21_SCMD_PK_BASE + MLKEM_SS_V21_PK_CHUNKS))) {
 107              	 .loc 1 335 45 is_stmt 0 view .LVU33
 108 001e A1F11002 	 sub r2,r1,#16
 109              	.LVL10:
 335:simpleserial-ml-kem-512.c ****         (scmd < (MLKEM_SS_V21_SCMD_PK_BASE + MLKEM_SS_V21_PK_CHUNKS))) {
 110              	 .loc 1 335 45 view .LVU34
 111 0022 D2B2     	 uxtb r2,r2
 335:simpleserial-ml-kem-512.c ****         (scmd < (MLKEM_SS_V21_SCMD_PK_BASE + MLKEM_SS_V21_PK_CHUNKS))) {
 112              	 .loc 1 335 8 view .LVU35
 113 0024 032A     	 cmp r2,#3
 114 0026 04D8     	 bhi .L5
 337:simpleserial-ml-kem-512.c ****         offset = (size_t)chunk_index * MLKEM_SS_V21_CHUNK_PK;
 115              	 .loc 1 337 9 is_stmt 1 view .LVU36
 116              	.LVL11:
 338:simpleserial-ml-kem-512.c ****         *src = pk + offset;
 117              	 .loc 1 338 9 view .LVU37
 339:simpleserial-ml-kem-512.c ****         *out_len = MLKEM_SS_V21_CHUNK_PK;
 118              	 .loc 1 339 9 view .LVU38
 339:simpleserial-ml-kem-512.c ****         *out_len = MLKEM_SS_V21_CHUNK_PK;
 119              	 .loc 1 339 19 is_stmt 0 view .LVU39
 120 0028 0C4B     	 ldr r3,.L10+8
 121              	.LVL12:
 338:simpleserial-ml-kem-512.c ****         *src = pk + offset;
 122              	 .loc 1 338 16 view .LVU40
 123 002a C821     	 movs r1,#200
 124              	.LVL13:
 125              	.L9:
 348:simpleserial-ml-kem-512.c ****         *out_len = MLKEM_SS_V21_CHUNK_CT;
 126              	 .loc 1 348 19 view .LVU41
 127 002c 01FB0232 	 mla r2,r1,r2,r3
 128              	.LVL14:
 349:simpleserial-ml-kem-512.c ****         return SS_ERR_OK;
 129              	 .loc 1 349 9 is_stmt 1 view .LVU42
 350:simpleserial-ml-kem-512.c ****     }
 130              	 .loc 1 350 9 view .LVU43
 350:simpleserial-ml-kem-512.c ****     }
 131              	 .loc 1 350 9 is_stmt 0 view .LVU44
 132              	.LBE10:
 133              	.LBE12:
 443:simpleserial-ml-kem-512.c ****         return err;
 134              	 .loc 1 443 5 is_stmt 1 view .LVU45
 135 0030 F0E7     	 b .L4
 136              	.LVL15:
 137              	.L5:
 138              	.LBB13:
 139              	.LBB11:
 344:simpleserial-ml-kem-512.c ****         (scmd < (MLKEM_SS_V21_SCMD_CT_BASE + MLKEM_SS_V21_CT_CHUNKS))) {
 140              	 .loc 1 344 5 view .LVU46
 344:simpleserial-ml-kem-512.c ****         (scmd < (MLKEM_SS_V21_SCMD_CT_BASE + MLKEM_SS_V21_CT_CHUNKS))) {
 141              	 .loc 1 344 45 is_stmt 0 view .LVU47
 142 0032 A1F12002 	 sub r2,r1,#32
 143 0036 D2B2     	 uxtb r2,r2
 344:simpleserial-ml-kem-512.c ****         (scmd < (MLKEM_SS_V21_SCMD_CT_BASE + MLKEM_SS_V21_CT_CHUNKS))) {
 144              	 .loc 1 344 8 view .LVU48
 145 0038 032A     	 cmp r2,#3
 146 003a 02D8     	 bhi .L6
 346:simpleserial-ml-kem-512.c ****         offset = (size_t)chunk_index * MLKEM_SS_V21_CHUNK_CT;
 147              	 .loc 1 346 9 is_stmt 1 view .LVU49
 148              	.LVL16:
 347:simpleserial-ml-kem-512.c ****         *src = ct + offset;
 149              	 .loc 1 347 9 view .LVU50
 348:simpleserial-ml-kem-512.c ****         *out_len = MLKEM_SS_V21_CHUNK_CT;
 150              	 .loc 1 348 9 view .LVU51
 348:simpleserial-ml-kem-512.c ****         *out_len = MLKEM_SS_V21_CHUNK_CT;
 151              	 .loc 1 348 19 is_stmt 0 view .LVU52
 152 003c 084B     	 ldr r3,.L10+12
 153              	.LVL17:
 347:simpleserial-ml-kem-512.c ****         *src = ct + offset;
 154              	 .loc 1 347 16 view .LVU53
 155 003e C021     	 movs r1,#192
 156              	.LVL18:
 347:simpleserial-ml-kem-512.c ****         *src = ct + offset;
 157              	 .loc 1 347 16 view .LVU54
 158 0040 F4E7     	 b .L9
 159              	.LVL19:
 160              	.L6:
 353:simpleserial-ml-kem-512.c ****         *src = ss;
 161              	 .loc 1 353 5 is_stmt 1 view .LVU55
 353:simpleserial-ml-kem-512.c ****         *src = ss;
 162              	 .loc 1 353 8 is_stmt 0 view .LVU56
 163 0042 3029     	 cmp r1,#48
 164 0044 04D1     	 bne .L8
 354:simpleserial-ml-kem-512.c ****         *out_len = KYBER_SSBYTES;
 165              	 .loc 1 354 14 view .LVU57
 166 0046 074A     	 ldr r2,.L10+16
 355:simpleserial-ml-kem-512.c ****         return SS_ERR_OK;
 167              	 .loc 1 355 18 view .LVU58
 168 0048 2021     	 movs r1,#32
 169              	.LVL20:
 355:simpleserial-ml-kem-512.c ****         return SS_ERR_OK;
 170              	 .loc 1 355 18 view .LVU59
 171 004a E3E7     	 b .L4
 172              	.LVL21:
 173              	.L7:
 355:simpleserial-ml-kem-512.c ****         return SS_ERR_OK;
 174              	 .loc 1 355 18 view .LVU60
 175              	.LBE11:
 176              	.LBE13:
 177              	.LBE14:
 178              	.LBE16:
 439:simpleserial-ml-kem-512.c ****     }
 179              	 .loc 1 439 16 view .LVU61
 180 004c 0424     	 movs r4,#4
 181 004e E4E7     	 b .L2
 182              	.LVL22:
 183              	.L8:
 184              	.LBB17:
 185              	.LBB15:
 444:simpleserial-ml-kem-512.c ****     }
 186              	 .loc 1 444 16 view .LVU62
 187 0050 0124     	 movs r4,#1
 188              	.LVL23:
 444:simpleserial-ml-kem-512.c ****     }
 189              	 .loc 1 444 16 view .LVU63
 190 0052 E2E7     	 b .L2
 191              	.L11:
 192              	 .align 2
 193              	.L10:
 194 0054 00000000 	 .word sk
 195 0058 00000000 	 .word simpleserial_put
 196 005c 00000000 	 .word pk
 197 0060 00000000 	 .word ct
 198 0064 00000000 	 .word ss
 199              	.LBE15:
 200              	.LBE17:
 201              	 .cfi_endproc
 202              	.LFE154:
 204              	 .section .text.v21_handle_vector_write,"ax",%progbits
 205              	 .align 1
 206              	 .syntax unified
 207              	 .thumb
 208              	 .thumb_func
 210              	v21_handle_vector_write:
 211              	.LVL24:
 212              	.LFB147:
 266:simpleserial-ml-kem-512.c ****     uint8_t chunk_index;
 213              	 .loc 1 266 1 is_stmt 1 view-0
 214              	 .cfi_startproc
 215              	 
 216              	 
 267:simpleserial-ml-kem-512.c ****     uint8_t err;
 217              	 .loc 1 267 5 view .LVU65
 268:simpleserial-ml-kem-512.c **** 
 218              	 .loc 1 268 5 view .LVU66
 270:simpleserial-ml-kem-512.c ****         (scmd < (MLKEM_SS_V21_SCMD_SK_BASE + MLKEM_SS_V21_SK_CHUNKS))) {
 219              	 .loc 1 270 5 view .LVU67
 270:simpleserial-ml-kem-512.c ****         (scmd < (MLKEM_SS_V21_SCMD_SK_BASE + MLKEM_SS_V21_SK_CHUNKS))) {
 220              	 .loc 1 270 8 is_stmt 0 view .LVU68
 221 0000 0728     	 cmp r0,#7
 266:simpleserial-ml-kem-512.c ****     uint8_t chunk_index;
 222              	 .loc 1 266 1 view .LVU69
 223 0002 2DE9F047 	 push {r4,r5,r6,r7,r8,r9,r10,lr}
 224              	.LCFI1:
 225              	 .cfi_def_cfa_offset 32
 226              	 .cfi_offset 4,-32
 227              	 .cfi_offset 5,-28
 228              	 .cfi_offset 6,-24
 229              	 .cfi_offset 7,-20
 230              	 .cfi_offset 8,-16
 231              	 .cfi_offset 9,-12
 232              	 .cfi_offset 10,-8
 233              	 .cfi_offset 14,-4
 266:simpleserial-ml-kem-512.c ****     uint8_t chunk_index;
 234              	 .loc 1 266 1 view .LVU70
 235 0006 0646     	 mov r6,r0
 236 0008 0D46     	 mov r5,r1
 237 000a 1446     	 mov r4,r2
 270:simpleserial-ml-kem-512.c ****         (scmd < (MLKEM_SS_V21_SCMD_SK_BASE + MLKEM_SS_V21_SK_CHUNKS))) {
 238              	 .loc 1 270 8 view .LVU71
 239 000c 11D8     	 bhi .L13
 272:simpleserial-ml-kem-512.c ****         err = v21_copy_chunk(sk, sizeof(sk), MLKEM_SS_V21_CHUNK_SK, chunk_index,
 240              	 .loc 1 272 9 is_stmt 1 view .LVU72
 241              	.LVL25:
 273:simpleserial-ml-kem-512.c ****                              MLKEM_SS_V21_SK_CHUNKS, len, buf);
 242              	 .loc 1 273 9 view .LVU73
 243              	.LBB32:
 244              	.LBI32:
 240:simpleserial-ml-kem-512.c ****                               uint8_t chunk_index, uint8_t total_chunks,
 245              	 .loc 1 240 16 view .LVU74
 246              	.LBB33:
 244:simpleserial-ml-kem-512.c **** 
 247              	 .loc 1 244 5 view .LVU75
 246:simpleserial-ml-kem-512.c ****         return SS_ERR_LEN;
 248              	 .loc 1 246 5 view .LVU76
 246:simpleserial-ml-kem-512.c ****         return SS_ERR_LEN;
 249              	 .loc 1 246 39 is_stmt 0 discriminator 1 view .LVU77
 250 000e CC29     	 cmp r1,#204
 251 0010 66D1     	 bne .L23
 252              	.LVL26:
 253              	.LBB34:
 254              	.LBI34:
 240:simpleserial-ml-kem-512.c ****                               uint8_t chunk_index, uint8_t total_chunks,
 255              	 .loc 1 240 16 is_stmt 1 view .LVU78
 256              	.LBB35:
 250:simpleserial-ml-kem-512.c ****     if ((offset + chunk_len) > dst_len) {
 257              	 .loc 1 250 5 view .LVU79
 251:simpleserial-ml-kem-512.c ****         return SS_ERR_LEN;
 258              	 .loc 1 251 5 view .LVU80
 255:simpleserial-ml-kem-512.c ****     return SS_ERR_OK;
 259              	 .loc 1 255 5 view .LVU81
 260 0012 3448     	 ldr r0,.L26
 261              	.LVL27:
 255:simpleserial-ml-kem-512.c ****     return SS_ERR_OK;
 262              	 .loc 1 255 5 is_stmt 0 view .LVU82
 263 0014 344B     	 ldr r3,.L26+4
 264 0016 0A46     	 mov r2,r1
 265              	.LVL28:
 255:simpleserial-ml-kem-512.c ****     return SS_ERR_OK;
 266              	 .loc 1 255 5 view .LVU83
 267 0018 05FB0600 	 mla r0,r5,r6,r0
 268 001c 2146     	 mov r1,r4
 269              	.LVL29:
 255:simpleserial-ml-kem-512.c ****     return SS_ERR_OK;
 270              	 .loc 1 255 5 view .LVU84
 271 001e 9847     	 blx r3
 272              	.LVL30:
 256:simpleserial-ml-kem-512.c **** }
 273              	 .loc 1 256 5 is_stmt 1 view .LVU85
 256:simpleserial-ml-kem-512.c **** }
 274              	 .loc 1 256 5 is_stmt 0 view .LVU86
 275              	.LBE35:
 276              	.LBE34:
 277              	.LBE33:
 278              	.LBE32:
 275:simpleserial-ml-kem-512.c ****             sk_chunks_loaded |= (uint8_t)(1u << chunk_index);
 279              	 .loc 1 275 9 is_stmt 1 view .LVU87
 276:simpleserial-ml-kem-512.c ****         }
 280              	 .loc 1 276 13 view .LVU88
 276:simpleserial-ml-kem-512.c ****         }
 281              	 .loc 1 276 46 is_stmt 0 view .LVU89
 282 0020 0123     	 movs r3,#1
 276:simpleserial-ml-kem-512.c ****         }
 283              	 .loc 1 276 30 view .LVU90
 284 0022 324A     	 ldr r2,.L26+8
 276:simpleserial-ml-kem-512.c ****         }
 285              	 .loc 1 276 46 view .LVU91
 286 0024 B340     	 lsls r3,r3,r6
 287              	.LVL31:
 288              	.L25:
 276:simpleserial-ml-kem-512.c ****         }
 289              	 .loc 1 276 30 view .LVU92
 290 0026 1178     	 ldrb r1,[r2]
 291 0028 0B43     	 orrs r3,r3,r1
 292 002a 1370     	 strb r3,[r2]
 293              	.LVL32:
 294              	.L16:
 278:simpleserial-ml-kem-512.c ****     }
 295              	 .loc 1 278 16 view .LVU93
 296 002c 0020     	 movs r0,#0
 297              	.L14:
 319:simpleserial-ml-kem-512.c **** 
 298              	 .loc 1 319 1 view .LVU94
 299 002e BDE8F087 	 pop {r4,r5,r6,r7,r8,r9,r10,pc}
 300              	.LVL33:
 301              	.L13:
 281:simpleserial-ml-kem-512.c ****         (scmd < (MLKEM_SS_V21_SCMD_PK_BASE + MLKEM_SS_V21_PK_CHUNKS))) {
 302              	 .loc 1 281 5 is_stmt 1 view .LVU95
 281:simpleserial-ml-kem-512.c ****         (scmd < (MLKEM_SS_V21_SCMD_PK_BASE + MLKEM_SS_V21_PK_CHUNKS))) {
 303              	 .loc 1 281 45 is_stmt 0 view .LVU96
 304 0032 A0F1100A 	 sub r10,r0,#16
 305 0036 5FFA8AFA 	 uxtb r10,r10
 281:simpleserial-ml-kem-512.c ****         (scmd < (MLKEM_SS_V21_SCMD_PK_BASE + MLKEM_SS_V21_PK_CHUNKS))) {
 306              	 .loc 1 281 8 view .LVU97
 307 003a BAF1030F 	 cmp r10,#3
 308 003e 2BD8     	 bhi .L15
 283:simpleserial-ml-kem-512.c ****         err = v21_copy_chunk(pk, sizeof(pk), MLKEM_SS_V21_CHUNK_PK, chunk_index,
 309              	 .loc 1 283 9 is_stmt 1 view .LVU98
 310              	.LVL34:
 284:simpleserial-ml-kem-512.c ****                              MLKEM_SS_V21_PK_CHUNKS, len, buf);
 311              	 .loc 1 284 9 view .LVU99
 312              	.LBB36:
 313              	.LBI36:
 240:simpleserial-ml-kem-512.c ****                               uint8_t chunk_index, uint8_t total_chunks,
 314              	 .loc 1 240 16 view .LVU100
 315              	.LBB37:
 244:simpleserial-ml-kem-512.c **** 
 316              	 .loc 1 244 5 view .LVU101
 246:simpleserial-ml-kem-512.c ****         return SS_ERR_LEN;
 317              	 .loc 1 246 5 view .LVU102
 246:simpleserial-ml-kem-512.c ****         return SS_ERR_LEN;
 318              	 .loc 1 246 39 is_stmt 0 discriminator 1 view .LVU103
 319 0040 C829     	 cmp r1,#200
 320 0042 4DD1     	 bne .L23
 321              	.LVL35:
 322              	.LBB38:
 323              	.LBI38:
 240:simpleserial-ml-kem-512.c ****                               uint8_t chunk_index, uint8_t total_chunks,
 324              	 .loc 1 240 16 is_stmt 1 view .LVU104
 325              	.LBB39:
 250:simpleserial-ml-kem-512.c ****     if ((offset + chunk_len) > dst_len) {
 326              	 .loc 1 250 5 view .LVU105
 255:simpleserial-ml-kem-512.c ****     return SS_ERR_OK;
 327              	 .loc 1 255 16 is_stmt 0 view .LVU106
 328 0044 DFF8A880 	 ldr r8,.L26+12
 255:simpleserial-ml-kem-512.c ****     return SS_ERR_OK;
 329              	 .loc 1 255 5 view .LVU107
 330 0048 DFF89C90 	 ldr r9,.L26+4
 250:simpleserial-ml-kem-512.c ****     if ((offset + chunk_len) > dst_len) {
 331              	 .loc 1 250 12 view .LVU108
 332 004c 01FB0AF7 	 mul r7,r1,r10
 333              	.LVL36:
 251:simpleserial-ml-kem-512.c ****         return SS_ERR_LEN;
 334              	 .loc 1 251 5 is_stmt 1 view .LVU109
 255:simpleserial-ml-kem-512.c ****     return SS_ERR_OK;
 335              	 .loc 1 255 5 view .LVU110
 336 0050 0A46     	 mov r2,r1
 337              	.LVL37:
 255:simpleserial-ml-kem-512.c ****     return SS_ERR_OK;
 338              	 .loc 1 255 5 is_stmt 0 view .LVU111
 339 0052 08EB0700 	 add r0,r8,r7
 340              	.LVL38:
 255:simpleserial-ml-kem-512.c ****     return SS_ERR_OK;
 341              	 .loc 1 255 5 view .LVU112
 342 0056 2146     	 mov r1,r4
 343              	.LVL39:
 255:simpleserial-ml-kem-512.c ****     return SS_ERR_OK;
 344              	 .loc 1 255 5 view .LVU113
 345 0058 C847     	 blx r9
 346              	.LVL40:
 256:simpleserial-ml-kem-512.c **** }
 347              	 .loc 1 256 5 is_stmt 1 view .LVU114
 256:simpleserial-ml-kem-512.c **** }
 348              	 .loc 1 256 5 is_stmt 0 view .LVU115
 349              	.LBE39:
 350              	.LBE38:
 351              	.LBE37:
 352              	.LBE36:
 286:simpleserial-ml-kem-512.c ****             pk_chunks_loaded |= (uint8_t)(1u << chunk_index);
 353              	 .loc 1 286 9 is_stmt 1 view .LVU116
 287:simpleserial-ml-kem-512.c ****             memcpy(sk + KYBER_INDCPA_SECRETKEYBYTES + ((size_t)chunk_index * MLKEM_SS_V21_CHUNK_PK)
 354              	 .loc 1 287 13 view .LVU117
 287:simpleserial-ml-kem-512.c ****             memcpy(sk + KYBER_INDCPA_SECRETKEYBYTES + ((size_t)chunk_index * MLKEM_SS_V21_CHUNK_PK)
 355              	 .loc 1 287 30 is_stmt 0 view .LVU118
 356 005a 264B     	 ldr r3,.L26+16
 287:simpleserial-ml-kem-512.c ****             memcpy(sk + KYBER_INDCPA_SECRETKEYBYTES + ((size_t)chunk_index * MLKEM_SS_V21_CHUNK_PK)
 357              	 .loc 1 287 46 view .LVU119
 358 005c 0126     	 movs r6,#1
 359              	.LVL41:
 287:simpleserial-ml-kem-512.c ****             memcpy(sk + KYBER_INDCPA_SECRETKEYBYTES + ((size_t)chunk_index * MLKEM_SS_V21_CHUNK_PK)
 360              	 .loc 1 287 30 view .LVU120
 361 005e 1A78     	 ldrb r2,[r3]
 288:simpleserial-ml-kem-512.c ****                    buf,
 362              	 .loc 1 288 53 view .LVU121
 363 0060 07F54070 	 add r0,r7,#768
 287:simpleserial-ml-kem-512.c ****             memcpy(sk + KYBER_INDCPA_SECRETKEYBYTES + ((size_t)chunk_index * MLKEM_SS_V21_CHUNK_PK)
 364              	 .loc 1 287 46 view .LVU122
 365 0064 06FA0AF6 	 lsl r6,r6,r10
 288:simpleserial-ml-kem-512.c ****                    buf,
 366              	 .loc 1 288 13 view .LVU123
 367 0068 1E4F     	 ldr r7,.L26
 287:simpleserial-ml-kem-512.c ****             memcpy(sk + KYBER_INDCPA_SECRETKEYBYTES + ((size_t)chunk_index * MLKEM_SS_V21_CHUNK_PK)
 368              	 .loc 1 287 30 view .LVU124
 369 006a 1643     	 orrs r6,r6,r2
 370 006c F6B2     	 uxtb r6,r6
 288:simpleserial-ml-kem-512.c ****                    buf,
 371              	 .loc 1 288 13 view .LVU125
 372 006e 2A46     	 mov r2,r5
 373 0070 2146     	 mov r1,r4
 374 0072 3844     	 add r0,r0,r7
 287:simpleserial-ml-kem-512.c ****             memcpy(sk + KYBER_INDCPA_SECRETKEYBYTES + ((size_t)chunk_index * MLKEM_SS_V21_CHUNK_PK)
 375              	 .loc 1 287 30 view .LVU126
 376 0074 1E70     	 strb r6,[r3]
 288:simpleserial-ml-kem-512.c ****                    buf,
 377              	 .loc 1 288 13 is_stmt 1 view .LVU127
 378 0076 C847     	 blx r9
 379              	.LVL42:
 291:simpleserial-ml-kem-512.c ****                 v21_sync_pk_into_sk();
 380              	 .loc 1 291 13 view .LVU128
 291:simpleserial-ml-kem-512.c ****                 v21_sync_pk_into_sk();
 381              	 .loc 1 291 16 is_stmt 0 view .LVU129
 382 0078 0F2E     	 cmp r6,#15
 383 007a D7D1     	 bne .L16
 292:simpleserial-ml-kem-512.c ****             }
 384              	 .loc 1 292 17 is_stmt 1 view .LVU130
 385              	.LBB40:
 386              	.LBI40:
 259:simpleserial-ml-kem-512.c **** {
 387              	 .loc 1 259 13 view .LVU131
 388              	.LBB41:
 261:simpleserial-ml-kem-512.c ****     hash_h(sk + KYBER_SECRETKEYBYTES - 2 * KYBER_SYMBYTES, pk, KYBER_PUBLICKEYBYTES);
 389              	 .loc 1 261 5 view .LVU132
 390 007c 4146     	 mov r1,r8
 391 007e 4FF44872 	 mov r2,#800
 392 0082 07F54070 	 add r0,r7,#768
 393 0086 C847     	 blx r9
 394              	.LVL43:
 262:simpleserial-ml-kem-512.c **** }
 395              	 .loc 1 262 5 view .LVU133
 396 0088 1B4B     	 ldr r3,.L26+20
 397 008a 4FF44872 	 mov r2,#800
 398 008e 4146     	 mov r1,r8
 399 0090 07F5C460 	 add r0,r7,#1568
 400 0094 9847     	 blx r3
 401              	.LVL44:
 263:simpleserial-ml-kem-512.c **** 
 402              	 .loc 1 263 1 is_stmt 0 view .LVU134
 403 0096 C9E7     	 b .L16
 404              	.LVL45:
 405              	.L15:
 263:simpleserial-ml-kem-512.c **** 
 406              	 .loc 1 263 1 view .LVU135
 407              	.LBE41:
 408              	.LBE40:
 298:simpleserial-ml-kem-512.c ****         (scmd < (MLKEM_SS_V21_SCMD_CT_BASE + MLKEM_SS_V21_CT_CHUNKS))) {
 409              	 .loc 1 298 5 is_stmt 1 view .LVU136
 298:simpleserial-ml-kem-512.c ****         (scmd < (MLKEM_SS_V21_SCMD_CT_BASE + MLKEM_SS_V21_CT_CHUNKS))) {
 410              	 .loc 1 298 45 is_stmt 0 view .LVU137
 411 0098 A0F12007 	 sub r7,r0,#32
 412 009c FFB2     	 uxtb r7,r7
 298:simpleserial-ml-kem-512.c ****         (scmd < (MLKEM_SS_V21_SCMD_CT_BASE + MLKEM_SS_V21_CT_CHUNKS))) {
 413              	 .loc 1 298 8 view .LVU138
 414 009e 032F     	 cmp r7,#3
 415 00a0 0CD8     	 bhi .L17
 300:simpleserial-ml-kem-512.c ****         err = v21_copy_chunk(ct, sizeof(ct), MLKEM_SS_V21_CHUNK_CT, chunk_index,
 416              	 .loc 1 300 9 is_stmt 1 view .LVU139
 417              	.LVL46:
 301:simpleserial-ml-kem-512.c ****                              MLKEM_SS_V21_CT_CHUNKS, len, buf);
 418              	 .loc 1 301 9 view .LVU140
 419              	.LBB42:
 420              	.LBI42:
 240:simpleserial-ml-kem-512.c ****                               uint8_t chunk_index, uint8_t total_chunks,
 421              	 .loc 1 240 16 view .LVU141
 422              	.LBB43:
 244:simpleserial-ml-kem-512.c **** 
 423              	 .loc 1 244 5 view .LVU142
 246:simpleserial-ml-kem-512.c ****         return SS_ERR_LEN;
 424              	 .loc 1 246 5 view .LVU143
 246:simpleserial-ml-kem-512.c ****         return SS_ERR_LEN;
 425              	 .loc 1 246 39 is_stmt 0 discriminator 1 view .LVU144
 426 00a2 C029     	 cmp r1,#192
 427 00a4 1CD1     	 bne .L23
 428              	.LVL47:
 429              	.LBB44:
 430              	.LBI44:
 240:simpleserial-ml-kem-512.c ****                               uint8_t chunk_index, uint8_t total_chunks,
 431              	 .loc 1 240 16 is_stmt 1 view .LVU145
 432              	.LBB45:
 250:simpleserial-ml-kem-512.c ****     if ((offset + chunk_len) > dst_len) {
 433              	 .loc 1 250 5 view .LVU146
 251:simpleserial-ml-kem-512.c ****         return SS_ERR_LEN;
 434              	 .loc 1 251 5 view .LVU147
 255:simpleserial-ml-kem-512.c ****     return SS_ERR_OK;
 435              	 .loc 1 255 5 view .LVU148
 436 00a6 1548     	 ldr r0,.L26+24
 437              	.LVL48:
 255:simpleserial-ml-kem-512.c ****     return SS_ERR_OK;
 438              	 .loc 1 255 5 is_stmt 0 view .LVU149
 439 00a8 0F4B     	 ldr r3,.L26+4
 440 00aa 0A46     	 mov r2,r1
 441              	.LVL49:
 255:simpleserial-ml-kem-512.c ****     return SS_ERR_OK;
 442              	 .loc 1 255 5 view .LVU150
 443 00ac 05FB0700 	 mla r0,r5,r7,r0
 444 00b0 2146     	 mov r1,r4
 445              	.LVL50:
 255:simpleserial-ml-kem-512.c ****     return SS_ERR_OK;
 446              	 .loc 1 255 5 view .LVU151
 447 00b2 9847     	 blx r3
 448              	.LVL51:
 256:simpleserial-ml-kem-512.c **** }
 449              	 .loc 1 256 5 is_stmt 1 view .LVU152
 256:simpleserial-ml-kem-512.c **** }
 450              	 .loc 1 256 5 is_stmt 0 view .LVU153
 451              	.LBE45:
 452              	.LBE44:
 453              	.LBE43:
 454              	.LBE42:
 303:simpleserial-ml-kem-512.c ****             ct_chunks_loaded |= (uint8_t)(1u << chunk_index);
 455              	 .loc 1 303 9 is_stmt 1 view .LVU154
 304:simpleserial-ml-kem-512.c ****         }
 456              	 .loc 1 304 13 view .LVU155
 304:simpleserial-ml-kem-512.c ****         }
 457              	 .loc 1 304 46 is_stmt 0 view .LVU156
 458 00b4 0123     	 movs r3,#1
 304:simpleserial-ml-kem-512.c ****         }
 459              	 .loc 1 304 30 view .LVU157
 460 00b6 124A     	 ldr r2,.L26+28
 304:simpleserial-ml-kem-512.c ****         }
 461              	 .loc 1 304 46 view .LVU158
 462 00b8 BB40     	 lsls r3,r3,r7
 463 00ba B4E7     	 b .L25
 464              	.LVL52:
 465              	.L17:
 309:simpleserial-ml-kem-512.c ****         if (len != KYBER_SSBYTES) {
 466              	 .loc 1 309 5 is_stmt 1 view .LVU159
 309:simpleserial-ml-kem-512.c ****         if (len != KYBER_SSBYTES) {
 467              	 .loc 1 309 8 is_stmt 0 view .LVU160
 468 00bc 3028     	 cmp r0,#48
 469 00be 0DD1     	 bne .L22
 310:simpleserial-ml-kem-512.c ****             return SS_ERR_LEN;
 470              	 .loc 1 310 9 is_stmt 1 view .LVU161
 310:simpleserial-ml-kem-512.c ****             return SS_ERR_LEN;
 471              	 .loc 1 310 12 is_stmt 0 view .LVU162
 472 00c0 2029     	 cmp r1,#32
 473 00c2 0DD1     	 bne .L23
 313:simpleserial-ml-kem-512.c ****         ss_loaded = 1;
 474              	 .loc 1 313 9 is_stmt 1 view .LVU163
 475 00c4 0F4B     	 ldr r3,.L26+32
 476 00c6 2032     	 adds r2,r2,#32
 477              	.LVL53:
 478              	.L18:
 313:simpleserial-ml-kem-512.c ****         ss_loaded = 1;
 479              	 .loc 1 313 9 is_stmt 0 view .LVU164
 480 00c8 54F8041B 	 ldr r1,[r4],#4
 481 00cc 43F8041B 	 str r1,[r3],#4
 482 00d0 9442     	 cmp r4,r2
 483 00d2 F9D1     	 bne .L18
 314:simpleserial-ml-kem-512.c ****         return SS_ERR_OK;
 484              	 .loc 1 314 9 is_stmt 1 view .LVU165
 314:simpleserial-ml-kem-512.c ****         return SS_ERR_OK;
 485              	 .loc 1 314 19 is_stmt 0 view .LVU166
 486 00d4 0C4B     	 ldr r3,.L26+36
 487 00d6 0122     	 movs r2,#1
 488              	.LVL54:
 314:simpleserial-ml-kem-512.c ****         return SS_ERR_OK;
 489              	 .loc 1 314 19 view .LVU167
 490 00d8 1A70     	 strb r2,[r3]
 315:simpleserial-ml-kem-512.c ****     }
 491              	 .loc 1 315 9 is_stmt 1 view .LVU168
 315:simpleserial-ml-kem-512.c ****     }
 492              	 .loc 1 315 16 is_stmt 0 view .LVU169
 493 00da A7E7     	 b .L16
 494              	.LVL55:
 495              	.L22:
 318:simpleserial-ml-kem-512.c **** }
 496              	 .loc 1 318 12 view .LVU170
 497 00dc 0120     	 movs r0,#1
 498              	.LVL56:
 318:simpleserial-ml-kem-512.c **** }
 499              	 .loc 1 318 12 view .LVU171
 500 00de A6E7     	 b .L14
 501              	.LVL57:
 502              	.L23:
 278:simpleserial-ml-kem-512.c ****     }
 503              	 .loc 1 278 16 view .LVU172
 504 00e0 0420     	 movs r0,#4
 505              	.LVL58:
 278:simpleserial-ml-kem-512.c ****     }
 506              	 .loc 1 278 16 view .LVU173
 507 00e2 A4E7     	 b .L14
 508              	.L27:
 509              	 .align 2
 510              	.L26:
 511 00e4 00000000 	 .word sk
 512 00e8 00000000 	 .word memcpy
 513 00ec 00000000 	 .word sk_chunks_loaded
 514 00f0 00000000 	 .word pk
 515 00f4 00000000 	 .word pk_chunks_loaded
 516 00f8 00000000 	 .word sha3_256
 517 00fc 00000000 	 .word ct
 518 0100 00000000 	 .word ct_chunks_loaded
 519 0104 00000000 	 .word ss
 520 0108 00000000 	 .word ss_loaded
 521              	 .cfi_endproc
 522              	.LFE147:
 524              	 .section .text.ml_kem_512_rx_chunk,"ax",%progbits
 525              	 .align 1
 526              	 .syntax unified
 527              	 .thumb
 528              	 .thumb_func
 530              	ml_kem_512_rx_chunk:
 531              	.LVL59:
 532              	.LFB153:
 424:simpleserial-ml-kem-512.c ****     (void)cmd;
 533              	 .loc 1 424 1 is_stmt 1 view-0
 534              	 .cfi_startproc
 535              	 
 536              	 
 537              	 
 425:simpleserial-ml-kem-512.c ****     return v21_handle_vector_write(scmd, len, buf);
 538              	 .loc 1 425 5 view .LVU175
 426:simpleserial-ml-kem-512.c **** }
 539              	 .loc 1 426 5 view .LVU176
 424:simpleserial-ml-kem-512.c ****     (void)cmd;
 540              	 .loc 1 424 1 is_stmt 0 view .LVU177
 541 0000 0846     	 mov r0,r1
 542              	.LVL60:
 424:simpleserial-ml-kem-512.c ****     (void)cmd;
 543              	 .loc 1 424 1 view .LVU178
 544 0002 1146     	 mov r1,r2
 545              	.LVL61:
 426:simpleserial-ml-kem-512.c **** }
 546              	 .loc 1 426 12 view .LVU179
 547 0004 1A46     	 mov r2,r3
 548              	.LVL62:
 426:simpleserial-ml-kem-512.c **** }
 549              	 .loc 1 426 12 view .LVU180
 550 0006 014B     	 ldr r3,.L29
 551              	.LVL63:
 426:simpleserial-ml-kem-512.c **** }
 552              	 .loc 1 426 12 view .LVU181
 553 0008 1847     	 bx r3
 554              	.LVL64:
 555              	.L30:
 426:simpleserial-ml-kem-512.c **** }
 556              	 .loc 1 426 12 view .LVU182
 557 000a 00BF     	 .align 2
 558              	.L29:
 559 000c 00000000 	 .word v21_handle_vector_write
 560              	 .cfi_endproc
 561              	.LFE153:
 563              	 .section .text.led_toggle,"ax",%progbits
 564              	 .align 1
 565              	 .global led_toggle
 566              	 .syntax unified
 567              	 .thumb
 568              	 .thumb_func
 570              	led_toggle:
 571              	.LVL65:
 572              	.LFB137:
 111:simpleserial-ml-kem-512.c ****     int led = m[0];  // Get LED number from input byte (14=LED3, 15=LED2, 16=LED1)
 573              	 .loc 1 111 44 is_stmt 1 view-0
 574              	 .cfi_startproc
 575              	 
 576              	 
 112:simpleserial-ml-kem-512.c ****     uint8_t current_state = 0;
 577              	 .loc 1 112 5 view .LVU184
 111:simpleserial-ml-kem-512.c ****     int led = m[0];  // Get LED number from input byte (14=LED3, 15=LED2, 16=LED1)
 578              	 .loc 1 111 44 is_stmt 0 view .LVU185
 579 0000 10B5     	 push {r4,lr}
 580              	.LCFI2:
 581              	 .cfi_def_cfa_offset 8
 582              	 .cfi_offset 4,-8
 583              	 .cfi_offset 14,-4
 112:simpleserial-ml-kem-512.c ****     uint8_t current_state = 0;
 584              	 .loc 1 112 16 view .LVU186
 585 0002 0478     	 ldrb r4,[r0]
 586              	.LVL66:
 113:simpleserial-ml-kem-512.c ****     
 587              	 .loc 1 113 5 is_stmt 1 view .LVU187
 116:simpleserial-ml-kem-512.c ****     else if(led == LED2) current_state = LED2State;
 588              	 .loc 1 116 5 view .LVU188
 116:simpleserial-ml-kem-512.c ****     else if(led == LED2) current_state = LED2State;
 589              	 .loc 1 116 7 is_stmt 0 view .LVU189
 590 0004 102C     	 cmp r4,#16
 591 0006 0FD1     	 bne .L32
 116:simpleserial-ml-kem-512.c ****     else if(led == LED2) current_state = LED2State;
 592              	 .loc 1 116 21 is_stmt 1 discriminator 1 view .LVU190
 116:simpleserial-ml-kem-512.c ****     else if(led == LED2) current_state = LED2State;
 593              	 .loc 1 116 35 is_stmt 0 discriminator 1 view .LVU191
 594 0008 164B     	 ldr r3,.L44
 595              	.L41:
 118:simpleserial-ml-kem-512.c ****     
 596              	 .loc 1 118 40 discriminator 1 view .LVU192
 597 000a 1B78     	 ldrb r3,[r3]
 598 000c DBB2     	 uxtb r3,r3
 599              	.LVL67:
 121:simpleserial-ml-kem-512.c ****         gpio_set_pin_low(led);
 600              	 .loc 1 121 5 is_stmt 1 view .LVU193
 121:simpleserial-ml-kem-512.c ****         gpio_set_pin_low(led);
 601              	 .loc 1 121 7 is_stmt 0 view .LVU194
 602 000e 012B     	 cmp r3,#1
 603 0010 17D1     	 bne .L35
 122:simpleserial-ml-kem-512.c ****         if(led == LED1) LED1State = 0;
 604              	 .loc 1 122 9 is_stmt 1 view .LVU195
 605 0012 154B     	 ldr r3,.L44+4
 606              	.LVL68:
 122:simpleserial-ml-kem-512.c ****         if(led == LED1) LED1State = 0;
 607              	 .loc 1 122 9 is_stmt 0 view .LVU196
 608 0014 2046     	 mov r0,r4
 609              	.LVL69:
 122:simpleserial-ml-kem-512.c ****         if(led == LED1) LED1State = 0;
 610              	 .loc 1 122 9 view .LVU197
 611 0016 9847     	 blx r3
 612              	.LVL70:
 123:simpleserial-ml-kem-512.c ****         else if(led == LED2) LED2State = 0;
 613              	 .loc 1 123 9 is_stmt 1 view .LVU198
 123:simpleserial-ml-kem-512.c ****         else if(led == LED2) LED2State = 0;
 614              	 .loc 1 123 11 is_stmt 0 view .LVU199
 615 0018 102C     	 cmp r4,#16
 616 001a 4FF00003 	 mov r3,#0
 617 001e 0BD1     	 bne .L36
 123:simpleserial-ml-kem-512.c ****         else if(led == LED2) LED2State = 0;
 618              	 .loc 1 123 25 is_stmt 1 discriminator 1 view .LVU200
 123:simpleserial-ml-kem-512.c ****         else if(led == LED2) LED2State = 0;
 619              	 .loc 1 123 35 is_stmt 0 discriminator 1 view .LVU201
 620 0020 104A     	 ldr r2,.L44
 621              	.L42:
 125:simpleserial-ml-kem-512.c ****     } else {
 622              	 .loc 1 125 40 discriminator 1 view .LVU202
 623 0022 1370     	 strb r3,[r2]
 624              	.LVL71:
 625              	.L37:
 133:simpleserial-ml-kem-512.c **** }
 626              	 .loc 1 133 5 is_stmt 1 view .LVU203
 134:simpleserial-ml-kem-512.c **** 
 627              	 .loc 1 134 1 is_stmt 0 view .LVU204
 628 0024 0020     	 movs r0,#0
 629 0026 10BD     	 pop {r4,pc}
 630              	.LVL72:
 631              	.L32:
 117:simpleserial-ml-kem-512.c ****     else if(led == LED3) current_state = LED3State;
 632              	 .loc 1 117 10 is_stmt 1 view .LVU205
 117:simpleserial-ml-kem-512.c ****     else if(led == LED3) current_state = LED3State;
 633              	 .loc 1 117 12 is_stmt 0 view .LVU206
 634 0028 0F2C     	 cmp r4,#15
 635 002a 01D1     	 bne .L34
 117:simpleserial-ml-kem-512.c ****     else if(led == LED3) current_state = LED3State;
 636              	 .loc 1 117 26 is_stmt 1 discriminator 1 view .LVU207
 117:simpleserial-ml-kem-512.c ****     else if(led == LED3) current_state = LED3State;
 637              	 .loc 1 117 40 is_stmt 0 discriminator 1 view .LVU208
 638 002c 0F4B     	 ldr r3,.L44+8
 639 002e ECE7     	 b .L41
 640              	.L34:
 118:simpleserial-ml-kem-512.c ****     
 641              	 .loc 1 118 10 is_stmt 1 view .LVU209
 118:simpleserial-ml-kem-512.c ****     
 642              	 .loc 1 118 12 is_stmt 0 view .LVU210
 643 0030 0E2C     	 cmp r4,#14
 644 0032 06D1     	 bne .L35
 118:simpleserial-ml-kem-512.c ****     
 645              	 .loc 1 118 26 is_stmt 1 discriminator 1 view .LVU211
 118:simpleserial-ml-kem-512.c ****     
 646              	 .loc 1 118 40 is_stmt 0 discriminator 1 view .LVU212
 647 0034 0E4B     	 ldr r3,.L44+12
 648 0036 E8E7     	 b .L41
 649              	.LVL73:
 650              	.L36:
 124:simpleserial-ml-kem-512.c ****         else if(led == LED3) LED3State = 0;
 651              	 .loc 1 124 14 is_stmt 1 view .LVU213
 124:simpleserial-ml-kem-512.c ****         else if(led == LED3) LED3State = 0;
 652              	 .loc 1 124 16 is_stmt 0 view .LVU214
 653 0038 0F2C     	 cmp r4,#15
 124:simpleserial-ml-kem-512.c ****         else if(led == LED3) LED3State = 0;
 654              	 .loc 1 124 30 is_stmt 1 discriminator 1 view .LVU215
 124:simpleserial-ml-kem-512.c ****         else if(led == LED3) LED3State = 0;
 655              	 .loc 1 124 40 is_stmt 0 discriminator 1 view .LVU216
 656 003a 0CBF     	 ite eq
 657 003c 0B4A     	 ldreq r2,.L44+8
 125:simpleserial-ml-kem-512.c ****     } else {
 658              	 .loc 1 125 14 is_stmt 1 view .LVU217
 125:simpleserial-ml-kem-512.c ****     } else {
 659              	 .loc 1 125 30 discriminator 1 view .LVU218
 125:simpleserial-ml-kem-512.c ****     } else {
 660              	 .loc 1 125 40 is_stmt 0 discriminator 1 view .LVU219
 661 003e 0C4A     	 ldrne r2,.L44+12
 662 0040 EFE7     	 b .L42
 663              	.LVL74:
 664              	.L35:
 127:simpleserial-ml-kem-512.c ****         if(led == LED1) LED1State = 1;
 665              	 .loc 1 127 9 is_stmt 1 view .LVU220
 666 0042 0C4B     	 ldr r3,.L44+16
 667 0044 2046     	 mov r0,r4
 668              	.LVL75:
 127:simpleserial-ml-kem-512.c ****         if(led == LED1) LED1State = 1;
 669              	 .loc 1 127 9 is_stmt 0 view .LVU221
 670 0046 9847     	 blx r3
 671              	.LVL76:
 128:simpleserial-ml-kem-512.c ****         else if(led == LED2) LED2State = 1;
 672              	 .loc 1 128 9 is_stmt 1 view .LVU222
 128:simpleserial-ml-kem-512.c ****         else if(led == LED2) LED2State = 1;
 673              	 .loc 1 128 11 is_stmt 0 view .LVU223
 674 0048 102C     	 cmp r4,#16
 675 004a 03D1     	 bne .L39
 128:simpleserial-ml-kem-512.c ****         else if(led == LED2) LED2State = 1;
 676              	 .loc 1 128 25 is_stmt 1 discriminator 1 view .LVU224
 128:simpleserial-ml-kem-512.c ****         else if(led == LED2) LED2State = 1;
 677              	 .loc 1 128 35 is_stmt 0 discriminator 1 view .LVU225
 678 004c 054B     	 ldr r3,.L44
 679              	.L43:
 130:simpleserial-ml-kem-512.c ****     }
 680              	 .loc 1 130 40 discriminator 1 view .LVU226
 681 004e 0122     	 movs r2,#1
 682 0050 1A70     	 strb r2,[r3]
 683 0052 E7E7     	 b .L37
 684              	.L39:
 129:simpleserial-ml-kem-512.c ****         else if(led == LED3) LED3State = 1;
 685              	 .loc 1 129 14 is_stmt 1 view .LVU227
 129:simpleserial-ml-kem-512.c ****         else if(led == LED3) LED3State = 1;
 686              	 .loc 1 129 16 is_stmt 0 view .LVU228
 687 0054 0F2C     	 cmp r4,#15
 688 0056 01D1     	 bne .L40
 129:simpleserial-ml-kem-512.c ****         else if(led == LED3) LED3State = 1;
 689              	 .loc 1 129 30 is_stmt 1 discriminator 1 view .LVU229
 129:simpleserial-ml-kem-512.c ****         else if(led == LED3) LED3State = 1;
 690              	 .loc 1 129 40 is_stmt 0 discriminator 1 view .LVU230
 691 0058 044B     	 ldr r3,.L44+8
 692 005a F8E7     	 b .L43
 693              	.L40:
 130:simpleserial-ml-kem-512.c ****     }
 694              	 .loc 1 130 14 is_stmt 1 view .LVU231
 130:simpleserial-ml-kem-512.c ****     }
 695              	 .loc 1 130 16 is_stmt 0 view .LVU232
 696 005c 0E2C     	 cmp r4,#14
 697 005e E1D1     	 bne .L37
 130:simpleserial-ml-kem-512.c ****     }
 698              	 .loc 1 130 30 is_stmt 1 discriminator 1 view .LVU233
 130:simpleserial-ml-kem-512.c ****     }
 699              	 .loc 1 130 40 is_stmt 0 discriminator 1 view .LVU234
 700 0060 034B     	 ldr r3,.L44+12
 701 0062 F4E7     	 b .L43
 702              	.L45:
 703              	 .align 2
 704              	.L44:
 705 0064 00000000 	 .word LED1State
 706 0068 00000000 	 .word pio_set_pin_low
 707 006c 00000000 	 .word LED2State
 708 0070 00000000 	 .word LED3State
 709 0074 00000000 	 .word pio_set_pin_high
 710              	 .cfi_endproc
 711              	.LFE137:
 713              	 .section .text.led_toggle_v21,"ax",%progbits
 714              	 .align 1
 715              	 .syntax unified
 716              	 .thumb
 717              	 .thumb_func
 719              	led_toggle_v21:
 720              	.LVL77:
 721              	.LFB151:
 383:simpleserial-ml-kem-512.c ****     (void)cmd;
 722              	 .loc 1 383 1 is_stmt 1 view-0
 723              	 .cfi_startproc
 724              	 
 725              	 
 384:simpleserial-ml-kem-512.c ****     (void)scmd;
 726              	 .loc 1 384 5 view .LVU236
 385:simpleserial-ml-kem-512.c ****     if (len != 1) {
 727              	 .loc 1 385 5 view .LVU237
 386:simpleserial-ml-kem-512.c ****         return SS_ERR_LEN;
 728              	 .loc 1 386 5 view .LVU238
 386:simpleserial-ml-kem-512.c ****         return SS_ERR_LEN;
 729              	 .loc 1 386 8 is_stmt 0 view .LVU239
 730 0000 012A     	 cmp r2,#1
 383:simpleserial-ml-kem-512.c ****     (void)cmd;
 731              	 .loc 1 383 1 view .LVU240
 732 0002 08B5     	 push {r3,lr}
 733              	.LCFI3:
 734              	 .cfi_def_cfa_offset 8
 735              	 .cfi_offset 3,-8
 736              	 .cfi_offset 14,-4
 383:simpleserial-ml-kem-512.c ****     (void)cmd;
 737              	 .loc 1 383 1 view .LVU241
 738 0004 1146     	 mov r1,r2
 739              	.LVL78:
 383:simpleserial-ml-kem-512.c ****     (void)cmd;
 740              	 .loc 1 383 1 view .LVU242
 741 0006 1846     	 mov r0,r3
 742              	.LVL79:
 386:simpleserial-ml-kem-512.c ****         return SS_ERR_LEN;
 743              	 .loc 1 386 8 view .LVU243
 744 0008 03D1     	 bne .L48
 389:simpleserial-ml-kem-512.c **** }
 745              	 .loc 1 389 5 is_stmt 1 view .LVU244
 389:simpleserial-ml-kem-512.c **** }
 746              	 .loc 1 389 12 is_stmt 0 view .LVU245
 747 000a 034B     	 ldr r3,.L49
 748              	.LVL80:
 389:simpleserial-ml-kem-512.c **** }
 749              	 .loc 1 389 12 view .LVU246
 750 000c 9847     	 blx r3
 751              	.LVL81:
 389:simpleserial-ml-kem-512.c **** }
 752              	 .loc 1 389 12 view .LVU247
 753 000e 0020     	 movs r0,#0
 754              	.L47:
 390:simpleserial-ml-kem-512.c **** 
 755              	 .loc 1 390 1 view .LVU248
 756 0010 08BD     	 pop {r3,pc}
 757              	.LVL82:
 758              	.L48:
 387:simpleserial-ml-kem-512.c ****     }
 759              	 .loc 1 387 16 view .LVU249
 760 0012 0420     	 movs r0,#4
 761              	.LVL83:
 387:simpleserial-ml-kem-512.c ****     }
 762              	 .loc 1 387 16 view .LVU250
 763 0014 FCE7     	 b .L47
 764              	.L50:
 765 0016 00BF     	 .align 2
 766              	.L49:
 767 0018 00000000 	 .word led_toggle
 768              	 .cfi_endproc
 769              	.LFE151:
 771              	 .section .text.led_on_cmd,"ax",%progbits
 772              	 .align 1
 773              	 .global led_on_cmd
 774              	 .syntax unified
 775              	 .thumb
 776              	 .thumb_func
 778              	led_on_cmd:
 779              	.LVL84:
 780              	.LFB138:
 137:simpleserial-ml-kem-512.c ****     int led = m[0];  // Get LED number from input byte
 781              	 .loc 1 137 44 is_stmt 1 view-0
 782              	 .cfi_startproc
 783              	 
 784              	 
 138:simpleserial-ml-kem-512.c ****     gpio_set_pin_high(led);
 785              	 .loc 1 138 5 view .LVU252
 137:simpleserial-ml-kem-512.c ****     int led = m[0];  // Get LED number from input byte
 786              	 .loc 1 137 44 is_stmt 0 view .LVU253
 787 0000 10B5     	 push {r4,lr}
 788              	.LCFI4:
 789              	 .cfi_def_cfa_offset 8
 790              	 .cfi_offset 4,-8
 791              	 .cfi_offset 14,-4
 138:simpleserial-ml-kem-512.c ****     gpio_set_pin_high(led);
 792              	 .loc 1 138 16 view .LVU254
 793 0002 0478     	 ldrb r4,[r0]
 794              	.LVL85:
 139:simpleserial-ml-kem-512.c ****     if(led == LED1) LED1State = 1;
 795              	 .loc 1 139 5 is_stmt 1 view .LVU255
 796 0004 084B     	 ldr r3,.L56
 797 0006 2046     	 mov r0,r4
 798              	.LVL86:
 139:simpleserial-ml-kem-512.c ****     if(led == LED1) LED1State = 1;
 799              	 .loc 1 139 5 is_stmt 0 view .LVU256
 800 0008 9847     	 blx r3
 801              	.LVL87:
 140:simpleserial-ml-kem-512.c ****     else if(led == LED2) LED2State = 1;
 802              	 .loc 1 140 5 is_stmt 1 view .LVU257
 140:simpleserial-ml-kem-512.c ****     else if(led == LED2) LED2State = 1;
 803              	 .loc 1 140 7 is_stmt 0 view .LVU258
 804 000a 102C     	 cmp r4,#16
 805 000c 04D1     	 bne .L52
 140:simpleserial-ml-kem-512.c ****     else if(led == LED2) LED2State = 1;
 806              	 .loc 1 140 21 is_stmt 1 discriminator 1 view .LVU259
 140:simpleserial-ml-kem-512.c ****     else if(led == LED2) LED2State = 1;
 807              	 .loc 1 140 31 is_stmt 0 discriminator 1 view .LVU260
 808 000e 074B     	 ldr r3,.L56+4
 809              	.L55:
 142:simpleserial-ml-kem-512.c ****     return 0;
 810              	 .loc 1 142 36 discriminator 1 view .LVU261
 811 0010 0122     	 movs r2,#1
 812 0012 1A70     	 strb r2,[r3]
 813              	.L53:
 143:simpleserial-ml-kem-512.c **** }
 814              	 .loc 1 143 5 is_stmt 1 view .LVU262
 144:simpleserial-ml-kem-512.c **** 
 815              	 .loc 1 144 1 is_stmt 0 view .LVU263
 816 0014 0020     	 movs r0,#0
 817 0016 10BD     	 pop {r4,pc}
 818              	.LVL88:
 819              	.L52:
 141:simpleserial-ml-kem-512.c ****     else if(led == LED3) LED3State = 1;
 820              	 .loc 1 141 10 is_stmt 1 view .LVU264
 141:simpleserial-ml-kem-512.c ****     else if(led == LED3) LED3State = 1;
 821              	 .loc 1 141 12 is_stmt 0 view .LVU265
 822 0018 0F2C     	 cmp r4,#15
 823 001a 01D1     	 bne .L54
 141:simpleserial-ml-kem-512.c ****     else if(led == LED3) LED3State = 1;
 824              	 .loc 1 141 26 is_stmt 1 discriminator 1 view .LVU266
 141:simpleserial-ml-kem-512.c ****     else if(led == LED3) LED3State = 1;
 825              	 .loc 1 141 36 is_stmt 0 discriminator 1 view .LVU267
 826 001c 044B     	 ldr r3,.L56+8
 827 001e F7E7     	 b .L55
 828              	.L54:
 142:simpleserial-ml-kem-512.c ****     return 0;
 829              	 .loc 1 142 10 is_stmt 1 view .LVU268
 142:simpleserial-ml-kem-512.c ****     return 0;
 830              	 .loc 1 142 12 is_stmt 0 view .LVU269
 831 0020 0E2C     	 cmp r4,#14
 832 0022 F7D1     	 bne .L53
 142:simpleserial-ml-kem-512.c ****     return 0;
 833              	 .loc 1 142 26 is_stmt 1 discriminator 1 view .LVU270
 142:simpleserial-ml-kem-512.c ****     return 0;
 834              	 .loc 1 142 36 is_stmt 0 discriminator 1 view .LVU271
 835 0024 034B     	 ldr r3,.L56+12
 836 0026 F3E7     	 b .L55
 837              	.L57:
 838              	 .align 2
 839              	.L56:
 840 0028 00000000 	 .word pio_set_pin_high
 841 002c 00000000 	 .word LED1State
 842 0030 00000000 	 .word LED2State
 843 0034 00000000 	 .word LED3State
 844              	 .cfi_endproc
 845              	.LFE138:
 847              	 .section .text.led_on_cmd_v21,"ax",%progbits
 848              	 .align 1
 849              	 .syntax unified
 850              	 .thumb
 851              	 .thumb_func
 853              	led_on_cmd_v21:
 854              	.LVL89:
 855              	.LFB149:
 363:simpleserial-ml-kem-512.c ****     (void)cmd;
 856              	 .loc 1 363 1 is_stmt 1 view-0
 857              	 .cfi_startproc
 858              	 
 859              	 
 364:simpleserial-ml-kem-512.c ****     (void)scmd;
 860              	 .loc 1 364 5 view .LVU273
 365:simpleserial-ml-kem-512.c ****     if (len != 1) {
 861              	 .loc 1 365 5 view .LVU274
 366:simpleserial-ml-kem-512.c ****         return SS_ERR_LEN;
 862              	 .loc 1 366 5 view .LVU275
 366:simpleserial-ml-kem-512.c ****         return SS_ERR_LEN;
 863              	 .loc 1 366 8 is_stmt 0 view .LVU276
 864 0000 012A     	 cmp r2,#1
 363:simpleserial-ml-kem-512.c ****     (void)cmd;
 865              	 .loc 1 363 1 view .LVU277
 866 0002 08B5     	 push {r3,lr}
 867              	.LCFI5:
 868              	 .cfi_def_cfa_offset 8
 869              	 .cfi_offset 3,-8
 870              	 .cfi_offset 14,-4
 363:simpleserial-ml-kem-512.c ****     (void)cmd;
 871              	 .loc 1 363 1 view .LVU278
 872 0004 1146     	 mov r1,r2
 873              	.LVL90:
 363:simpleserial-ml-kem-512.c ****     (void)cmd;
 874              	 .loc 1 363 1 view .LVU279
 875 0006 1846     	 mov r0,r3
 876              	.LVL91:
 366:simpleserial-ml-kem-512.c ****         return SS_ERR_LEN;
 877              	 .loc 1 366 8 view .LVU280
 878 0008 03D1     	 bne .L60
 369:simpleserial-ml-kem-512.c **** }
 879              	 .loc 1 369 5 is_stmt 1 view .LVU281
 369:simpleserial-ml-kem-512.c **** }
 880              	 .loc 1 369 12 is_stmt 0 view .LVU282
 881 000a 034B     	 ldr r3,.L61
 882              	.LVL92:
 369:simpleserial-ml-kem-512.c **** }
 883              	 .loc 1 369 12 view .LVU283
 884 000c 9847     	 blx r3
 885              	.LVL93:
 369:simpleserial-ml-kem-512.c **** }
 886              	 .loc 1 369 12 view .LVU284
 887 000e 0020     	 movs r0,#0
 888              	.L59:
 370:simpleserial-ml-kem-512.c **** 
 889              	 .loc 1 370 1 view .LVU285
 890 0010 08BD     	 pop {r3,pc}
 891              	.LVL94:
 892              	.L60:
 367:simpleserial-ml-kem-512.c ****     }
 893              	 .loc 1 367 16 view .LVU286
 894 0012 0420     	 movs r0,#4
 895              	.LVL95:
 367:simpleserial-ml-kem-512.c ****     }
 896              	 .loc 1 367 16 view .LVU287
 897 0014 FCE7     	 b .L59
 898              	.L62:
 899 0016 00BF     	 .align 2
 900              	.L61:
 901 0018 00000000 	 .word led_on_cmd
 902              	 .cfi_endproc
 903              	.LFE149:
 905              	 .section .text.led_off_cmd,"ax",%progbits
 906              	 .align 1
 907              	 .global led_off_cmd
 908              	 .syntax unified
 909              	 .thumb
 910              	 .thumb_func
 912              	led_off_cmd:
 913              	.LVL96:
 914              	.LFB139:
 146:simpleserial-ml-kem-512.c ****     int led = m[0];  // Get LED number from input byte
 915              	 .loc 1 146 45 is_stmt 1 view-0
 916              	 .cfi_startproc
 917              	 
 918              	 
 147:simpleserial-ml-kem-512.c ****     gpio_set_pin_low(led);
 919              	 .loc 1 147 5 view .LVU289
 146:simpleserial-ml-kem-512.c ****     int led = m[0];  // Get LED number from input byte
 920              	 .loc 1 146 45 is_stmt 0 view .LVU290
 921 0000 10B5     	 push {r4,lr}
 922              	.LCFI6:
 923              	 .cfi_def_cfa_offset 8
 924              	 .cfi_offset 4,-8
 925              	 .cfi_offset 14,-4
 147:simpleserial-ml-kem-512.c ****     gpio_set_pin_low(led);
 926              	 .loc 1 147 16 view .LVU291
 927 0002 0478     	 ldrb r4,[r0]
 928              	.LVL97:
 148:simpleserial-ml-kem-512.c ****     if(led == LED1) LED1State = 0;
 929              	 .loc 1 148 5 is_stmt 1 view .LVU292
 930 0004 084B     	 ldr r3,.L68
 931 0006 2046     	 mov r0,r4
 932              	.LVL98:
 148:simpleserial-ml-kem-512.c ****     if(led == LED1) LED1State = 0;
 933              	 .loc 1 148 5 is_stmt 0 view .LVU293
 934 0008 9847     	 blx r3
 935              	.LVL99:
 149:simpleserial-ml-kem-512.c ****     else if(led == LED2) LED2State = 0;
 936              	 .loc 1 149 5 is_stmt 1 view .LVU294
 149:simpleserial-ml-kem-512.c ****     else if(led == LED2) LED2State = 0;
 937              	 .loc 1 149 7 is_stmt 0 view .LVU295
 938 000a 102C     	 cmp r4,#16
 939 000c 04D1     	 bne .L64
 149:simpleserial-ml-kem-512.c ****     else if(led == LED2) LED2State = 0;
 940              	 .loc 1 149 21 is_stmt 1 discriminator 1 view .LVU296
 149:simpleserial-ml-kem-512.c ****     else if(led == LED2) LED2State = 0;
 941              	 .loc 1 149 31 is_stmt 0 discriminator 1 view .LVU297
 942 000e 074B     	 ldr r3,.L68+4
 943              	.L67:
 151:simpleserial-ml-kem-512.c ****     return 0;
 944              	 .loc 1 151 36 discriminator 1 view .LVU298
 945 0010 0022     	 movs r2,#0
 946 0012 1A70     	 strb r2,[r3]
 947              	.L65:
 152:simpleserial-ml-kem-512.c **** }
 948              	 .loc 1 152 5 is_stmt 1 view .LVU299
 153:simpleserial-ml-kem-512.c **** 
 949              	 .loc 1 153 1 is_stmt 0 view .LVU300
 950 0014 0020     	 movs r0,#0
 951 0016 10BD     	 pop {r4,pc}
 952              	.LVL100:
 953              	.L64:
 150:simpleserial-ml-kem-512.c ****     else if(led == LED3) LED3State = 0;
 954              	 .loc 1 150 10 is_stmt 1 view .LVU301
 150:simpleserial-ml-kem-512.c ****     else if(led == LED3) LED3State = 0;
 955              	 .loc 1 150 12 is_stmt 0 view .LVU302
 956 0018 0F2C     	 cmp r4,#15
 957 001a 01D1     	 bne .L66
 150:simpleserial-ml-kem-512.c ****     else if(led == LED3) LED3State = 0;
 958              	 .loc 1 150 26 is_stmt 1 discriminator 1 view .LVU303
 150:simpleserial-ml-kem-512.c ****     else if(led == LED3) LED3State = 0;
 959              	 .loc 1 150 36 is_stmt 0 discriminator 1 view .LVU304
 960 001c 044B     	 ldr r3,.L68+8
 961 001e F7E7     	 b .L67
 962              	.L66:
 151:simpleserial-ml-kem-512.c ****     return 0;
 963              	 .loc 1 151 10 is_stmt 1 view .LVU305
 151:simpleserial-ml-kem-512.c ****     return 0;
 964              	 .loc 1 151 12 is_stmt 0 view .LVU306
 965 0020 0E2C     	 cmp r4,#14
 966 0022 F7D1     	 bne .L65
 151:simpleserial-ml-kem-512.c ****     return 0;
 967              	 .loc 1 151 26 is_stmt 1 discriminator 1 view .LVU307
 151:simpleserial-ml-kem-512.c ****     return 0;
 968              	 .loc 1 151 36 is_stmt 0 discriminator 1 view .LVU308
 969 0024 034B     	 ldr r3,.L68+12
 970 0026 F3E7     	 b .L67
 971              	.L69:
 972              	 .align 2
 973              	.L68:
 974 0028 00000000 	 .word pio_set_pin_low
 975 002c 00000000 	 .word LED1State
 976 0030 00000000 	 .word LED2State
 977 0034 00000000 	 .word LED3State
 978              	 .cfi_endproc
 979              	.LFE139:
 981              	 .section .text.led_off_cmd_v21,"ax",%progbits
 982              	 .align 1
 983              	 .syntax unified
 984              	 .thumb
 985              	 .thumb_func
 987              	led_off_cmd_v21:
 988              	.LVL101:
 989              	.LFB150:
 373:simpleserial-ml-kem-512.c ****     (void)cmd;
 990              	 .loc 1 373 1 is_stmt 1 view-0
 991              	 .cfi_startproc
 992              	 
 993              	 
 374:simpleserial-ml-kem-512.c ****     (void)scmd;
 994              	 .loc 1 374 5 view .LVU310
 375:simpleserial-ml-kem-512.c ****     if (len != 1) {
 995              	 .loc 1 375 5 view .LVU311
 376:simpleserial-ml-kem-512.c ****         return SS_ERR_LEN;
 996              	 .loc 1 376 5 view .LVU312
 376:simpleserial-ml-kem-512.c ****         return SS_ERR_LEN;
 997              	 .loc 1 376 8 is_stmt 0 view .LVU313
 998 0000 012A     	 cmp r2,#1
 373:simpleserial-ml-kem-512.c ****     (void)cmd;
 999              	 .loc 1 373 1 view .LVU314
 1000 0002 08B5     	 push {r3,lr}
 1001              	.LCFI7:
 1002              	 .cfi_def_cfa_offset 8
 1003              	 .cfi_offset 3,-8
 1004              	 .cfi_offset 14,-4
 373:simpleserial-ml-kem-512.c ****     (void)cmd;
 1005              	 .loc 1 373 1 view .LVU315
 1006 0004 1146     	 mov r1,r2
 1007              	.LVL102:
 373:simpleserial-ml-kem-512.c ****     (void)cmd;
 1008              	 .loc 1 373 1 view .LVU316
 1009 0006 1846     	 mov r0,r3
 1010              	.LVL103:
 376:simpleserial-ml-kem-512.c ****         return SS_ERR_LEN;
 1011              	 .loc 1 376 8 view .LVU317
 1012 0008 03D1     	 bne .L72
 379:simpleserial-ml-kem-512.c **** }
 1013              	 .loc 1 379 5 is_stmt 1 view .LVU318
 379:simpleserial-ml-kem-512.c **** }
 1014              	 .loc 1 379 12 is_stmt 0 view .LVU319
 1015 000a 034B     	 ldr r3,.L73
 1016              	.LVL104:
 379:simpleserial-ml-kem-512.c **** }
 1017              	 .loc 1 379 12 view .LVU320
 1018 000c 9847     	 blx r3
 1019              	.LVL105:
 379:simpleserial-ml-kem-512.c **** }
 1020              	 .loc 1 379 12 view .LVU321
 1021 000e 0020     	 movs r0,#0
 1022              	.L71:
 380:simpleserial-ml-kem-512.c **** 
 1023              	 .loc 1 380 1 view .LVU322
 1024 0010 08BD     	 pop {r3,pc}
 1025              	.LVL106:
 1026              	.L72:
 377:simpleserial-ml-kem-512.c ****     }
 1027              	 .loc 1 377 16 view .LVU323
 1028 0012 0420     	 movs r0,#4
 1029              	.LVL107:
 377:simpleserial-ml-kem-512.c ****     }
 1030              	 .loc 1 377 16 view .LVU324
 1031 0014 FCE7     	 b .L71
 1032              	.L74:
 1033 0016 00BF     	 .align 2
 1034              	.L73:
 1035 0018 00000000 	 .word led_off_cmd
 1036              	 .cfi_endproc
 1037              	.LFE150:
 1039              	 .section .text.led_on,"ax",%progbits
 1040              	 .align 1
 1041              	 .global led_on
 1042              	 .syntax unified
 1043              	 .thumb
 1044              	 .thumb_func
 1046              	led_on:
 1047              	.LVL108:
 1048              	.LFB140:
 156:simpleserial-ml-kem-512.c ****     gpio_set_pin_high(led);
 1049              	 .loc 1 156 22 is_stmt 1 view-0
 1050              	 .cfi_startproc
 1051              	 
 1052              	 
 157:simpleserial-ml-kem-512.c ****     if(led == LED1) LED1State = 1;
 1053              	 .loc 1 157 5 view .LVU326
 156:simpleserial-ml-kem-512.c ****     gpio_set_pin_high(led);
 1054              	 .loc 1 156 22 is_stmt 0 view .LVU327
 1055 0000 10B5     	 push {r4,lr}
 1056              	.LCFI8:
 1057              	 .cfi_def_cfa_offset 8
 1058              	 .cfi_offset 4,-8
 1059              	 .cfi_offset 14,-4
 157:simpleserial-ml-kem-512.c ****     if(led == LED1) LED1State = 1;
 1060              	 .loc 1 157 5 view .LVU328
 1061 0002 084B     	 ldr r3,.L80
 156:simpleserial-ml-kem-512.c ****     gpio_set_pin_high(led);
 1062              	 .loc 1 156 22 view .LVU329
 1063 0004 0446     	 mov r4,r0
 157:simpleserial-ml-kem-512.c ****     if(led == LED1) LED1State = 1;
 1064              	 .loc 1 157 5 view .LVU330
 1065 0006 9847     	 blx r3
 1066              	.LVL109:
 158:simpleserial-ml-kem-512.c ****     else if(led == LED2) LED2State = 1;
 1067              	 .loc 1 158 5 is_stmt 1 view .LVU331
 158:simpleserial-ml-kem-512.c ****     else if(led == LED2) LED2State = 1;
 1068              	 .loc 1 158 7 is_stmt 0 view .LVU332
 1069 0008 102C     	 cmp r4,#16
 1070 000a 03D1     	 bne .L76
 158:simpleserial-ml-kem-512.c ****     else if(led == LED2) LED2State = 1;
 1071              	 .loc 1 158 21 is_stmt 1 discriminator 1 view .LVU333
 158:simpleserial-ml-kem-512.c ****     else if(led == LED2) LED2State = 1;
 1072              	 .loc 1 158 31 is_stmt 0 discriminator 1 view .LVU334
 1073 000c 064B     	 ldr r3,.L80+4
 1074              	.L79:
 1075              	.LBB48:
 1076              	.LBB49:
 160:simpleserial-ml-kem-512.c **** }
 1077              	 .loc 1 160 36 discriminator 1 view .LVU335
 1078 000e 0122     	 movs r2,#1
 1079 0010 1A70     	 strb r2,[r3]
 1080              	.L75:
 1081              	.LBE49:
 1082              	.LBE48:
 161:simpleserial-ml-kem-512.c **** 
 1083              	 .loc 1 161 1 view .LVU336
 1084 0012 10BD     	 pop {r4,pc}
 1085              	.LVL110:
 1086              	.L76:
 159:simpleserial-ml-kem-512.c ****     else if(led == LED3) LED3State = 1;
 1087              	 .loc 1 159 10 is_stmt 1 view .LVU337
 159:simpleserial-ml-kem-512.c ****     else if(led == LED3) LED3State = 1;
 1088              	 .loc 1 159 12 is_stmt 0 view .LVU338
 1089 0014 0F2C     	 cmp r4,#15
 1090 0016 01D1     	 bne .L78
 159:simpleserial-ml-kem-512.c ****     else if(led == LED3) LED3State = 1;
 1091              	 .loc 1 159 26 is_stmt 1 discriminator 1 view .LVU339
 159:simpleserial-ml-kem-512.c ****     else if(led == LED3) LED3State = 1;
 1092              	 .loc 1 159 36 is_stmt 0 discriminator 1 view .LVU340
 1093 0018 044B     	 ldr r3,.L80+8
 1094 001a F8E7     	 b .L79
 1095              	.L78:
 1096              	.LVL111:
 1097              	.LBB51:
 1098              	.LBI48:
 156:simpleserial-ml-kem-512.c ****     gpio_set_pin_high(led);
 1099              	 .loc 1 156 6 is_stmt 1 view .LVU341
 1100              	.LBB50:
 160:simpleserial-ml-kem-512.c **** }
 1101              	 .loc 1 160 10 view .LVU342
 160:simpleserial-ml-kem-512.c **** }
 1102              	 .loc 1 160 12 is_stmt 0 view .LVU343
 1103 001c 0E2C     	 cmp r4,#14
 1104 001e F8D1     	 bne .L75
 160:simpleserial-ml-kem-512.c **** }
 1105              	 .loc 1 160 26 is_stmt 1 discriminator 1 view .LVU344
 160:simpleserial-ml-kem-512.c **** }
 1106              	 .loc 1 160 36 is_stmt 0 discriminator 1 view .LVU345
 1107 0020 034B     	 ldr r3,.L80+12
 1108 0022 F4E7     	 b .L79
 1109              	.L81:
 1110              	 .align 2
 1111              	.L80:
 1112 0024 00000000 	 .word pio_set_pin_high
 1113 0028 00000000 	 .word LED1State
 1114 002c 00000000 	 .word LED2State
 1115 0030 00000000 	 .word LED3State
 1116              	.LBE50:
 1117              	.LBE51:
 1118              	 .cfi_endproc
 1119              	.LFE140:
 1121              	 .section .text.led_off,"ax",%progbits
 1122              	 .align 1
 1123              	 .global led_off
 1124              	 .syntax unified
 1125              	 .thumb
 1126              	 .thumb_func
 1128              	led_off:
 1129              	.LVL112:
 1130              	.LFB141:
 163:simpleserial-ml-kem-512.c ****     gpio_set_pin_low(led);
 1131              	 .loc 1 163 23 is_stmt 1 view-0
 1132              	 .cfi_startproc
 1133              	 
 1134              	 
 164:simpleserial-ml-kem-512.c ****     if(led == LED1) LED1State = 0;
 1135              	 .loc 1 164 5 view .LVU347
 163:simpleserial-ml-kem-512.c ****     gpio_set_pin_low(led);
 1136              	 .loc 1 163 23 is_stmt 0 view .LVU348
 1137 0000 10B5     	 push {r4,lr}
 1138              	.LCFI9:
 1139              	 .cfi_def_cfa_offset 8
 1140              	 .cfi_offset 4,-8
 1141              	 .cfi_offset 14,-4
 164:simpleserial-ml-kem-512.c ****     if(led == LED1) LED1State = 0;
 1142              	 .loc 1 164 5 view .LVU349
 1143 0002 084B     	 ldr r3,.L87
 163:simpleserial-ml-kem-512.c ****     gpio_set_pin_low(led);
 1144              	 .loc 1 163 23 view .LVU350
 1145 0004 0446     	 mov r4,r0
 164:simpleserial-ml-kem-512.c ****     if(led == LED1) LED1State = 0;
 1146              	 .loc 1 164 5 view .LVU351
 1147 0006 9847     	 blx r3
 1148              	.LVL113:
 165:simpleserial-ml-kem-512.c ****     else if(led == LED2) LED2State = 0;
 1149              	 .loc 1 165 5 is_stmt 1 view .LVU352
 165:simpleserial-ml-kem-512.c ****     else if(led == LED2) LED2State = 0;
 1150              	 .loc 1 165 7 is_stmt 0 view .LVU353
 1151 0008 102C     	 cmp r4,#16
 1152 000a 03D1     	 bne .L83
 165:simpleserial-ml-kem-512.c ****     else if(led == LED2) LED2State = 0;
 1153              	 .loc 1 165 21 is_stmt 1 discriminator 1 view .LVU354
 165:simpleserial-ml-kem-512.c ****     else if(led == LED2) LED2State = 0;
 1154              	 .loc 1 165 31 is_stmt 0 discriminator 1 view .LVU355
 1155 000c 064B     	 ldr r3,.L87+4
 1156              	.L86:
 1157              	.LBB54:
 1158              	.LBB55:
 167:simpleserial-ml-kem-512.c **** }
 1159              	 .loc 1 167 36 discriminator 1 view .LVU356
 1160 000e 0022     	 movs r2,#0
 1161 0010 1A70     	 strb r2,[r3]
 1162              	.L82:
 1163              	.LBE55:
 1164              	.LBE54:
 168:simpleserial-ml-kem-512.c **** 
 1165              	 .loc 1 168 1 view .LVU357
 1166 0012 10BD     	 pop {r4,pc}
 1167              	.LVL114:
 1168              	.L83:
 166:simpleserial-ml-kem-512.c ****     else if(led == LED3) LED3State = 0;
 1169              	 .loc 1 166 10 is_stmt 1 view .LVU358
 166:simpleserial-ml-kem-512.c ****     else if(led == LED3) LED3State = 0;
 1170              	 .loc 1 166 12 is_stmt 0 view .LVU359
 1171 0014 0F2C     	 cmp r4,#15
 1172 0016 01D1     	 bne .L85
 166:simpleserial-ml-kem-512.c ****     else if(led == LED3) LED3State = 0;
 1173              	 .loc 1 166 26 is_stmt 1 discriminator 1 view .LVU360
 166:simpleserial-ml-kem-512.c ****     else if(led == LED3) LED3State = 0;
 1174              	 .loc 1 166 36 is_stmt 0 discriminator 1 view .LVU361
 1175 0018 044B     	 ldr r3,.L87+8
 1176 001a F8E7     	 b .L86
 1177              	.L85:
 1178              	.LVL115:
 1179              	.LBB57:
 1180              	.LBI54:
 163:simpleserial-ml-kem-512.c ****     gpio_set_pin_low(led);
 1181              	 .loc 1 163 6 is_stmt 1 view .LVU362
 1182              	.LBB56:
 167:simpleserial-ml-kem-512.c **** }
 1183              	 .loc 1 167 10 view .LVU363
 167:simpleserial-ml-kem-512.c **** }
 1184              	 .loc 1 167 12 is_stmt 0 view .LVU364
 1185 001c 0E2C     	 cmp r4,#14
 1186 001e F8D1     	 bne .L82
 167:simpleserial-ml-kem-512.c **** }
 1187              	 .loc 1 167 26 is_stmt 1 discriminator 1 view .LVU365
 167:simpleserial-ml-kem-512.c **** }
 1188              	 .loc 1 167 36 is_stmt 0 discriminator 1 view .LVU366
 1189 0020 034B     	 ldr r3,.L87+12
 1190 0022 F4E7     	 b .L86
 1191              	.L88:
 1192              	 .align 2
 1193              	.L87:
 1194 0024 00000000 	 .word pio_set_pin_low
 1195 0028 00000000 	 .word LED1State
 1196 002c 00000000 	 .word LED2State
 1197 0030 00000000 	 .word LED3State
 1198              	.LBE56:
 1199              	.LBE57:
 1200              	 .cfi_endproc
 1201              	.LFE141:
 1203              	 .section .text.get_led_state,"ax",%progbits
 1204              	 .align 1
 1205              	 .global get_led_state
 1206              	 .syntax unified
 1207              	 .thumb
 1208              	 .thumb_func
 1210              	get_led_state:
 1211              	.LVL116:
 1212              	.LFB143:
 183:simpleserial-ml-kem-512.c ****     if(led == LED1) return LED1State;
 1213              	 .loc 1 183 32 is_stmt 1 view-0
 1214              	 .cfi_startproc
 1215              	 
 1216              	 
 1217              	 
 184:simpleserial-ml-kem-512.c ****     else if(led == LED2) return LED2State;
 1218              	 .loc 1 184 5 view .LVU368
 184:simpleserial-ml-kem-512.c ****     else if(led == LED2) return LED2State;
 1219              	 .loc 1 184 7 is_stmt 0 view .LVU369
 1220 0000 1028     	 cmp r0,#16
 1221 0002 03D1     	 bne .L90
 184:simpleserial-ml-kem-512.c ****     else if(led == LED2) return LED2State;
 1222              	 .loc 1 184 21 is_stmt 1 discriminator 1 view .LVU370
 184:simpleserial-ml-kem-512.c ****     else if(led == LED2) return LED2State;
 1223              	 .loc 1 184 28 is_stmt 0 discriminator 1 view .LVU371
 1224 0004 064B     	 ldr r3,.L95
 1225              	.L94:
 185:simpleserial-ml-kem-512.c ****     else if(led == LED3) return LED3State;
 1226              	 .loc 1 185 33 discriminator 1 view .LVU372
 1227 0006 1878     	 ldrb r0,[r3]
 1228              	.LVL117:
 185:simpleserial-ml-kem-512.c ****     else if(led == LED3) return LED3State;
 1229              	 .loc 1 185 33 discriminator 1 view .LVU373
 1230 0008 C0B2     	 uxtb r0,r0
 185:simpleserial-ml-kem-512.c ****     else if(led == LED3) return LED3State;
 1231              	 .loc 1 185 33 view .LVU374
 1232 000a 7047     	 bx lr
 1233              	.LVL118:
 1234              	.L90:
 185:simpleserial-ml-kem-512.c ****     else if(led == LED3) return LED3State;
 1235              	 .loc 1 185 10 is_stmt 1 view .LVU375
 185:simpleserial-ml-kem-512.c ****     else if(led == LED3) return LED3State;
 1236              	 .loc 1 185 12 is_stmt 0 view .LVU376
 1237 000c 0F28     	 cmp r0,#15
 1238 000e 01D1     	 bne .L92
 185:simpleserial-ml-kem-512.c ****     else if(led == LED3) return LED3State;
 1239              	 .loc 1 185 26 is_stmt 1 discriminator 1 view .LVU377
 185:simpleserial-ml-kem-512.c ****     else if(led == LED3) return LED3State;
 1240              	 .loc 1 185 33 is_stmt 0 discriminator 1 view .LVU378
 1241 0010 044B     	 ldr r3,.L95+4
 1242 0012 F8E7     	 b .L94
 1243              	.L92:
 186:simpleserial-ml-kem-512.c ****     return 0;
 1244              	 .loc 1 186 10 is_stmt 1 view .LVU379
 186:simpleserial-ml-kem-512.c ****     return 0;
 1245              	 .loc 1 186 12 is_stmt 0 view .LVU380
 1246 0014 0E28     	 cmp r0,#14
 1247 0016 01D1     	 bne .L93
 186:simpleserial-ml-kem-512.c ****     return 0;
 1248              	 .loc 1 186 26 is_stmt 1 discriminator 1 view .LVU381
 186:simpleserial-ml-kem-512.c ****     return 0;
 1249              	 .loc 1 186 33 is_stmt 0 discriminator 1 view .LVU382
 1250 0018 034B     	 ldr r3,.L95+8
 1251 001a F4E7     	 b .L94
 1252              	.L93:
 187:simpleserial-ml-kem-512.c **** }
 1253              	 .loc 1 187 12 view .LVU383
 1254 001c 0020     	 movs r0,#0
 1255              	.LVL119:
 188:simpleserial-ml-kem-512.c **** /*Led functions done*/
 1256              	 .loc 1 188 1 view .LVU384
 1257 001e 7047     	 bx lr
 1258              	.L96:
 1259              	 .align 2
 1260              	.L95:
 1261 0020 00000000 	 .word LED1State
 1262 0024 00000000 	 .word LED2State
 1263 0028 00000000 	 .word LED3State
 1264              	 .cfi_endproc
 1265              	.LFE143:
 1267              	 .section .text.ml_kem_512_decap,"ax",%progbits
 1268              	 .align 1
 1269              	 .global ml_kem_512_decap
 1270              	 .syntax unified
 1271              	 .thumb
 1272              	 .thumb_func
 1274              	ml_kem_512_decap:
 1275              	.LVL120:
 1276              	.LFB144:
 193:simpleserial-ml-kem-512.c ****     int fail;  /* Global fail variable for cmov comparison */
 1277              	 .loc 1 193 1 is_stmt 1 view-0
 1278              	 .cfi_startproc
 1279              	 
 1280              	 
 194:simpleserial-ml-kem-512.c ****     (void)k;
 1281              	 .loc 1 194 5 view .LVU386
 195:simpleserial-ml-kem-512.c ****     (void)len;
 1282              	 .loc 1 195 5 view .LVU387
 196:simpleserial-ml-kem-512.c ****     
 1283              	 .loc 1 196 5 view .LVU388
 198:simpleserial-ml-kem-512.c ****     
 1284              	 .loc 1 198 5 view .LVU389
 1285              	.LBB82:
 1286              	.LBI82:
 170:simpleserial-ml-kem-512.c **** {
 1287              	 .loc 1 170 13 view .LVU390
 1288              	.LBB83:
 172:simpleserial-ml-kem-512.c ****     else led_off(LED1);
 1289              	 .loc 1 172 5 view .LVU391
 172:simpleserial-ml-kem-512.c ****     else led_off(LED1);
 1290              	 .loc 1 172 18 discriminator 1 view .LVU392
 1291              	.LBE83:
 1292              	.LBE82:
 193:simpleserial-ml-kem-512.c ****     int fail;  /* Global fail variable for cmov comparison */
 1293              	 .loc 1 193 1 is_stmt 0 view .LVU393
 1294 0000 70B5     	 push {r4,r5,r6,lr}
 1295              	.LCFI10:
 1296              	 .cfi_def_cfa_offset 16
 1297              	 .cfi_offset 4,-16
 1298              	 .cfi_offset 5,-12
 1299              	 .cfi_offset 6,-8
 1300              	 .cfi_offset 14,-4
 1301              	.LBB85:
 1302              	.LBB84:
 172:simpleserial-ml-kem-512.c ****     else led_off(LED1);
 1303              	 .loc 1 172 18 discriminator 1 view .LVU394
 1304 0002 1020     	 movs r0,#16
 1305              	.LVL121:
 172:simpleserial-ml-kem-512.c ****     else led_off(LED1);
 1306              	 .loc 1 172 18 discriminator 1 view .LVU395
 1307 0004 2E4C     	 ldr r4,.L102
 176:simpleserial-ml-kem-512.c **** 
 1308              	 .loc 1 176 10 view .LVU396
 1309 0006 2F4D     	 ldr r5,.L102+4
 172:simpleserial-ml-kem-512.c ****     else led_off(LED1);
 1310              	 .loc 1 172 18 discriminator 1 view .LVU397
 1311 0008 A047     	 blx r4
 1312              	.LVL122:
 175:simpleserial-ml-kem-512.c ****     else led_off(LED2);
 1313              	 .loc 1 175 5 is_stmt 1 view .LVU398
 176:simpleserial-ml-kem-512.c **** 
 1314              	 .loc 1 176 10 view .LVU399
 1315 000a 0F20     	 movs r0,#15
 1316 000c A847     	 blx r5
 1317              	.LVL123:
 178:simpleserial-ml-kem-512.c ****     else led_off(LED3);
 1318              	 .loc 1 178 5 view .LVU400
 179:simpleserial-ml-kem-512.c **** }
 1319              	 .loc 1 179 10 view .LVU401
 1320 000e 0E20     	 movs r0,#14
 1321 0010 A847     	 blx r5
 1322              	.LVL124:
 179:simpleserial-ml-kem-512.c **** }
 1323              	 .loc 1 179 10 is_stmt 0 view .LVU402
 1324              	.LBE84:
 1325              	.LBE85:
 202:simpleserial-ml-kem-512.c ****     
 1326              	 .loc 1 202 5 is_stmt 1 view .LVU403
 1327 0012 2D4A     	 ldr r2,.L102+8
 1328 0014 2D49     	 ldr r1,.L102+12
 1329 0016 2E4B     	 ldr r3,.L102+16
 1330 0018 2E48     	 ldr r0,.L102+20
 1331 001a 9847     	 blx r3
 1332              	.LVL125:
 205:simpleserial-ml-kem-512.c ****     memcpy(decap_buf + KYBER_SYMBYTES, sk + KYBER_SECRETKEYBYTES - 2 * KYBER_SYMBYTES, KYBER_SYMBYT
 1333              	 .loc 1 205 5 view .LVU404
 1334 001c 2D4B     	 ldr r3,.L102+20
 1335 001e 2E4A     	 ldr r2,.L102+24
 1336 0020 03F12001 	 add r1,r3,#32
 1337              	.L98:
 1338 0024 53F8040B 	 ldr r0,[r3],#4
 1339 0028 42F8040B 	 str r0,[r2],#4
 1340 002c 8B42     	 cmp r3,r1
 1341 002e F9D1     	 bne .L98
 206:simpleserial-ml-kem-512.c ****     
 1342              	 .loc 1 206 5 view .LVU405
 1343 0030 2A4B     	 ldr r3,.L102+28
 1344 0032 2B4A     	 ldr r2,.L102+32
 1345 0034 03F12001 	 add r1,r3,#32
 1346              	.L99:
 1347 0038 53F8040B 	 ldr r0,[r3],#4
 1348 003c 42F8040B 	 str r0,[r2],#4
 1349 0040 8B42     	 cmp r3,r1
 1350 0042 F9D1     	 bne .L99
 209:simpleserial-ml-kem-512.c ****     
 1351              	 .loc 1 209 5 view .LVU406
 1352 0044 2449     	 ldr r1,.L102+24
 1353 0046 274B     	 ldr r3,.L102+36
 1354 0048 2748     	 ldr r0,.L102+40
 1355 004a 4022     	 movs r2,#64
 1356 004c 9847     	 blx r3
 1357              	.LVL126:
 211:simpleserial-ml-kem-512.c ****     
 1358              	 .loc 1 211 5 view .LVU407
 1359              	.LBB86:
 1360              	.LBI86:
 170:simpleserial-ml-kem-512.c **** {
 1361              	 .loc 1 170 13 view .LVU408
 1362              	.LBB87:
 172:simpleserial-ml-kem-512.c ****     else led_off(LED1);
 1363              	 .loc 1 172 5 view .LVU409
 173:simpleserial-ml-kem-512.c **** 
 1364              	 .loc 1 173 10 view .LVU410
 1365 004e 1020     	 movs r0,#16
 1366 0050 A847     	 blx r5
 1367              	.LVL127:
 175:simpleserial-ml-kem-512.c ****     else led_off(LED2);
 1368              	 .loc 1 175 5 view .LVU411
 175:simpleserial-ml-kem-512.c ****     else led_off(LED2);
 1369              	 .loc 1 175 18 discriminator 1 view .LVU412
 1370 0052 0F20     	 movs r0,#15
 1371 0054 A047     	 blx r4
 1372              	.LVL128:
 178:simpleserial-ml-kem-512.c ****     else led_off(LED3);
 1373              	 .loc 1 178 5 view .LVU413
 179:simpleserial-ml-kem-512.c **** }
 1374              	 .loc 1 179 10 view .LVU414
 1375 0056 0E20     	 movs r0,#14
 1376 0058 A847     	 blx r5
 1377              	.LVL129:
 179:simpleserial-ml-kem-512.c **** }
 1378              	 .loc 1 179 10 is_stmt 0 view .LVU415
 1379              	.LBE87:
 1380              	.LBE86:
 217:simpleserial-ml-kem-512.c ****     fail = PQCLEAN_MLKEM512_CLEAN_verify(ct, ct, KYBER_CIPHERTEXTBYTES);
 1381              	 .loc 1 217 5 is_stmt 1 view .LVU416
 1382              	.LBB88:
 1383              	.LBI88:
 170:simpleserial-ml-kem-512.c **** {
 1384              	 .loc 1 170 13 view .LVU417
 1385              	.LBB89:
 172:simpleserial-ml-kem-512.c ****     else led_off(LED1);
 1386              	 .loc 1 172 5 view .LVU418
 172:simpleserial-ml-kem-512.c ****     else led_off(LED1);
 1387              	 .loc 1 172 18 discriminator 1 view .LVU419
 1388 005a 1020     	 movs r0,#16
 1389 005c A047     	 blx r4
 1390              	.LVL130:
 175:simpleserial-ml-kem-512.c ****     else led_off(LED2);
 1391              	 .loc 1 175 5 view .LVU420
 175:simpleserial-ml-kem-512.c ****     else led_off(LED2);
 1392              	 .loc 1 175 18 discriminator 1 view .LVU421
 1393 005e 0F20     	 movs r0,#15
 1394 0060 A047     	 blx r4
 1395              	.LVL131:
 178:simpleserial-ml-kem-512.c ****     else led_off(LED3);
 1396              	 .loc 1 178 5 view .LVU422
 179:simpleserial-ml-kem-512.c **** }
 1397              	 .loc 1 179 10 view .LVU423
 1398 0062 0E20     	 movs r0,#14
 1399 0064 A847     	 blx r5
 1400              	.LVL132:
 179:simpleserial-ml-kem-512.c **** }
 1401              	 .loc 1 179 10 is_stmt 0 view .LVU424
 1402              	.LBE89:
 1403              	.LBE88:
 218:simpleserial-ml-kem-512.c ****     
 1404              	 .loc 1 218 5 is_stmt 1 view .LVU425
 218:simpleserial-ml-kem-512.c ****     
 1405              	 .loc 1 218 12 is_stmt 0 view .LVU426
 1406 0066 1949     	 ldr r1,.L102+12
 1407 0068 204B     	 ldr r3,.L102+44
 1408 006a 4FF44072 	 mov r2,#768
 1409 006e 0846     	 mov r0,r1
 1410 0070 9847     	 blx r3
 1411              	.LVL133:
 1412 0072 0646     	 mov r6,r0
 1413              	.LVL134:
 221:simpleserial-ml-kem-512.c ****     rkprf(ss_result, sk + KYBER_SECRETKEYBYTES - KYBER_SYMBYTES, ct);
 1414              	 .loc 1 221 5 is_stmt 1 view .LVU427
 1415              	.LBB90:
 1416              	.LBI90:
 170:simpleserial-ml-kem-512.c **** {
 1417              	 .loc 1 170 13 view .LVU428
 1418              	.LBB91:
 172:simpleserial-ml-kem-512.c ****     else led_off(LED1);
 1419              	 .loc 1 172 5 view .LVU429
 173:simpleserial-ml-kem-512.c **** 
 1420              	 .loc 1 173 10 view .LVU430
 1421 0074 1020     	 movs r0,#16
 1422              	.LVL135:
 173:simpleserial-ml-kem-512.c **** 
 1423              	 .loc 1 173 10 is_stmt 0 view .LVU431
 1424 0076 A847     	 blx r5
 1425              	.LVL136:
 175:simpleserial-ml-kem-512.c ****     else led_off(LED2);
 1426              	 .loc 1 175 5 is_stmt 1 view .LVU432
 175:simpleserial-ml-kem-512.c ****     else led_off(LED2);
 1427              	 .loc 1 175 18 discriminator 1 view .LVU433
 1428 0078 0F20     	 movs r0,#15
 1429 007a A047     	 blx r4
 1430              	.LVL137:
 178:simpleserial-ml-kem-512.c ****     else led_off(LED3);
 1431              	 .loc 1 178 5 view .LVU434
 1432              	.LBB92:
 1433              	.LBI92:
 170:simpleserial-ml-kem-512.c **** {
 1434              	 .loc 1 170 13 view .LVU435
 1435              	.LBB93:
 178:simpleserial-ml-kem-512.c ****     else led_off(LED3);
 1436              	 .loc 1 178 18 discriminator 1 view .LVU436
 1437 007c 0E20     	 movs r0,#14
 1438 007e A047     	 blx r4
 1439              	.LVL138:
 178:simpleserial-ml-kem-512.c ****     else led_off(LED3);
 1440              	 .loc 1 178 18 is_stmt 0 discriminator 1 view .LVU437
 1441              	.LBE93:
 1442              	.LBE92:
 1443              	.LBE91:
 1444              	.LBE90:
 222:simpleserial-ml-kem-512.c **** 
 1445              	 .loc 1 222 5 is_stmt 1 view .LVU438
 1446 0080 124A     	 ldr r2,.L102+12
 1447 0082 1B49     	 ldr r1,.L102+48
 1448 0084 1B4B     	 ldr r3,.L102+52
 1449 0086 1C48     	 ldr r0,.L102+56
 1450 0088 9847     	 blx r3
 1451              	.LVL139:
 224:simpleserial-ml-kem-512.c ****     
 1452              	 .loc 1 224 5 view .LVU439
 1453              	.LBB94:
 1454              	.LBI94:
 170:simpleserial-ml-kem-512.c **** {
 1455              	 .loc 1 170 13 view .LVU440
 1456              	.LBB95:
 172:simpleserial-ml-kem-512.c ****     else led_off(LED1);
 1457              	 .loc 1 172 5 view .LVU441
 172:simpleserial-ml-kem-512.c ****     else led_off(LED1);
 1458              	 .loc 1 172 18 discriminator 1 view .LVU442
 1459 008a 1020     	 movs r0,#16
 1460 008c A047     	 blx r4
 1461              	.LVL140:
 175:simpleserial-ml-kem-512.c ****     else led_off(LED2);
 1462              	 .loc 1 175 5 view .LVU443
 176:simpleserial-ml-kem-512.c **** 
 1463              	 .loc 1 176 10 view .LVU444
 1464 008e 0F20     	 movs r0,#15
 1465 0090 A847     	 blx r5
 1466              	.LVL141:
 178:simpleserial-ml-kem-512.c ****     else led_off(LED3);
 1467              	 .loc 1 178 5 view .LVU445
 1468              	.LBB96:
 1469              	.LBI96:
 170:simpleserial-ml-kem-512.c **** {
 1470              	 .loc 1 170 13 view .LVU446
 1471              	.LBB97:
 178:simpleserial-ml-kem-512.c ****     else led_off(LED3);
 1472              	 .loc 1 178 18 discriminator 1 view .LVU447
 1473 0092 0E20     	 movs r0,#14
 1474 0094 A047     	 blx r4
 1475              	.LVL142:
 178:simpleserial-ml-kem-512.c ****     else led_off(LED3);
 1476              	 .loc 1 178 18 is_stmt 0 discriminator 1 view .LVU448
 1477              	.LBE97:
 1478              	.LBE96:
 1479              	.LBE95:
 1480              	.LBE94:
 227:simpleserial-ml-kem-512.c ****     PQCLEAN_MLKEM512_CLEAN_cmov(ss_result, decap_kr, KYBER_SYMBYTES, (uint8_t)(1 - fail));
 1481              	 .loc 1 227 5 is_stmt 1 view .LVU449
 1482 0096 194B     	 ldr r3,.L102+60
 1483 0098 9847     	 blx r3
 1484              	.LVL143:
 228:simpleserial-ml-kem-512.c ****     trigger_low();
 1485              	 .loc 1 228 5 view .LVU450
 1486 009a C6F10103 	 rsb r3,r6,#1
 1487 009e 1249     	 ldr r1,.L102+40
 1488 00a0 1548     	 ldr r0,.L102+56
 1489 00a2 174E     	 ldr r6,.L102+64
 1490              	.LVL144:
 228:simpleserial-ml-kem-512.c ****     trigger_low();
 1491              	 .loc 1 228 5 is_stmt 0 view .LVU451
 1492 00a4 2022     	 movs r2,#32
 1493 00a6 DBB2     	 uxtb r3,r3
 1494 00a8 B047     	 blx r6
 1495              	.LVL145:
 229:simpleserial-ml-kem-512.c **** 
 1496              	 .loc 1 229 5 is_stmt 1 view .LVU452
 1497 00aa 164B     	 ldr r3,.L102+68
 1498 00ac 9847     	 blx r3
 1499              	.LVL146:
 231:simpleserial-ml-kem-512.c ****     
 1500              	 .loc 1 231 5 view .LVU453
 1501              	.LBB98:
 1502              	.LBI98:
 170:simpleserial-ml-kem-512.c **** {
 1503              	 .loc 1 170 13 view .LVU454
 1504              	.LBB99:
 172:simpleserial-ml-kem-512.c ****     else led_off(LED1);
 1505              	 .loc 1 172 5 view .LVU455
 173:simpleserial-ml-kem-512.c **** 
 1506              	 .loc 1 173 10 view .LVU456
 1507 00ae 1020     	 movs r0,#16
 1508 00b0 A847     	 blx r5
 1509              	.LVL147:
 175:simpleserial-ml-kem-512.c ****     else led_off(LED2);
 1510              	 .loc 1 175 5 view .LVU457
 176:simpleserial-ml-kem-512.c **** 
 1511              	 .loc 1 176 10 view .LVU458
 1512 00b2 0F20     	 movs r0,#15
 1513 00b4 A847     	 blx r5
 1514              	.LVL148:
 178:simpleserial-ml-kem-512.c ****     else led_off(LED3);
 1515              	 .loc 1 178 5 view .LVU459
 1516              	.LBB100:
 1517              	.LBI100:
 170:simpleserial-ml-kem-512.c **** {
 1518              	 .loc 1 170 13 view .LVU460
 1519              	.LBB101:
 178:simpleserial-ml-kem-512.c ****     else led_off(LED3);
 1520              	 .loc 1 178 18 discriminator 1 view .LVU461
 1521 00b6 0E20     	 movs r0,#14
 1522 00b8 A047     	 blx r4
 1523              	.LVL149:
 178:simpleserial-ml-kem-512.c ****     else led_off(LED3);
 1524              	 .loc 1 178 18 is_stmt 0 discriminator 1 view .LVU462
 1525              	.LBE101:
 1526              	.LBE100:
 1527              	.LBE99:
 1528              	.LBE98:
 236:simpleserial-ml-kem-512.c **** }
 1529              	 .loc 1 236 2 is_stmt 1 view .LVU463
 237:simpleserial-ml-kem-512.c **** 
 1530              	 .loc 1 237 1 is_stmt 0 view .LVU464
 1531 00ba 0020     	 movs r0,#0
 1532 00bc 70BD     	 pop {r4,r5,r6,pc}
 1533              	.L103:
 1534 00be 00BF     	 .align 2
 1535              	.L102:
 1536 00c0 00000000 	 .word led_on
 1537 00c4 00000000 	 .word led_off
 1538 00c8 00000000 	 .word sk
 1539 00cc 00000000 	 .word ct
 1540 00d0 00000000 	 .word PQCLEAN_MLKEM512_CLEAN_indcpa_dec
 1541 00d4 00000000 	 .word decap_decrypted_buf
 1542 00d8 00000000 	 .word decap_buf
 1543 00dc 20060000 	 .word sk+1568
 1544 00e0 20000000 	 .word decap_buf+32
 1545 00e4 00000000 	 .word sha3_512
 1546 00e8 00000000 	 .word decap_kr
 1547 00ec 00000000 	 .word PQCLEAN_MLKEM512_CLEAN_verify
 1548 00f0 40060000 	 .word sk+1600
 1549 00f4 00000000 	 .word PQCLEAN_MLKEM512_CLEAN_kyber_shake256_rkprf
 1550 00f8 00000000 	 .word ss_result
 1551 00fc 00000000 	 .word trigger_high
 1552 0100 00000000 	 .word PQCLEAN_MLKEM512_CLEAN_cmov
 1553 0104 00000000 	 .word trigger_low
 1554              	 .cfi_endproc
 1555              	.LFE144:
 1557              	 .section .text.ml_kem_512,"ax",%progbits
 1558              	 .align 1
 1559              	 .global ml_kem_512
 1560              	 .syntax unified
 1561              	 .thumb
 1562              	 .thumb_func
 1564              	ml_kem_512:
 1565              	.LVL150:
 1566              	.LFB152:
 393:simpleserial-ml-kem-512.c ****     uint8_t err;
 1567              	 .loc 1 393 1 is_stmt 1 view-0
 1568              	 .cfi_startproc
 1569              	 
 1570              	 
 393:simpleserial-ml-kem-512.c ****     uint8_t err;
 1571              	 .loc 1 393 1 is_stmt 0 view .LVU466
 1572 0000 38B5     	 push {r3,r4,r5,lr}
 1573              	.LCFI11:
 1574              	 .cfi_def_cfa_offset 16
 1575              	 .cfi_offset 3,-16
 1576              	 .cfi_offset 4,-12
 1577              	 .cfi_offset 5,-8
 1578              	 .cfi_offset 14,-4
 393:simpleserial-ml-kem-512.c ****     uint8_t err;
 1579              	 .loc 1 393 1 view .LVU467
 1580 0002 0D46     	 mov r5,r1
 1581 0004 1446     	 mov r4,r2
 394:simpleserial-ml-kem-512.c **** 
 1582              	 .loc 1 394 5 is_stmt 1 view .LVU468
 396:simpleserial-ml-kem-512.c **** 
 1583              	 .loc 1 396 5 view .LVU469
 398:simpleserial-ml-kem-512.c ****     if (err != SS_ERR_CMD) {
 1584              	 .loc 1 398 5 view .LVU470
 398:simpleserial-ml-kem-512.c ****     if (err != SS_ERR_CMD) {
 1585              	 .loc 1 398 11 is_stmt 0 view .LVU471
 1586 0006 2146     	 mov r1,r4
 1587              	.LVL151:
 398:simpleserial-ml-kem-512.c ****     if (err != SS_ERR_CMD) {
 1588              	 .loc 1 398 11 view .LVU472
 1589 0008 1A46     	 mov r2,r3
 1590              	.LVL152:
 398:simpleserial-ml-kem-512.c ****     if (err != SS_ERR_CMD) {
 1591              	 .loc 1 398 11 view .LVU473
 1592 000a 2846     	 mov r0,r5
 1593              	.LVL153:
 398:simpleserial-ml-kem-512.c ****     if (err != SS_ERR_CMD) {
 1594              	 .loc 1 398 11 view .LVU474
 1595 000c 114B     	 ldr r3,.L111
 1596              	.LVL154:
 398:simpleserial-ml-kem-512.c ****     if (err != SS_ERR_CMD) {
 1597              	 .loc 1 398 11 view .LVU475
 1598 000e 9847     	 blx r3
 1599              	.LVL155:
 399:simpleserial-ml-kem-512.c ****         return err;
 1600              	 .loc 1 399 5 is_stmt 1 view .LVU476
 399:simpleserial-ml-kem-512.c ****         return err;
 1601              	 .loc 1 399 8 is_stmt 0 view .LVU477
 1602 0010 0128     	 cmp r0,#1
 1603 0012 1BD1     	 bne .L105
 403:simpleserial-ml-kem-512.c ****         if (len != 0) {
 1604              	 .loc 1 403 5 is_stmt 1 view .LVU478
 403:simpleserial-ml-kem-512.c ****         if (len != 0) {
 1605              	 .loc 1 403 8 is_stmt 0 view .LVU479
 1606 0014 402D     	 cmp r5,#64
 1607 0016 19D1     	 bne .L105
 404:simpleserial-ml-kem-512.c ****             return SS_ERR_LEN;
 1608              	 .loc 1 404 9 is_stmt 1 view .LVU480
 404:simpleserial-ml-kem-512.c ****             return SS_ERR_LEN;
 1609              	 .loc 1 404 12 is_stmt 0 view .LVU481
 1610 0018 CCB9     	 cbnz r4,.L110
 1611              	.LBB104:
 1612              	.LBI104:
 392:simpleserial-ml-kem-512.c **** {
 1613              	 .loc 1 392 9 is_stmt 1 view .LVU482
 1614              	.LVL156:
 1615              	.LBB105:
 407:simpleserial-ml-kem-512.c ****             (pk_chunks_loaded != MLKEM_SS_V21_PK_MASK) ||
 1616              	 .loc 1 407 9 view .LVU483
 407:simpleserial-ml-kem-512.c ****             (pk_chunks_loaded != MLKEM_SS_V21_PK_MASK) ||
 1617              	 .loc 1 407 31 is_stmt 0 view .LVU484
 1618 001a 0F4B     	 ldr r3,.L111+4
 407:simpleserial-ml-kem-512.c ****             (pk_chunks_loaded != MLKEM_SS_V21_PK_MASK) ||
 1619              	 .loc 1 407 12 view .LVU485
 1620 001c 1B78     	 ldrb r3,[r3]
 1621 001e FF2B     	 cmp r3,#255
 1622 0020 15D1     	 bne .L110
 408:simpleserial-ml-kem-512.c ****             (ct_chunks_loaded != MLKEM_SS_V21_CT_MASK) ||
 1623              	 .loc 1 408 31 view .LVU486
 1624 0022 0E4B     	 ldr r3,.L111+8
 407:simpleserial-ml-kem-512.c ****             (pk_chunks_loaded != MLKEM_SS_V21_PK_MASK) ||
 1625              	 .loc 1 407 56 discriminator 1 view .LVU487
 1626 0024 1B78     	 ldrb r3,[r3]
 1627 0026 0F2B     	 cmp r3,#15
 1628 0028 11D1     	 bne .L110
 409:simpleserial-ml-kem-512.c ****             (ss_loaded == 0)) {
 1629              	 .loc 1 409 31 view .LVU488
 1630 002a 0D4B     	 ldr r3,.L111+12
 408:simpleserial-ml-kem-512.c ****             (ct_chunks_loaded != MLKEM_SS_V21_CT_MASK) ||
 1631              	 .loc 1 408 56 view .LVU489
 1632 002c 1B78     	 ldrb r3,[r3]
 1633 002e 0F2B     	 cmp r3,#15
 1634 0030 0DD1     	 bne .L110
 410:simpleserial-ml-kem-512.c ****             return SS_ERR_LEN;
 1635              	 .loc 1 410 24 view .LVU490
 1636 0032 0C4B     	 ldr r3,.L111+16
 409:simpleserial-ml-kem-512.c ****             (ss_loaded == 0)) {
 1637              	 .loc 1 409 56 view .LVU491
 1638 0034 1B78     	 ldrb r3,[r3]
 1639 0036 53B1     	 cbz r3,.L110
 413:simpleserial-ml-kem-512.c ****         if (err != SS_ERR_OK) {
 1640              	 .loc 1 413 9 is_stmt 1 view .LVU492
 413:simpleserial-ml-kem-512.c ****         if (err != SS_ERR_OK) {
 1641              	 .loc 1 413 15 is_stmt 0 view .LVU493
 1642 0038 0B4B     	 ldr r3,.L111+20
 1643 003a 2146     	 mov r1,r4
 1644 003c 2046     	 mov r0,r4
 1645              	.LVL157:
 413:simpleserial-ml-kem-512.c ****         if (err != SS_ERR_OK) {
 1646              	 .loc 1 413 15 view .LVU494
 1647 003e 9847     	 blx r3
 1648              	.LVL158:
 414:simpleserial-ml-kem-512.c ****             return err;
 1649              	 .loc 1 414 9 is_stmt 1 view .LVU495
 417:simpleserial-ml-kem-512.c ****     }
 1650              	 .loc 1 417 9 view .LVU496
 417:simpleserial-ml-kem-512.c ****     }
 1651              	 .loc 1 417 16 is_stmt 0 view .LVU497
 1652 0040 0A49     	 ldr r1,.L111+24
 1653 0042 0B48     	 ldr r0,.L111+28
 1654 0044 0B4B     	 ldr r3,.L111+32
 1655 0046 2022     	 movs r2,#32
 1656 0048 9847     	 blx r3
 1657              	.LVL159:
 417:simpleserial-ml-kem-512.c ****     }
 1658              	 .loc 1 417 16 discriminator 1 view .LVU498
 1659 004a C0B2     	 uxtb r0,r0
 1660              	.LVL160:
 1661              	.L105:
 417:simpleserial-ml-kem-512.c ****     }
 1662              	 .loc 1 417 16 discriminator 1 view .LVU499
 1663              	.LBE105:
 1664              	.LBE104:
 421:simpleserial-ml-kem-512.c **** 
 1665              	 .loc 1 421 1 view .LVU500
 1666 004c 38BD     	 pop {r3,r4,r5,pc}
 1667              	.LVL161:
 1668              	.L110:
 405:simpleserial-ml-kem-512.c ****         }
 1669              	 .loc 1 405 20 view .LVU501
 1670 004e 0420     	 movs r0,#4
 1671              	.LVL162:
 405:simpleserial-ml-kem-512.c ****         }
 1672              	 .loc 1 405 20 view .LVU502
 1673 0050 FCE7     	 b .L105
 1674              	.L112:
 1675 0052 00BF     	 .align 2
 1676              	.L111:
 1677 0054 00000000 	 .word v21_handle_vector_write
 1678 0058 00000000 	 .word sk_chunks_loaded
 1679 005c 00000000 	 .word pk_chunks_loaded
 1680 0060 00000000 	 .word ct_chunks_loaded
 1681 0064 00000000 	 .word ss_loaded
 1682 0068 00000000 	 .word ml_kem_512_decap
 1683 006c 00000000 	 .word ss_result
 1684 0070 00000000 	 .word ss
 1685 0074 00000000 	 .word PQCLEAN_MLKEM512_CLEAN_verify
 1686              	 .cfi_endproc
 1687              	.LFE152:
 1689              	 .section .text.startup.main,"ax",%progbits
 1690              	 .align 1
 1691              	 .global main
 1692              	 .syntax unified
 1693              	 .thumb
 1694              	 .thumb_func
 1696              	main:
 1697              	.LFB155:
 450:simpleserial-ml-kem-512.c **** #endif
 451:simpleserial-ml-kem-512.c **** 
 452:simpleserial-ml-kem-512.c **** int main(void)
 453:simpleserial-ml-kem-512.c **** {
 1698              	 .loc 1 453 1 is_stmt 1 view-0
 1699              	 .cfi_startproc
 1700              	 
 1701              	 
 1702              	 
 454:simpleserial-ml-kem-512.c ****     /* Setup the LEDs */
 455:simpleserial-ml-kem-512.c ****     gpio_configure_pin(LED1, PIO_OUTPUT_0 | PIO_DEFAULT);
 1703              	 .loc 1 455 5 view .LVU504
 453:simpleserial-ml-kem-512.c ****     /* Setup the LEDs */
 1704              	 .loc 1 453 1 is_stmt 0 view .LVU505
 1705 0000 07B5     	 push {r0,r1,r2,lr}
 1706              	.LCFI12:
 1707              	 .cfi_def_cfa_offset 16
 1708              	 .cfi_offset 14,-4
 1709              	 .loc 1 455 5 view .LVU506
 1710 0002 254C     	 ldr r4,.L117
 1711 0004 4FF04051 	 mov r1,#805306368
 1712 0008 1020     	 movs r0,#16
 1713 000a A047     	 blx r4
 1714              	.LVL163:
 456:simpleserial-ml-kem-512.c ****     gpio_configure_pin(LED2, PIO_OUTPUT_0 | PIO_DEFAULT);
 1715              	 .loc 1 456 5 is_stmt 1 view .LVU507
 1716 000c 4FF04051 	 mov r1,#805306368
 1717 0010 0F20     	 movs r0,#15
 1718 0012 A047     	 blx r4
 1719              	.LVL164:
 457:simpleserial-ml-kem-512.c ****     gpio_configure_pin(LED3, PIO_OUTPUT_0 | PIO_DEFAULT);
 1720              	 .loc 1 457 5 view .LVU508
 1721 0014 4FF04051 	 mov r1,#805306368
 1722 0018 0E20     	 movs r0,#14
 1723 001a A047     	 blx r4
 1724              	.LVL165:
 458:simpleserial-ml-kem-512.c **** 
 459:simpleserial-ml-kem-512.c ****     platform_init();
 1725              	 .loc 1 459 5 view .LVU509
 1726 001c 1F4B     	 ldr r3,.L117+4
 460:simpleserial-ml-kem-512.c ****     init_uart();
 461:simpleserial-ml-kem-512.c ****     trigger_setup();
 462:simpleserial-ml-kem-512.c **** 
 463:simpleserial-ml-kem-512.c **** 	simpleserial_init();
 464:simpleserial-ml-kem-512.c **** 
 465:simpleserial-ml-kem-512.c ****     /* Indicate startup */
 466:simpleserial-ml-kem-512.c ****     gpio_set_pin_high(LED1);
 1727              	 .loc 1 466 5 is_stmt 0 view .LVU510
 1728 001e 204C     	 ldr r4,.L117+8
 459:simpleserial-ml-kem-512.c ****     init_uart();
 1729              	 .loc 1 459 5 view .LVU511
 1730 0020 9847     	 blx r3
 1731              	.LVL166:
 460:simpleserial-ml-kem-512.c ****     init_uart();
 1732              	 .loc 1 460 5 is_stmt 1 view .LVU512
 1733 0022 204B     	 ldr r3,.L117+12
 1734 0024 9847     	 blx r3
 1735              	.LVL167:
 461:simpleserial-ml-kem-512.c **** 
 1736              	 .loc 1 461 5 view .LVU513
 1737 0026 204B     	 ldr r3,.L117+16
 1738 0028 9847     	 blx r3
 1739              	.LVL168:
 463:simpleserial-ml-kem-512.c **** 
 1740              	 .loc 1 463 2 view .LVU514
 1741 002a 204B     	 ldr r3,.L117+20
 1742 002c 9847     	 blx r3
 1743              	.LVL169:
 1744              	 .loc 1 466 5 view .LVU515
 1745 002e 1020     	 movs r0,#16
 1746 0030 A047     	 blx r4
 1747              	.LVL170:
 467:simpleserial-ml-kem-512.c ****     gpio_set_pin_high(LED2);
 1748              	 .loc 1 467 5 view .LVU516
 1749 0032 0F20     	 movs r0,#15
 1750 0034 A047     	 blx r4
 1751              	.LVL171:
 468:simpleserial-ml-kem-512.c ****     gpio_set_pin_high(LED3);
 1752              	 .loc 1 468 5 view .LVU517
 1753 0036 0E20     	 movs r0,#14
 1754 0038 A047     	 blx r4
 1755              	.LVL172:
 469:simpleserial-ml-kem-512.c **** 
 470:simpleserial-ml-kem-512.c ****     delay_seconds(1);        //Wait for a second to make sure the user can see the LEDs turn on
 1756              	 .loc 1 470 5 view .LVU518
 1757              	.LBB112:
 1758              	.LBI112:
 101:simpleserial-ml-kem-512.c **** {
 1759              	 .loc 1 101 13 view .LVU519
 1760              	.LBB113:
 103:simpleserial-ml-kem-512.c ****     for (uint32_t s = 0; s < seconds; s++) {
 1761              	 .loc 1 103 5 view .LVU520
 104:simpleserial-ml-kem-512.c ****         for (volatile uint32_t i = 0; i < loops_per_sec; i++) {
 1762              	 .loc 1 104 5 view .LVU521
 1763              	.LBB114:
 104:simpleserial-ml-kem-512.c ****         for (volatile uint32_t i = 0; i < loops_per_sec; i++) {
 1764              	 .loc 1 104 10 view .LVU522
 104:simpleserial-ml-kem-512.c ****         for (volatile uint32_t i = 0; i < loops_per_sec; i++) {
 1765              	 .loc 1 104 28 discriminator 1 view .LVU523
 105:simpleserial-ml-kem-512.c ****             __asm__ volatile ("nop");
 1766              	 .loc 1 105 9 view .LVU524
 1767              	.LBB115:
 105:simpleserial-ml-kem-512.c ****             __asm__ volatile ("nop");
 1768              	 .loc 1 105 14 view .LVU525
 105:simpleserial-ml-kem-512.c ****             __asm__ volatile ("nop");
 1769              	 .loc 1 105 32 is_stmt 0 view .LVU526
 1770 003a 0023     	 movs r3,#0
 105:simpleserial-ml-kem-512.c ****             __asm__ volatile ("nop");
 1771              	 .loc 1 105 41 discriminator 1 view .LVU527
 1772 003c 1C4A     	 ldr r2,.L117+24
 105:simpleserial-ml-kem-512.c ****             __asm__ volatile ("nop");
 1773              	 .loc 1 105 32 view .LVU528
 1774 003e 0193     	 str r3,[sp,#4]
 1775              	.L114:
 105:simpleserial-ml-kem-512.c ****             __asm__ volatile ("nop");
 1776              	 .loc 1 105 41 is_stmt 1 discriminator 1 view .LVU529
 1777 0040 019B     	 ldr r3,[sp,#4]
 1778 0042 9342     	 cmp r3,r2
 1779 0044 22D3     	 bcc .L115
 1780              	.LVL173:
 105:simpleserial-ml-kem-512.c ****             __asm__ volatile ("nop");
 1781              	 .loc 1 105 41 is_stmt 0 discriminator 1 view .LVU530
 1782              	.LBE115:
 104:simpleserial-ml-kem-512.c ****         for (volatile uint32_t i = 0; i < loops_per_sec; i++) {
 1783              	 .loc 1 104 28 is_stmt 1 discriminator 1 view .LVU531
 104:simpleserial-ml-kem-512.c ****         for (volatile uint32_t i = 0; i < loops_per_sec; i++) {
 1784              	 .loc 1 104 28 is_stmt 0 discriminator 1 view .LVU532
 1785              	.LBE114:
 1786              	.LBE113:
 1787              	.LBE112:
 471:simpleserial-ml-kem-512.c **** 
 472:simpleserial-ml-kem-512.c ****     /*now turn off the leds */
 473:simpleserial-ml-kem-512.c ****     /*tur off the leds with the funcion led_off */
 474:simpleserial-ml-kem-512.c ****     led_off(LED1); //Turn on LED1 using led_on function
 1788              	 .loc 1 474 5 is_stmt 1 view .LVU533
 1789 0046 1B4C     	 ldr r4,.L117+28
 1790 0048 1020     	 movs r0,#16
 1791 004a A047     	 blx r4
 1792              	.LVL174:
 475:simpleserial-ml-kem-512.c ****     led_off(LED2); //Turn on LED2 using led_on function
 1793              	 .loc 1 475 5 view .LVU534
 1794 004c 0F20     	 movs r0,#15
 1795 004e A047     	 blx r4
 1796              	.LVL175:
 476:simpleserial-ml-kem-512.c ****     led_off(LED3); //Turn on LED3 using led_on function
 1797              	 .loc 1 476 5 view .LVU535
 1798 0050 0E20     	 movs r0,#14
 1799 0052 A047     	 blx r4
 1800              	.LVL176:
 477:simpleserial-ml-kem-512.c **** 
 478:simpleserial-ml-kem-512.c ****     #if SS_VER == SS_VER_2_1
 479:simpleserial-ml-kem-512.c ****     simpleserial_addcmd(MLKEM_SS_V21_CMD, MLKEM_SS_V21_CHUNK_SK, ml_kem_512);
 1801              	 .loc 1 479 5 view .LVU536
 1802 0054 184C     	 ldr r4,.L117+32
 1803 0056 194A     	 ldr r2,.L117+36
 1804 0058 CC21     	 movs r1,#204
 1805 005a 0120     	 movs r0,#1
 1806 005c A047     	 blx r4
 1807              	.LVL177:
 480:simpleserial-ml-kem-512.c ****     simpleserial_addcmd(MLKEM_SS_V21_CMD_RX, MLKEM_SS_V21_CHUNK_SK, ml_kem_512_rx_chunk);
 1808              	 .loc 1 480 5 view .LVU537
 1809 005e 184A     	 ldr r2,.L117+40
 1810 0060 CC21     	 movs r1,#204
 1811 0062 0220     	 movs r0,#2
 1812 0064 A047     	 blx r4
 1813              	.LVL178:
 481:simpleserial-ml-kem-512.c ****     simpleserial_addcmd(MLKEM_SS_V21_CMD_TX, 0, ml_kem_512_tx_chunk);
 1814              	 .loc 1 481 5 view .LVU538
 1815 0066 174A     	 ldr r2,.L117+44
 1816 0068 0021     	 movs r1,#0
 1817 006a 0320     	 movs r0,#3
 1818 006c A047     	 blx r4
 1819              	.LVL179:
 482:simpleserial-ml-kem-512.c ****     simpleserial_addcmd('h', 1, led_on_cmd_v21);
 1820              	 .loc 1 482 5 view .LVU539
 1821 006e 164A     	 ldr r2,.L117+48
 1822 0070 0121     	 movs r1,#1
 1823 0072 6820     	 movs r0,#104
 1824 0074 A047     	 blx r4
 1825              	.LVL180:
 483:simpleserial-ml-kem-512.c ****     simpleserial_addcmd('l', 1, led_off_cmd_v21);
 1826              	 .loc 1 483 5 view .LVU540
 1827 0076 154A     	 ldr r2,.L117+52
 1828 0078 0121     	 movs r1,#1
 1829 007a 6C20     	 movs r0,#108
 1830 007c A047     	 blx r4
 1831              	.LVL181:
 484:simpleserial-ml-kem-512.c ****     simpleserial_addcmd('t', 1, led_toggle_v21);
 1832              	 .loc 1 484 5 view .LVU541
 1833 007e 144A     	 ldr r2,.L117+56
 1834 0080 0121     	 movs r1,#1
 1835 0082 7420     	 movs r0,#116
 1836 0084 A047     	 blx r4
 1837              	.LVL182:
 485:simpleserial-ml-kem-512.c ****     #else
 486:simpleserial-ml-kem-512.c ****     simpleserial_addcmd('k', 16, get_key);
 487:simpleserial-ml-kem-512.c ****     simpleserial_addcmd('h', 1, led_on_cmd);
 488:simpleserial-ml-kem-512.c ****     simpleserial_addcmd('l', 1, led_off_cmd);
 489:simpleserial-ml-kem-512.c ****     simpleserial_addcmd('t', 1, led_toggle);
 490:simpleserial-ml-kem-512.c ****     #endif
 491:simpleserial-ml-kem-512.c **** 
 492:simpleserial-ml-kem-512.c ****     while(1)
 493:simpleserial-ml-kem-512.c ****         simpleserial_get();
 1838              	 .loc 1 493 9 is_stmt 0 discriminator 1 view .LVU542
 1839 0086 134C     	 ldr r4,.L117+60
 1840              	.L116:
 492:simpleserial-ml-kem-512.c ****         simpleserial_get();
 1841              	 .loc 1 492 5 is_stmt 1 view .LVU543
 1842              	 .loc 1 493 9 discriminator 1 view .LVU544
 1843 0088 A047     	 blx r4
 1844              	.LVL183:
 492:simpleserial-ml-kem-512.c ****         simpleserial_get();
 1845              	 .loc 1 492 10 view .LVU545
 1846 008a FDE7     	 b .L116
 1847              	.LVL184:
 1848              	.L115:
 1849              	.LBB119:
 1850              	.LBB118:
 1851              	.LBB117:
 1852              	.LBB116:
 106:simpleserial-ml-kem-512.c ****         }
 1853              	 .loc 1 106 13 view .LVU546
 1854              	 .syntax unified
 1855              	
 1856 008c 00BF     	 nop
 1857              	
 105:simpleserial-ml-kem-512.c ****             __asm__ volatile ("nop");
 1858              	 .loc 1 105 59 discriminator 3 view .LVU547
 1859              	 .thumb
 1860              	 .syntax unified
 1861 008e 019B     	 ldr r3,[sp,#4]
 1862 0090 0133     	 adds r3,r3,#1
 1863 0092 0193     	 str r3,[sp,#4]
 1864 0094 D4E7     	 b .L114
 1865              	.L118:
 1866 0096 00BF     	 .align 2
 1867              	.L117:
 1868 0098 00000000 	 .word pio_configure_pin
 1869 009c 00000000 	 .word platform_init
 1870 00a0 00000000 	 .word pio_set_pin_high
 1871 00a4 00000000 	 .word init_uart
 1872 00a8 00000000 	 .word trigger_setup
 1873 00ac 00000000 	 .word simpleserial_init
 1874 00b0 C0CF6A00 	 .word 7000000
 1875 00b4 00000000 	 .word led_off
 1876 00b8 00000000 	 .word simpleserial_addcmd
 1877 00bc 00000000 	 .word ml_kem_512
 1878 00c0 00000000 	 .word ml_kem_512_rx_chunk
 1879 00c4 00000000 	 .word ml_kem_512_tx_chunk
 1880 00c8 00000000 	 .word led_on_cmd_v21
 1881 00cc 00000000 	 .word led_off_cmd_v21
 1882 00d0 00000000 	 .word led_toggle_v21
 1883 00d4 00000000 	 .word simpleserial_get
 1884              	.LBE116:
 1885              	.LBE117:
 1886              	.LBE118:
 1887              	.LBE119:
 1888              	 .cfi_endproc
 1889              	.LFE155:
 1891              	 .section .bss.LED3State,"aw",%nobits
 1894              	LED3State:
 1895 0000 00       	 .space 1
 1896              	 .section .bss.LED2State,"aw",%nobits
 1899              	LED2State:
 1900 0000 00       	 .space 1
 1901              	 .section .bss.LED1State,"aw",%nobits
 1904              	LED1State:
 1905 0000 00       	 .space 1
 1906              	 .section .bss.ss_loaded,"aw",%nobits
 1909              	ss_loaded:
 1910 0000 00       	 .space 1
 1911              	 .section .bss.ct_chunks_loaded,"aw",%nobits
 1914              	ct_chunks_loaded:
 1915 0000 00       	 .space 1
 1916              	 .section .bss.pk_chunks_loaded,"aw",%nobits
 1919              	pk_chunks_loaded:
 1920 0000 00       	 .space 1
 1921              	 .section .bss.sk_chunks_loaded,"aw",%nobits
 1924              	sk_chunks_loaded:
 1925 0000 00       	 .space 1
 1926              	 .section .bss.decap_decrypted_buf,"aw",%nobits
 1929              	decap_decrypted_buf:
 1930 0000 00000000 	 .space 32
 1930      00000000 
 1930      00000000 
 1930      00000000 
 1930      00000000 
 1931              	 .section .bss.decap_kr,"aw",%nobits
 1934              	decap_kr:
 1935 0000 00000000 	 .space 64
 1935      00000000 
 1935      00000000 
 1935      00000000 
 1935      00000000 
 1936              	 .section .bss.decap_buf,"aw",%nobits
 1939              	decap_buf:
 1940 0000 00000000 	 .space 64
 1940      00000000 
 1940      00000000 
 1940      00000000 
 1940      00000000 
 1941              	 .section .bss.ss_result,"aw",%nobits
 1944              	ss_result:
 1945 0000 00000000 	 .space 32
 1945      00000000 
 1945      00000000 
 1945      00000000 
 1945      00000000 
 1946              	 .global ss2
 1947              	 .section .bss.ss2,"aw",%nobits
 1950              	ss2:
 1951 0000 00000000 	 .space 32
 1951      00000000 
 1951      00000000 
 1951      00000000 
 1951      00000000 
 1952              	 .global ss
 1953              	 .section .bss.ss,"aw",%nobits
 1956              	ss:
 1957 0000 00000000 	 .space 32
 1957      00000000 
 1957      00000000 
 1957      00000000 
 1957      00000000 
 1958              	 .global ct
 1959              	 .section .bss.ct,"aw",%nobits
 1962              	ct:
 1963 0000 00000000 	 .space 768
 1963      00000000 
 1963      00000000 
 1963      00000000 
 1963      00000000 
 1964              	 .global sk
 1965              	 .section .bss.sk,"aw",%nobits
 1968              	sk:
 1969 0000 00000000 	 .space 1632
 1969      00000000 
 1969      00000000 
 1969      00000000 
 1969      00000000 
 1970              	 .global pk
 1971              	 .section .bss.pk,"aw",%nobits
 1974              	pk:
 1975 0000 00000000 	 .space 800
 1975      00000000 
 1975      00000000 
 1975      00000000 
 1975      00000000 
 1976              	 .section .bss.cpu_irq_prev_interrupt_state,"aw",%nobits
 1979              	cpu_irq_prev_interrupt_state:
 1980 0000 00       	 .space 1
 1981              	 .section .bss.cpu_irq_critical_section_counter,"aw",%nobits
 1982              	 .align 2
 1985              	cpu_irq_critical_section_counter:
 1986 0000 00000000 	 .space 4
 1987              	 .text
 1988              	.Letext0:
 1989              	 .file 2 "/usr/lib/gcc/arm-none-eabi/14.2.1/include/stdint.h"
 1990              	 .file 3 "/usr/lib/gcc/arm-none-eabi/14.2.1/include/stddef.h"
 1991              	 .file 4 ".././hal//sam4s/inc/interrupt/interrupt_sam_nvic.h"
 1992              	 .file 5 ".././simpleserial/simpleserial.h"
 1993              	 .file 6 ".././hal//sam4s/inc/pio.h"
 1994              	 .file 7 ".././hal/sam4s/sam4s_hal.h"
 1995              	 .file 8 ".././hal/hal.h"
 1996              	 .file 9 "fips202.h"
 1997              	 .file 10 "verify.h"
 1998              	 .file 11 "symmetric.h"
 1999              	 .file 12 "/usr/include/newlib/string.h"
 2000              	 .file 13 "indcpa.h"
 2001              	 .file 14 "<built-in>"