   1              	 .cpu cortex-m4
   2              	 .arch armv7e-m
   3              	 .fpu softvfp
   4              	 .eabi_attribute 20,1
   5              	 .eabi_attribute 21,1
   6              	 .eabi_attribute 23,3
   7              	 .eabi_attribute 24,1
   8              	 .eabi_attribute 25,1
   9              	 .eabi_attribute 26,1
  10              	 .eabi_attribute 30,4
  11              	 .eabi_attribute 34,1
  12              	 .eabi_attribute 18,4
  13              	 .file "symmetric-shake.c"
  14              	 .text
  15              	.Ltext0:
  16              	 .cfi_sections .debug_frame
  17              	 .file 1 "symmetric-shake.c"
  18              	 .section .text.PQCLEAN_MLKEM512_CLEAN_kyber_shake128_absorb,"ax",%progbits
  19              	 .align 1
  20              	 .global PQCLEAN_MLKEM512_CLEAN_kyber_shake128_absorb
  21              	 .syntax unified
  22              	 .thumb
  23              	 .thumb_func
  25              	PQCLEAN_MLKEM512_CLEAN_kyber_shake128_absorb:
  26              	.LVL0:
  27              	.LFB0:
   1:symmetric-shake.c **** #include "fips202.h"
   2:symmetric-shake.c **** #include "params.h"
   3:symmetric-shake.c **** #include "symmetric.h"
   4:symmetric-shake.c **** #include <stddef.h>
   5:symmetric-shake.c **** #include <stdint.h>
   6:symmetric-shake.c **** #include <string.h>
   7:symmetric-shake.c **** 
   8:symmetric-shake.c **** /*************************************************
   9:symmetric-shake.c **** * Name:        PQCLEAN_MLKEM512_CLEAN_kyber_shake128_absorb
  10:symmetric-shake.c **** *
  11:symmetric-shake.c **** * Description: Absorb step of the SHAKE128 specialized for the Kyber context.
  12:symmetric-shake.c **** *
  13:symmetric-shake.c **** * Arguments:   - xof_state *state: pointer to (uninitialized) output Keccak state
  14:symmetric-shake.c **** *              - const uint8_t *seed: pointer to KYBER_SYMBYTES input to be absorbed into state
  15:symmetric-shake.c **** *              - uint8_t i: additional byte of input
  16:symmetric-shake.c **** *              - uint8_t j: additional byte of input
  17:symmetric-shake.c **** **************************************************/
  18:symmetric-shake.c **** void PQCLEAN_MLKEM512_CLEAN_kyber_shake128_absorb(xof_state *state,
  19:symmetric-shake.c ****         const uint8_t seed[KYBER_SYMBYTES],
  20:symmetric-shake.c ****         uint8_t x,
  21:symmetric-shake.c ****         uint8_t y) {
  28              	 .loc 1 21 20 view-0
  29              	 .cfi_startproc
  30              	 
  31              	 
  22:symmetric-shake.c ****     uint8_t extseed[KYBER_SYMBYTES + 2];
  32              	 .loc 1 22 5 view .LVU1
  23:symmetric-shake.c **** 
  24:symmetric-shake.c ****     memcpy(extseed, seed, KYBER_SYMBYTES);
  33              	 .loc 1 24 5 view .LVU2
  21:symmetric-shake.c ****     uint8_t extseed[KYBER_SYMBYTES + 2];
  34              	 .loc 1 21 20 is_stmt 0 view .LVU3
  35 0000 F0B5     	 push {r4,r5,r6,r7,lr}
  36              	.LCFI0:
  37              	 .cfi_def_cfa_offset 20
  38              	 .cfi_offset 4,-20
  39              	 .cfi_offset 5,-16
  40              	 .cfi_offset 6,-12
  41              	 .cfi_offset 7,-8
  42              	 .cfi_offset 14,-4
  43 0002 8BB0     	 sub sp,sp,#44
  44              	.LCFI1:
  45              	 .cfi_def_cfa_offset 64
  21:symmetric-shake.c ****     uint8_t extseed[KYBER_SYMBYTES + 2];
  46              	 .loc 1 21 20 view .LVU4
  47 0004 0646     	 mov r6,r0
  48              	 .loc 1 24 5 view .LVU5
  49 0006 0C46     	 mov r4,r1
  50 0008 01AF     	 add r7,sp,#4
  51 000a 01F1200C 	 add ip,r1,#32
  52              	.LVL1:
  53              	.L2:
  54              	 .loc 1 24 5 view .LVU6
  55 000e 2068     	 ldr r0,[r4]
  56 0010 6168     	 ldr r1,[r4,#4]
  57 0012 3D46     	 mov r5,r7
  58 0014 03C5     	 stmia r5!,{r0,r1}
  59 0016 0834     	 adds r4,r4,#8
  60 0018 6445     	 cmp r4,ip
  61 001a 2F46     	 mov r7,r5
  62 001c F7D1     	 bne .L2
  25:symmetric-shake.c ****     extseed[KYBER_SYMBYTES + 0] = x;
  63              	 .loc 1 25 5 is_stmt 1 view .LVU7
  64              	 .loc 1 25 33 is_stmt 0 view .LVU8
  65 001e 8DF82420 	 strb r2,[sp,#36]
  26:symmetric-shake.c ****     extseed[KYBER_SYMBYTES + 1] = y;
  66              	 .loc 1 26 5 is_stmt 1 view .LVU9
  67              	 .loc 1 26 33 is_stmt 0 view .LVU10
  68 0022 8DF82530 	 strb r3,[sp,#37]
  27:symmetric-shake.c **** 
  28:symmetric-shake.c ****     shake128_absorb(state, extseed, sizeof(extseed));
  69              	 .loc 1 28 5 is_stmt 1 view .LVU11
  70 0026 2222     	 movs r2,#34
  71              	.LVL2:
  72              	 .loc 1 28 5 is_stmt 0 view .LVU12
  73 0028 024B     	 ldr r3,.L4
  74              	.LVL3:
  75              	 .loc 1 28 5 view .LVU13
  76 002a 01A9     	 add r1,sp,#4
  77 002c 3046     	 mov r0,r6
  78 002e 9847     	 blx r3
  79              	.LVL4:
  29:symmetric-shake.c **** }
  80              	 .loc 1 29 1 view .LVU14
  81 0030 0BB0     	 add sp,sp,#44
  82              	.LCFI2:
  83              	 .cfi_def_cfa_offset 20
  84              	 
  85 0032 F0BD     	 pop {r4,r5,r6,r7,pc}
  86              	.LVL5:
  87              	.L5:
  88              	 .loc 1 29 1 view .LVU15
  89              	 .align 2
  90              	.L4:
  91 0034 00000000 	 .word shake128_absorb
  92              	 .cfi_endproc
  93              	.LFE0:
  95              	 .section .text.PQCLEAN_MLKEM512_CLEAN_kyber_shake256_prf,"ax",%progbits
  96              	 .align 1
  97              	 .global PQCLEAN_MLKEM512_CLEAN_kyber_shake256_prf
  98              	 .syntax unified
  99              	 .thumb
 100              	 .thumb_func
 102              	PQCLEAN_MLKEM512_CLEAN_kyber_shake256_prf:
 103              	.LVL6:
 104              	.LFB1:
  30:symmetric-shake.c **** 
  31:symmetric-shake.c **** /*************************************************
  32:symmetric-shake.c **** * Name:        PQCLEAN_MLKEM512_CLEAN_kyber_shake256_prf
  33:symmetric-shake.c **** *
  34:symmetric-shake.c **** * Description: Usage of SHAKE256 as a PRF, concatenates secret and public input
  35:symmetric-shake.c **** *              and then generates outlen bytes of SHAKE256 output
  36:symmetric-shake.c **** *
  37:symmetric-shake.c **** * Arguments:   - uint8_t *out: pointer to output
  38:symmetric-shake.c **** *              - size_t outlen: number of requested output bytes
  39:symmetric-shake.c **** *              - const uint8_t *key: pointer to the key (of length KYBER_SYMBYTES)
  40:symmetric-shake.c **** *              - uint8_t nonce: single-byte nonce (public PRF input)
  41:symmetric-shake.c **** **************************************************/
  42:symmetric-shake.c **** void PQCLEAN_MLKEM512_CLEAN_kyber_shake256_prf(uint8_t *out, size_t outlen, const uint8_t key[KYBER
 105              	 .loc 1 42 127 is_stmt 1 view-0
 106              	 .cfi_startproc
 107              	 
 108              	 
  43:symmetric-shake.c ****     uint8_t extkey[KYBER_SYMBYTES + 1];
 109              	 .loc 1 43 5 view .LVU17
  44:symmetric-shake.c **** 
  45:symmetric-shake.c ****     memcpy(extkey, key, KYBER_SYMBYTES);
 110              	 .loc 1 45 5 view .LVU18
  42:symmetric-shake.c ****     uint8_t extkey[KYBER_SYMBYTES + 1];
 111              	 .loc 1 42 127 is_stmt 0 view .LVU19
 112 0000 F0B5     	 push {r4,r5,r6,r7,lr}
 113              	.LCFI3:
 114              	 .cfi_def_cfa_offset 20
 115              	 .cfi_offset 4,-20
 116              	 .cfi_offset 5,-16
 117              	 .cfi_offset 6,-12
 118              	 .cfi_offset 7,-8
 119              	 .cfi_offset 14,-4
 120 0002 8BB0     	 sub sp,sp,#44
 121              	.LCFI4:
 122              	 .cfi_def_cfa_offset 64
  42:symmetric-shake.c ****     uint8_t extkey[KYBER_SYMBYTES + 1];
 123              	 .loc 1 42 127 view .LVU20
 124 0004 0546     	 mov r5,r0
 125 0006 0E46     	 mov r6,r1
 126              	 .loc 1 45 5 view .LVU21
 127 0008 01AF     	 add r7,sp,#4
 128 000a 02F1200C 	 add ip,r2,#32
 129              	.LVL7:
 130              	.L7:
 131              	 .loc 1 45 5 view .LVU22
 132 000e 1068     	 ldr r0,[r2]
 133 0010 5168     	 ldr r1,[r2,#4]
 134 0012 3C46     	 mov r4,r7
 135 0014 03C4     	 stmia r4!,{r0,r1}
 136 0016 0832     	 adds r2,r2,#8
 137 0018 6245     	 cmp r2,ip
 138 001a 2746     	 mov r7,r4
 139 001c F7D1     	 bne .L7
  46:symmetric-shake.c ****     extkey[KYBER_SYMBYTES] = nonce;
 140              	 .loc 1 46 5 is_stmt 1 view .LVU23
 141              	 .loc 1 46 28 is_stmt 0 view .LVU24
 142 001e 8DF82430 	 strb r3,[sp,#36]
  47:symmetric-shake.c **** 
  48:symmetric-shake.c ****     shake256(out, outlen, extkey, sizeof(extkey));
 143              	 .loc 1 48 5 is_stmt 1 view .LVU25
 144 0022 044C     	 ldr r4,.L9
 145 0024 2123     	 movs r3,#33
 146              	.LVL8:
 147              	 .loc 1 48 5 is_stmt 0 view .LVU26
 148 0026 01AA     	 add r2,sp,#4
 149 0028 3146     	 mov r1,r6
 150 002a 2846     	 mov r0,r5
 151 002c A047     	 blx r4
 152              	.LVL9:
  49:symmetric-shake.c **** }
 153              	 .loc 1 49 1 view .LVU27
 154 002e 0BB0     	 add sp,sp,#44
 155              	.LCFI5:
 156              	 .cfi_def_cfa_offset 20
 157              	 
 158 0030 F0BD     	 pop {r4,r5,r6,r7,pc}
 159              	.LVL10:
 160              	.L10:
 161              	 .loc 1 49 1 view .LVU28
 162 0032 00BF     	 .align 2
 163              	.L9:
 164 0034 00000000 	 .word shake256
 165              	 .cfi_endproc
 166              	.LFE1:
 168              	 .section .text.PQCLEAN_MLKEM512_CLEAN_kyber_shake256_rkprf,"ax",%progbits
 169              	 .align 1
 170              	 .global PQCLEAN_MLKEM512_CLEAN_kyber_shake256_rkprf
 171              	 .syntax unified
 172              	 .thumb
 173              	 .thumb_func
 175              	PQCLEAN_MLKEM512_CLEAN_kyber_shake256_rkprf:
 176              	.LVL11:
 177              	.LFB2:
  50:symmetric-shake.c **** 
  51:symmetric-shake.c **** /*************************************************
  52:symmetric-shake.c **** * Name:        PQCLEAN_MLKEM512_CLEAN_kyber_shake256_prf
  53:symmetric-shake.c **** *
  54:symmetric-shake.c **** * Description: Usage of SHAKE256 as a PRF, concatenates secret and public input
  55:symmetric-shake.c **** *              and then generates outlen bytes of SHAKE256 output
  56:symmetric-shake.c **** *
  57:symmetric-shake.c **** * Arguments:   - uint8_t *out: pointer to output
  58:symmetric-shake.c **** *              - size_t outlen: number of requested output bytes
  59:symmetric-shake.c **** *              - const uint8_t *key: pointer to the key (of length KYBER_SYMBYTES)
  60:symmetric-shake.c **** *              - uint8_t nonce: single-byte nonce (public PRF input)
  61:symmetric-shake.c **** **************************************************/
  62:symmetric-shake.c **** void PQCLEAN_MLKEM512_CLEAN_kyber_shake256_rkprf(uint8_t out[KYBER_SSBYTES], const uint8_t key[KYBE
 178              	 .loc 1 62 157 is_stmt 1 view-0
 179              	 .cfi_startproc
 180              	 
 181              	 
  63:symmetric-shake.c ****     shake256incctx s;
 182              	 .loc 1 63 5 view .LVU30
  64:symmetric-shake.c **** 
  65:symmetric-shake.c ****     shake256_inc_init(&s);
 183              	 .loc 1 65 5 view .LVU31
  62:symmetric-shake.c ****     shake256incctx s;
 184              	 .loc 1 62 157 is_stmt 0 view .LVU32
 185 0000 73B5     	 push {r0,r1,r4,r5,r6,lr}
 186              	.LCFI6:
 187              	 .cfi_def_cfa_offset 24
 188              	 .cfi_offset 4,-16
 189              	 .cfi_offset 5,-12
 190              	 .cfi_offset 6,-8
 191              	 .cfi_offset 14,-4
 192              	 .loc 1 65 5 view .LVU33
 193 0002 0E4B     	 ldr r3,.L12
  62:symmetric-shake.c ****     shake256incctx s;
 194              	 .loc 1 62 157 view .LVU34
 195 0004 0446     	 mov r4,r0
 196 0006 0E46     	 mov r6,r1
 197              	 .loc 1 65 5 view .LVU35
 198 0008 01A8     	 add r0,sp,#4
 199              	.LVL12:
  62:symmetric-shake.c ****     shake256incctx s;
 200              	 .loc 1 62 157 view .LVU36
 201 000a 1546     	 mov r5,r2
 202              	 .loc 1 65 5 view .LVU37
 203 000c 9847     	 blx r3
 204              	.LVL13:
  66:symmetric-shake.c ****     shake256_inc_absorb(&s, key, KYBER_SYMBYTES);
 205              	 .loc 1 66 5 is_stmt 1 view .LVU38
 206 000e 3146     	 mov r1,r6
 207 0010 01A8     	 add r0,sp,#4
 208 0012 0B4E     	 ldr r6,.L12+4
 209              	.LVL14:
 210              	 .loc 1 66 5 is_stmt 0 view .LVU39
 211 0014 2022     	 movs r2,#32
 212 0016 B047     	 blx r6
 213              	.LVL15:
  67:symmetric-shake.c ****     shake256_inc_absorb(&s, input, KYBER_CIPHERTEXTBYTES);
 214              	 .loc 1 67 5 is_stmt 1 view .LVU40
 215 0018 2946     	 mov r1,r5
 216 001a 4FF44072 	 mov r2,#768
 217 001e 01A8     	 add r0,sp,#4
 218 0020 B047     	 blx r6
 219              	.LVL16:
  68:symmetric-shake.c ****     shake256_inc_finalize(&s);
 220              	 .loc 1 68 5 view .LVU41
 221 0022 01A8     	 add r0,sp,#4
 222 0024 074B     	 ldr r3,.L12+8
 223 0026 9847     	 blx r3
 224              	.LVL17:
  69:symmetric-shake.c ****     shake256_inc_squeeze(out, KYBER_SSBYTES, &s);
 225              	 .loc 1 69 5 view .LVU42
 226 0028 01AA     	 add r2,sp,#4
 227 002a 2021     	 movs r1,#32
 228 002c 2046     	 mov r0,r4
 229 002e 064B     	 ldr r3,.L12+12
 230 0030 9847     	 blx r3
 231              	.LVL18:
  70:symmetric-shake.c ****     shake256_inc_ctx_release(&s);
 232              	 .loc 1 70 5 view .LVU43
 233 0032 064B     	 ldr r3,.L12+16
 234 0034 01A8     	 add r0,sp,#4
 235 0036 9847     	 blx r3
 236              	.LVL19:
  71:symmetric-shake.c **** }
 237              	 .loc 1 71 1 is_stmt 0 view .LVU44
 238 0038 02B0     	 add sp,sp,#8
 239              	.LCFI7:
 240              	 .cfi_def_cfa_offset 16
 241              	 
 242 003a 70BD     	 pop {r4,r5,r6,pc}
 243              	.LVL20:
 244              	.L13:
 245              	 .loc 1 71 1 view .LVU45
 246              	 .align 2
 247              	.L12:
 248 003c 00000000 	 .word shake256_inc_init
 249 0040 00000000 	 .word shake256_inc_absorb
 250 0044 00000000 	 .word shake256_inc_finalize
 251 0048 00000000 	 .word shake256_inc_squeeze
 252 004c 00000000 	 .word shake256_inc_ctx_release
 253              	 .cfi_endproc
 254              	.LFE2:
 256              	 .text
 257              	.Letext0:
 258              	 .file 2 "/usr/lib/gcc/arm-none-eabi/14.2.1/include/stddef.h"
 259              	 .file 3 "/usr/lib/gcc/arm-none-eabi/14.2.1/include/stdint.h"
 260              	 .file 4 "fips202.h"
 261              	 .file 5 "symmetric.h"
 262              	 .file 6 "/usr/include/newlib/string.h"