
simpleserial-ml-kem-1024-CW312_SAM4S.elf:     file format elf32-littlearm

Sections:
Idx Name          Size      VMA       LMA       File off  Algn
  0 .text         000035c8  00400000  00400000  00010000  2**3
                  CONTENTS, ALLOC, LOAD, READONLY, CODE
  1 .ARM.exidx    00000008  004035c8  004035c8  000135c8  2**2
                  CONTENTS, ALLOC, LOAD, READONLY, DATA
  2 .relocate     00000004  20000000  004035d0  00020000  2**2
                  CONTENTS, ALLOC, LOAD, DATA
  3 .bss          00001ae0  20000004  004035d4  00020004  2**2
                  ALLOC
  4 .stack        00001004  20001ae4  004050b4  00020004  2**0
                  ALLOC
  5 .ARM.attributes 0000002a  00000000  00000000  00020004  2**0
                  CONTENTS, READONLY
  6 .comment      0000004c  00000000  00000000  0002002e  2**0
                  CONTENTS, READONLY
  7 .debug_info   0000b919  00000000  00000000  0002007a  2**0
                  CONTENTS, READONLY, DEBUGGING, OCTETS
  8 .debug_abbrev 000027b0  00000000  00000000  0002b993  2**0
                  CONTENTS, READONLY, DEBUGGING, OCTETS
  9 .debug_loc    0000a233  00000000  00000000  0002e143  2**0
                  CONTENTS, READONLY, DEBUGGING, OCTETS
 10 .debug_aranges 00000ac0  00000000  00000000  00038378  2**3
                  CONTENTS, READONLY, DEBUGGING, OCTETS
 11 .debug_ranges 00000be8  00000000  00000000  00038e38  2**0
                  CONTENTS, READONLY, DEBUGGING, OCTETS
 12 .debug_macro  00010e09  00000000  00000000  00039a20  2**0
                  CONTENTS, READONLY, DEBUGGING, OCTETS
 13 .debug_line   000092d3  00000000  00000000  0004a829  2**0
                  CONTENTS, READONLY, DEBUGGING, OCTETS
 14 .debug_str    0004e376  00000000  00000000  00053afc  2**0
                  CONTENTS, READONLY, DEBUGGING, OCTETS
 15 .debug_frame  00001a40  00000000  00000000  000a1e74  2**2
                  CONTENTS, READONLY, DEBUGGING, OCTETS
 16 .debug_loclists 00000227  00000000  00000000  000a38b4  2**0
                  CONTENTS, READONLY, DEBUGGING, OCTETS
 17 .debug_line_str 0000009a  00000000  00000000  000a3adb  2**0
                  CONTENTS, READONLY, DEBUGGING, OCTETS

Disassembly of section .text:

00400000 <exception_table>:
  400000:	e8 2a 00 20 d5 2a 40 00 d1 2a 40 00 d1 2a 40 00     .*. .*@..*@..*@.
  400010:	d1 2a 40 00 d1 2a 40 00 d1 2a 40 00 00 00 00 00     .*@..*@..*@.....
  400020:	00 00 00 00 00 00 00 00 00 00 00 00 d1 2a 40 00     .............*@.
  400030:	d1 2a 40 00 00 00 00 00 d1 2a 40 00 d1 2a 40 00     .*@......*@..*@.
  400040:	d1 2a 40 00 d1 2a 40 00 d1 2a 40 00 d1 2a 40 00     .*@..*@..*@..*@.
  400050:	d1 2a 40 00 d1 2a 40 00 d1 2a 40 00 00 00 00 00     .*@..*@..*@.....
  400060:	d1 2a 40 00 d1 2a 40 00 00 00 00 00 d1 2a 40 00     .*@..*@......*@.
  400070:	d1 2a 40 00 00 00 00 00 d1 2a 40 00 d1 2a 40 00     .*@......*@..*@.
  400080:	00 00 00 00 00 00 00 00 d1 2a 40 00 d1 2a 40 00     .........*@..*@.
  400090:	d1 2a 40 00 d1 2a 40 00 d1 2a 40 00 d1 2a 40 00     .*@..*@..*@..*@.
  4000a0:	d1 2a 40 00 d1 2a 40 00 00 00 00 00 00 00 00 00     .*@..*@.........
  4000b0:	00 00 00 00 d1 2a 40 00 d1 2a 40 00 d1 2a 40 00     .....*@..*@..*@.
  4000c0:	d1 2a 40 00 d1 2a 40 00 d1 2a 40 00                 .*@..*@..*@.

004000cc <deregister_tm_clones>:
  4000cc:	4803      	ldr	r0, [pc, #12]	@ (4000dc <deregister_tm_clones+0x10>)
  4000ce:	4b04      	ldr	r3, [pc, #16]	@ (4000e0 <deregister_tm_clones+0x14>)
  4000d0:	4283      	cmp	r3, r0
  4000d2:	d002      	beq.n	4000da <deregister_tm_clones+0xe>
  4000d4:	4b03      	ldr	r3, [pc, #12]	@ (4000e4 <deregister_tm_clones+0x18>)
  4000d6:	b103      	cbz	r3, 4000da <deregister_tm_clones+0xe>
  4000d8:	4718      	bx	r3
  4000da:	4770      	bx	lr
  4000dc:	004035d0 	.word	0x004035d0
  4000e0:	004035d0 	.word	0x004035d0
  4000e4:	00000000 	.word	0x00000000

004000e8 <register_tm_clones>:
  4000e8:	4805      	ldr	r0, [pc, #20]	@ (400100 <register_tm_clones+0x18>)
  4000ea:	4b06      	ldr	r3, [pc, #24]	@ (400104 <register_tm_clones+0x1c>)
  4000ec:	1a1b      	subs	r3, r3, r0
  4000ee:	0fd9      	lsrs	r1, r3, #31
  4000f0:	eb01 01a3 	add.w	r1, r1, r3, asr #2
  4000f4:	1049      	asrs	r1, r1, #1
  4000f6:	d002      	beq.n	4000fe <register_tm_clones+0x16>
  4000f8:	4b03      	ldr	r3, [pc, #12]	@ (400108 <register_tm_clones+0x20>)
  4000fa:	b103      	cbz	r3, 4000fe <register_tm_clones+0x16>
  4000fc:	4718      	bx	r3
  4000fe:	4770      	bx	lr
  400100:	004035d0 	.word	0x004035d0
  400104:	004035d0 	.word	0x004035d0
  400108:	00000000 	.word	0x00000000

0040010c <__do_global_dtors_aux>:
  40010c:	b510      	push	{r4, lr}
  40010e:	4c06      	ldr	r4, [pc, #24]	@ (400128 <__do_global_dtors_aux+0x1c>)
  400110:	7823      	ldrb	r3, [r4, #0]
  400112:	b943      	cbnz	r3, 400126 <__do_global_dtors_aux+0x1a>
  400114:	f7ff ffda 	bl	4000cc <deregister_tm_clones>
  400118:	4b04      	ldr	r3, [pc, #16]	@ (40012c <__do_global_dtors_aux+0x20>)
  40011a:	b113      	cbz	r3, 400122 <__do_global_dtors_aux+0x16>
  40011c:	4804      	ldr	r0, [pc, #16]	@ (400130 <__do_global_dtors_aux+0x24>)
  40011e:	f3af 8000 	nop.w
  400122:	2301      	movs	r3, #1
  400124:	7023      	strb	r3, [r4, #0]
  400126:	bd10      	pop	{r4, pc}
  400128:	20000004 	.word	0x20000004
  40012c:	00000000 	.word	0x00000000
  400130:	004035d0 	.word	0x004035d0

00400134 <frame_dummy>:
  400134:	b508      	push	{r3, lr}
  400136:	4b04      	ldr	r3, [pc, #16]	@ (400148 <frame_dummy+0x14>)
  400138:	b11b      	cbz	r3, 400142 <frame_dummy+0xe>
  40013a:	4904      	ldr	r1, [pc, #16]	@ (40014c <frame_dummy+0x18>)
  40013c:	4804      	ldr	r0, [pc, #16]	@ (400150 <frame_dummy+0x1c>)
  40013e:	f3af 8000 	nop.w
  400142:	e8bd 4008 	ldmia.w	sp!, {r3, lr}
  400146:	e7cf      	b.n	4000e8 <register_tm_clones>
  400148:	00000000 	.word	0x00000000
  40014c:	20000008 	.word	0x20000008
  400150:	004035d0 	.word	0x004035d0

00400154 <mlkem_reset>:
}

/* Reset command for SS 2.1 */
uint8_t mlkem_reset(uint8_t cmd, uint8_t scmd, uint8_t len, uint8_t *buf)
{
    pk_loaded = 0;
  400154:	4b03      	ldr	r3, [pc, #12]	@ (400164 <mlkem_reset+0x10>)
  400156:	2000      	movs	r0, #0
  400158:	6018      	str	r0, [r3, #0]
    sk_loaded = 0;
  40015a:	4b03      	ldr	r3, [pc, #12]	@ (400168 <mlkem_reset+0x14>)
  40015c:	6018      	str	r0, [r3, #0]
    ct_loaded = 0;
  40015e:	4b03      	ldr	r3, [pc, #12]	@ (40016c <mlkem_reset+0x18>)
  400160:	6018      	str	r0, [r3, #0]
    return 0;
}
  400162:	4770      	bx	lr
  400164:	20000028 	.word	0x20000028
  400168:	20000024 	.word	0x20000024
  40016c:	20000020 	.word	0x20000020

00400170 <mlkem_keygen>:
    if (scmd == 0x01) {
  400170:	2904      	cmp	r1, #4
{
  400172:	b5f8      	push	{r3, r4, r5, r6, r7, lr}
  400174:	460c      	mov	r4, r1
  400176:	461e      	mov	r6, r3
  400178:	d052      	beq.n	400220 <mlkem_keygen+0xb0>
  40017a:	d806      	bhi.n	40018a <mlkem_keygen+0x1a>
  40017c:	2901      	cmp	r1, #1
  40017e:	d029      	beq.n	4001d4 <mlkem_keygen+0x64>
  400180:	2902      	cmp	r1, #2
  400182:	d039      	beq.n	4001f8 <mlkem_keygen+0x88>
        if (len < 1) return SS_ERR_LEN;
  400184:	2401      	movs	r4, #1
}
  400186:	4620      	mov	r0, r4
  400188:	bdf8      	pop	{r3, r4, r5, r6, r7, pc}
  40018a:	2910      	cmp	r1, #16
  40018c:	d059      	beq.n	400242 <mlkem_keygen+0xd2>
  40018e:	2920      	cmp	r1, #32
  400190:	d1f8      	bne.n	400184 <mlkem_keygen+0x14>
        if (len < 1) return SS_ERR_LEN;
  400192:	2a00      	cmp	r2, #0
  400194:	d077      	beq.n	400286 <mlkem_keygen+0x116>
        offset = chunk * CHUNK_SIZE;
  400196:	781d      	ldrb	r5, [r3, #0]
  400198:	ebc5 1505 	rsb	r5, r5, r5, lsl #4
  40019c:	012d      	lsls	r5, r5, #4
  40019e:	b2ad      	uxth	r5, r5
        if (offset >= MLKEM_SKBYTES) {
  4001a0:	f5b5 6f46 	cmp.w	r5, #3168	@ 0xc60
  4001a4:	d26f      	bcs.n	400286 <mlkem_keygen+0x116>
        num_bytes = len - 1;
  4001a6:	1e54      	subs	r4, r2, #1
  4001a8:	b2e7      	uxtb	r7, r4
        if (num_bytes + offset > MLKEM_SKBYTES) {
  4001aa:	fa55 f484 	uxtab	r4, r5, r4
  4001ae:	f5b4 6f46 	cmp.w	r4, #3168	@ 0xc60
            num_bytes = MLKEM_SKBYTES - offset;
  4001b2:	bfc8      	it	gt
  4001b4:	f1c5 0760 	rsbgt	r7, r5, #96	@ 0x60
        memcpy(sk + offset, buf + 1, num_bytes);
  4001b8:	4834      	ldr	r0, [pc, #208]	@ (40028c <mlkem_keygen+0x11c>)
            num_bytes = MLKEM_SKBYTES - offset;
  4001ba:	bfc8      	it	gt
  4001bc:	b2ff      	uxtbgt	r7, r7
        memcpy(sk + offset, buf + 1, num_bytes);
  4001be:	463a      	mov	r2, r7
  4001c0:	1c59      	adds	r1, r3, #1
  4001c2:	4428      	add	r0, r5
  4001c4:	4b32      	ldr	r3, [pc, #200]	@ (400290 <mlkem_keygen+0x120>)
        if (offset + num_bytes >= MLKEM_SKBYTES) {
  4001c6:	442f      	add	r7, r5
        memcpy(sk + offset, buf + 1, num_bytes);
  4001c8:	4798      	blx	r3
        if (offset + num_bytes >= MLKEM_SKBYTES) {
  4001ca:	f5b7 6f46 	cmp.w	r7, #3168	@ 0xc60
  4001ce:	db1d      	blt.n	40020c <mlkem_keygen+0x9c>
            sk_loaded = 1;
  4001d0:	4b30      	ldr	r3, [pc, #192]	@ (400294 <mlkem_keygen+0x124>)
  4001d2:	e055      	b.n	400280 <mlkem_keygen+0x110>
        trigger_high();
  4001d4:	4b30      	ldr	r3, [pc, #192]	@ (400298 <mlkem_keygen+0x128>)
  4001d6:	4798      	blx	r3
        crypto_kem_keypair(pk, sk);
  4001d8:	492c      	ldr	r1, [pc, #176]	@ (40028c <mlkem_keygen+0x11c>)
  4001da:	4b30      	ldr	r3, [pc, #192]	@ (40029c <mlkem_keygen+0x12c>)
  4001dc:	4830      	ldr	r0, [pc, #192]	@ (4002a0 <mlkem_keygen+0x130>)
  4001de:	4798      	blx	r3
        trigger_low();
  4001e0:	4b30      	ldr	r3, [pc, #192]	@ (4002a4 <mlkem_keygen+0x134>)
  4001e2:	4798      	blx	r3
        pk_loaded = 1;
  4001e4:	4b30      	ldr	r3, [pc, #192]	@ (4002a8 <mlkem_keygen+0x138>)
        memcpy(buf, pk, num_bytes);
  4001e6:	492e      	ldr	r1, [pc, #184]	@ (4002a0 <mlkem_keygen+0x130>)
        pk_loaded = 1;
  4001e8:	601c      	str	r4, [r3, #0]
        sk_loaded = 1;
  4001ea:	4b2a      	ldr	r3, [pc, #168]	@ (400294 <mlkem_keygen+0x124>)
        memcpy(buf, pk, num_bytes);
  4001ec:	22f0      	movs	r2, #240	@ 0xf0
        sk_loaded = 1;
  4001ee:	601c      	str	r4, [r3, #0]
        memcpy(buf, sk + offset, num_bytes);
  4001f0:	4b27      	ldr	r3, [pc, #156]	@ (400290 <mlkem_keygen+0x120>)
  4001f2:	4630      	mov	r0, r6
  4001f4:	4798      	blx	r3
        return 0;
  4001f6:	e009      	b.n	40020c <mlkem_keygen+0x9c>
        if (len < 1) return SS_ERR_LEN;
  4001f8:	2a00      	cmp	r2, #0
  4001fa:	d044      	beq.n	400286 <mlkem_keygen+0x116>
        offset = chunk * CHUNK_SIZE;
  4001fc:	781b      	ldrb	r3, [r3, #0]
  4001fe:	ebc3 1303 	rsb	r3, r3, r3, lsl #4
  400202:	011b      	lsls	r3, r3, #4
  400204:	b29b      	uxth	r3, r3
        if (offset >= MLKEM_PKBYTES) {
  400206:	f5b3 6fc4 	cmp.w	r3, #1568	@ 0x620
  40020a:	d301      	bcc.n	400210 <mlkem_keygen+0xa0>
        return 0;
  40020c:	2400      	movs	r4, #0
  40020e:	e7ba      	b.n	400186 <mlkem_keygen+0x16>
        num_bytes = ((MLKEM_PKBYTES - offset) > CHUNK_SIZE) ? CHUNK_SIZE : (MLKEM_PKBYTES - offset);
  400210:	f5c3 62c4 	rsb	r2, r3, #1568	@ 0x620
        memcpy(buf, pk + offset, num_bytes);
  400214:	2af0      	cmp	r2, #240	@ 0xf0
  400216:	4922      	ldr	r1, [pc, #136]	@ (4002a0 <mlkem_keygen+0x130>)
  400218:	bfa8      	it	ge
  40021a:	22f0      	movge	r2, #240	@ 0xf0
        memcpy(buf, sk + offset, num_bytes);
  40021c:	4419      	add	r1, r3
  40021e:	e7e7      	b.n	4001f0 <mlkem_keygen+0x80>
        if (len < 1) return SS_ERR_LEN;
  400220:	2a00      	cmp	r2, #0
  400222:	d0b0      	beq.n	400186 <mlkem_keygen+0x16>
        offset = chunk * CHUNK_SIZE;
  400224:	781b      	ldrb	r3, [r3, #0]
  400226:	ebc3 1303 	rsb	r3, r3, r3, lsl #4
  40022a:	011b      	lsls	r3, r3, #4
  40022c:	b29b      	uxth	r3, r3
        if (offset >= MLKEM_SKBYTES) {
  40022e:	f5b3 6f46 	cmp.w	r3, #3168	@ 0xc60
  400232:	d2eb      	bcs.n	40020c <mlkem_keygen+0x9c>
        num_bytes = ((MLKEM_SKBYTES - offset) > CHUNK_SIZE) ? CHUNK_SIZE : (MLKEM_SKBYTES - offset);
  400234:	f5c3 6246 	rsb	r2, r3, #3168	@ 0xc60
        memcpy(buf, sk + offset, num_bytes);
  400238:	2af0      	cmp	r2, #240	@ 0xf0
  40023a:	4914      	ldr	r1, [pc, #80]	@ (40028c <mlkem_keygen+0x11c>)
  40023c:	bfa8      	it	ge
  40023e:	22f0      	movge	r2, #240	@ 0xf0
  400240:	e7ec      	b.n	40021c <mlkem_keygen+0xac>
        if (len < 1) return SS_ERR_LEN;
  400242:	b302      	cbz	r2, 400286 <mlkem_keygen+0x116>
        offset = chunk * CHUNK_SIZE;
  400244:	781d      	ldrb	r5, [r3, #0]
  400246:	ebc5 1505 	rsb	r5, r5, r5, lsl #4
  40024a:	012d      	lsls	r5, r5, #4
  40024c:	b2ad      	uxth	r5, r5
        if (offset >= MLKEM_PKBYTES) {
  40024e:	f5b5 6fc4 	cmp.w	r5, #1568	@ 0x620
  400252:	d218      	bcs.n	400286 <mlkem_keygen+0x116>
        num_bytes = len - 1;
  400254:	1e54      	subs	r4, r2, #1
  400256:	b2e7      	uxtb	r7, r4
        if (num_bytes + offset > MLKEM_PKBYTES) {
  400258:	fa55 f484 	uxtab	r4, r5, r4
  40025c:	f5b4 6fc4 	cmp.w	r4, #1568	@ 0x620
            num_bytes = MLKEM_PKBYTES - offset;
  400260:	bfc8      	it	gt
  400262:	f1c5 0720 	rsbgt	r7, r5, #32
        memcpy(pk + offset, buf + 1, num_bytes);
  400266:	480e      	ldr	r0, [pc, #56]	@ (4002a0 <mlkem_keygen+0x130>)
            num_bytes = MLKEM_PKBYTES - offset;
  400268:	bfc8      	it	gt
  40026a:	b2ff      	uxtbgt	r7, r7
        memcpy(pk + offset, buf + 1, num_bytes);
  40026c:	463a      	mov	r2, r7
  40026e:	1c59      	adds	r1, r3, #1
  400270:	4428      	add	r0, r5
  400272:	4b07      	ldr	r3, [pc, #28]	@ (400290 <mlkem_keygen+0x120>)
        if (offset + num_bytes >= MLKEM_PKBYTES) {
  400274:	442f      	add	r7, r5
        memcpy(pk + offset, buf + 1, num_bytes);
  400276:	4798      	blx	r3
        if (offset + num_bytes >= MLKEM_PKBYTES) {
  400278:	f5b7 6fc4 	cmp.w	r7, #1568	@ 0x620
  40027c:	dbc6      	blt.n	40020c <mlkem_keygen+0x9c>
            pk_loaded = 1;
  40027e:	4b0a      	ldr	r3, [pc, #40]	@ (4002a8 <mlkem_keygen+0x138>)
            sk_loaded = 1;
  400280:	2201      	movs	r2, #1
  400282:	601a      	str	r2, [r3, #0]
  400284:	e7c2      	b.n	40020c <mlkem_keygen+0x9c>
        if (len < 1) return SS_ERR_LEN;
  400286:	2404      	movs	r4, #4
  400288:	e77d      	b.n	400186 <mlkem_keygen+0x16>
  40028a:	bf00      	nop
  40028c:	2000066c 	.word	0x2000066c
  400290:	00403235 	.word	0x00403235
  400294:	20000024 	.word	0x20000024
  400298:	00402cc5 	.word	0x00402cc5
  40029c:	004004f1 	.word	0x004004f1
  4002a0:	200012cc 	.word	0x200012cc
  4002a4:	00402ca5 	.word	0x00402ca5
  4002a8:	20000028 	.word	0x20000028

004002ac <mlkem_encaps>:
{
  4002ac:	e92d 41f0 	stmdb	sp!, {r4, r5, r6, r7, r8, lr}
    if (!pk_loaded) {
  4002b0:	f8df 80b0 	ldr.w	r8, [pc, #176]	@ 400364 <mlkem_encaps+0xb8>
{
  4002b4:	461e      	mov	r6, r3
    if (!pk_loaded) {
  4002b6:	f8d8 3000 	ldr.w	r3, [r8]
{
  4002ba:	460c      	mov	r4, r1
    if (!pk_loaded) {
  4002bc:	2b00      	cmp	r3, #0
  4002be:	d04d      	beq.n	40035c <mlkem_encaps+0xb0>
    if (scmd == 0x01) {
  4002c0:	2901      	cmp	r1, #1
  4002c2:	d110      	bne.n	4002e6 <mlkem_encaps+0x3a>
        trigger_high();
  4002c4:	4b28      	ldr	r3, [pc, #160]	@ (400368 <mlkem_encaps+0xbc>)
  4002c6:	4798      	blx	r3
        crypto_kem_enc(ct, ss, pk);
  4002c8:	4a28      	ldr	r2, [pc, #160]	@ (40036c <mlkem_encaps+0xc0>)
  4002ca:	4929      	ldr	r1, [pc, #164]	@ (400370 <mlkem_encaps+0xc4>)
  4002cc:	4b29      	ldr	r3, [pc, #164]	@ (400374 <mlkem_encaps+0xc8>)
  4002ce:	482a      	ldr	r0, [pc, #168]	@ (400378 <mlkem_encaps+0xcc>)
  4002d0:	4798      	blx	r3
        trigger_low();
  4002d2:	4b2a      	ldr	r3, [pc, #168]	@ (40037c <mlkem_encaps+0xd0>)
  4002d4:	4798      	blx	r3
        ct_loaded = 1;
  4002d6:	4b2a      	ldr	r3, [pc, #168]	@ (400380 <mlkem_encaps+0xd4>)
        memcpy(buf, ct, num_bytes);
  4002d8:	4927      	ldr	r1, [pc, #156]	@ (400378 <mlkem_encaps+0xcc>)
        ct_loaded = 1;
  4002da:	601c      	str	r4, [r3, #0]
        memcpy(buf, ct, num_bytes);
  4002dc:	22f0      	movs	r2, #240	@ 0xf0
        memcpy(buf, ct + offset, num_bytes);
  4002de:	4b29      	ldr	r3, [pc, #164]	@ (400384 <mlkem_encaps+0xd8>)
  4002e0:	4630      	mov	r0, r6
  4002e2:	4798      	blx	r3
        return 0;
  4002e4:	e00b      	b.n	4002fe <mlkem_encaps+0x52>
    else if (scmd == 0x02) {
  4002e6:	2902      	cmp	r1, #2
  4002e8:	d114      	bne.n	400314 <mlkem_encaps+0x68>
        if (len < 1) return SS_ERR_LEN;
  4002ea:	2a00      	cmp	r2, #0
  4002ec:	d038      	beq.n	400360 <mlkem_encaps+0xb4>
        offset = chunk * CHUNK_SIZE;
  4002ee:	7834      	ldrb	r4, [r6, #0]
  4002f0:	ebc4 1404 	rsb	r4, r4, r4, lsl #4
  4002f4:	0124      	lsls	r4, r4, #4
  4002f6:	b2a4      	uxth	r4, r4
        if (offset >= MLKEM_CTBYTES) {
  4002f8:	f5b4 6fc4 	cmp.w	r4, #1568	@ 0x620
  4002fc:	d302      	bcc.n	400304 <mlkem_encaps+0x58>
        return 0;
  4002fe:	2000      	movs	r0, #0
}
  400300:	e8bd 81f0 	ldmia.w	sp!, {r4, r5, r6, r7, r8, pc}
        num_bytes = ((MLKEM_CTBYTES - offset) > CHUNK_SIZE) ? CHUNK_SIZE : (MLKEM_CTBYTES - offset);
  400304:	f5c4 62c4 	rsb	r2, r4, #1568	@ 0x620
        memcpy(buf, ct + offset, num_bytes);
  400308:	491b      	ldr	r1, [pc, #108]	@ (400378 <mlkem_encaps+0xcc>)
  40030a:	2af0      	cmp	r2, #240	@ 0xf0
  40030c:	bfa8      	it	ge
  40030e:	22f0      	movge	r2, #240	@ 0xf0
  400310:	4421      	add	r1, r4
  400312:	e7e4      	b.n	4002de <mlkem_encaps+0x32>
    else if (scmd == 0x10) {
  400314:	2910      	cmp	r1, #16
  400316:	d121      	bne.n	40035c <mlkem_encaps+0xb0>
        if (len < 1) return SS_ERR_LEN;
  400318:	b312      	cbz	r2, 400360 <mlkem_encaps+0xb4>
        offset = chunk * CHUNK_SIZE;
  40031a:	7834      	ldrb	r4, [r6, #0]
  40031c:	ebc4 1404 	rsb	r4, r4, r4, lsl #4
  400320:	0124      	lsls	r4, r4, #4
  400322:	b2a4      	uxth	r4, r4
        if (offset >= MLKEM_PKBYTES) {
  400324:	f5b4 6fc4 	cmp.w	r4, #1568	@ 0x620
  400328:	d21a      	bcs.n	400360 <mlkem_encaps+0xb4>
        num_bytes = len - 1;
  40032a:	1e55      	subs	r5, r2, #1
  40032c:	b2ef      	uxtb	r7, r5
        if (num_bytes + offset > MLKEM_PKBYTES) {
  40032e:	fa54 f585 	uxtab	r5, r4, r5
  400332:	f5b5 6fc4 	cmp.w	r5, #1568	@ 0x620
            num_bytes = MLKEM_PKBYTES - offset;
  400336:	bfc8      	it	gt
  400338:	f1c4 0720 	rsbgt	r7, r4, #32
        memcpy(pk + offset, buf + 1, num_bytes);
  40033c:	480b      	ldr	r0, [pc, #44]	@ (40036c <mlkem_encaps+0xc0>)
  40033e:	4b11      	ldr	r3, [pc, #68]	@ (400384 <mlkem_encaps+0xd8>)
            num_bytes = MLKEM_PKBYTES - offset;
  400340:	bfc8      	it	gt
  400342:	b2ff      	uxtbgt	r7, r7
        memcpy(pk + offset, buf + 1, num_bytes);
  400344:	463a      	mov	r2, r7
  400346:	1c71      	adds	r1, r6, #1
  400348:	4420      	add	r0, r4
        if (offset + num_bytes >= MLKEM_PKBYTES) {
  40034a:	4427      	add	r7, r4
        memcpy(pk + offset, buf + 1, num_bytes);
  40034c:	4798      	blx	r3
        if (offset + num_bytes >= MLKEM_PKBYTES) {
  40034e:	f5b7 6fc4 	cmp.w	r7, #1568	@ 0x620
  400352:	dbd4      	blt.n	4002fe <mlkem_encaps+0x52>
            pk_loaded = 1;
  400354:	2301      	movs	r3, #1
  400356:	f8c8 3000 	str.w	r3, [r8]
  40035a:	e7d0      	b.n	4002fe <mlkem_encaps+0x52>
        return SS_ERR_CMD;
  40035c:	2001      	movs	r0, #1
  40035e:	e7cf      	b.n	400300 <mlkem_encaps+0x54>
        if (len < 1) return SS_ERR_LEN;
  400360:	2004      	movs	r0, #4
  400362:	e7cd      	b.n	400300 <mlkem_encaps+0x54>
  400364:	20000028 	.word	0x20000028
  400368:	00402cc5 	.word	0x00402cc5
  40036c:	200012cc 	.word	0x200012cc
  400370:	2000002c 	.word	0x2000002c
  400374:	00400589 	.word	0x00400589
  400378:	2000004c 	.word	0x2000004c
  40037c:	00402ca5 	.word	0x00402ca5
  400380:	20000020 	.word	0x20000020
  400384:	00403235 	.word	0x00403235

00400388 <mlkem_decaps>:
{
  400388:	b570      	push	{r4, r5, r6, lr}
  40038a:	461d      	mov	r5, r3
    if (!sk_loaded) {
  40038c:	4b22      	ldr	r3, [pc, #136]	@ (400418 <mlkem_decaps+0x90>)
  40038e:	681b      	ldr	r3, [r3, #0]
{
  400390:	4608      	mov	r0, r1
    if (!sk_loaded) {
  400392:	2b00      	cmp	r3, #0
  400394:	d03c      	beq.n	400410 <mlkem_decaps+0x88>
    if (scmd == 0x01) {
  400396:	2901      	cmp	r1, #1
  400398:	d116      	bne.n	4003c8 <mlkem_decaps+0x40>
        if (!ct_loaded) {
  40039a:	4b20      	ldr	r3, [pc, #128]	@ (40041c <mlkem_decaps+0x94>)
  40039c:	681b      	ldr	r3, [r3, #0]
  40039e:	b193      	cbz	r3, 4003c6 <mlkem_decaps+0x3e>
        trigger_high();
  4003a0:	4b1f      	ldr	r3, [pc, #124]	@ (400420 <mlkem_decaps+0x98>)
  4003a2:	4798      	blx	r3
        crypto_kem_dec(ss, ct, sk);
  4003a4:	4a1f      	ldr	r2, [pc, #124]	@ (400424 <mlkem_decaps+0x9c>)
  4003a6:	4920      	ldr	r1, [pc, #128]	@ (400428 <mlkem_decaps+0xa0>)
  4003a8:	4b20      	ldr	r3, [pc, #128]	@ (40042c <mlkem_decaps+0xa4>)
  4003aa:	4821      	ldr	r0, [pc, #132]	@ (400430 <mlkem_decaps+0xa8>)
  4003ac:	4798      	blx	r3
        trigger_low();
  4003ae:	4b21      	ldr	r3, [pc, #132]	@ (400434 <mlkem_decaps+0xac>)
  4003b0:	4798      	blx	r3
        memcpy(buf, ss, MLKEM_SSBYTES);
  4003b2:	4b1f      	ldr	r3, [pc, #124]	@ (400430 <mlkem_decaps+0xa8>)
  4003b4:	f103 0220 	add.w	r2, r3, #32
  4003b8:	f853 1b04 	ldr.w	r1, [r3], #4
  4003bc:	f845 1b04 	str.w	r1, [r5], #4
  4003c0:	4293      	cmp	r3, r2
  4003c2:	d1f9      	bne.n	4003b8 <mlkem_decaps+0x30>
        return 0;
  4003c4:	2000      	movs	r0, #0
}
  4003c6:	bd70      	pop	{r4, r5, r6, pc}
    else if (scmd == 0x10) {
  4003c8:	2910      	cmp	r1, #16
  4003ca:	d121      	bne.n	400410 <mlkem_decaps+0x88>
        if (len < 1) return SS_ERR_LEN;
  4003cc:	b312      	cbz	r2, 400414 <mlkem_decaps+0x8c>
        offset = chunk * CHUNK_SIZE;
  4003ce:	782c      	ldrb	r4, [r5, #0]
  4003d0:	ebc4 1404 	rsb	r4, r4, r4, lsl #4
  4003d4:	0124      	lsls	r4, r4, #4
  4003d6:	b2a4      	uxth	r4, r4
        if (offset >= MLKEM_CTBYTES) {
  4003d8:	f5b4 6fc4 	cmp.w	r4, #1568	@ 0x620
  4003dc:	d21a      	bcs.n	400414 <mlkem_decaps+0x8c>
        num_bytes = len - 1;
  4003de:	1e50      	subs	r0, r2, #1
  4003e0:	b2c6      	uxtb	r6, r0
        if (num_bytes + offset > MLKEM_CTBYTES) {
  4003e2:	fa54 f080 	uxtab	r0, r4, r0
  4003e6:	f5b0 6fc4 	cmp.w	r0, #1568	@ 0x620
            num_bytes = MLKEM_CTBYTES - offset;
  4003ea:	bfc8      	it	gt
  4003ec:	f1c4 0620 	rsbgt	r6, r4, #32
        memcpy(ct + offset, buf + 1, num_bytes);
  4003f0:	480d      	ldr	r0, [pc, #52]	@ (400428 <mlkem_decaps+0xa0>)
  4003f2:	4b11      	ldr	r3, [pc, #68]	@ (400438 <mlkem_decaps+0xb0>)
            num_bytes = MLKEM_CTBYTES - offset;
  4003f4:	bfc8      	it	gt
  4003f6:	b2f6      	uxtbgt	r6, r6
        memcpy(ct + offset, buf + 1, num_bytes);
  4003f8:	4632      	mov	r2, r6
  4003fa:	1c69      	adds	r1, r5, #1
  4003fc:	4420      	add	r0, r4
        if (offset + num_bytes >= MLKEM_CTBYTES) {
  4003fe:	4426      	add	r6, r4
        memcpy(ct + offset, buf + 1, num_bytes);
  400400:	4798      	blx	r3
        if (offset + num_bytes >= MLKEM_CTBYTES) {
  400402:	f5b6 6fc4 	cmp.w	r6, #1568	@ 0x620
            ct_loaded = 1;
  400406:	bfa2      	ittt	ge
  400408:	4b04      	ldrge	r3, [pc, #16]	@ (40041c <mlkem_decaps+0x94>)
  40040a:	2201      	movge	r2, #1
  40040c:	601a      	strge	r2, [r3, #0]
  40040e:	e7d9      	b.n	4003c4 <mlkem_decaps+0x3c>
        return SS_ERR_CMD;
  400410:	2001      	movs	r0, #1
  400412:	e7d8      	b.n	4003c6 <mlkem_decaps+0x3e>
        if (len < 1) return SS_ERR_LEN;
  400414:	2004      	movs	r0, #4
  400416:	e7d6      	b.n	4003c6 <mlkem_decaps+0x3e>
  400418:	20000024 	.word	0x20000024
  40041c:	20000020 	.word	0x20000020
  400420:	00402cc5 	.word	0x00402cc5
  400424:	2000066c 	.word	0x2000066c
  400428:	2000004c 	.word	0x2000004c
  40042c:	004005b5 	.word	0x004005b5
  400430:	2000002c 	.word	0x2000002c
  400434:	00402ca5 	.word	0x00402ca5
  400438:	00403235 	.word	0x00403235

0040043c <main>:
/*******************************************/
/* Main Function                           */
/*******************************************/

int main(void)
{
  40043c:	b508      	push	{r3, lr}
    platform_init();
  40043e:	4b0e      	ldr	r3, [pc, #56]	@ (400478 <main+0x3c>)
    simpleserial_init();
    
#if SS_VER == SS_VER_2_1
    /* Register commands for SimpleSerial 2.1 */
    /* 0x01 = keygen */
    simpleserial_addcmd(0x01, CHUNK_SIZE, mlkem_keygen);
  400440:	4c0e      	ldr	r4, [pc, #56]	@ (40047c <main+0x40>)
    platform_init();
  400442:	4798      	blx	r3
    init_uart();
  400444:	4b0e      	ldr	r3, [pc, #56]	@ (400480 <main+0x44>)
  400446:	4798      	blx	r3
    trigger_setup();
  400448:	4b0e      	ldr	r3, [pc, #56]	@ (400484 <main+0x48>)
  40044a:	4798      	blx	r3
    simpleserial_init();
  40044c:	4b0e      	ldr	r3, [pc, #56]	@ (400488 <main+0x4c>)
  40044e:	4798      	blx	r3
    simpleserial_addcmd(0x01, CHUNK_SIZE, mlkem_keygen);
  400450:	4a0e      	ldr	r2, [pc, #56]	@ (40048c <main+0x50>)
  400452:	21f0      	movs	r1, #240	@ 0xf0
  400454:	2001      	movs	r0, #1
  400456:	47a0      	blx	r4
    /* 0x02 = encapsulate */
    simpleserial_addcmd(0x02, CHUNK_SIZE, mlkem_encaps);
  400458:	4a0d      	ldr	r2, [pc, #52]	@ (400490 <main+0x54>)
  40045a:	21f0      	movs	r1, #240	@ 0xf0
  40045c:	2002      	movs	r0, #2
  40045e:	47a0      	blx	r4
    /* 0x03 = decapsulate */
    simpleserial_addcmd(0x03, CHUNK_SIZE, mlkem_decaps);
  400460:	4a0c      	ldr	r2, [pc, #48]	@ (400494 <main+0x58>)
  400462:	21f0      	movs	r1, #240	@ 0xf0
  400464:	2003      	movs	r0, #3
  400466:	47a0      	blx	r4
    /* 0x00 = reset */
    simpleserial_addcmd(0x00, 0, mlkem_reset);
  400468:	2100      	movs	r1, #0
  40046a:	4a0b      	ldr	r2, [pc, #44]	@ (400498 <main+0x5c>)
  40046c:	4608      	mov	r0, r1
  40046e:	47a0      	blx	r4
    /* 'x' = reset */
    simpleserial_addcmd('x', 0, reset);
#endif
    
    while(1)
        simpleserial_get();
  400470:	4c0a      	ldr	r4, [pc, #40]	@ (40049c <main+0x60>)
  400472:	47a0      	blx	r4
    while(1)
  400474:	e7fd      	b.n	400472 <main+0x36>
  400476:	bf00      	nop
  400478:	00402b51 	.word	0x00402b51
  40047c:	00402895 	.word	0x00402895
  400480:	00402be9 	.word	0x00402be9
  400484:	00402c85 	.word	0x00402c85
  400488:	004028d5 	.word	0x004028d5
  40048c:	00400171 	.word	0x00400171
  400490:	004002ad 	.word	0x004002ad
  400494:	00400389 	.word	0x00400389
  400498:	00400155 	.word	0x00400155
  40049c:	004029cd 	.word	0x004029cd

004004a0 <PQCLEAN_MLKEM1024_CLEAN_crypto_kem_keypair_derand>:
**
* Returns 0 (success)
**************************************************/
int PQCLEAN_MLKEM1024_CLEAN_crypto_kem_keypair_derand(uint8_t *pk,
        uint8_t *sk,
        const uint8_t *coins) {
  4004a0:	b570      	push	{r4, r5, r6, lr}
    PQCLEAN_MLKEM1024_CLEAN_indcpa_keypair_derand(pk, sk, coins);
  4004a2:	4b10      	ldr	r3, [pc, #64]	@ (4004e4 <PQCLEAN_MLKEM1024_CLEAN_crypto_kem_keypair_derand+0x44>)
        const uint8_t *coins) {
  4004a4:	460c      	mov	r4, r1
  4004a6:	4606      	mov	r6, r0
  4004a8:	4615      	mov	r5, r2
    PQCLEAN_MLKEM1024_CLEAN_indcpa_keypair_derand(pk, sk, coins);
  4004aa:	4798      	blx	r3
    memcpy(sk + KYBER_INDCPA_SECRETKEYBYTES, pk, KYBER_PUBLICKEYBYTES);
  4004ac:	4b0e      	ldr	r3, [pc, #56]	@ (4004e8 <PQCLEAN_MLKEM1024_CLEAN_crypto_kem_keypair_derand+0x48>)
  4004ae:	f44f 62c4 	mov.w	r2, #1568	@ 0x620
  4004b2:	4631      	mov	r1, r6
  4004b4:	f504 60c0 	add.w	r0, r4, #1536	@ 0x600
  4004b8:	4798      	blx	r3
    hash_h(sk + KYBER_SECRETKEYBYTES - 2 * KYBER_SYMBYTES, pk, KYBER_PUBLICKEYBYTES);
  4004ba:	4b0c      	ldr	r3, [pc, #48]	@ (4004ec <PQCLEAN_MLKEM1024_CLEAN_crypto_kem_keypair_derand+0x4c>)
  4004bc:	f504 6042 	add.w	r0, r4, #3104	@ 0xc20
  4004c0:	f44f 62c4 	mov.w	r2, #1568	@ 0x620
  4004c4:	4631      	mov	r1, r6
  4004c6:	4798      	blx	r3
    /* Value z for pseudo-random output on reject */
    memcpy(sk + KYBER_SECRETKEYBYTES - KYBER_SYMBYTES, coins + KYBER_SYMBYTES, KYBER_SYMBYTES);
  4004c8:	f504 6444 	add.w	r4, r4, #3136	@ 0xc40
  4004cc:	f105 0320 	add.w	r3, r5, #32
  4004d0:	3540      	adds	r5, #64	@ 0x40
  4004d2:	f853 2b04 	ldr.w	r2, [r3], #4
  4004d6:	f844 2b04 	str.w	r2, [r4], #4
  4004da:	42ab      	cmp	r3, r5
  4004dc:	d1f9      	bne.n	4004d2 <PQCLEAN_MLKEM1024_CLEAN_crypto_kem_keypair_derand+0x32>
    return 0;
}
  4004de:	2000      	movs	r0, #0
  4004e0:	bd70      	pop	{r4, r5, r6, pc}
  4004e2:	bf00      	nop
  4004e4:	00400f25 	.word	0x00400f25
  4004e8:	00403235 	.word	0x00403235
  4004ec:	004015f5 	.word	0x004015f5

004004f0 <PQCLEAN_MLKEM1024_CLEAN_crypto_kem_keypair>:
*                (an already allocated array of KYBER_SECRETKEYBYTES bytes)
*
* Returns 0 (success)
**************************************************/
int PQCLEAN_MLKEM1024_CLEAN_crypto_kem_keypair(uint8_t *pk,
        uint8_t *sk) {
  4004f0:	b530      	push	{r4, r5, lr}
  4004f2:	b091      	sub	sp, #68	@ 0x44
  4004f4:	4604      	mov	r4, r0
  4004f6:	460d      	mov	r5, r1
    uint8_t coins[2 * KYBER_SYMBYTES];
    randombytes(coins, 2 * KYBER_SYMBYTES);
  4004f8:	4b05      	ldr	r3, [pc, #20]	@ (400510 <PQCLEAN_MLKEM1024_CLEAN_crypto_kem_keypair+0x20>)
  4004fa:	2140      	movs	r1, #64	@ 0x40
  4004fc:	4668      	mov	r0, sp
  4004fe:	4798      	blx	r3
    PQCLEAN_MLKEM1024_CLEAN_crypto_kem_keypair_derand(pk, sk, coins);
  400500:	4b04      	ldr	r3, [pc, #16]	@ (400514 <PQCLEAN_MLKEM1024_CLEAN_crypto_kem_keypair+0x24>)
  400502:	466a      	mov	r2, sp
  400504:	4629      	mov	r1, r5
  400506:	4620      	mov	r0, r4
  400508:	4798      	blx	r3
    return 0;
}
  40050a:	2000      	movs	r0, #0
  40050c:	b011      	add	sp, #68	@ 0x44
  40050e:	bd30      	pop	{r4, r5, pc}
  400510:	004027f5 	.word	0x004027f5
  400514:	004004a1 	.word	0x004004a1

00400518 <PQCLEAN_MLKEM1024_CLEAN_crypto_kem_enc_derand>:
* Returns 0 (success)
**************************************************/
int PQCLEAN_MLKEM1024_CLEAN_crypto_kem_enc_derand(uint8_t *ct,
        uint8_t *ss,
        const uint8_t *pk,
        const uint8_t *coins) {
  400518:	b5f0      	push	{r4, r5, r6, r7, lr}
  40051a:	b0a1      	sub	sp, #132	@ 0x84
  40051c:	4606      	mov	r6, r0
  40051e:	460c      	mov	r4, r1
  400520:	4615      	mov	r5, r2
    uint8_t buf[2 * KYBER_SYMBYTES];
    /* Will contain key, coins */
    uint8_t kr[2 * KYBER_SYMBYTES];

    memcpy(buf, coins, KYBER_SYMBYTES);
  400522:	466f      	mov	r7, sp
  400524:	f103 0c20 	add.w	ip, r3, #32
  400528:	6818      	ldr	r0, [r3, #0]
  40052a:	6859      	ldr	r1, [r3, #4]
  40052c:	463a      	mov	r2, r7
  40052e:	c203      	stmia	r2!, {r0, r1}
  400530:	3308      	adds	r3, #8
  400532:	4563      	cmp	r3, ip
  400534:	4617      	mov	r7, r2
  400536:	d1f7      	bne.n	400528 <PQCLEAN_MLKEM1024_CLEAN_crypto_kem_enc_derand+0x10>

    /* Multitarget countermeasure for coins + contributory KEM */
    hash_h(buf + KYBER_SYMBYTES, pk, KYBER_PUBLICKEYBYTES);
  400538:	4629      	mov	r1, r5
  40053a:	4b10      	ldr	r3, [pc, #64]	@ (40057c <PQCLEAN_MLKEM1024_CLEAN_crypto_kem_enc_derand+0x64>)
  40053c:	f44f 62c4 	mov.w	r2, #1568	@ 0x620
  400540:	a808      	add	r0, sp, #32
  400542:	4798      	blx	r3
    hash_g(kr, buf, 2 * KYBER_SYMBYTES);
  400544:	2240      	movs	r2, #64	@ 0x40
  400546:	eb0d 0002 	add.w	r0, sp, r2
  40054a:	4b0d      	ldr	r3, [pc, #52]	@ (400580 <PQCLEAN_MLKEM1024_CLEAN_crypto_kem_enc_derand+0x68>)
  40054c:	4669      	mov	r1, sp

    /* coins are in kr+KYBER_SYMBYTES */
    PQCLEAN_MLKEM1024_CLEAN_indcpa_enc(ct, buf, pk, kr + KYBER_SYMBYTES);
  40054e:	af18      	add	r7, sp, #96	@ 0x60
    hash_g(kr, buf, 2 * KYBER_SYMBYTES);
  400550:	4798      	blx	r3
    PQCLEAN_MLKEM1024_CLEAN_indcpa_enc(ct, buf, pk, kr + KYBER_SYMBYTES);
  400552:	462a      	mov	r2, r5
  400554:	463b      	mov	r3, r7
  400556:	4d0b      	ldr	r5, [pc, #44]	@ (400584 <PQCLEAN_MLKEM1024_CLEAN_crypto_kem_enc_derand+0x6c>)
  400558:	4669      	mov	r1, sp
  40055a:	4630      	mov	r0, r6
  40055c:	47a8      	blx	r5

    memcpy(ss, kr, KYBER_SYMBYTES);
  40055e:	ad10      	add	r5, sp, #64	@ 0x40
  400560:	4622      	mov	r2, r4
  400562:	462c      	mov	r4, r5
  400564:	cc03      	ldmia	r4!, {r0, r1}
  400566:	42bc      	cmp	r4, r7
  400568:	6010      	str	r0, [r2, #0]
  40056a:	6051      	str	r1, [r2, #4]
  40056c:	4625      	mov	r5, r4
  40056e:	f102 0208 	add.w	r2, r2, #8
  400572:	d1f6      	bne.n	400562 <PQCLEAN_MLKEM1024_CLEAN_crypto_kem_enc_derand+0x4a>
    return 0;
}
  400574:	2000      	movs	r0, #0
  400576:	b021      	add	sp, #132	@ 0x84
  400578:	bdf0      	pop	{r4, r5, r6, r7, pc}
  40057a:	bf00      	nop
  40057c:	004015f5 	.word	0x004015f5
  400580:	0040163d 	.word	0x0040163d
  400584:	00401055 	.word	0x00401055

00400588 <PQCLEAN_MLKEM1024_CLEAN_crypto_kem_enc>:
*
* Returns 0 (success)
**************************************************/
int PQCLEAN_MLKEM1024_CLEAN_crypto_kem_enc(uint8_t *ct,
        uint8_t *ss,
        const uint8_t *pk) {
  400588:	b570      	push	{r4, r5, r6, lr}
  40058a:	b088      	sub	sp, #32
  40058c:	4604      	mov	r4, r0
  40058e:	460d      	mov	r5, r1
  400590:	4616      	mov	r6, r2
    uint8_t coins[KYBER_SYMBYTES];
    randombytes(coins, KYBER_SYMBYTES);
  400592:	4b06      	ldr	r3, [pc, #24]	@ (4005ac <PQCLEAN_MLKEM1024_CLEAN_crypto_kem_enc+0x24>)
  400594:	2120      	movs	r1, #32
  400596:	4668      	mov	r0, sp
  400598:	4798      	blx	r3
    PQCLEAN_MLKEM1024_CLEAN_crypto_kem_enc_derand(ct, ss, pk, coins);
  40059a:	466b      	mov	r3, sp
  40059c:	4632      	mov	r2, r6
  40059e:	4629      	mov	r1, r5
  4005a0:	4620      	mov	r0, r4
  4005a2:	4c03      	ldr	r4, [pc, #12]	@ (4005b0 <PQCLEAN_MLKEM1024_CLEAN_crypto_kem_enc+0x28>)
  4005a4:	47a0      	blx	r4
    return 0;
}
  4005a6:	2000      	movs	r0, #0
  4005a8:	b008      	add	sp, #32
  4005aa:	bd70      	pop	{r4, r5, r6, pc}
  4005ac:	004027f5 	.word	0x004027f5
  4005b0:	00400519 	.word	0x00400519

004005b4 <PQCLEAN_MLKEM1024_CLEAN_crypto_kem_dec>:
*
* On failure, ss will contain a pseudo-random value.
**************************************************/
int PQCLEAN_MLKEM1024_CLEAN_crypto_kem_dec(uint8_t *ss,
        const uint8_t *ct,
        const uint8_t *sk) {
  4005b4:	b5f0      	push	{r4, r5, r6, r7, lr}
  4005b6:	f2ad 6dc4 	subw	sp, sp, #1732	@ 0x6c4
  4005ba:	4615      	mov	r5, r2
    /* Will contain key, coins */
    uint8_t kr[2 * KYBER_SYMBYTES];
    uint8_t cmp[KYBER_CIPHERTEXTBYTES + KYBER_SYMBYTES];
    const uint8_t *pk = sk + KYBER_INDCPA_SECRETKEYBYTES;

    PQCLEAN_MLKEM1024_CLEAN_indcpa_dec(buf, ct, sk);
  4005bc:	4b1b      	ldr	r3, [pc, #108]	@ (40062c <PQCLEAN_MLKEM1024_CLEAN_crypto_kem_dec+0x78>)
        const uint8_t *sk) {
  4005be:	4606      	mov	r6, r0
    PQCLEAN_MLKEM1024_CLEAN_indcpa_dec(buf, ct, sk);
  4005c0:	4668      	mov	r0, sp
        const uint8_t *sk) {
  4005c2:	460f      	mov	r7, r1

    /* Multitarget countermeasure for coins + contributory KEM */
    memcpy(buf + KYBER_SYMBYTES, sk + KYBER_SECRETKEYBYTES - 2 * KYBER_SYMBYTES, KYBER_SYMBYTES);
  4005c4:	f505 6442 	add.w	r4, r5, #3104	@ 0xc20
    PQCLEAN_MLKEM1024_CLEAN_indcpa_dec(buf, ct, sk);
  4005c8:	4798      	blx	r3
    memcpy(buf + KYBER_SYMBYTES, sk + KYBER_SECRETKEYBYTES - 2 * KYBER_SYMBYTES, KYBER_SYMBYTES);
  4005ca:	aa08      	add	r2, sp, #32
  4005cc:	f505 6c44 	add.w	ip, r5, #3136	@ 0xc40
  4005d0:	6820      	ldr	r0, [r4, #0]
  4005d2:	6861      	ldr	r1, [r4, #4]
  4005d4:	4613      	mov	r3, r2
  4005d6:	c303      	stmia	r3!, {r0, r1}
  4005d8:	3408      	adds	r4, #8
  4005da:	4564      	cmp	r4, ip
  4005dc:	461a      	mov	r2, r3
  4005de:	d1f7      	bne.n	4005d0 <PQCLEAN_MLKEM1024_CLEAN_crypto_kem_dec+0x1c>
    hash_g(kr, buf, 2 * KYBER_SYMBYTES);
  4005e0:	2240      	movs	r2, #64	@ 0x40
  4005e2:	eb0d 0002 	add.w	r0, sp, r2
  4005e6:	4669      	mov	r1, sp
  4005e8:	4b11      	ldr	r3, [pc, #68]	@ (400630 <PQCLEAN_MLKEM1024_CLEAN_crypto_kem_dec+0x7c>)
  4005ea:	4798      	blx	r3

    /* coins are in kr+KYBER_SYMBYTES */
    PQCLEAN_MLKEM1024_CLEAN_indcpa_enc(cmp, buf, pk, kr + KYBER_SYMBYTES);
  4005ec:	ab18      	add	r3, sp, #96	@ 0x60
  4005ee:	f505 62c0 	add.w	r2, r5, #1536	@ 0x600
  4005f2:	4669      	mov	r1, sp
  4005f4:	a820      	add	r0, sp, #128	@ 0x80
  4005f6:	4d0f      	ldr	r5, [pc, #60]	@ (400634 <PQCLEAN_MLKEM1024_CLEAN_crypto_kem_dec+0x80>)
  4005f8:	47a8      	blx	r5

    fail = PQCLEAN_MLKEM1024_CLEAN_verify(ct, cmp, KYBER_CIPHERTEXTBYTES);
  4005fa:	a920      	add	r1, sp, #128	@ 0x80
  4005fc:	4b0e      	ldr	r3, [pc, #56]	@ (400638 <PQCLEAN_MLKEM1024_CLEAN_crypto_kem_dec+0x84>)
  4005fe:	f44f 62c4 	mov.w	r2, #1568	@ 0x620
  400602:	4638      	mov	r0, r7
  400604:	4798      	blx	r3

    /* Compute rejection key */
    rkprf(ss, sk + KYBER_SECRETKEYBYTES - KYBER_SYMBYTES, ct);
  400606:	463a      	mov	r2, r7
    fail = PQCLEAN_MLKEM1024_CLEAN_verify(ct, cmp, KYBER_CIPHERTEXTBYTES);
  400608:	4605      	mov	r5, r0
    rkprf(ss, sk + KYBER_SECRETKEYBYTES - KYBER_SYMBYTES, ct);
  40060a:	4621      	mov	r1, r4
  40060c:	4630      	mov	r0, r6
  40060e:	4b0b      	ldr	r3, [pc, #44]	@ (40063c <PQCLEAN_MLKEM1024_CLEAN_crypto_kem_dec+0x88>)

    /* Copy true key to return buffer if fail is false */
    PQCLEAN_MLKEM1024_CLEAN_cmov(ss, kr, KYBER_SYMBYTES, (uint8_t) (1 - fail));
  400610:	4c0b      	ldr	r4, [pc, #44]	@ (400640 <PQCLEAN_MLKEM1024_CLEAN_crypto_kem_dec+0x8c>)
    rkprf(ss, sk + KYBER_SECRETKEYBYTES - KYBER_SYMBYTES, ct);
  400612:	4798      	blx	r3
    PQCLEAN_MLKEM1024_CLEAN_cmov(ss, kr, KYBER_SYMBYTES, (uint8_t) (1 - fail));
  400614:	f1c5 0301 	rsb	r3, r5, #1
  400618:	4630      	mov	r0, r6
  40061a:	b2db      	uxtb	r3, r3
  40061c:	2220      	movs	r2, #32
  40061e:	a910      	add	r1, sp, #64	@ 0x40
  400620:	47a0      	blx	r4

    return 0;
}
  400622:	2000      	movs	r0, #0
  400624:	f20d 6dc4 	addw	sp, sp, #1732	@ 0x6c4
  400628:	bdf0      	pop	{r4, r5, r6, r7, pc}
  40062a:	bf00      	nop
  40062c:	004011bd 	.word	0x004011bd
  400630:	0040163d 	.word	0x0040163d
  400634:	00401055 	.word	0x00401055
  400638:	00401245 	.word	0x00401245
  40063c:	00402575 	.word	0x00402575
  400640:	00401265 	.word	0x00401265

00400644 <PQCLEAN_MLKEM1024_CLEAN_poly_compress>:
*
* Arguments:   - uint8_t *r: pointer to output byte array
*                            (of length KYBER_POLYCOMPRESSEDBYTES)
*              - const poly *a: pointer to input polynomial
**************************************************/
void PQCLEAN_MLKEM1024_CLEAN_poly_compress(uint8_t r[KYBER_POLYCOMPRESSEDBYTES], const poly *a) {
  400644:	b5f7      	push	{r0, r1, r2, r4, r5, r6, r7, lr}
  400646:	3005      	adds	r0, #5
  400648:	460a      	mov	r2, r1
  40064a:	2400      	movs	r4, #0

    for (i = 0; i < KYBER_N / 8; i++) {
        for (j = 0; j < 8; j++) {
            // map to positive standard representatives
            u  = a->coeffs[8 * i + j];
            u += (u >> 15) & KYBER_Q;
  40064c:	f640 5501 	movw	r5, #3329	@ 0xd01
            /*    t[j] = ((((uint32_t)u << 5) + KYBER_Q/2)/KYBER_Q) & 31; */
            d0 = u << 5;
            d0 += 1664;
            d0 *= 40318;
  400650:	f649 567e 	movw	r6, #40318	@ 0x9d7e
        for (j = 0; j < 8; j++) {
  400654:	466f      	mov	r7, sp
  400656:	f102 0110 	add.w	r1, r2, #16
            u  = a->coeffs[8 * i + j];
  40065a:	f932 cb02 	ldrsh.w	ip, [r2], #2
            u += (u >> 15) & KYBER_Q;
  40065e:	ea05 73ec 	and.w	r3, r5, ip, asr #31
  400662:	4463      	add	r3, ip
            d0 = u << 5;
  400664:	b21b      	sxth	r3, r3
  400666:	015b      	lsls	r3, r3, #5
            d0 += 1664;
  400668:	f503 63d0 	add.w	r3, r3, #1664	@ 0x680
            d0 *= 40318;
  40066c:	4373      	muls	r3, r6
            d0 >>= 27;
  40066e:	0edb      	lsrs	r3, r3, #27
        for (j = 0; j < 8; j++) {
  400670:	4291      	cmp	r1, r2
            t[j] = d0 & 0x1f;
  400672:	f807 3b01 	strb.w	r3, [r7], #1
        for (j = 0; j < 8; j++) {
  400676:	d1f0      	bne.n	40065a <PQCLEAN_MLKEM1024_CLEAN_poly_compress+0x16>
        }

        r[0] = (t[0] >> 0) | (t[1] << 5);
  400678:	f89d 3001 	ldrb.w	r3, [sp, #1]
  40067c:	f89d 2000 	ldrb.w	r2, [sp]
        r[1] = (t[1] >> 3) | (t[2] << 2) | (t[3] << 7);
  400680:	f89d 7003 	ldrb.w	r7, [sp, #3]
        r[0] = (t[0] >> 0) | (t[1] << 5);
  400684:	ea42 1243 	orr.w	r2, r2, r3, lsl #5
  400688:	f800 2c05 	strb.w	r2, [r0, #-5]
        r[1] = (t[1] >> 3) | (t[2] << 2) | (t[3] << 7);
  40068c:	f89d 2002 	ldrb.w	r2, [sp, #2]
  400690:	08db      	lsrs	r3, r3, #3
  400692:	ea43 0382 	orr.w	r3, r3, r2, lsl #2
  400696:	ea43 13c7 	orr.w	r3, r3, r7, lsl #7
  40069a:	f800 3c04 	strb.w	r3, [r0, #-4]
        r[2] = (t[3] >> 1) | (t[4] << 4);
  40069e:	f89d 3004 	ldrb.w	r3, [sp, #4]
  4006a2:	011a      	lsls	r2, r3, #4
  4006a4:	ea42 0257 	orr.w	r2, r2, r7, lsr #1
        r[3] = (t[4] >> 4) | (t[5] << 1) | (t[6] << 6);
  4006a8:	f89d 7005 	ldrb.w	r7, [sp, #5]
        r[2] = (t[3] >> 1) | (t[4] << 4);
  4006ac:	f800 2c03 	strb.w	r2, [r0, #-3]
        r[3] = (t[4] >> 4) | (t[5] << 1) | (t[6] << 6);
  4006b0:	091b      	lsrs	r3, r3, #4
  4006b2:	f89d 2006 	ldrb.w	r2, [sp, #6]
  4006b6:	ea43 0347 	orr.w	r3, r3, r7, lsl #1
  4006ba:	ea43 1382 	orr.w	r3, r3, r2, lsl #6
  4006be:	f800 3c02 	strb.w	r3, [r0, #-2]
        r[4] = (t[6] >> 2) | (t[7] << 3);
  4006c2:	f89d 3007 	ldrb.w	r3, [sp, #7]
  4006c6:	0892      	lsrs	r2, r2, #2
    for (i = 0; i < KYBER_N / 8; i++) {
  4006c8:	3408      	adds	r4, #8
        r[4] = (t[6] >> 2) | (t[7] << 3);
  4006ca:	ea42 02c3 	orr.w	r2, r2, r3, lsl #3
    for (i = 0; i < KYBER_N / 8; i++) {
  4006ce:	f5b4 7f80 	cmp.w	r4, #256	@ 0x100
        r[4] = (t[6] >> 2) | (t[7] << 3);
  4006d2:	f800 2c01 	strb.w	r2, [r0, #-1]
    for (i = 0; i < KYBER_N / 8; i++) {
  4006d6:	f100 0005 	add.w	r0, r0, #5
  4006da:	d001      	beq.n	4006e0 <PQCLEAN_MLKEM1024_CLEAN_poly_compress+0x9c>
  4006dc:	460a      	mov	r2, r1
  4006de:	e7b9      	b.n	400654 <PQCLEAN_MLKEM1024_CLEAN_poly_compress+0x10>
        r += 5;
    }
}
  4006e0:	b003      	add	sp, #12
  4006e2:	bdf0      	pop	{r4, r5, r6, r7, pc}

004006e4 <PQCLEAN_MLKEM1024_CLEAN_poly_decompress>:
*
* Arguments:   - poly *r: pointer to output polynomial
*              - const uint8_t *a: pointer to input byte array
*                                  (of length KYBER_POLYCOMPRESSEDBYTES bytes)
**************************************************/
void PQCLEAN_MLKEM1024_CLEAN_poly_decompress(poly *r, const uint8_t a[KYBER_POLYCOMPRESSEDBYTES]) {
  4006e4:	b5f7      	push	{r0, r1, r2, r4, r5, r6, r7, lr}
  4006e6:	4602      	mov	r2, r0
  4006e8:	3105      	adds	r1, #5
  4006ea:	2000      	movs	r0, #0
        t[6] = (a[3] >> 6) | (a[4] << 2);
        t[7] = (a[4] >> 3);
        a += 5;

        for (j = 0; j < 8; j++) {
            r->coeffs[8 * i + j] = ((uint32_t)(t[j] & 31) * KYBER_Q + 16) >> 5;
  4006ec:	f640 5501 	movw	r5, #3329	@ 0xd01
        t[1] = (a[0] >> 5) | (a[1] << 3);
  4006f0:	f811 4c04 	ldrb.w	r4, [r1, #-4]
        t[0] = (a[0] >> 0);
  4006f4:	f811 6c05 	ldrb.w	r6, [r1, #-5]
        t[3] = (a[1] >> 7) | (a[2] << 1);
  4006f8:	f811 7c03 	ldrb.w	r7, [r1, #-3]
        t[0] = (a[0] >> 0);
  4006fc:	f88d 6000 	strb.w	r6, [sp]
        t[1] = (a[0] >> 5) | (a[1] << 3);
  400700:	00e3      	lsls	r3, r4, #3
  400702:	ea43 1356 	orr.w	r3, r3, r6, lsr #5
  400706:	f88d 3001 	strb.w	r3, [sp, #1]
        t[2] = (a[1] >> 2);
  40070a:	08a3      	lsrs	r3, r4, #2
        t[4] = (a[2] >> 4) | (a[3] << 4);
  40070c:	f811 6c02 	ldrb.w	r6, [r1, #-2]
        t[2] = (a[1] >> 2);
  400710:	f88d 3002 	strb.w	r3, [sp, #2]
        t[3] = (a[1] >> 7) | (a[2] << 1);
  400714:	007b      	lsls	r3, r7, #1
  400716:	ea43 13d4 	orr.w	r3, r3, r4, lsr #7
  40071a:	f88d 3003 	strb.w	r3, [sp, #3]
        t[4] = (a[2] >> 4) | (a[3] << 4);
  40071e:	0133      	lsls	r3, r6, #4
  400720:	ea43 1317 	orr.w	r3, r3, r7, lsr #4
  400724:	f88d 3004 	strb.w	r3, [sp, #4]
        t[5] = (a[3] >> 1);
  400728:	0873      	lsrs	r3, r6, #1
  40072a:	f88d 3005 	strb.w	r3, [sp, #5]
        t[6] = (a[3] >> 6) | (a[4] << 2);
  40072e:	f811 3c01 	ldrb.w	r3, [r1, #-1]
  400732:	009c      	lsls	r4, r3, #2
  400734:	ea44 1496 	orr.w	r4, r4, r6, lsr #6
        t[7] = (a[4] >> 3);
  400738:	08db      	lsrs	r3, r3, #3
        t[6] = (a[3] >> 6) | (a[4] << 2);
  40073a:	f88d 4006 	strb.w	r4, [sp, #6]
        t[7] = (a[4] >> 3);
  40073e:	f88d 3007 	strb.w	r3, [sp, #7]
        for (j = 0; j < 8; j++) {
  400742:	466e      	mov	r6, sp
  400744:	f102 0410 	add.w	r4, r2, #16
            r->coeffs[8 * i + j] = ((uint32_t)(t[j] & 31) * KYBER_Q + 16) >> 5;
  400748:	f816 3b01 	ldrb.w	r3, [r6], #1
  40074c:	f003 031f 	and.w	r3, r3, #31
  400750:	436b      	muls	r3, r5
  400752:	3310      	adds	r3, #16
  400754:	095b      	lsrs	r3, r3, #5
  400756:	f822 3b02 	strh.w	r3, [r2], #2
        for (j = 0; j < 8; j++) {
  40075a:	4294      	cmp	r4, r2
  40075c:	d1f4      	bne.n	400748 <PQCLEAN_MLKEM1024_CLEAN_poly_decompress+0x64>
    for (i = 0; i < KYBER_N / 8; i++) {
  40075e:	3008      	adds	r0, #8
  400760:	f5b0 7f80 	cmp.w	r0, #256	@ 0x100
  400764:	f101 0105 	add.w	r1, r1, #5
  400768:	d101      	bne.n	40076e <PQCLEAN_MLKEM1024_CLEAN_poly_decompress+0x8a>
        }
    }
}
  40076a:	b003      	add	sp, #12
  40076c:	bdf0      	pop	{r4, r5, r6, r7, pc}
  40076e:	4622      	mov	r2, r4
  400770:	e7be      	b.n	4006f0 <PQCLEAN_MLKEM1024_CLEAN_poly_decompress+0xc>

00400772 <PQCLEAN_MLKEM1024_CLEAN_poly_tobytes>:
*
* Arguments:   - uint8_t *r: pointer to output byte array
*                            (needs space for KYBER_POLYBYTES bytes)
*              - const poly *a: pointer to input polynomial
**************************************************/
void PQCLEAN_MLKEM1024_CLEAN_poly_tobytes(uint8_t r[KYBER_POLYBYTES], const poly *a) {
  400772:	b5f0      	push	{r4, r5, r6, r7, lr}
    size_t i;
    uint16_t t0, t1;

    for (i = 0; i < KYBER_N / 2; i++) {
  400774:	2200      	movs	r2, #0
        // map to positive standard representatives
        t0  = a->coeffs[2 * i];
        t0 += ((int16_t)t0 >> 15) & KYBER_Q;
  400776:	f640 5601 	movw	r6, #3329	@ 0xd01
        t1 = a->coeffs[2 * i + 1];
  40077a:	1c8f      	adds	r7, r1, #2
        t0  = a->coeffs[2 * i];
  40077c:	f931 3022 	ldrsh.w	r3, [r1, r2, lsl #2]
  400780:	f831 4022 	ldrh.w	r4, [r1, r2, lsl #2]
        t1 = a->coeffs[2 * i + 1];
  400784:	f937 5022 	ldrsh.w	r5, [r7, r2, lsl #2]
        t0 += ((int16_t)t0 >> 15) & KYBER_Q;
  400788:	ea06 73e3 	and.w	r3, r6, r3, asr #31
  40078c:	441c      	add	r4, r3
        t1 = a->coeffs[2 * i + 1];
  40078e:	f837 3022 	ldrh.w	r3, [r7, r2, lsl #2]
        t1 += ((int16_t)t1 >> 15) & KYBER_Q;
  400792:	ea06 75e5 	and.w	r5, r6, r5, asr #31
  400796:	442b      	add	r3, r5
  400798:	b29b      	uxth	r3, r3
        t0 += ((int16_t)t0 >> 15) & KYBER_Q;
  40079a:	b2a4      	uxth	r4, r4
        r[3 * i + 0] = (uint8_t)(t0 >> 0);
        r[3 * i + 1] = (uint8_t)((t0 >> 8) | (t1 << 4));
  40079c:	011d      	lsls	r5, r3, #4
    for (i = 0; i < KYBER_N / 2; i++) {
  40079e:	3201      	adds	r2, #1
        r[3 * i + 0] = (uint8_t)(t0 >> 0);
  4007a0:	7004      	strb	r4, [r0, #0]
        r[3 * i + 2] = (uint8_t)(t1 >> 4);
  4007a2:	091b      	lsrs	r3, r3, #4
        r[3 * i + 1] = (uint8_t)((t0 >> 8) | (t1 << 4));
  4007a4:	ea45 2414 	orr.w	r4, r5, r4, lsr #8
    for (i = 0; i < KYBER_N / 2; i++) {
  4007a8:	2a80      	cmp	r2, #128	@ 0x80
        r[3 * i + 1] = (uint8_t)((t0 >> 8) | (t1 << 4));
  4007aa:	7044      	strb	r4, [r0, #1]
        r[3 * i + 2] = (uint8_t)(t1 >> 4);
  4007ac:	7083      	strb	r3, [r0, #2]
    for (i = 0; i < KYBER_N / 2; i++) {
  4007ae:	f100 0003 	add.w	r0, r0, #3
  4007b2:	d1e3      	bne.n	40077c <PQCLEAN_MLKEM1024_CLEAN_poly_tobytes+0xa>
    }
}
  4007b4:	bdf0      	pop	{r4, r5, r6, r7, pc}

004007b6 <PQCLEAN_MLKEM1024_CLEAN_poly_frombytes>:
*
* Arguments:   - poly *r: pointer to output polynomial
*              - const uint8_t *a: pointer to input byte array
*                                  (of KYBER_POLYBYTES bytes)
**************************************************/
void PQCLEAN_MLKEM1024_CLEAN_poly_frombytes(poly *r, const uint8_t a[KYBER_POLYBYTES]) {
  4007b6:	b530      	push	{r4, r5, lr}
    size_t i;
    for (i = 0; i < KYBER_N / 2; i++) {
  4007b8:	2300      	movs	r3, #0
        r->coeffs[2 * i]   = ((a[3 * i + 0] >> 0) | ((uint16_t)a[3 * i + 1] << 8)) & 0xFFF;
        r->coeffs[2 * i + 1] = ((a[3 * i + 1] >> 4) | ((uint16_t)a[3 * i + 2] << 4)) & 0xFFF;
  4007ba:	1c84      	adds	r4, r0, #2
        r->coeffs[2 * i]   = ((a[3 * i + 0] >> 0) | ((uint16_t)a[3 * i + 1] << 8)) & 0xFFF;
  4007bc:	784d      	ldrb	r5, [r1, #1]
  4007be:	780a      	ldrb	r2, [r1, #0]
  4007c0:	ea42 2205 	orr.w	r2, r2, r5, lsl #8
  4007c4:	f3c2 020b 	ubfx	r2, r2, #0, #12
  4007c8:	f820 2023 	strh.w	r2, [r0, r3, lsl #2]
        r->coeffs[2 * i + 1] = ((a[3 * i + 1] >> 4) | ((uint16_t)a[3 * i + 2] << 4)) & 0xFFF;
  4007cc:	788a      	ldrb	r2, [r1, #2]
  4007ce:	784d      	ldrb	r5, [r1, #1]
  4007d0:	0112      	lsls	r2, r2, #4
  4007d2:	ea42 1215 	orr.w	r2, r2, r5, lsr #4
  4007d6:	f824 2023 	strh.w	r2, [r4, r3, lsl #2]
    for (i = 0; i < KYBER_N / 2; i++) {
  4007da:	3301      	adds	r3, #1
  4007dc:	2b80      	cmp	r3, #128	@ 0x80
  4007de:	f101 0103 	add.w	r1, r1, #3
  4007e2:	d1eb      	bne.n	4007bc <PQCLEAN_MLKEM1024_CLEAN_poly_frombytes+0x6>
    }
}
  4007e4:	bd30      	pop	{r4, r5, pc}
  4007e6:	0000      	movs	r0, r0

004007e8 <PQCLEAN_MLKEM1024_CLEAN_poly_frommsg>:
* Description: Convert 32-byte message to polynomial
*
* Arguments:   - poly *r: pointer to output polynomial
*              - const uint8_t *msg: pointer to input message
**************************************************/
void PQCLEAN_MLKEM1024_CLEAN_poly_frommsg(poly *r, const uint8_t msg[KYBER_INDCPA_MSGBYTES]) {
  4007e8:	e92d 47f0 	stmdb	sp!, {r4, r5, r6, r7, r8, r9, sl, lr}
    size_t i, j;

    for (i = 0; i < KYBER_N / 8; i++) {
  4007ec:	2400      	movs	r4, #0
        for (j = 0; j < 8; j++) {
            r->coeffs[8 * i + j] = 0;
            PQCLEAN_MLKEM1024_CLEAN_cmov_int16(r->coeffs + 8 * i + j, ((KYBER_Q + 1) / 2), (msg[i] >> j) & 1);
  4007ee:	f8df a034 	ldr.w	sl, [pc, #52]	@ 400824 <PQCLEAN_MLKEM1024_CLEAN_poly_frommsg+0x3c>
void PQCLEAN_MLKEM1024_CLEAN_poly_frommsg(poly *r, const uint8_t msg[KYBER_INDCPA_MSGBYTES]) {
  4007f2:	4607      	mov	r7, r0
  4007f4:	4688      	mov	r8, r1
            r->coeffs[8 * i + j] = 0;
  4007f6:	46a1      	mov	r9, r4
        for (j = 0; j < 8; j++) {
  4007f8:	eb07 1604 	add.w	r6, r7, r4, lsl #4
  4007fc:	2500      	movs	r5, #0
            r->coeffs[8 * i + j] = 0;
  4007fe:	4630      	mov	r0, r6
  400800:	f826 9b02 	strh.w	r9, [r6], #2
            PQCLEAN_MLKEM1024_CLEAN_cmov_int16(r->coeffs + 8 * i + j, ((KYBER_Q + 1) / 2), (msg[i] >> j) & 1);
  400804:	f818 2004 	ldrb.w	r2, [r8, r4]
  400808:	412a      	asrs	r2, r5
  40080a:	f002 0201 	and.w	r2, r2, #1
  40080e:	f240 6181 	movw	r1, #1665	@ 0x681
        for (j = 0; j < 8; j++) {
  400812:	3501      	adds	r5, #1
            PQCLEAN_MLKEM1024_CLEAN_cmov_int16(r->coeffs + 8 * i + j, ((KYBER_Q + 1) / 2), (msg[i] >> j) & 1);
  400814:	47d0      	blx	sl
        for (j = 0; j < 8; j++) {
  400816:	2d08      	cmp	r5, #8
  400818:	d1f1      	bne.n	4007fe <PQCLEAN_MLKEM1024_CLEAN_poly_frommsg+0x16>
    for (i = 0; i < KYBER_N / 8; i++) {
  40081a:	3401      	adds	r4, #1
  40081c:	2c20      	cmp	r4, #32
  40081e:	d1eb      	bne.n	4007f8 <PQCLEAN_MLKEM1024_CLEAN_poly_frommsg+0x10>
        }
    }
}
  400820:	e8bd 87f0 	ldmia.w	sp!, {r4, r5, r6, r7, r8, r9, sl, pc}
  400824:	004012a5 	.word	0x004012a5

00400828 <PQCLEAN_MLKEM1024_CLEAN_poly_tomsg>:
* Description: Convert polynomial to 32-byte message
*
* Arguments:   - uint8_t *msg: pointer to output message
*              - const poly *a: pointer to input polynomial
**************************************************/
void PQCLEAN_MLKEM1024_CLEAN_poly_tomsg(uint8_t msg[KYBER_INDCPA_MSGBYTES], const poly *a) {
  400828:	b5f0      	push	{r4, r5, r6, r7, lr}
            t  = a->coeffs[8 * i + j];
            // t += ((int16_t)t >> 15) & KYBER_Q;
            // t  = (((t << 1) + KYBER_Q/2)/KYBER_Q) & 1;
            t <<= 1;
            t += 1665;
            t *= 80635;
  40082a:	f8df c040 	ldr.w	ip, [pc, #64]	@ 40086c <PQCLEAN_MLKEM1024_CLEAN_poly_tomsg+0x44>
void PQCLEAN_MLKEM1024_CLEAN_poly_tomsg(uint8_t msg[KYBER_INDCPA_MSGBYTES], const poly *a) {
  40082e:	2400      	movs	r4, #0
  400830:	3801      	subs	r0, #1
        msg[i] = 0;
  400832:	4627      	mov	r7, r4
  400834:	2200      	movs	r2, #0
  400836:	f800 7f01 	strb.w	r7, [r0, #1]!
        for (j = 0; j < 8; j++) {
  40083a:	eb01 0644 	add.w	r6, r1, r4, lsl #1
  40083e:	4615      	mov	r5, r2
            t  = a->coeffs[8 * i + j];
  400840:	f936 3b02 	ldrsh.w	r3, [r6], #2
            t <<= 1;
  400844:	005b      	lsls	r3, r3, #1
            t += 1665;
  400846:	f203 6381 	addw	r3, r3, #1665	@ 0x681
            t *= 80635;
  40084a:	fb0c f303 	mul.w	r3, ip, r3
            t >>= 28;
            t &= 1;
  40084e:	f3c3 7300 	ubfx	r3, r3, #28, #1
            msg[i] |= t << j;
  400852:	40ab      	lsls	r3, r5
  400854:	431a      	orrs	r2, r3
        for (j = 0; j < 8; j++) {
  400856:	3501      	adds	r5, #1
            msg[i] |= t << j;
  400858:	b2d2      	uxtb	r2, r2
        for (j = 0; j < 8; j++) {
  40085a:	2d08      	cmp	r5, #8
            msg[i] |= t << j;
  40085c:	7002      	strb	r2, [r0, #0]
        for (j = 0; j < 8; j++) {
  40085e:	d1ef      	bne.n	400840 <PQCLEAN_MLKEM1024_CLEAN_poly_tomsg+0x18>
    for (i = 0; i < KYBER_N / 8; i++) {
  400860:	3408      	adds	r4, #8
  400862:	f5b4 7f80 	cmp.w	r4, #256	@ 0x100
  400866:	d1e5      	bne.n	400834 <PQCLEAN_MLKEM1024_CLEAN_poly_tomsg+0xc>
        }
    }
}
  400868:	bdf0      	pop	{r4, r5, r6, r7, pc}
  40086a:	bf00      	nop
  40086c:	00013afb 	.word	0x00013afb

00400870 <PQCLEAN_MLKEM1024_CLEAN_poly_getnoise_eta1>:
* Arguments:   - poly *r: pointer to output polynomial
*              - const uint8_t *seed: pointer to input seed
*                                     (of length KYBER_SYMBYTES bytes)
*              - uint8_t nonce: one-byte input nonce
**************************************************/
void PQCLEAN_MLKEM1024_CLEAN_poly_getnoise_eta1(poly *r, const uint8_t seed[KYBER_SYMBYTES], uint8_t nonce) {
  400870:	b530      	push	{r4, r5, lr}
  400872:	b0a1      	sub	sp, #132	@ 0x84
  400874:	4604      	mov	r4, r0
  400876:	4613      	mov	r3, r2
    uint8_t buf[KYBER_ETA1 * KYBER_N / 4];
    prf(buf, sizeof(buf), seed, nonce);
  400878:	4668      	mov	r0, sp
  40087a:	460a      	mov	r2, r1
  40087c:	4d04      	ldr	r5, [pc, #16]	@ (400890 <PQCLEAN_MLKEM1024_CLEAN_poly_getnoise_eta1+0x20>)
  40087e:	2180      	movs	r1, #128	@ 0x80
  400880:	47a8      	blx	r5
    PQCLEAN_MLKEM1024_CLEAN_poly_cbd_eta1(r, buf);
  400882:	4b04      	ldr	r3, [pc, #16]	@ (400894 <PQCLEAN_MLKEM1024_CLEAN_poly_getnoise_eta1+0x24>)
  400884:	4669      	mov	r1, sp
  400886:	4620      	mov	r0, r4
  400888:	4798      	blx	r3
}
  40088a:	b021      	add	sp, #132	@ 0x84
  40088c:	bd30      	pop	{r4, r5, pc}
  40088e:	bf00      	nop
  400890:	0040253d 	.word	0x0040253d
  400894:	00401315 	.word	0x00401315

00400898 <PQCLEAN_MLKEM1024_CLEAN_poly_getnoise_eta2>:
* Arguments:   - poly *r: pointer to output polynomial
*              - const uint8_t *seed: pointer to input seed
*                                     (of length KYBER_SYMBYTES bytes)
*              - uint8_t nonce: one-byte input nonce
**************************************************/
void PQCLEAN_MLKEM1024_CLEAN_poly_getnoise_eta2(poly *r, const uint8_t seed[KYBER_SYMBYTES], uint8_t nonce) {
  400898:	b530      	push	{r4, r5, lr}
  40089a:	b0a1      	sub	sp, #132	@ 0x84
  40089c:	4604      	mov	r4, r0
  40089e:	4613      	mov	r3, r2
    uint8_t buf[KYBER_ETA2 * KYBER_N / 4];
    prf(buf, sizeof(buf), seed, nonce);
  4008a0:	4668      	mov	r0, sp
  4008a2:	460a      	mov	r2, r1
  4008a4:	4d04      	ldr	r5, [pc, #16]	@ (4008b8 <PQCLEAN_MLKEM1024_CLEAN_poly_getnoise_eta2+0x20>)
  4008a6:	2180      	movs	r1, #128	@ 0x80
  4008a8:	47a8      	blx	r5
    PQCLEAN_MLKEM1024_CLEAN_poly_cbd_eta2(r, buf);
  4008aa:	4b04      	ldr	r3, [pc, #16]	@ (4008bc <PQCLEAN_MLKEM1024_CLEAN_poly_getnoise_eta2+0x24>)
  4008ac:	4669      	mov	r1, sp
  4008ae:	4620      	mov	r0, r4
  4008b0:	4798      	blx	r3
}
  4008b2:	b021      	add	sp, #132	@ 0x84
  4008b4:	bd30      	pop	{r4, r5, pc}
  4008b6:	bf00      	nop
  4008b8:	0040253d 	.word	0x0040253d
  4008bc:	0040131d 	.word	0x0040131d

004008c0 <PQCLEAN_MLKEM1024_CLEAN_poly_invntt_tomont>:
*              inputs assumed to be in bitreversed order, output in normal order
*
* Arguments:   - uint16_t *a: pointer to in/output polynomial
**************************************************/
void PQCLEAN_MLKEM1024_CLEAN_poly_invntt_tomont(poly *r) {
    PQCLEAN_MLKEM1024_CLEAN_invntt(r->coeffs);
  4008c0:	4b00      	ldr	r3, [pc, #0]	@ (4008c4 <PQCLEAN_MLKEM1024_CLEAN_poly_invntt_tomont+0x4>)
  4008c2:	4718      	bx	r3
  4008c4:	00400d2d 	.word	0x00400d2d

004008c8 <PQCLEAN_MLKEM1024_CLEAN_poly_basemul_montgomery>:
*
* Arguments:   - poly *r: pointer to output polynomial
*              - const poly *a: pointer to first input polynomial
*              - const poly *b: pointer to second input polynomial
**************************************************/
void PQCLEAN_MLKEM1024_CLEAN_poly_basemul_montgomery(poly *r, const poly *a, const poly *b) {
  4008c8:	e92d 47f0 	stmdb	sp!, {r4, r5, r6, r7, r8, r9, sl, lr}
  4008cc:	4f0f      	ldr	r7, [pc, #60]	@ (40090c <PQCLEAN_MLKEM1024_CLEAN_poly_basemul_montgomery+0x44>)
    size_t i;
    for (i = 0; i < KYBER_N / 4; i++) {
        PQCLEAN_MLKEM1024_CLEAN_basemul(&r->coeffs[4 * i], &a->coeffs[4 * i], &b->coeffs[4 * i], PQCLEAN_MLKEM1024_CLEAN_zetas[64 + i]);
  4008ce:	f8df 9040 	ldr.w	r9, [pc, #64]	@ 400910 <PQCLEAN_MLKEM1024_CLEAN_poly_basemul_montgomery+0x48>
  4008d2:	1d06      	adds	r6, r0, #4
  4008d4:	1d0d      	adds	r5, r1, #4
  4008d6:	1d14      	adds	r4, r2, #4
  4008d8:	f107 0a80 	add.w	sl, r7, #128	@ 0x80
  4008dc:	f937 8f02 	ldrsh.w	r8, [r7, #2]!
  4008e0:	1f22      	subs	r2, r4, #4
  4008e2:	1f29      	subs	r1, r5, #4
  4008e4:	1f30      	subs	r0, r6, #4
  4008e6:	4643      	mov	r3, r8
  4008e8:	47c8      	blx	r9
        PQCLEAN_MLKEM1024_CLEAN_basemul(&r->coeffs[4 * i + 2], &a->coeffs[4 * i + 2], &b->coeffs[4 * i + 2], -PQCLEAN_MLKEM1024_CLEAN_zetas[64 + i]);
  4008ea:	f1c8 0300 	rsb	r3, r8, #0
  4008ee:	4622      	mov	r2, r4
  4008f0:	4629      	mov	r1, r5
  4008f2:	4630      	mov	r0, r6
  4008f4:	b21b      	sxth	r3, r3
  4008f6:	47c8      	blx	r9
    for (i = 0; i < KYBER_N / 4; i++) {
  4008f8:	4557      	cmp	r7, sl
  4008fa:	f106 0608 	add.w	r6, r6, #8
  4008fe:	f105 0508 	add.w	r5, r5, #8
  400902:	f104 0408 	add.w	r4, r4, #8
  400906:	d1e9      	bne.n	4008dc <PQCLEAN_MLKEM1024_CLEAN_poly_basemul_montgomery+0x14>
    }
}
  400908:	e8bd 87f0 	ldmia.w	sp!, {r4, r5, r6, r7, r8, r9, sl, pc}
  40090c:	004033e6 	.word	0x004033e6
  400910:	00400dd9 	.word	0x00400dd9

00400914 <PQCLEAN_MLKEM1024_CLEAN_poly_tomont>:
* Description: Inplace conversion of all coefficients of a polynomial
*              from normal domain to Montgomery domain
*
* Arguments:   - poly *r: pointer to input/output polynomial
**************************************************/
void PQCLEAN_MLKEM1024_CLEAN_poly_tomont(poly *r) {
  400914:	b5f8      	push	{r3, r4, r5, r6, r7, lr}
    size_t i;
    const int16_t f = (1ULL << 32) % KYBER_Q;
    for (i = 0; i < KYBER_N; i++) {
        r->coeffs[i] = PQCLEAN_MLKEM1024_CLEAN_montgomery_reduce((int32_t)r->coeffs[i] * f);
  400916:	4e07      	ldr	r6, [pc, #28]	@ (400934 <PQCLEAN_MLKEM1024_CLEAN_poly_tomont+0x20>)
  400918:	1e85      	subs	r5, r0, #2
  40091a:	f500 74ff 	add.w	r4, r0, #510	@ 0x1fe
  40091e:	f240 5749 	movw	r7, #1353	@ 0x549
  400922:	f935 0f02 	ldrsh.w	r0, [r5, #2]!
  400926:	4378      	muls	r0, r7
  400928:	47b0      	blx	r6
    for (i = 0; i < KYBER_N; i++) {
  40092a:	42a5      	cmp	r5, r4
        r->coeffs[i] = PQCLEAN_MLKEM1024_CLEAN_montgomery_reduce((int32_t)r->coeffs[i] * f);
  40092c:	8028      	strh	r0, [r5, #0]
    for (i = 0; i < KYBER_N; i++) {
  40092e:	d1f8      	bne.n	400922 <PQCLEAN_MLKEM1024_CLEAN_poly_tomont+0xe>
    }
}
  400930:	bdf8      	pop	{r3, r4, r5, r6, r7, pc}
  400932:	bf00      	nop
  400934:	004025c9 	.word	0x004025c9

00400938 <PQCLEAN_MLKEM1024_CLEAN_poly_reduce>:
* Description: Applies Barrett reduction to all coefficients of a polynomial
*              for details of the Barrett reduction see comments in reduce.c
*
* Arguments:   - poly *r: pointer to input/output polynomial
**************************************************/
void PQCLEAN_MLKEM1024_CLEAN_poly_reduce(poly *r) {
  400938:	b570      	push	{r4, r5, r6, lr}
    size_t i;
    for (i = 0; i < KYBER_N; i++) {
        r->coeffs[i] = PQCLEAN_MLKEM1024_CLEAN_barrett_reduce(r->coeffs[i]);
  40093a:	4e05      	ldr	r6, [pc, #20]	@ (400950 <PQCLEAN_MLKEM1024_CLEAN_poly_reduce+0x18>)
  40093c:	1e85      	subs	r5, r0, #2
  40093e:	f500 74ff 	add.w	r4, r0, #510	@ 0x1fe
  400942:	f935 0f02 	ldrsh.w	r0, [r5, #2]!
  400946:	47b0      	blx	r6
    for (i = 0; i < KYBER_N; i++) {
  400948:	42a5      	cmp	r5, r4
        r->coeffs[i] = PQCLEAN_MLKEM1024_CLEAN_barrett_reduce(r->coeffs[i]);
  40094a:	8028      	strh	r0, [r5, #0]
    for (i = 0; i < KYBER_N; i++) {
  40094c:	d1f9      	bne.n	400942 <PQCLEAN_MLKEM1024_CLEAN_poly_reduce+0xa>
    }
}
  40094e:	bd70      	pop	{r4, r5, r6, pc}
  400950:	004025e5 	.word	0x004025e5

00400954 <PQCLEAN_MLKEM1024_CLEAN_poly_ntt>:
void PQCLEAN_MLKEM1024_CLEAN_poly_ntt(poly *r) {
  400954:	b510      	push	{r4, lr}
    PQCLEAN_MLKEM1024_CLEAN_ntt(r->coeffs);
  400956:	4b04      	ldr	r3, [pc, #16]	@ (400968 <PQCLEAN_MLKEM1024_CLEAN_poly_ntt+0x14>)
void PQCLEAN_MLKEM1024_CLEAN_poly_ntt(poly *r) {
  400958:	4604      	mov	r4, r0
    PQCLEAN_MLKEM1024_CLEAN_ntt(r->coeffs);
  40095a:	4798      	blx	r3
    PQCLEAN_MLKEM1024_CLEAN_poly_reduce(r);
  40095c:	4620      	mov	r0, r4
  40095e:	4b03      	ldr	r3, [pc, #12]	@ (40096c <PQCLEAN_MLKEM1024_CLEAN_poly_ntt+0x18>)
}
  400960:	e8bd 4010 	ldmia.w	sp!, {r4, lr}
    PQCLEAN_MLKEM1024_CLEAN_poly_reduce(r);
  400964:	4718      	bx	r3
  400966:	bf00      	nop
  400968:	00400c95 	.word	0x00400c95
  40096c:	00400939 	.word	0x00400939

00400970 <PQCLEAN_MLKEM1024_CLEAN_poly_add>:
*
* Arguments: - poly *r: pointer to output polynomial
*            - const poly *a: pointer to first input polynomial
*            - const poly *b: pointer to second input polynomial
**************************************************/
void PQCLEAN_MLKEM1024_CLEAN_poly_add(poly *r, const poly *a, const poly *b) {
  400970:	b530      	push	{r4, r5, lr}
    size_t i;
    for (i = 0; i < KYBER_N; i++) {
  400972:	2300      	movs	r3, #0
        r->coeffs[i] = a->coeffs[i] + b->coeffs[i];
  400974:	f831 4013 	ldrh.w	r4, [r1, r3, lsl #1]
  400978:	f832 5013 	ldrh.w	r5, [r2, r3, lsl #1]
  40097c:	442c      	add	r4, r5
  40097e:	f820 4013 	strh.w	r4, [r0, r3, lsl #1]
    for (i = 0; i < KYBER_N; i++) {
  400982:	3301      	adds	r3, #1
  400984:	f5b3 7f80 	cmp.w	r3, #256	@ 0x100
  400988:	d1f4      	bne.n	400974 <PQCLEAN_MLKEM1024_CLEAN_poly_add+0x4>
    }
}
  40098a:	bd30      	pop	{r4, r5, pc}

0040098c <PQCLEAN_MLKEM1024_CLEAN_poly_sub>:
*
* Arguments: - poly *r:       pointer to output polynomial
*            - const poly *a: pointer to first input polynomial
*            - const poly *b: pointer to second input polynomial
**************************************************/
void PQCLEAN_MLKEM1024_CLEAN_poly_sub(poly *r, const poly *a, const poly *b) {
  40098c:	b530      	push	{r4, r5, lr}
    size_t i;
    for (i = 0; i < KYBER_N; i++) {
  40098e:	2300      	movs	r3, #0
        r->coeffs[i] = a->coeffs[i] - b->coeffs[i];
  400990:	f831 4013 	ldrh.w	r4, [r1, r3, lsl #1]
  400994:	f832 5013 	ldrh.w	r5, [r2, r3, lsl #1]
  400998:	1b64      	subs	r4, r4, r5
  40099a:	f820 4013 	strh.w	r4, [r0, r3, lsl #1]
    for (i = 0; i < KYBER_N; i++) {
  40099e:	3301      	adds	r3, #1
  4009a0:	f5b3 7f80 	cmp.w	r3, #256	@ 0x100
  4009a4:	d1f4      	bne.n	400990 <PQCLEAN_MLKEM1024_CLEAN_poly_sub+0x4>
    }
}
  4009a6:	bd30      	pop	{r4, r5, pc}

004009a8 <PQCLEAN_MLKEM1024_CLEAN_polyvec_compress>:
                t[k] += ((int16_t)t[k] >> 15) & KYBER_Q;
                /*      t[k]  = ((((uint32_t)t[k] << 11) + KYBER_Q/2)/KYBER_Q) & 0x7ff; */
                d0 = t[k];
                d0 <<= 11;
                d0 += 1664;
                d0 *= 645084;
  4009a8:	f8df c0ec 	ldr.w	ip, [pc, #236]	@ 400a98 <PQCLEAN_MLKEM1024_CLEAN_polyvec_compress+0xf0>
void PQCLEAN_MLKEM1024_CLEAN_polyvec_compress(uint8_t r[KYBER_POLYVECCOMPRESSEDBYTES], const polyvec *a) {
  4009ac:	e92d 47ff 	stmdb	sp!, {r0, r1, r2, r3, r4, r5, r6, r7, r8, r9, sl, lr}
            for (k = 0; k < 8; k++) {
  4009b0:	2400      	movs	r4, #0
                t[k] += ((int16_t)t[k] >> 15) & KYBER_Q;
  4009b2:	f640 5901 	movw	r9, #3329	@ 0xd01
        for (j = 0; j < KYBER_N / 8; j++) {
  4009b6:	f100 020b 	add.w	r2, r0, #11
  4009ba:	eb01 1604 	add.w	r6, r1, r4, lsl #4
            for (k = 0; k < 8; k++) {
  4009be:	2500      	movs	r5, #0
  4009c0:	e05e      	b.n	400a80 <PQCLEAN_MLKEM1024_CLEAN_polyvec_compress+0xd8>
                t[k]  = a->vec[i].coeffs[8 * j + k];
  4009c2:	f93e ab02 	ldrsh.w	sl, [lr], #2
                t[k] += ((int16_t)t[k] >> 15) & KYBER_Q;
  4009c6:	ea09 73ea 	and.w	r3, r9, sl, asr #31
  4009ca:	4453      	add	r3, sl
                d0 = t[k];
  4009cc:	b29b      	uxth	r3, r3
                d0 <<= 11;
  4009ce:	02db      	lsls	r3, r3, #11
                d0 += 1664;
  4009d0:	f513 63d0 	adds.w	r3, r3, #1664	@ 0x680
                d0 *= 645084;
  4009d4:	fba3 3a0c 	umull	r3, sl, r3, ip
                d0 >>= 31;
  4009d8:	0fdb      	lsrs	r3, r3, #31
  4009da:	ea43 034a 	orr.w	r3, r3, sl, lsl #1
            for (k = 0; k < 8; k++) {
  4009de:	3701      	adds	r7, #1
                t[k] = d0 & 0x7ff;
  4009e0:	f3c3 030a 	ubfx	r3, r3, #0, #11
            for (k = 0; k < 8; k++) {
  4009e4:	2f08      	cmp	r7, #8
                t[k] = d0 & 0x7ff;
  4009e6:	f828 3b02 	strh.w	r3, [r8], #2
            for (k = 0; k < 8; k++) {
  4009ea:	d1ea      	bne.n	4009c2 <PQCLEAN_MLKEM1024_CLEAN_polyvec_compress+0x1a>
            }

            r[ 0] = (uint8_t)(t[0] >>  0);
            r[ 1] = (uint8_t)((t[0] >>  8) | (t[1] << 3));
  4009ec:	f8bd e002 	ldrh.w	lr, [sp, #2]
            r[ 0] = (uint8_t)(t[0] >>  0);
  4009f0:	f8bd 7000 	ldrh.w	r7, [sp]
  4009f4:	f802 7c0b 	strb.w	r7, [r2, #-11]
            r[ 1] = (uint8_t)((t[0] >>  8) | (t[1] << 3));
  4009f8:	ea4f 03ce 	mov.w	r3, lr, lsl #3
  4009fc:	ea43 2317 	orr.w	r3, r3, r7, lsr #8
            r[ 2] = (uint8_t)((t[1] >>  5) | (t[2] << 6));
  400a00:	f8bd 7004 	ldrh.w	r7, [sp, #4]
            r[ 1] = (uint8_t)((t[0] >>  8) | (t[1] << 3));
  400a04:	f802 3c0a 	strb.w	r3, [r2, #-10]
            r[ 2] = (uint8_t)((t[1] >>  5) | (t[2] << 6));
  400a08:	01bb      	lsls	r3, r7, #6
  400a0a:	ea43 135e 	orr.w	r3, r3, lr, lsr #5
            r[ 3] = (uint8_t)(t[2] >>  2);
            r[ 4] = (uint8_t)((t[2] >> 10) | (t[3] << 1));
  400a0e:	f8bd 8006 	ldrh.w	r8, [sp, #6]
            r[ 2] = (uint8_t)((t[1] >>  5) | (t[2] << 6));
  400a12:	f802 3c09 	strb.w	r3, [r2, #-9]
            r[ 3] = (uint8_t)(t[2] >>  2);
  400a16:	08bb      	lsrs	r3, r7, #2
            r[ 5] = (uint8_t)((t[3] >>  7) | (t[4] << 4));
  400a18:	f8bd e008 	ldrh.w	lr, [sp, #8]
            r[ 3] = (uint8_t)(t[2] >>  2);
  400a1c:	f802 3c08 	strb.w	r3, [r2, #-8]
            r[ 4] = (uint8_t)((t[2] >> 10) | (t[3] << 1));
  400a20:	ea4f 0348 	mov.w	r3, r8, lsl #1
  400a24:	ea43 2397 	orr.w	r3, r3, r7, lsr #10
  400a28:	f802 3c07 	strb.w	r3, [r2, #-7]
            r[ 6] = (uint8_t)((t[4] >>  4) | (t[5] << 7));
  400a2c:	f8bd 700a 	ldrh.w	r7, [sp, #10]
            r[ 5] = (uint8_t)((t[3] >>  7) | (t[4] << 4));
  400a30:	ea4f 130e 	mov.w	r3, lr, lsl #4
  400a34:	ea43 13d8 	orr.w	r3, r3, r8, lsr #7
  400a38:	f802 3c06 	strb.w	r3, [r2, #-6]
            r[ 6] = (uint8_t)((t[4] >>  4) | (t[5] << 7));
  400a3c:	01fb      	lsls	r3, r7, #7
  400a3e:	ea43 131e 	orr.w	r3, r3, lr, lsr #4
            r[ 7] = (uint8_t)(t[5] >>  1);
            r[ 8] = (uint8_t)((t[5] >>  9) | (t[6] << 2));
  400a42:	f8bd e00c 	ldrh.w	lr, [sp, #12]
            r[ 6] = (uint8_t)((t[4] >>  4) | (t[5] << 7));
  400a46:	f802 3c05 	strb.w	r3, [r2, #-5]
            r[ 7] = (uint8_t)(t[5] >>  1);
  400a4a:	087b      	lsrs	r3, r7, #1
  400a4c:	f802 3c04 	strb.w	r3, [r2, #-4]
            r[ 8] = (uint8_t)((t[5] >>  9) | (t[6] << 2));
  400a50:	ea4f 038e 	mov.w	r3, lr, lsl #2
  400a54:	ea43 2357 	orr.w	r3, r3, r7, lsr #9
  400a58:	f802 3c03 	strb.w	r3, [r2, #-3]
            r[ 9] = (uint8_t)((t[6] >>  6) | (t[7] << 5));
  400a5c:	f8bd 300e 	ldrh.w	r3, [sp, #14]
        for (j = 0; j < KYBER_N / 8; j++) {
  400a60:	3508      	adds	r5, #8
            r[ 9] = (uint8_t)((t[6] >>  6) | (t[7] << 5));
  400a62:	015f      	lsls	r7, r3, #5
  400a64:	ea47 179e 	orr.w	r7, r7, lr, lsr #6
            r[10] = (uint8_t)(t[7] >>  3);
  400a68:	08db      	lsrs	r3, r3, #3
        for (j = 0; j < KYBER_N / 8; j++) {
  400a6a:	f5b5 7f80 	cmp.w	r5, #256	@ 0x100
            r[ 9] = (uint8_t)((t[6] >>  6) | (t[7] << 5));
  400a6e:	f802 7c02 	strb.w	r7, [r2, #-2]
            r[10] = (uint8_t)(t[7] >>  3);
  400a72:	f802 3c01 	strb.w	r3, [r2, #-1]
        for (j = 0; j < KYBER_N / 8; j++) {
  400a76:	f106 0610 	add.w	r6, r6, #16
  400a7a:	f102 020b 	add.w	r2, r2, #11
  400a7e:	d003      	beq.n	400a88 <PQCLEAN_MLKEM1024_CLEAN_polyvec_compress+0xe0>
            for (k = 0; k < 8; k++) {
  400a80:	46e8      	mov	r8, sp
void PQCLEAN_MLKEM1024_CLEAN_polyvec_compress(uint8_t r[KYBER_POLYVECCOMPRESSEDBYTES], const polyvec *a) {
  400a82:	46b6      	mov	lr, r6
            for (k = 0; k < 8; k++) {
  400a84:	2700      	movs	r7, #0
  400a86:	e79c      	b.n	4009c2 <PQCLEAN_MLKEM1024_CLEAN_polyvec_compress+0x1a>
    for (i = 0; i < KYBER_K; i++) {
  400a88:	3420      	adds	r4, #32
  400a8a:	2c80      	cmp	r4, #128	@ 0x80
  400a8c:	f500 70b0 	add.w	r0, r0, #352	@ 0x160
  400a90:	d191      	bne.n	4009b6 <PQCLEAN_MLKEM1024_CLEAN_polyvec_compress+0xe>
            r += 11;
        }
    }
}
  400a92:	b004      	add	sp, #16
  400a94:	e8bd 87f0 	ldmia.w	sp!, {r4, r5, r6, r7, r8, r9, sl, pc}
  400a98:	0009d7dc 	.word	0x0009d7dc

00400a9c <PQCLEAN_MLKEM1024_CLEAN_polyvec_decompress>:
*
* Arguments:   - polyvec *r:       pointer to output vector of polynomials
*              - const uint8_t *a: pointer to input byte array
*                                  (of length KYBER_POLYVECCOMPRESSEDBYTES)
**************************************************/
void PQCLEAN_MLKEM1024_CLEAN_polyvec_decompress(polyvec *r, const uint8_t a[KYBER_POLYVECCOMPRESSEDBYTES]) {
  400a9c:	e92d 43f0 	stmdb	sp!, {r4, r5, r6, r7, r8, r9, lr}
            t[5] = (a[6] >> 7) | ((uint16_t)a[ 7] << 1) | ((uint16_t)a[8] << 9);
            t[6] = (a[8] >> 2) | ((uint16_t)a[ 9] << 6);
            t[7] = (a[9] >> 5) | ((uint16_t)a[10] << 3);
            a += 11;

            for (k = 0; k < 8; k++) {
  400aa0:	2400      	movs	r4, #0
void PQCLEAN_MLKEM1024_CLEAN_polyvec_decompress(polyvec *r, const uint8_t a[KYBER_POLYVECCOMPRESSEDBYTES]) {
  400aa2:	b085      	sub	sp, #20
  400aa4:	f04f 080b 	mov.w	r8, #11
                r->vec[i].coeffs[8 * j + k] = ((uint32_t)(t[k] & 0x7FF) * KYBER_Q + 1024) >> 11;
  400aa8:	f640 5901 	movw	r9, #3329	@ 0xd01
  400aac:	fb08 1304 	mla	r3, r8, r4, r1
        for (j = 0; j < KYBER_N / 8; j++) {
  400ab0:	eb00 1604 	add.w	r6, r0, r4, lsl #4
void PQCLEAN_MLKEM1024_CLEAN_polyvec_decompress(polyvec *r, const uint8_t a[KYBER_POLYVECCOMPRESSEDBYTES]) {
  400ab4:	2500      	movs	r5, #0
            t[0] = (a[0] >> 0) | ((uint16_t)a[ 1] << 8);
  400ab6:	881a      	ldrh	r2, [r3, #0]
  400ab8:	f8ad 2000 	strh.w	r2, [sp]
            t[1] = (a[1] >> 3) | ((uint16_t)a[ 2] << 5);
  400abc:	789a      	ldrb	r2, [r3, #2]
            t[0] = (a[0] >> 0) | ((uint16_t)a[ 1] << 8);
  400abe:	f893 c001 	ldrb.w	ip, [r3, #1]
            t[1] = (a[1] >> 3) | ((uint16_t)a[ 2] << 5);
  400ac2:	0157      	lsls	r7, r2, #5
  400ac4:	ea47 07dc 	orr.w	r7, r7, ip, lsr #3
            t[2] = (a[2] >> 6) | ((uint16_t)a[ 3] << 2) | ((uint16_t)a[4] << 10);
  400ac8:	f893 c003 	ldrb.w	ip, [r3, #3]
            t[1] = (a[1] >> 3) | ((uint16_t)a[ 2] << 5);
  400acc:	f8ad 7002 	strh.w	r7, [sp, #2]
            t[2] = (a[2] >> 6) | ((uint16_t)a[ 3] << 2) | ((uint16_t)a[4] << 10);
  400ad0:	0992      	lsrs	r2, r2, #6
  400ad2:	791f      	ldrb	r7, [r3, #4]
  400ad4:	ea42 028c 	orr.w	r2, r2, ip, lsl #2
            t[3] = (a[4] >> 1) | ((uint16_t)a[ 5] << 7);
  400ad8:	f893 c005 	ldrb.w	ip, [r3, #5]
            t[2] = (a[2] >> 6) | ((uint16_t)a[ 3] << 2) | ((uint16_t)a[4] << 10);
  400adc:	ea42 2287 	orr.w	r2, r2, r7, lsl #10
  400ae0:	f8ad 2004 	strh.w	r2, [sp, #4]
            t[3] = (a[4] >> 1) | ((uint16_t)a[ 5] << 7);
  400ae4:	ea4f 12cc 	mov.w	r2, ip, lsl #7
  400ae8:	ea42 0257 	orr.w	r2, r2, r7, lsr #1
  400aec:	f8ad 2006 	strh.w	r2, [sp, #6]
            t[4] = (a[5] >> 4) | ((uint16_t)a[ 6] << 4);
  400af0:	799a      	ldrb	r2, [r3, #6]
  400af2:	0117      	lsls	r7, r2, #4
  400af4:	ea47 171c 	orr.w	r7, r7, ip, lsr #4
  400af8:	f8ad 7008 	strh.w	r7, [sp, #8]
            t[5] = (a[6] >> 7) | ((uint16_t)a[ 7] << 1) | ((uint16_t)a[8] << 9);
  400afc:	79df      	ldrb	r7, [r3, #7]
  400afe:	f893 c008 	ldrb.w	ip, [r3, #8]
  400b02:	09d2      	lsrs	r2, r2, #7
  400b04:	ea42 0247 	orr.w	r2, r2, r7, lsl #1
  400b08:	ea42 224c 	orr.w	r2, r2, ip, lsl #9
  400b0c:	f8ad 200a 	strh.w	r2, [sp, #10]
            t[6] = (a[8] >> 2) | ((uint16_t)a[ 9] << 6);
  400b10:	7a5a      	ldrb	r2, [r3, #9]
  400b12:	0197      	lsls	r7, r2, #6
  400b14:	ea47 079c 	orr.w	r7, r7, ip, lsr #2
  400b18:	f8ad 700c 	strh.w	r7, [sp, #12]
            t[7] = (a[9] >> 5) | ((uint16_t)a[10] << 3);
  400b1c:	7a9f      	ldrb	r7, [r3, #10]
  400b1e:	0952      	lsrs	r2, r2, #5
  400b20:	ea42 02c7 	orr.w	r2, r2, r7, lsl #3
  400b24:	f8ad 200e 	strh.w	r2, [sp, #14]
            a += 11;
  400b28:	330b      	adds	r3, #11
            for (k = 0; k < 8; k++) {
  400b2a:	46ee      	mov	lr, sp
            a += 11;
  400b2c:	46b4      	mov	ip, r6
            for (k = 0; k < 8; k++) {
  400b2e:	2700      	movs	r7, #0
                r->vec[i].coeffs[8 * j + k] = ((uint32_t)(t[k] & 0x7FF) * KYBER_Q + 1024) >> 11;
  400b30:	f83e 2b02 	ldrh.w	r2, [lr], #2
  400b34:	f3c2 020a 	ubfx	r2, r2, #0, #11
  400b38:	fb09 f202 	mul.w	r2, r9, r2
  400b3c:	f502 6280 	add.w	r2, r2, #1024	@ 0x400
            for (k = 0; k < 8; k++) {
  400b40:	3701      	adds	r7, #1
                r->vec[i].coeffs[8 * j + k] = ((uint32_t)(t[k] & 0x7FF) * KYBER_Q + 1024) >> 11;
  400b42:	0ad2      	lsrs	r2, r2, #11
            for (k = 0; k < 8; k++) {
  400b44:	2f08      	cmp	r7, #8
                r->vec[i].coeffs[8 * j + k] = ((uint32_t)(t[k] & 0x7FF) * KYBER_Q + 1024) >> 11;
  400b46:	f82c 2b02 	strh.w	r2, [ip], #2
            for (k = 0; k < 8; k++) {
  400b4a:	d1f1      	bne.n	400b30 <PQCLEAN_MLKEM1024_CLEAN_polyvec_decompress+0x94>
        for (j = 0; j < KYBER_N / 8; j++) {
  400b4c:	3508      	adds	r5, #8
  400b4e:	f5b5 7f80 	cmp.w	r5, #256	@ 0x100
  400b52:	f106 0610 	add.w	r6, r6, #16
  400b56:	d1ae      	bne.n	400ab6 <PQCLEAN_MLKEM1024_CLEAN_polyvec_decompress+0x1a>
    for (i = 0; i < KYBER_K; i++) {
  400b58:	3420      	adds	r4, #32
  400b5a:	2c80      	cmp	r4, #128	@ 0x80
  400b5c:	d1a6      	bne.n	400aac <PQCLEAN_MLKEM1024_CLEAN_polyvec_decompress+0x10>
            }
        }
    }
}
  400b5e:	b005      	add	sp, #20
  400b60:	e8bd 83f0 	ldmia.w	sp!, {r4, r5, r6, r7, r8, r9, pc}

00400b64 <PQCLEAN_MLKEM1024_CLEAN_polyvec_tobytes>:
*
* Arguments:   - uint8_t *r: pointer to output byte array
*                            (needs space for KYBER_POLYVECBYTES)
*              - const polyvec *a: pointer to input vector of polynomials
**************************************************/
void PQCLEAN_MLKEM1024_CLEAN_polyvec_tobytes(uint8_t r[KYBER_POLYVECBYTES], const polyvec *a) {
  400b64:	b5f8      	push	{r3, r4, r5, r6, r7, lr}
    unsigned int i;
    for (i = 0; i < KYBER_K; i++) {
        PQCLEAN_MLKEM1024_CLEAN_poly_tobytes(r + i * KYBER_POLYBYTES, &a->vec[i]);
  400b66:	4f07      	ldr	r7, [pc, #28]	@ (400b84 <PQCLEAN_MLKEM1024_CLEAN_polyvec_tobytes+0x20>)
  400b68:	4604      	mov	r4, r0
  400b6a:	460d      	mov	r5, r1
  400b6c:	f500 66c0 	add.w	r6, r0, #1536	@ 0x600
  400b70:	4629      	mov	r1, r5
  400b72:	4620      	mov	r0, r4
    for (i = 0; i < KYBER_K; i++) {
  400b74:	f504 74c0 	add.w	r4, r4, #384	@ 0x180
        PQCLEAN_MLKEM1024_CLEAN_poly_tobytes(r + i * KYBER_POLYBYTES, &a->vec[i]);
  400b78:	47b8      	blx	r7
    for (i = 0; i < KYBER_K; i++) {
  400b7a:	42b4      	cmp	r4, r6
  400b7c:	f505 7500 	add.w	r5, r5, #512	@ 0x200
  400b80:	d1f6      	bne.n	400b70 <PQCLEAN_MLKEM1024_CLEAN_polyvec_tobytes+0xc>
    }
}
  400b82:	bdf8      	pop	{r3, r4, r5, r6, r7, pc}
  400b84:	00400773 	.word	0x00400773

00400b88 <PQCLEAN_MLKEM1024_CLEAN_polyvec_frombytes>:
*
* Arguments:   - uint8_t *r:       pointer to output byte array
*              - const polyvec *a: pointer to input vector of polynomials
*                                  (of length KYBER_POLYVECBYTES)
**************************************************/
void PQCLEAN_MLKEM1024_CLEAN_polyvec_frombytes(polyvec *r, const uint8_t a[KYBER_POLYVECBYTES]) {
  400b88:	b5f8      	push	{r3, r4, r5, r6, r7, lr}
    unsigned int i;
    for (i = 0; i < KYBER_K; i++) {
        PQCLEAN_MLKEM1024_CLEAN_poly_frombytes(&r->vec[i], a + i * KYBER_POLYBYTES);
  400b8a:	4f07      	ldr	r7, [pc, #28]	@ (400ba8 <PQCLEAN_MLKEM1024_CLEAN_polyvec_frombytes+0x20>)
  400b8c:	4604      	mov	r4, r0
  400b8e:	460d      	mov	r5, r1
  400b90:	f500 6600 	add.w	r6, r0, #2048	@ 0x800
  400b94:	4629      	mov	r1, r5
  400b96:	4620      	mov	r0, r4
    for (i = 0; i < KYBER_K; i++) {
  400b98:	f504 7400 	add.w	r4, r4, #512	@ 0x200
        PQCLEAN_MLKEM1024_CLEAN_poly_frombytes(&r->vec[i], a + i * KYBER_POLYBYTES);
  400b9c:	47b8      	blx	r7
    for (i = 0; i < KYBER_K; i++) {
  400b9e:	42b4      	cmp	r4, r6
  400ba0:	f505 75c0 	add.w	r5, r5, #384	@ 0x180
  400ba4:	d1f6      	bne.n	400b94 <PQCLEAN_MLKEM1024_CLEAN_polyvec_frombytes+0xc>
    }
}
  400ba6:	bdf8      	pop	{r3, r4, r5, r6, r7, pc}
  400ba8:	004007b7 	.word	0x004007b7

00400bac <PQCLEAN_MLKEM1024_CLEAN_polyvec_ntt>:
*
* Description: Apply forward NTT to all elements of a vector of polynomials
*
* Arguments:   - polyvec *r: pointer to in/output vector of polynomials
**************************************************/
void PQCLEAN_MLKEM1024_CLEAN_polyvec_ntt(polyvec *r) {
  400bac:	b570      	push	{r4, r5, r6, lr}
    unsigned int i;
    for (i = 0; i < KYBER_K; i++) {
        PQCLEAN_MLKEM1024_CLEAN_poly_ntt(&r->vec[i]);
  400bae:	4d07      	ldr	r5, [pc, #28]	@ (400bcc <PQCLEAN_MLKEM1024_CLEAN_polyvec_ntt+0x20>)
void PQCLEAN_MLKEM1024_CLEAN_polyvec_ntt(polyvec *r) {
  400bb0:	4604      	mov	r4, r0
        PQCLEAN_MLKEM1024_CLEAN_poly_ntt(&r->vec[i]);
  400bb2:	47a8      	blx	r5
  400bb4:	f504 7000 	add.w	r0, r4, #512	@ 0x200
  400bb8:	47a8      	blx	r5
  400bba:	f504 6080 	add.w	r0, r4, #1024	@ 0x400
  400bbe:	47a8      	blx	r5
  400bc0:	f504 60c0 	add.w	r0, r4, #1536	@ 0x600
  400bc4:	462b      	mov	r3, r5
    }
}
  400bc6:	e8bd 4070 	ldmia.w	sp!, {r4, r5, r6, lr}
        PQCLEAN_MLKEM1024_CLEAN_poly_ntt(&r->vec[i]);
  400bca:	4718      	bx	r3
  400bcc:	00400955 	.word	0x00400955

00400bd0 <PQCLEAN_MLKEM1024_CLEAN_polyvec_invntt_tomont>:
* Description: Apply inverse NTT to all elements of a vector of polynomials
*              and multiply by Montgomery factor 2^16
*
* Arguments:   - polyvec *r: pointer to in/output vector of polynomials
**************************************************/
void PQCLEAN_MLKEM1024_CLEAN_polyvec_invntt_tomont(polyvec *r) {
  400bd0:	b570      	push	{r4, r5, r6, lr}
    unsigned int i;
    for (i = 0; i < KYBER_K; i++) {
        PQCLEAN_MLKEM1024_CLEAN_poly_invntt_tomont(&r->vec[i]);
  400bd2:	4d07      	ldr	r5, [pc, #28]	@ (400bf0 <PQCLEAN_MLKEM1024_CLEAN_polyvec_invntt_tomont+0x20>)
void PQCLEAN_MLKEM1024_CLEAN_polyvec_invntt_tomont(polyvec *r) {
  400bd4:	4604      	mov	r4, r0
        PQCLEAN_MLKEM1024_CLEAN_poly_invntt_tomont(&r->vec[i]);
  400bd6:	47a8      	blx	r5
  400bd8:	f504 7000 	add.w	r0, r4, #512	@ 0x200
  400bdc:	47a8      	blx	r5
  400bde:	f504 6080 	add.w	r0, r4, #1024	@ 0x400
  400be2:	47a8      	blx	r5
  400be4:	f504 60c0 	add.w	r0, r4, #1536	@ 0x600
  400be8:	462b      	mov	r3, r5
    }
}
  400bea:	e8bd 4070 	ldmia.w	sp!, {r4, r5, r6, lr}
        PQCLEAN_MLKEM1024_CLEAN_poly_invntt_tomont(&r->vec[i]);
  400bee:	4718      	bx	r3
  400bf0:	004008c1 	.word	0x004008c1

00400bf4 <PQCLEAN_MLKEM1024_CLEAN_polyvec_basemul_acc_montgomery>:
*
* Arguments: - poly *r: pointer to output polynomial
*            - const polyvec *a: pointer to first input vector of polynomials
*            - const polyvec *b: pointer to second input vector of polynomials
**************************************************/
void PQCLEAN_MLKEM1024_CLEAN_polyvec_basemul_acc_montgomery(poly *r, const polyvec *a, const polyvec *b) {
  400bf4:	e92d 43f0 	stmdb	sp!, {r4, r5, r6, r7, r8, r9, lr}
    unsigned int i;
    poly t;

    PQCLEAN_MLKEM1024_CLEAN_poly_basemul_montgomery(r, &a->vec[0], &b->vec[0]);
  400bf8:	4e0f      	ldr	r6, [pc, #60]	@ (400c38 <PQCLEAN_MLKEM1024_CLEAN_polyvec_basemul_acc_montgomery+0x44>)
    for (i = 1; i < KYBER_K; i++) {
        PQCLEAN_MLKEM1024_CLEAN_poly_basemul_montgomery(&t, &a->vec[i], &b->vec[i]);
        PQCLEAN_MLKEM1024_CLEAN_poly_add(r, r, &t);
  400bfa:	f8df 9040 	ldr.w	r9, [pc, #64]	@ 400c3c <PQCLEAN_MLKEM1024_CLEAN_polyvec_basemul_acc_montgomery+0x48>
void PQCLEAN_MLKEM1024_CLEAN_polyvec_basemul_acc_montgomery(poly *r, const polyvec *a, const polyvec *b) {
  400bfe:	f5ad 7d01 	sub.w	sp, sp, #516	@ 0x204
  400c02:	4604      	mov	r4, r0
  400c04:	460f      	mov	r7, r1
  400c06:	4690      	mov	r8, r2
    PQCLEAN_MLKEM1024_CLEAN_poly_basemul_montgomery(r, &a->vec[0], &b->vec[0]);
  400c08:	47b0      	blx	r6
  400c0a:	f44f 7500 	mov.w	r5, #512	@ 0x200
        PQCLEAN_MLKEM1024_CLEAN_poly_basemul_montgomery(&t, &a->vec[i], &b->vec[i]);
  400c0e:	eb08 0205 	add.w	r2, r8, r5
  400c12:	1979      	adds	r1, r7, r5
  400c14:	4668      	mov	r0, sp
  400c16:	47b0      	blx	r6
    for (i = 1; i < KYBER_K; i++) {
  400c18:	f505 7500 	add.w	r5, r5, #512	@ 0x200
        PQCLEAN_MLKEM1024_CLEAN_poly_add(r, r, &t);
  400c1c:	466a      	mov	r2, sp
  400c1e:	4621      	mov	r1, r4
  400c20:	4620      	mov	r0, r4
  400c22:	47c8      	blx	r9
    for (i = 1; i < KYBER_K; i++) {
  400c24:	f5b5 6f00 	cmp.w	r5, #2048	@ 0x800
  400c28:	d1f1      	bne.n	400c0e <PQCLEAN_MLKEM1024_CLEAN_polyvec_basemul_acc_montgomery+0x1a>
    }

    PQCLEAN_MLKEM1024_CLEAN_poly_reduce(r);
  400c2a:	4b05      	ldr	r3, [pc, #20]	@ (400c40 <PQCLEAN_MLKEM1024_CLEAN_polyvec_basemul_acc_montgomery+0x4c>)
  400c2c:	4620      	mov	r0, r4
  400c2e:	4798      	blx	r3
}
  400c30:	f50d 7d01 	add.w	sp, sp, #516	@ 0x204
  400c34:	e8bd 83f0 	ldmia.w	sp!, {r4, r5, r6, r7, r8, r9, pc}
  400c38:	004008c9 	.word	0x004008c9
  400c3c:	00400971 	.word	0x00400971
  400c40:	00400939 	.word	0x00400939

00400c44 <PQCLEAN_MLKEM1024_CLEAN_polyvec_reduce>:
*              of each element of a vector of polynomials;
*              for details of the Barrett reduction see comments in reduce.c
*
* Arguments:   - polyvec *r: pointer to input/output polynomial
**************************************************/
void PQCLEAN_MLKEM1024_CLEAN_polyvec_reduce(polyvec *r) {
  400c44:	b570      	push	{r4, r5, r6, lr}
    unsigned int i;
    for (i = 0; i < KYBER_K; i++) {
        PQCLEAN_MLKEM1024_CLEAN_poly_reduce(&r->vec[i]);
  400c46:	4d07      	ldr	r5, [pc, #28]	@ (400c64 <PQCLEAN_MLKEM1024_CLEAN_polyvec_reduce+0x20>)
void PQCLEAN_MLKEM1024_CLEAN_polyvec_reduce(polyvec *r) {
  400c48:	4604      	mov	r4, r0
        PQCLEAN_MLKEM1024_CLEAN_poly_reduce(&r->vec[i]);
  400c4a:	47a8      	blx	r5
  400c4c:	f504 7000 	add.w	r0, r4, #512	@ 0x200
  400c50:	47a8      	blx	r5
  400c52:	f504 6080 	add.w	r0, r4, #1024	@ 0x400
  400c56:	47a8      	blx	r5
  400c58:	f504 60c0 	add.w	r0, r4, #1536	@ 0x600
  400c5c:	462b      	mov	r3, r5
    }
}
  400c5e:	e8bd 4070 	ldmia.w	sp!, {r4, r5, r6, lr}
        PQCLEAN_MLKEM1024_CLEAN_poly_reduce(&r->vec[i]);
  400c62:	4718      	bx	r3
  400c64:	00400939 	.word	0x00400939

00400c68 <PQCLEAN_MLKEM1024_CLEAN_polyvec_add>:
*
* Arguments: - polyvec *r: pointer to output vector of polynomials
*            - const polyvec *a: pointer to first input vector of polynomials
*            - const polyvec *b: pointer to second input vector of polynomials
**************************************************/
void PQCLEAN_MLKEM1024_CLEAN_polyvec_add(polyvec *r, const polyvec *a, const polyvec *b) {
  400c68:	e92d 41f0 	stmdb	sp!, {r4, r5, r6, r7, r8, lr}
    unsigned int i;
    for (i = 0; i < KYBER_K; i++) {
        PQCLEAN_MLKEM1024_CLEAN_poly_add(&r->vec[i], &a->vec[i], &b->vec[i]);
  400c6c:	f8df 8020 	ldr.w	r8, [pc, #32]	@ 400c90 <PQCLEAN_MLKEM1024_CLEAN_polyvec_add+0x28>
void PQCLEAN_MLKEM1024_CLEAN_polyvec_add(polyvec *r, const polyvec *a, const polyvec *b) {
  400c70:	4605      	mov	r5, r0
  400c72:	460e      	mov	r6, r1
  400c74:	4617      	mov	r7, r2
  400c76:	2400      	movs	r4, #0
        PQCLEAN_MLKEM1024_CLEAN_poly_add(&r->vec[i], &a->vec[i], &b->vec[i]);
  400c78:	193a      	adds	r2, r7, r4
  400c7a:	1931      	adds	r1, r6, r4
  400c7c:	1928      	adds	r0, r5, r4
    for (i = 0; i < KYBER_K; i++) {
  400c7e:	f504 7400 	add.w	r4, r4, #512	@ 0x200
        PQCLEAN_MLKEM1024_CLEAN_poly_add(&r->vec[i], &a->vec[i], &b->vec[i]);
  400c82:	47c0      	blx	r8
    for (i = 0; i < KYBER_K; i++) {
  400c84:	f5b4 6f00 	cmp.w	r4, #2048	@ 0x800
  400c88:	d1f6      	bne.n	400c78 <PQCLEAN_MLKEM1024_CLEAN_polyvec_add+0x10>
    }
}
  400c8a:	e8bd 81f0 	ldmia.w	sp!, {r4, r5, r6, r7, r8, pc}
  400c8e:	bf00      	nop
  400c90:	00400971 	.word	0x00400971

00400c94 <PQCLEAN_MLKEM1024_CLEAN_ntt>:
* Description: Inplace number-theoretic transform (NTT) in Rq.
*              input is in standard order, output is in bitreversed order
*
* Arguments:   - int16_t r[256]: pointer to input/output vector of elements of Zq
**************************************************/
void PQCLEAN_MLKEM1024_CLEAN_ntt(int16_t r[256]) {
  400c94:	e92d 4ff0 	stmdb	sp!, {r4, r5, r6, r7, r8, r9, sl, fp, lr}
  400c98:	4606      	mov	r6, r0
  400c9a:	b085      	sub	sp, #20

    k = 1;
    for (len = 128; len >= 2; len >>= 1) {
        for (start = 0; start < 256; start = j + len) {
            zeta = PQCLEAN_MLKEM1024_CLEAN_zetas[k++];
            for (j = start; j < start + len; j++) {
  400c9c:	f04f 0907 	mov.w	r9, #7
    k = 1;
  400ca0:	f04f 0801 	mov.w	r8, #1
    for (len = 128; len >= 2; len >>= 1) {
  400ca4:	2580      	movs	r5, #128	@ 0x80
        for (start = 0; start < 256; start = j + len) {
  400ca6:	4b1f      	ldr	r3, [pc, #124]	@ (400d24 <PQCLEAN_MLKEM1024_CLEAN_ntt+0x90>)
  400ca8:	eb03 0248 	add.w	r2, r3, r8, lsl #1
  400cac:	1c6b      	adds	r3, r5, #1
  400cae:	2400      	movs	r4, #0
  400cb0:	9300      	str	r3, [sp, #0]
            for (j = start; j < start + len; j++) {
  400cb2:	eb05 0a04 	add.w	sl, r5, r4
            zeta = PQCLEAN_MLKEM1024_CLEAN_zetas[k++];
  400cb6:	f932 1b02 	ldrsh.w	r1, [r2], #2
  400cba:	f108 0801 	add.w	r8, r8, #1
            for (j = start; j < start + len; j++) {
  400cbe:	eb06 034a 	add.w	r3, r6, sl, lsl #1
  400cc2:	eb06 0744 	add.w	r7, r6, r4, lsl #1
  400cc6:	46a3      	mov	fp, r4
                t = fqmul(zeta, r[j + len]);
  400cc8:	f9b3 0000 	ldrsh.w	r0, [r3]
  400ccc:	9302      	str	r3, [sp, #8]
    return PQCLEAN_MLKEM1024_CLEAN_montgomery_reduce((int32_t)a * b);
  400cce:	4348      	muls	r0, r1
  400cd0:	4b15      	ldr	r3, [pc, #84]	@ (400d28 <PQCLEAN_MLKEM1024_CLEAN_ntt+0x94>)
  400cd2:	9203      	str	r2, [sp, #12]
  400cd4:	9101      	str	r1, [sp, #4]
  400cd6:	4798      	blx	r3
                r[j + len] = r[j] - t;
  400cd8:	f9b7 c000 	ldrsh.w	ip, [r7]
  400cdc:	9b02      	ldr	r3, [sp, #8]
            for (j = start; j < start + len; j++) {
  400cde:	9901      	ldr	r1, [sp, #4]
  400ce0:	9a03      	ldr	r2, [sp, #12]
                r[j + len] = r[j] - t;
  400ce2:	b280      	uxth	r0, r0
  400ce4:	ebac 0c00 	sub.w	ip, ip, r0
  400ce8:	f823 cb02 	strh.w	ip, [r3], #2
                r[j] = r[j] + t;
  400cec:	f837 cb02 	ldrh.w	ip, [r7], #2
            for (j = start; j < start + len; j++) {
  400cf0:	f10b 0b01 	add.w	fp, fp, #1
                r[j] = r[j] + t;
  400cf4:	4460      	add	r0, ip
            for (j = start; j < start + len; j++) {
  400cf6:	45d3      	cmp	fp, sl
                r[j] = r[j] + t;
  400cf8:	f827 0c02 	strh.w	r0, [r7, #-2]
            for (j = start; j < start + len; j++) {
  400cfc:	d3e4      	bcc.n	400cc8 <PQCLEAN_MLKEM1024_CLEAN_ntt+0x34>
  400cfe:	1c61      	adds	r1, r4, #1
  400d00:	1e6b      	subs	r3, r5, #1
  400d02:	458a      	cmp	sl, r1
  400d04:	bf38      	it	cc
  400d06:	2300      	movcc	r3, #0
  400d08:	9900      	ldr	r1, [sp, #0]
  400d0a:	440c      	add	r4, r1
        for (start = 0; start < 256; start = j + len) {
  400d0c:	441c      	add	r4, r3
  400d0e:	2cff      	cmp	r4, #255	@ 0xff
  400d10:	d9cf      	bls.n	400cb2 <PQCLEAN_MLKEM1024_CLEAN_ntt+0x1e>
    for (len = 128; len >= 2; len >>= 1) {
  400d12:	f1b9 0901 	subs.w	r9, r9, #1
  400d16:	ea4f 0555 	mov.w	r5, r5, lsr #1
  400d1a:	d1c4      	bne.n	400ca6 <PQCLEAN_MLKEM1024_CLEAN_ntt+0x12>
            }
        }
    }
}
  400d1c:	b005      	add	sp, #20
  400d1e:	e8bd 8ff0 	ldmia.w	sp!, {r4, r5, r6, r7, r8, r9, sl, fp, pc}
  400d22:	bf00      	nop
  400d24:	00403368 	.word	0x00403368
  400d28:	004025c9 	.word	0x004025c9

00400d2c <PQCLEAN_MLKEM1024_CLEAN_invntt>:
*              multiplication by Montgomery factor 2^16.
*              Input is in bitreversed order, output is in standard order
*
* Arguments:   - int16_t r[256]: pointer to input/output vector of elements of Zq
**************************************************/
void PQCLEAN_MLKEM1024_CLEAN_invntt(int16_t r[256]) {
  400d2c:	e92d 4ff0 	stmdb	sp!, {r4, r5, r6, r7, r8, r9, sl, fp, lr}
  400d30:	4604      	mov	r4, r0
  400d32:	b085      	sub	sp, #20
    int16_t t, zeta;
    const int16_t f = 1441; // mont^2/128

    k = 127;
    for (len = 2; len <= 128; len <<= 1) {
        for (start = 0; start < 256; start = j + len) {
  400d34:	f04f 0907 	mov.w	r9, #7
    k = 127;
  400d38:	f04f 087f 	mov.w	r8, #127	@ 0x7f
    for (len = 2; len <= 128; len <<= 1) {
  400d3c:	2702      	movs	r7, #2
        for (start = 0; start < 256; start = j + len) {
  400d3e:	4b23      	ldr	r3, [pc, #140]	@ (400dcc <PQCLEAN_MLKEM1024_CLEAN_invntt+0xa0>)
  400d40:	2500      	movs	r5, #0
  400d42:	eb03 0248 	add.w	r2, r3, r8, lsl #1
            zeta = PQCLEAN_MLKEM1024_CLEAN_zetas[k--];
  400d46:	f932 3902 	ldrsh.w	r3, [r2], #-2
  400d4a:	9301      	str	r3, [sp, #4]
  400d4c:	eb05 0a07 	add.w	sl, r5, r7
  400d50:	f108 38ff 	add.w	r8, r8, #4294967295	@ 0xffffffff
            for (j = start; j < start + len; j++) {
  400d54:	eb04 0b45 	add.w	fp, r4, r5, lsl #1
  400d58:	eb04 064a 	add.w	r6, r4, sl, lsl #1
  400d5c:	4555      	cmp	r5, sl
  400d5e:	d318      	bcc.n	400d92 <PQCLEAN_MLKEM1024_CLEAN_invntt+0x66>
  400d60:	eb07 050a 	add.w	r5, r7, sl
        for (start = 0; start < 256; start = j + len) {
  400d64:	2dff      	cmp	r5, #255	@ 0xff
  400d66:	d9ee      	bls.n	400d46 <PQCLEAN_MLKEM1024_CLEAN_invntt+0x1a>
    for (len = 2; len <= 128; len <<= 1) {
  400d68:	f1b9 0901 	subs.w	r9, r9, #1
  400d6c:	ea4f 0747 	mov.w	r7, r7, lsl #1
  400d70:	d1e5      	bne.n	400d3e <PQCLEAN_MLKEM1024_CLEAN_invntt+0x12>
    return PQCLEAN_MLKEM1024_CLEAN_montgomery_reduce((int32_t)a * b);
  400d72:	4e17      	ldr	r6, [pc, #92]	@ (400dd0 <PQCLEAN_MLKEM1024_CLEAN_invntt+0xa4>)
  400d74:	1ea5      	subs	r5, r4, #2
  400d76:	f240 57a1 	movw	r7, #1441	@ 0x5a1
  400d7a:	f504 74ff 	add.w	r4, r4, #510	@ 0x1fe
  400d7e:	f935 0f02 	ldrsh.w	r0, [r5, #2]!
  400d82:	4378      	muls	r0, r7
  400d84:	47b0      	blx	r6
                r[j + len] = fqmul(zeta, r[j + len]);
            }
        }
    }

    for (j = 0; j < 256; j++) {
  400d86:	42a5      	cmp	r5, r4
        r[j] = fqmul(r[j], f);
  400d88:	8028      	strh	r0, [r5, #0]
    for (j = 0; j < 256; j++) {
  400d8a:	d1f8      	bne.n	400d7e <PQCLEAN_MLKEM1024_CLEAN_invntt+0x52>
    }
}
  400d8c:	b005      	add	sp, #20
  400d8e:	e8bd 8ff0 	ldmia.w	sp!, {r4, r5, r6, r7, r8, r9, sl, fp, pc}
                r[j] = PQCLEAN_MLKEM1024_CLEAN_barrett_reduce(t + r[j + len]);
  400d92:	f8bb 1000 	ldrh.w	r1, [fp]
  400d96:	f9b6 0000 	ldrsh.w	r0, [r6]
  400d9a:	4b0e      	ldr	r3, [pc, #56]	@ (400dd4 <PQCLEAN_MLKEM1024_CLEAN_invntt+0xa8>)
  400d9c:	9203      	str	r2, [sp, #12]
  400d9e:	4408      	add	r0, r1
  400da0:	b200      	sxth	r0, r0
  400da2:	9102      	str	r1, [sp, #8]
  400da4:	4798      	blx	r3
  400da6:	f82b 0b02 	strh.w	r0, [fp], #2
                r[j + len] = r[j + len] - t;
  400daa:	9902      	ldr	r1, [sp, #8]
  400dac:	f836 0b02 	ldrh.w	r0, [r6], #2
    return PQCLEAN_MLKEM1024_CLEAN_montgomery_reduce((int32_t)a * b);
  400db0:	9b01      	ldr	r3, [sp, #4]
                r[j + len] = r[j + len] - t;
  400db2:	1a40      	subs	r0, r0, r1
  400db4:	b200      	sxth	r0, r0
  400db6:	f826 0c02 	strh.w	r0, [r6, #-2]
    return PQCLEAN_MLKEM1024_CLEAN_montgomery_reduce((int32_t)a * b);
  400dba:	4358      	muls	r0, r3
  400dbc:	4b04      	ldr	r3, [pc, #16]	@ (400dd0 <PQCLEAN_MLKEM1024_CLEAN_invntt+0xa4>)
  400dbe:	4798      	blx	r3
            for (j = start; j < start + len; j++) {
  400dc0:	3501      	adds	r5, #1
  400dc2:	9a03      	ldr	r2, [sp, #12]
                r[j + len] = fqmul(zeta, r[j + len]);
  400dc4:	f826 0c02 	strh.w	r0, [r6, #-2]
            for (j = start; j < start + len; j++) {
  400dc8:	e7c8      	b.n	400d5c <PQCLEAN_MLKEM1024_CLEAN_invntt+0x30>
  400dca:	bf00      	nop
  400dcc:	00403368 	.word	0x00403368
  400dd0:	004025c9 	.word	0x004025c9
  400dd4:	004025e5 	.word	0x004025e5

00400dd8 <PQCLEAN_MLKEM1024_CLEAN_basemul>:
* Arguments:   - int16_t r[2]: pointer to the output polynomial
*              - const int16_t a[2]: pointer to the first factor
*              - const int16_t b[2]: pointer to the second factor
*              - int16_t zeta: integer defining the reduction polynomial
**************************************************/
void PQCLEAN_MLKEM1024_CLEAN_basemul(int16_t r[2], const int16_t a[2], const int16_t b[2], int16_t zeta) {
  400dd8:	e92d 41f0 	stmdb	sp!, {r4, r5, r6, r7, r8, lr}
  400ddc:	4604      	mov	r4, r0
  400dde:	4698      	mov	r8, r3
    return PQCLEAN_MLKEM1024_CLEAN_montgomery_reduce((int32_t)a * b);
  400de0:	8848      	ldrh	r0, [r1, #2]
  400de2:	8853      	ldrh	r3, [r2, #2]
  400de4:	4f11      	ldr	r7, [pc, #68]	@ (400e2c <PQCLEAN_MLKEM1024_CLEAN_basemul+0x54>)
  400de6:	fb10 f003 	smulbb	r0, r0, r3
void PQCLEAN_MLKEM1024_CLEAN_basemul(int16_t r[2], const int16_t a[2], const int16_t b[2], int16_t zeta) {
  400dea:	460e      	mov	r6, r1
  400dec:	4615      	mov	r5, r2
    return PQCLEAN_MLKEM1024_CLEAN_montgomery_reduce((int32_t)a * b);
  400dee:	47b8      	blx	r7
    r[0]  = fqmul(a[1], b[1]);
  400df0:	8020      	strh	r0, [r4, #0]
    return PQCLEAN_MLKEM1024_CLEAN_montgomery_reduce((int32_t)a * b);
  400df2:	fb00 f008 	mul.w	r0, r0, r8
  400df6:	47b8      	blx	r7
    r[0]  = fqmul(r[0], zeta);
  400df8:	8020      	strh	r0, [r4, #0]
    return PQCLEAN_MLKEM1024_CLEAN_montgomery_reduce((int32_t)a * b);
  400dfa:	882b      	ldrh	r3, [r5, #0]
  400dfc:	8830      	ldrh	r0, [r6, #0]
  400dfe:	fb10 f003 	smulbb	r0, r0, r3
  400e02:	47b8      	blx	r7
    r[0] += fqmul(a[0], b[0]);
  400e04:	8823      	ldrh	r3, [r4, #0]
  400e06:	4418      	add	r0, r3
  400e08:	8020      	strh	r0, [r4, #0]
    return PQCLEAN_MLKEM1024_CLEAN_montgomery_reduce((int32_t)a * b);
  400e0a:	886b      	ldrh	r3, [r5, #2]
  400e0c:	8830      	ldrh	r0, [r6, #0]
  400e0e:	fb10 f003 	smulbb	r0, r0, r3
  400e12:	47b8      	blx	r7
    r[1]  = fqmul(a[0], b[1]);
  400e14:	8060      	strh	r0, [r4, #2]
    return PQCLEAN_MLKEM1024_CLEAN_montgomery_reduce((int32_t)a * b);
  400e16:	882b      	ldrh	r3, [r5, #0]
  400e18:	8870      	ldrh	r0, [r6, #2]
  400e1a:	fb10 f003 	smulbb	r0, r0, r3
  400e1e:	47b8      	blx	r7
    r[1] += fqmul(a[1], b[0]);
  400e20:	8863      	ldrh	r3, [r4, #2]
  400e22:	4418      	add	r0, r3
  400e24:	8060      	strh	r0, [r4, #2]
}
  400e26:	e8bd 81f0 	ldmia.w	sp!, {r4, r5, r6, r7, r8, pc}
  400e2a:	bf00      	nop
  400e2c:	004025c9 	.word	0x004025c9

00400e30 <rej_uniform>:
* Returns number of sampled 16-bit integers (at most len)
**************************************************/
static unsigned int rej_uniform(int16_t *r,
                                unsigned int len,
                                const uint8_t *buf,
                                unsigned int buflen) {
  400e30:	b5f0      	push	{r4, r5, r6, r7, lr}
  400e32:	4607      	mov	r7, r0
    unsigned int ctr, pos;
    uint16_t val0, val1;

    ctr = pos = 0;
    while (ctr < len && pos + 3 <= buflen) {
  400e34:	f1c2 0e03 	rsb	lr, r2, #3
    ctr = pos = 0;
  400e38:	2000      	movs	r0, #0
        val0 = ((buf[pos + 0] >> 0) | ((uint16_t)buf[pos + 1] << 8)) & 0xFFF;
  400e3a:	f892 c001 	ldrb.w	ip, [r2, #1]
  400e3e:	7816      	ldrb	r6, [r2, #0]
        val1 = ((buf[pos + 1] >> 4) | ((uint16_t)buf[pos + 2] << 4)) & 0xFFF;
  400e40:	7895      	ldrb	r5, [r2, #2]
        val0 = ((buf[pos + 0] >> 0) | ((uint16_t)buf[pos + 1] << 8)) & 0xFFF;
  400e42:	ea46 260c 	orr.w	r6, r6, ip, lsl #8
  400e46:	f3c6 060b 	ubfx	r6, r6, #0, #12
        pos += 3;

        if (val0 < KYBER_Q) {
  400e4a:	f5b6 6f50 	cmp.w	r6, #3328	@ 0xd00
            r[ctr++] = val0;
  400e4e:	bfd6      	itet	le
  400e50:	1c44      	addle	r4, r0, #1
  400e52:	4604      	movgt	r4, r0
  400e54:	f827 6010 	strhle.w	r6, [r7, r0, lsl #1]
        }
        if (ctr < len && val1 < KYBER_Q) {
  400e58:	428c      	cmp	r4, r1
  400e5a:	d212      	bcs.n	400e82 <rej_uniform+0x52>
        val1 = ((buf[pos + 1] >> 4) | ((uint16_t)buf[pos + 2] << 4)) & 0xFFF;
  400e5c:	012d      	lsls	r5, r5, #4
  400e5e:	ea45 151c 	orr.w	r5, r5, ip, lsr #4
        if (ctr < len && val1 < KYBER_Q) {
  400e62:	f5b5 6f50 	cmp.w	r5, #3328	@ 0xd00
  400e66:	dc05      	bgt.n	400e74 <rej_uniform+0x44>
            r[ctr++] = val1;
  400e68:	1c60      	adds	r0, r4, #1
    while (ctr < len && pos + 3 <= buflen) {
  400e6a:	4281      	cmp	r1, r0
            r[ctr++] = val1;
  400e6c:	f827 5014 	strh.w	r5, [r7, r4, lsl #1]
    while (ctr < len && pos + 3 <= buflen) {
  400e70:	d801      	bhi.n	400e76 <rej_uniform+0x46>
        }
    }

    return ctr;
}
  400e72:	bdf0      	pop	{r4, r5, r6, r7, pc}
  400e74:	4620      	mov	r0, r4
    while (ctr < len && pos + 3 <= buflen) {
  400e76:	3203      	adds	r2, #3
  400e78:	eb0e 0402 	add.w	r4, lr, r2
  400e7c:	42a3      	cmp	r3, r4
  400e7e:	d2dc      	bcs.n	400e3a <rej_uniform+0xa>
  400e80:	e7f7      	b.n	400e72 <rej_uniform+0x42>
  400e82:	4620      	mov	r0, r4
    return ctr;
  400e84:	e7f5      	b.n	400e72 <rej_uniform+0x42>
  400e86:	0000      	movs	r0, r0

00400e88 <PQCLEAN_MLKEM1024_CLEAN_gen_matrix>:
*              - int transposed: boolean deciding whether A or A^T is generated
**************************************************/

#define GEN_MATRIX_NBLOCKS ((12*KYBER_N/8*(1 << 12)/KYBER_Q + XOF_BLOCKBYTES)/XOF_BLOCKBYTES)
// Not static for benchmarking
void PQCLEAN_MLKEM1024_CLEAN_gen_matrix(polyvec *a, const uint8_t seed[KYBER_SYMBYTES], int transposed) {
  400e88:	e92d 4ff0 	stmdb	sp!, {r4, r5, r6, r7, r8, r9, sl, fp, lr}
  400e8c:	f5ad 7d33 	sub.w	sp, sp, #716	@ 0x2cc
                xof_absorb(&state, seed, (uint8_t)i, (uint8_t)j);
            } else {
                xof_absorb(&state, seed, (uint8_t)j, (uint8_t)i);
            }

            xof_squeezeblocks(buf, GEN_MATRIX_NBLOCKS, &state);
  400e90:	f8df 9080 	ldr.w	r9, [pc, #128]	@ 400f14 <PQCLEAN_MLKEM1024_CLEAN_gen_matrix+0x8c>
            buflen = GEN_MATRIX_NBLOCKS * XOF_BLOCKBYTES;
            ctr = rej_uniform(a[i].vec[j].coeffs, KYBER_N, buf, buflen);
  400e94:	f8df a080 	ldr.w	sl, [pc, #128]	@ 400f18 <PQCLEAN_MLKEM1024_CLEAN_gen_matrix+0x90>
void PQCLEAN_MLKEM1024_CLEAN_gen_matrix(polyvec *a, const uint8_t seed[KYBER_SYMBYTES], int transposed) {
  400e98:	9000      	str	r0, [sp, #0]
  400e9a:	460f      	mov	r7, r1
  400e9c:	9201      	str	r2, [sp, #4]
    for (i = 0; i < KYBER_K; i++) {
  400e9e:	2600      	movs	r6, #0
        for (j = 0; j < KYBER_K; j++) {
  400ea0:	9b00      	ldr	r3, [sp, #0]
  400ea2:	2500      	movs	r5, #0
  400ea4:	eb03 28c6 	add.w	r8, r3, r6, lsl #11
            if (transposed) {
  400ea8:	9b01      	ldr	r3, [sp, #4]
  400eaa:	4c1c      	ldr	r4, [pc, #112]	@ (400f1c <PQCLEAN_MLKEM1024_CLEAN_gen_matrix+0x94>)
  400eac:	b2ea      	uxtb	r2, r5
  400eae:	b2f1      	uxtb	r1, r6
  400eb0:	b30b      	cbz	r3, 400ef6 <PQCLEAN_MLKEM1024_CLEAN_gen_matrix+0x6e>
                xof_absorb(&state, seed, (uint8_t)i, (uint8_t)j);
  400eb2:	4613      	mov	r3, r2
  400eb4:	460a      	mov	r2, r1
                xof_absorb(&state, seed, (uint8_t)j, (uint8_t)i);
  400eb6:	4639      	mov	r1, r7
  400eb8:	a802      	add	r0, sp, #8
  400eba:	47a0      	blx	r4
            ctr = rej_uniform(a[i].vec[j].coeffs, KYBER_N, buf, buflen);
  400ebc:	eb08 2b45 	add.w	fp, r8, r5, lsl #9
            xof_squeezeblocks(buf, GEN_MATRIX_NBLOCKS, &state);
  400ec0:	aa02      	add	r2, sp, #8
  400ec2:	2103      	movs	r1, #3
  400ec4:	a834      	add	r0, sp, #208	@ 0xd0
  400ec6:	47c8      	blx	r9
            ctr = rej_uniform(a[i].vec[j].coeffs, KYBER_N, buf, buflen);
  400ec8:	f44f 73fc 	mov.w	r3, #504	@ 0x1f8
  400ecc:	aa34      	add	r2, sp, #208	@ 0xd0
  400ece:	f44f 7180 	mov.w	r1, #256	@ 0x100
  400ed2:	4658      	mov	r0, fp
  400ed4:	47d0      	blx	sl
  400ed6:	4604      	mov	r4, r0

            while (ctr < KYBER_N) {
  400ed8:	2cff      	cmp	r4, #255	@ 0xff
  400eda:	d90e      	bls.n	400efa <PQCLEAN_MLKEM1024_CLEAN_gen_matrix+0x72>
                xof_squeezeblocks(buf, 1, &state);
                buflen = XOF_BLOCKBYTES;
                ctr += rej_uniform(a[i].vec[j].coeffs + ctr, KYBER_N - ctr, buf, buflen);
            }
            xof_ctx_release(&state);
  400edc:	4b10      	ldr	r3, [pc, #64]	@ (400f20 <PQCLEAN_MLKEM1024_CLEAN_gen_matrix+0x98>)
  400ede:	a802      	add	r0, sp, #8
        for (j = 0; j < KYBER_K; j++) {
  400ee0:	3501      	adds	r5, #1
            xof_ctx_release(&state);
  400ee2:	4798      	blx	r3
        for (j = 0; j < KYBER_K; j++) {
  400ee4:	2d04      	cmp	r5, #4
  400ee6:	d1df      	bne.n	400ea8 <PQCLEAN_MLKEM1024_CLEAN_gen_matrix+0x20>
    for (i = 0; i < KYBER_K; i++) {
  400ee8:	3601      	adds	r6, #1
  400eea:	2e04      	cmp	r6, #4
  400eec:	d1d8      	bne.n	400ea0 <PQCLEAN_MLKEM1024_CLEAN_gen_matrix+0x18>
        }
    }
}
  400eee:	f50d 7d33 	add.w	sp, sp, #716	@ 0x2cc
  400ef2:	e8bd 8ff0 	ldmia.w	sp!, {r4, r5, r6, r7, r8, r9, sl, fp, pc}
                xof_absorb(&state, seed, (uint8_t)j, (uint8_t)i);
  400ef6:	460b      	mov	r3, r1
  400ef8:	e7dd      	b.n	400eb6 <PQCLEAN_MLKEM1024_CLEAN_gen_matrix+0x2e>
                xof_squeezeblocks(buf, 1, &state);
  400efa:	aa02      	add	r2, sp, #8
  400efc:	2101      	movs	r1, #1
  400efe:	a834      	add	r0, sp, #208	@ 0xd0
  400f00:	47c8      	blx	r9
                ctr += rej_uniform(a[i].vec[j].coeffs + ctr, KYBER_N - ctr, buf, buflen);
  400f02:	f5c4 7180 	rsb	r1, r4, #256	@ 0x100
  400f06:	eb0b 0044 	add.w	r0, fp, r4, lsl #1
  400f0a:	23a8      	movs	r3, #168	@ 0xa8
  400f0c:	aa34      	add	r2, sp, #208	@ 0xd0
  400f0e:	47d0      	blx	sl
  400f10:	4404      	add	r4, r0
  400f12:	e7e1      	b.n	400ed8 <PQCLEAN_MLKEM1024_CLEAN_gen_matrix+0x50>
  400f14:	00401599 	.word	0x00401599
  400f18:	00400e31 	.word	0x00400e31
  400f1c:	00402505 	.word	0x00402505
  400f20:	004015a9 	.word	0x004015a9

00400f24 <PQCLEAN_MLKEM1024_CLEAN_indcpa_keypair_derand>:
*              - const uint8_t *coins: pointer to input randomness
*                             (of length KYBER_SYMBYTES bytes)
**************************************************/
void PQCLEAN_MLKEM1024_CLEAN_indcpa_keypair_derand(uint8_t pk[KYBER_INDCPA_PUBLICKEYBYTES],
        uint8_t sk[KYBER_INDCPA_SECRETKEYBYTES],
        const uint8_t coins[KYBER_SYMBYTES]) {
  400f24:	e92d 4ff0 	stmdb	sp!, {r4, r5, r6, r7, r8, r9, sl, fp, lr}
  400f28:	f5ad 5d61 	sub.w	sp, sp, #14400	@ 0x3840
  400f2c:	b081      	sub	sp, #4
  400f2e:	4606      	mov	r6, r0
  400f30:	460f      	mov	r7, r1
    const uint8_t *publicseed = buf;
    const uint8_t *noiseseed = buf + KYBER_SYMBYTES;
    uint8_t nonce = 0;
    polyvec a[KYBER_K], e, pkpv, skpv;

    memcpy(buf, coins, KYBER_SYMBYTES);
  400f32:	466c      	mov	r4, sp
  400f34:	466d      	mov	r5, sp
  400f36:	f102 0c20 	add.w	ip, r2, #32
  400f3a:	6810      	ldr	r0, [r2, #0]
  400f3c:	6851      	ldr	r1, [r2, #4]
  400f3e:	462b      	mov	r3, r5
  400f40:	c303      	stmia	r3!, {r0, r1}
  400f42:	3208      	adds	r2, #8
  400f44:	4562      	cmp	r2, ip
  400f46:	461d      	mov	r5, r3
  400f48:	d1f7      	bne.n	400f3a <PQCLEAN_MLKEM1024_CLEAN_indcpa_keypair_derand+0x16>
    buf[KYBER_SYMBYTES] = KYBER_K;
  400f4a:	2304      	movs	r3, #4
  400f4c:	f884 3020 	strb.w	r3, [r4, #32]
    hash_g(buf, buf, KYBER_SYMBYTES + 1);
  400f50:	2221      	movs	r2, #33	@ 0x21
  400f52:	4b37      	ldr	r3, [pc, #220]	@ (401030 <PQCLEAN_MLKEM1024_CLEAN_indcpa_keypair_derand+0x10c>)

    gen_a(a, publicseed);

    for (i = 0; i < KYBER_K; i++) {
        PQCLEAN_MLKEM1024_CLEAN_poly_getnoise_eta1(&skpv.vec[i], noiseseed, nonce++);
  400f54:	f8df a0dc 	ldr.w	sl, [pc, #220]	@ 401034 <PQCLEAN_MLKEM1024_CLEAN_indcpa_keypair_derand+0x110>
    hash_g(buf, buf, KYBER_SYMBYTES + 1);
  400f58:	4621      	mov	r1, r4
  400f5a:	4620      	mov	r0, r4
  400f5c:	4798      	blx	r3
    gen_a(a, publicseed);
  400f5e:	4b36      	ldr	r3, [pc, #216]	@ (401038 <PQCLEAN_MLKEM1024_CLEAN_indcpa_keypair_derand+0x114>)
  400f60:	2200      	movs	r2, #0
  400f62:	4621      	mov	r1, r4
  400f64:	f50d 50c2 	add.w	r0, sp, #6208	@ 0x1840
  400f68:	4798      	blx	r3
    for (i = 0; i < KYBER_K; i++) {
  400f6a:	f50d 5882 	add.w	r8, sp, #4160	@ 0x1040
  400f6e:	2500      	movs	r5, #0
        PQCLEAN_MLKEM1024_CLEAN_poly_getnoise_eta1(&skpv.vec[i], noiseseed, nonce++);
  400f70:	f104 0b20 	add.w	fp, r4, #32
  400f74:	46d1      	mov	r9, sl
  400f76:	b2ea      	uxtb	r2, r5
  400f78:	4640      	mov	r0, r8
  400f7a:	4659      	mov	r1, fp
    for (i = 0; i < KYBER_K; i++) {
  400f7c:	3501      	adds	r5, #1
        PQCLEAN_MLKEM1024_CLEAN_poly_getnoise_eta1(&skpv.vec[i], noiseseed, nonce++);
  400f7e:	47d0      	blx	sl
    for (i = 0; i < KYBER_K; i++) {
  400f80:	2d04      	cmp	r5, #4
  400f82:	f508 7800 	add.w	r8, r8, #512	@ 0x200
  400f86:	d1f6      	bne.n	400f76 <PQCLEAN_MLKEM1024_CLEAN_indcpa_keypair_derand+0x52>
    }
    for (i = 0; i < KYBER_K; i++) {
  400f88:	f10d 0840 	add.w	r8, sp, #64	@ 0x40
        PQCLEAN_MLKEM1024_CLEAN_poly_getnoise_eta1(&e.vec[i], noiseseed, nonce++);
  400f8c:	f104 0a20 	add.w	sl, r4, #32
  400f90:	462a      	mov	r2, r5
  400f92:	3501      	adds	r5, #1
  400f94:	4640      	mov	r0, r8
  400f96:	b2ed      	uxtb	r5, r5
  400f98:	4651      	mov	r1, sl
  400f9a:	47c8      	blx	r9
    for (i = 0; i < KYBER_K; i++) {
  400f9c:	2d08      	cmp	r5, #8
  400f9e:	f508 7800 	add.w	r8, r8, #512	@ 0x200
  400fa2:	d1f5      	bne.n	400f90 <PQCLEAN_MLKEM1024_CLEAN_indcpa_keypair_derand+0x6c>
    }

    PQCLEAN_MLKEM1024_CLEAN_polyvec_ntt(&skpv);
  400fa4:	4d25      	ldr	r5, [pc, #148]	@ (40103c <PQCLEAN_MLKEM1024_CLEAN_indcpa_keypair_derand+0x118>)
    PQCLEAN_MLKEM1024_CLEAN_polyvec_ntt(&e);

    // matrix-vector multiplication
    for (i = 0; i < KYBER_K; i++) {
        PQCLEAN_MLKEM1024_CLEAN_polyvec_basemul_acc_montgomery(&pkpv.vec[i], &a[i], &skpv);
  400fa6:	f8df b098 	ldr.w	fp, [pc, #152]	@ 401040 <PQCLEAN_MLKEM1024_CLEAN_indcpa_keypair_derand+0x11c>
        PQCLEAN_MLKEM1024_CLEAN_poly_tomont(&pkpv.vec[i]);
  400faa:	f8df a098 	ldr.w	sl, [pc, #152]	@ 401044 <PQCLEAN_MLKEM1024_CLEAN_indcpa_keypair_derand+0x120>
    PQCLEAN_MLKEM1024_CLEAN_polyvec_ntt(&skpv);
  400fae:	f50d 5082 	add.w	r0, sp, #4160	@ 0x1040
  400fb2:	47a8      	blx	r5
    PQCLEAN_MLKEM1024_CLEAN_polyvec_ntt(&e);
  400fb4:	a810      	add	r0, sp, #64	@ 0x40
  400fb6:	47a8      	blx	r5
    for (i = 0; i < KYBER_K; i++) {
  400fb8:	f50d 6804 	add.w	r8, sp, #2112	@ 0x840
  400fbc:	f50d 55c2 	add.w	r5, sp, #6208	@ 0x1840
  400fc0:	f04f 0900 	mov.w	r9, #0
        PQCLEAN_MLKEM1024_CLEAN_polyvec_basemul_acc_montgomery(&pkpv.vec[i], &a[i], &skpv);
  400fc4:	4629      	mov	r1, r5
  400fc6:	4640      	mov	r0, r8
  400fc8:	f50d 5282 	add.w	r2, sp, #4160	@ 0x1040
  400fcc:	47d8      	blx	fp
    for (i = 0; i < KYBER_K; i++) {
  400fce:	f109 0901 	add.w	r9, r9, #1
        PQCLEAN_MLKEM1024_CLEAN_poly_tomont(&pkpv.vec[i]);
  400fd2:	4640      	mov	r0, r8
  400fd4:	47d0      	blx	sl
    for (i = 0; i < KYBER_K; i++) {
  400fd6:	f1b9 0f04 	cmp.w	r9, #4
  400fda:	f508 7800 	add.w	r8, r8, #512	@ 0x200
  400fde:	f505 6500 	add.w	r5, r5, #2048	@ 0x800
  400fe2:	d1ef      	bne.n	400fc4 <PQCLEAN_MLKEM1024_CLEAN_indcpa_keypair_derand+0xa0>
    }

    PQCLEAN_MLKEM1024_CLEAN_polyvec_add(&pkpv, &pkpv, &e);
  400fe4:	f50d 6104 	add.w	r1, sp, #2112	@ 0x840
  400fe8:	aa10      	add	r2, sp, #64	@ 0x40
  400fea:	4608      	mov	r0, r1
  400fec:	4b16      	ldr	r3, [pc, #88]	@ (401048 <PQCLEAN_MLKEM1024_CLEAN_indcpa_keypair_derand+0x124>)
    PQCLEAN_MLKEM1024_CLEAN_polyvec_tobytes(r, sk);
  400fee:	4d17      	ldr	r5, [pc, #92]	@ (40104c <PQCLEAN_MLKEM1024_CLEAN_indcpa_keypair_derand+0x128>)
    PQCLEAN_MLKEM1024_CLEAN_polyvec_add(&pkpv, &pkpv, &e);
  400ff0:	4798      	blx	r3
    PQCLEAN_MLKEM1024_CLEAN_polyvec_reduce(&pkpv);
  400ff2:	4b17      	ldr	r3, [pc, #92]	@ (401050 <PQCLEAN_MLKEM1024_CLEAN_indcpa_keypair_derand+0x12c>)
  400ff4:	f50d 6004 	add.w	r0, sp, #2112	@ 0x840
  400ff8:	4798      	blx	r3
    PQCLEAN_MLKEM1024_CLEAN_polyvec_tobytes(r, sk);
  400ffa:	f50d 5182 	add.w	r1, sp, #4160	@ 0x1040
  400ffe:	4638      	mov	r0, r7
  401000:	47a8      	blx	r5
    PQCLEAN_MLKEM1024_CLEAN_polyvec_tobytes(r, pk);
  401002:	f50d 6104 	add.w	r1, sp, #2112	@ 0x840
  401006:	4630      	mov	r0, r6
  401008:	47a8      	blx	r5
    memcpy(r + KYBER_POLYVECBYTES, seed, KYBER_SYMBYTES);
  40100a:	f506 63c0 	add.w	r3, r6, #1536	@ 0x600
  40100e:	f104 0520 	add.w	r5, r4, #32
  401012:	4622      	mov	r2, r4
  401014:	ca03      	ldmia	r2!, {r0, r1}
  401016:	42aa      	cmp	r2, r5
  401018:	6018      	str	r0, [r3, #0]
  40101a:	6059      	str	r1, [r3, #4]
  40101c:	4614      	mov	r4, r2
  40101e:	f103 0308 	add.w	r3, r3, #8
  401022:	d1f6      	bne.n	401012 <PQCLEAN_MLKEM1024_CLEAN_indcpa_keypair_derand+0xee>

    pack_sk(sk, &skpv);
    pack_pk(pk, &pkpv, publicseed);
}
  401024:	f50d 5d61 	add.w	sp, sp, #14400	@ 0x3840
  401028:	b001      	add	sp, #4
  40102a:	e8bd 8ff0 	ldmia.w	sp!, {r4, r5, r6, r7, r8, r9, sl, fp, pc}
  40102e:	bf00      	nop
  401030:	0040163d 	.word	0x0040163d
  401034:	00400871 	.word	0x00400871
  401038:	00400e89 	.word	0x00400e89
  40103c:	00400bad 	.word	0x00400bad
  401040:	00400bf5 	.word	0x00400bf5
  401044:	00400915 	.word	0x00400915
  401048:	00400c69 	.word	0x00400c69
  40104c:	00400b65 	.word	0x00400b65
  401050:	00400c45 	.word	0x00400c45

00401054 <PQCLEAN_MLKEM1024_CLEAN_indcpa_enc>:
*                                      generate all randomness
**************************************************/
void PQCLEAN_MLKEM1024_CLEAN_indcpa_enc(uint8_t c[KYBER_INDCPA_BYTES],
                                        const uint8_t m[KYBER_INDCPA_MSGBYTES],
                                        const uint8_t pk[KYBER_INDCPA_PUBLICKEYBYTES],
                                        const uint8_t coins[KYBER_SYMBYTES]) {
  401054:	e92d 47f0 	stmdb	sp!, {r4, r5, r6, r7, r8, r9, sl, lr}
  401058:	f5ad 4d8c 	sub.w	sp, sp, #17920	@ 0x4600
  40105c:	b088      	sub	sp, #32
  40105e:	4614      	mov	r4, r2
  401060:	4680      	mov	r8, r0
  401062:	460d      	mov	r5, r1
  401064:	461f      	mov	r7, r3
    PQCLEAN_MLKEM1024_CLEAN_polyvec_frombytes(pk, packedpk);
  401066:	4611      	mov	r1, r2
  401068:	4b45      	ldr	r3, [pc, #276]	@ (401180 <PQCLEAN_MLKEM1024_CLEAN_indcpa_enc+0x12c>)
  40106a:	f50d 6062 	add.w	r0, sp, #3616	@ 0xe20
  40106e:	4798      	blx	r3
    memcpy(seed, packedpk + KYBER_POLYVECBYTES, KYBER_SYMBYTES);
  401070:	f50d 66c4 	add.w	r6, sp, #1568	@ 0x620
  401074:	f504 63c0 	add.w	r3, r4, #1536	@ 0x600
  401078:	46ec      	mov	ip, sp
  40107a:	f504 64c4 	add.w	r4, r4, #1568	@ 0x620
  40107e:	6818      	ldr	r0, [r3, #0]
  401080:	6859      	ldr	r1, [r3, #4]
  401082:	4662      	mov	r2, ip
  401084:	c203      	stmia	r2!, {r0, r1}
  401086:	3308      	adds	r3, #8
  401088:	42a3      	cmp	r3, r4
  40108a:	4694      	mov	ip, r2
  40108c:	d1f7      	bne.n	40107e <PQCLEAN_MLKEM1024_CLEAN_indcpa_enc+0x2a>
    uint8_t nonce = 0;
    polyvec sp, pkpv, ep, at[KYBER_K], b;
    poly v, k, epp;

    unpack_pk(&pkpv, seed, pk);
    PQCLEAN_MLKEM1024_CLEAN_poly_frommsg(&k, m);
  40108e:	4629      	mov	r1, r5
  401090:	4b3c      	ldr	r3, [pc, #240]	@ (401184 <PQCLEAN_MLKEM1024_CLEAN_indcpa_enc+0x130>)
    gen_at(at, seed);

    for (i = 0; i < KYBER_K; i++) {
        PQCLEAN_MLKEM1024_CLEAN_poly_getnoise_eta1(sp.vec + i, coins, nonce++);
  401092:	f8df a0f4 	ldr.w	sl, [pc, #244]	@ 401188 <PQCLEAN_MLKEM1024_CLEAN_indcpa_enc+0x134>
    PQCLEAN_MLKEM1024_CLEAN_poly_frommsg(&k, m);
  401096:	a888      	add	r0, sp, #544	@ 0x220
  401098:	4798      	blx	r3
    gen_at(at, seed);
  40109a:	f50d 5018 	add.w	r0, sp, #9728	@ 0x2600
  40109e:	4b3b      	ldr	r3, [pc, #236]	@ (40118c <PQCLEAN_MLKEM1024_CLEAN_indcpa_enc+0x138>)
  4010a0:	2201      	movs	r2, #1
  4010a2:	4669      	mov	r1, sp
  4010a4:	3020      	adds	r0, #32
  4010a6:	4798      	blx	r3
  4010a8:	ad08      	add	r5, sp, #32
  4010aa:	46b1      	mov	r9, r6
    for (i = 0; i < KYBER_K; i++) {
  4010ac:	2400      	movs	r4, #0
        PQCLEAN_MLKEM1024_CLEAN_poly_getnoise_eta1(sp.vec + i, coins, nonce++);
  4010ae:	b2e2      	uxtb	r2, r4
  4010b0:	4648      	mov	r0, r9
  4010b2:	4639      	mov	r1, r7
    for (i = 0; i < KYBER_K; i++) {
  4010b4:	3401      	adds	r4, #1
        PQCLEAN_MLKEM1024_CLEAN_poly_getnoise_eta1(sp.vec + i, coins, nonce++);
  4010b6:	47d0      	blx	sl
    for (i = 0; i < KYBER_K; i++) {
  4010b8:	2c04      	cmp	r4, #4
  4010ba:	f509 7900 	add.w	r9, r9, #512	@ 0x200
  4010be:	d1f6      	bne.n	4010ae <PQCLEAN_MLKEM1024_CLEAN_indcpa_enc+0x5a>
    }
    for (i = 0; i < KYBER_K; i++) {
        PQCLEAN_MLKEM1024_CLEAN_poly_getnoise_eta2(ep.vec + i, coins, nonce++);
  4010c0:	f8df a0cc 	ldr.w	sl, [pc, #204]	@ 401190 <PQCLEAN_MLKEM1024_CLEAN_indcpa_enc+0x13c>
  4010c4:	f50d 59b1 	add.w	r9, sp, #5664	@ 0x1620
  4010c8:	4622      	mov	r2, r4
  4010ca:	3401      	adds	r4, #1
  4010cc:	4648      	mov	r0, r9
  4010ce:	b2e4      	uxtb	r4, r4
  4010d0:	4639      	mov	r1, r7
  4010d2:	47d0      	blx	sl
    for (i = 0; i < KYBER_K; i++) {
  4010d4:	2c08      	cmp	r4, #8
  4010d6:	f509 7900 	add.w	r9, r9, #512	@ 0x200
  4010da:	d1f5      	bne.n	4010c8 <PQCLEAN_MLKEM1024_CLEAN_indcpa_enc+0x74>
    }
    PQCLEAN_MLKEM1024_CLEAN_poly_getnoise_eta2(&epp, coins, nonce++);
  4010dc:	4622      	mov	r2, r4
  4010de:	4639      	mov	r1, r7
  4010e0:	f50d 6084 	add.w	r0, sp, #1056	@ 0x420
  4010e4:	47d0      	blx	sl

    PQCLEAN_MLKEM1024_CLEAN_polyvec_ntt(&sp);
  4010e6:	4b2b      	ldr	r3, [pc, #172]	@ (401194 <PQCLEAN_MLKEM1024_CLEAN_indcpa_enc+0x140>)

    // matrix-vector multiplication
    for (i = 0; i < KYBER_K; i++) {
        PQCLEAN_MLKEM1024_CLEAN_polyvec_basemul_acc_montgomery(&b.vec[i], &at[i], &sp);
  4010e8:	f8df a0ac 	ldr.w	sl, [pc, #172]	@ 401198 <PQCLEAN_MLKEM1024_CLEAN_indcpa_enc+0x144>
    PQCLEAN_MLKEM1024_CLEAN_polyvec_ntt(&sp);
  4010ec:	4630      	mov	r0, r6
  4010ee:	4798      	blx	r3
    for (i = 0; i < KYBER_K; i++) {
  4010f0:	f50d 5418 	add.w	r4, sp, #9728	@ 0x2600
  4010f4:	f50d 57f1 	add.w	r7, sp, #7712	@ 0x1e20
  4010f8:	3420      	adds	r4, #32
  4010fa:	f04f 0900 	mov.w	r9, #0
        PQCLEAN_MLKEM1024_CLEAN_polyvec_basemul_acc_montgomery(&b.vec[i], &at[i], &sp);
  4010fe:	4621      	mov	r1, r4
  401100:	4638      	mov	r0, r7
  401102:	4632      	mov	r2, r6
    for (i = 0; i < KYBER_K; i++) {
  401104:	f109 0901 	add.w	r9, r9, #1
        PQCLEAN_MLKEM1024_CLEAN_polyvec_basemul_acc_montgomery(&b.vec[i], &at[i], &sp);
  401108:	47d0      	blx	sl
    for (i = 0; i < KYBER_K; i++) {
  40110a:	f1b9 0f04 	cmp.w	r9, #4
  40110e:	f507 7700 	add.w	r7, r7, #512	@ 0x200
  401112:	f504 6400 	add.w	r4, r4, #2048	@ 0x800
  401116:	d1f2      	bne.n	4010fe <PQCLEAN_MLKEM1024_CLEAN_indcpa_enc+0xaa>
    }

    PQCLEAN_MLKEM1024_CLEAN_polyvec_basemul_acc_montgomery(&v, &pkpv, &sp);
  401118:	4632      	mov	r2, r6
  40111a:	f50d 6162 	add.w	r1, sp, #3616	@ 0xe20
  40111e:	4628      	mov	r0, r5
  401120:	47d0      	blx	sl

    PQCLEAN_MLKEM1024_CLEAN_polyvec_invntt_tomont(&b);
  401122:	f50d 50f1 	add.w	r0, sp, #7712	@ 0x1e20
  401126:	4b1d      	ldr	r3, [pc, #116]	@ (40119c <PQCLEAN_MLKEM1024_CLEAN_indcpa_enc+0x148>)
    PQCLEAN_MLKEM1024_CLEAN_poly_invntt_tomont(&v);

    PQCLEAN_MLKEM1024_CLEAN_polyvec_add(&b, &b, &ep);
    PQCLEAN_MLKEM1024_CLEAN_poly_add(&v, &v, &epp);
  401128:	4c1d      	ldr	r4, [pc, #116]	@ (4011a0 <PQCLEAN_MLKEM1024_CLEAN_indcpa_enc+0x14c>)
    PQCLEAN_MLKEM1024_CLEAN_polyvec_invntt_tomont(&b);
  40112a:	4798      	blx	r3
    PQCLEAN_MLKEM1024_CLEAN_poly_invntt_tomont(&v);
  40112c:	4628      	mov	r0, r5
  40112e:	4b1d      	ldr	r3, [pc, #116]	@ (4011a4 <PQCLEAN_MLKEM1024_CLEAN_indcpa_enc+0x150>)
  401130:	4798      	blx	r3
    PQCLEAN_MLKEM1024_CLEAN_polyvec_add(&b, &b, &ep);
  401132:	f50d 51f1 	add.w	r1, sp, #7712	@ 0x1e20
  401136:	4b1c      	ldr	r3, [pc, #112]	@ (4011a8 <PQCLEAN_MLKEM1024_CLEAN_indcpa_enc+0x154>)
  401138:	f50d 52b1 	add.w	r2, sp, #5664	@ 0x1620
  40113c:	4608      	mov	r0, r1
  40113e:	4798      	blx	r3
    PQCLEAN_MLKEM1024_CLEAN_poly_add(&v, &v, &epp);
  401140:	f50d 6284 	add.w	r2, sp, #1056	@ 0x420
  401144:	4629      	mov	r1, r5
  401146:	4628      	mov	r0, r5
  401148:	47a0      	blx	r4
    PQCLEAN_MLKEM1024_CLEAN_poly_add(&v, &v, &k);
  40114a:	aa88      	add	r2, sp, #544	@ 0x220
  40114c:	4629      	mov	r1, r5
  40114e:	4628      	mov	r0, r5
  401150:	47a0      	blx	r4
    PQCLEAN_MLKEM1024_CLEAN_polyvec_reduce(&b);
  401152:	f50d 50f1 	add.w	r0, sp, #7712	@ 0x1e20
  401156:	4b15      	ldr	r3, [pc, #84]	@ (4011ac <PQCLEAN_MLKEM1024_CLEAN_indcpa_enc+0x158>)
  401158:	4798      	blx	r3
    PQCLEAN_MLKEM1024_CLEAN_poly_reduce(&v);
  40115a:	4628      	mov	r0, r5
  40115c:	4b14      	ldr	r3, [pc, #80]	@ (4011b0 <PQCLEAN_MLKEM1024_CLEAN_indcpa_enc+0x15c>)
  40115e:	4798      	blx	r3
    PQCLEAN_MLKEM1024_CLEAN_polyvec_compress(r, b);
  401160:	f50d 51f1 	add.w	r1, sp, #7712	@ 0x1e20
  401164:	4640      	mov	r0, r8
  401166:	4b13      	ldr	r3, [pc, #76]	@ (4011b4 <PQCLEAN_MLKEM1024_CLEAN_indcpa_enc+0x160>)
  401168:	4798      	blx	r3
    PQCLEAN_MLKEM1024_CLEAN_poly_compress(r + KYBER_POLYVECCOMPRESSEDBYTES, v);
  40116a:	4b13      	ldr	r3, [pc, #76]	@ (4011b8 <PQCLEAN_MLKEM1024_CLEAN_indcpa_enc+0x164>)
  40116c:	4629      	mov	r1, r5
  40116e:	f508 60b0 	add.w	r0, r8, #1408	@ 0x580
  401172:	4798      	blx	r3

    pack_ciphertext(c, &b, &v);
}
  401174:	f50d 4d8c 	add.w	sp, sp, #17920	@ 0x4600
  401178:	b008      	add	sp, #32
  40117a:	e8bd 87f0 	ldmia.w	sp!, {r4, r5, r6, r7, r8, r9, sl, pc}
  40117e:	bf00      	nop
  401180:	00400b89 	.word	0x00400b89
  401184:	004007e9 	.word	0x004007e9
  401188:	00400871 	.word	0x00400871
  40118c:	00400e89 	.word	0x00400e89
  401190:	00400899 	.word	0x00400899
  401194:	00400bad 	.word	0x00400bad
  401198:	00400bf5 	.word	0x00400bf5
  40119c:	00400bd1 	.word	0x00400bd1
  4011a0:	00400971 	.word	0x00400971
  4011a4:	004008c1 	.word	0x004008c1
  4011a8:	00400c69 	.word	0x00400c69
  4011ac:	00400c45 	.word	0x00400c45
  4011b0:	00400939 	.word	0x00400939
  4011b4:	004009a9 	.word	0x004009a9
  4011b8:	00400645 	.word	0x00400645

004011bc <PQCLEAN_MLKEM1024_CLEAN_indcpa_dec>:
*              - const uint8_t *sk: pointer to input secret key
*                                   (of length KYBER_INDCPA_SECRETKEYBYTES)
**************************************************/
void PQCLEAN_MLKEM1024_CLEAN_indcpa_dec(uint8_t m[KYBER_INDCPA_MSGBYTES],
                                        const uint8_t c[KYBER_INDCPA_BYTES],
                                        const uint8_t sk[KYBER_INDCPA_SECRETKEYBYTES]) {
  4011bc:	b570      	push	{r4, r5, r6, lr}
  4011be:	f5ad 5da0 	sub.w	sp, sp, #5120	@ 0x1400
  4011c2:	4604      	mov	r4, r0
  4011c4:	460e      	mov	r6, r1
    PQCLEAN_MLKEM1024_CLEAN_polyvec_decompress(b, c);
  4011c6:	f50d 6080 	add.w	r0, sp, #1024	@ 0x400
  4011ca:	4b15      	ldr	r3, [pc, #84]	@ (401220 <PQCLEAN_MLKEM1024_CLEAN_indcpa_dec+0x64>)
                                        const uint8_t sk[KYBER_INDCPA_SECRETKEYBYTES]) {
  4011cc:	4615      	mov	r5, r2
    PQCLEAN_MLKEM1024_CLEAN_polyvec_decompress(b, c);
  4011ce:	4798      	blx	r3
    PQCLEAN_MLKEM1024_CLEAN_poly_decompress(v, c + KYBER_POLYVECCOMPRESSEDBYTES);
  4011d0:	f506 61b0 	add.w	r1, r6, #1408	@ 0x580
  4011d4:	4668      	mov	r0, sp
  4011d6:	4b13      	ldr	r3, [pc, #76]	@ (401224 <PQCLEAN_MLKEM1024_CLEAN_indcpa_dec+0x68>)
  4011d8:	4798      	blx	r3
    PQCLEAN_MLKEM1024_CLEAN_polyvec_frombytes(sk, packedsk);
  4011da:	4629      	mov	r1, r5
  4011dc:	f50d 6040 	add.w	r0, sp, #3072	@ 0xc00
  4011e0:	4b11      	ldr	r3, [pc, #68]	@ (401228 <PQCLEAN_MLKEM1024_CLEAN_indcpa_dec+0x6c>)
  4011e2:	4798      	blx	r3
    poly v, mp;

    unpack_ciphertext(&b, &v, c);
    unpack_sk(&skpv, sk);

    PQCLEAN_MLKEM1024_CLEAN_polyvec_ntt(&b);
  4011e4:	f50d 6080 	add.w	r0, sp, #1024	@ 0x400
  4011e8:	4b10      	ldr	r3, [pc, #64]	@ (40122c <PQCLEAN_MLKEM1024_CLEAN_indcpa_dec+0x70>)
  4011ea:	4798      	blx	r3
    PQCLEAN_MLKEM1024_CLEAN_polyvec_basemul_acc_montgomery(&mp, &skpv, &b);
  4011ec:	f50d 6280 	add.w	r2, sp, #1024	@ 0x400
  4011f0:	f50d 6140 	add.w	r1, sp, #3072	@ 0xc00
  4011f4:	a880      	add	r0, sp, #512	@ 0x200
  4011f6:	4b0e      	ldr	r3, [pc, #56]	@ (401230 <PQCLEAN_MLKEM1024_CLEAN_indcpa_dec+0x74>)
  4011f8:	4798      	blx	r3
    PQCLEAN_MLKEM1024_CLEAN_poly_invntt_tomont(&mp);
  4011fa:	a880      	add	r0, sp, #512	@ 0x200
  4011fc:	4b0d      	ldr	r3, [pc, #52]	@ (401234 <PQCLEAN_MLKEM1024_CLEAN_indcpa_dec+0x78>)
  4011fe:	4798      	blx	r3

    PQCLEAN_MLKEM1024_CLEAN_poly_sub(&mp, &v, &mp);
  401200:	aa80      	add	r2, sp, #512	@ 0x200
  401202:	4610      	mov	r0, r2
  401204:	4669      	mov	r1, sp
  401206:	4b0c      	ldr	r3, [pc, #48]	@ (401238 <PQCLEAN_MLKEM1024_CLEAN_indcpa_dec+0x7c>)
  401208:	4798      	blx	r3
    PQCLEAN_MLKEM1024_CLEAN_poly_reduce(&mp);
  40120a:	a880      	add	r0, sp, #512	@ 0x200
  40120c:	4b0b      	ldr	r3, [pc, #44]	@ (40123c <PQCLEAN_MLKEM1024_CLEAN_indcpa_dec+0x80>)
  40120e:	4798      	blx	r3

    PQCLEAN_MLKEM1024_CLEAN_poly_tomsg(m, &mp);
  401210:	4b0b      	ldr	r3, [pc, #44]	@ (401240 <PQCLEAN_MLKEM1024_CLEAN_indcpa_dec+0x84>)
  401212:	a980      	add	r1, sp, #512	@ 0x200
  401214:	4620      	mov	r0, r4
  401216:	4798      	blx	r3
}
  401218:	f50d 5da0 	add.w	sp, sp, #5120	@ 0x1400
  40121c:	bd70      	pop	{r4, r5, r6, pc}
  40121e:	bf00      	nop
  401220:	00400a9d 	.word	0x00400a9d
  401224:	004006e5 	.word	0x004006e5
  401228:	00400b89 	.word	0x00400b89
  40122c:	00400bad 	.word	0x00400bad
  401230:	00400bf5 	.word	0x00400bf5
  401234:	004008c1 	.word	0x004008c1
  401238:	0040098d 	.word	0x0040098d
  40123c:	00400939 	.word	0x00400939
  401240:	00400829 	.word	0x00400829

00401244 <PQCLEAN_MLKEM1024_CLEAN_verify>:
*
* Returns 0 if the byte arrays are equal, 1 otherwise
**************************************************/
int PQCLEAN_MLKEM1024_CLEAN_verify(const uint8_t *a, const uint8_t *b, size_t len) {
    size_t i;
    uint8_t r = 0;
  401244:	2300      	movs	r3, #0
int PQCLEAN_MLKEM1024_CLEAN_verify(const uint8_t *a, const uint8_t *b, size_t len) {
  401246:	b570      	push	{r4, r5, r6, lr}

    for (i = 0; i < len; i++) {
  401248:	461c      	mov	r4, r3
  40124a:	4294      	cmp	r4, r2
  40124c:	d104      	bne.n	401258 <PQCLEAN_MLKEM1024_CLEAN_verify+0x14>
        r |= a[i] ^ b[i];
    }

    return (-(uint64_t)r) >> 63;
  40124e:	425b      	negs	r3, r3
  401250:	eb60 0000 	sbc.w	r0, r0, r0
}
  401254:	0fc0      	lsrs	r0, r0, #31
  401256:	bd70      	pop	{r4, r5, r6, pc}
        r |= a[i] ^ b[i];
  401258:	5d05      	ldrb	r5, [r0, r4]
  40125a:	5d0e      	ldrb	r6, [r1, r4]
  40125c:	4075      	eors	r5, r6
  40125e:	432b      	orrs	r3, r5
    for (i = 0; i < len; i++) {
  401260:	3401      	adds	r4, #1
  401262:	e7f2      	b.n	40124a <PQCLEAN_MLKEM1024_CLEAN_verify+0x6>

00401264 <PQCLEAN_MLKEM1024_CLEAN_cmov>:
* Arguments:   uint8_t *r:       pointer to output byte array
*              const uint8_t *x: pointer to input byte array
*              size_t len:       Amount of bytes to be copied
*              uint8_t b:        Condition bit; has to be in {0,1}
**************************************************/
void PQCLEAN_MLKEM1024_CLEAN_cmov(uint8_t *r, const uint8_t *x, size_t len, uint8_t b) {
  401264:	e92d 41f0 	stmdb	sp!, {r4, r5, r6, r7, r8, lr}
  401268:	4605      	mov	r5, r0
  40126a:	460e      	mov	r6, r1
  40126c:	4617      	mov	r7, r2
    size_t i;

    PQCLEAN_PREVENT_BRANCH_HACK(b);
  40126e:	461c      	mov	r4, r3

    trigger_high();
  401270:	4b0a      	ldr	r3, [pc, #40]	@ (40129c <PQCLEAN_MLKEM1024_CLEAN_cmov+0x38>)
    b = -b;
  401272:	4264      	negs	r4, r4
    trigger_high();
  401274:	4798      	blx	r3
    b = -b;
  401276:	b2e4      	uxtb	r4, r4
    for (i = 0; i < len; i++) {
  401278:	4628      	mov	r0, r5
  40127a:	1e71      	subs	r1, r6, #1
  40127c:	442f      	add	r7, r5
  40127e:	42b8      	cmp	r0, r7
  401280:	d103      	bne.n	40128a <PQCLEAN_MLKEM1024_CLEAN_cmov+0x26>
        r[i] ^= b & (r[i] ^ x[i]);
    }
    trigger_low();
}
  401282:	e8bd 41f0 	ldmia.w	sp!, {r4, r5, r6, r7, r8, lr}
    trigger_low();
  401286:	4b06      	ldr	r3, [pc, #24]	@ (4012a0 <PQCLEAN_MLKEM1024_CLEAN_cmov+0x3c>)
  401288:	4718      	bx	r3
        r[i] ^= b & (r[i] ^ x[i]);
  40128a:	7802      	ldrb	r2, [r0, #0]
  40128c:	f811 3f01 	ldrb.w	r3, [r1, #1]!
  401290:	4053      	eors	r3, r2
  401292:	4023      	ands	r3, r4
  401294:	405a      	eors	r2, r3
  401296:	f800 2b01 	strb.w	r2, [r0], #1
    for (i = 0; i < len; i++) {
  40129a:	e7f0      	b.n	40127e <PQCLEAN_MLKEM1024_CLEAN_cmov+0x1a>
  40129c:	00402cc5 	.word	0x00402cc5
  4012a0:	00402ca5 	.word	0x00402ca5

004012a4 <PQCLEAN_MLKEM1024_CLEAN_cmov_int16>:
*
* Arguments:   int16_t *r:       pointer to output int16_t
*              int16_t v:        input int16_t
*              uint8_t b:        Condition bit; has to be in {0,1}
**************************************************/
void PQCLEAN_MLKEM1024_CLEAN_cmov_int16(int16_t *r, int16_t v, uint16_t b) {
  4012a4:	b570      	push	{r4, r5, r6, lr}
  4012a6:	4606      	mov	r6, r0
    trigger_high();
  4012a8:	4b07      	ldr	r3, [pc, #28]	@ (4012c8 <PQCLEAN_MLKEM1024_CLEAN_cmov_int16+0x24>)
void PQCLEAN_MLKEM1024_CLEAN_cmov_int16(int16_t *r, int16_t v, uint16_t b) {
  4012aa:	460c      	mov	r4, r1
  4012ac:	4615      	mov	r5, r2
    trigger_high();
  4012ae:	4798      	blx	r3
    b = -b;
    *r ^= b & ((*r) ^ v);
  4012b0:	f9b6 3000 	ldrsh.w	r3, [r6]
    b = -b;
  4012b4:	426d      	negs	r5, r5
    *r ^= b & ((*r) ^ v);
  4012b6:	405c      	eors	r4, r3
  4012b8:	402c      	ands	r4, r5
  4012ba:	4063      	eors	r3, r4
  4012bc:	8033      	strh	r3, [r6, #0]
    trigger_low();
}
  4012be:	e8bd 4070 	ldmia.w	sp!, {r4, r5, r6, lr}
    trigger_low();
  4012c2:	4b02      	ldr	r3, [pc, #8]	@ (4012cc <PQCLEAN_MLKEM1024_CLEAN_cmov_int16+0x28>)
  4012c4:	4718      	bx	r3
  4012c6:	bf00      	nop
  4012c8:	00402cc5 	.word	0x00402cc5
  4012cc:	00402ca5 	.word	0x00402ca5

004012d0 <cbd2>:
*              a centered binomial distribution with parameter eta=2
*
* Arguments:   - poly *r: pointer to output polynomial
*              - const uint8_t *buf: pointer to input byte array
**************************************************/
static void cbd2(poly *r, const uint8_t buf[2 * KYBER_N / 4]) {
  4012d0:	b5f0      	push	{r4, r5, r6, r7, lr}
  4012d2:	2500      	movs	r5, #0
    r |= (uint32_t)x[3] << 24;
  4012d4:	680b      	ldr	r3, [r1, #0]
    uint32_t t, d;
    int16_t a, b;

    for (i = 0; i < KYBER_N / 8; i++) {
        t  = load32_littleendian(buf + 4 * i);
        d  = t & 0x55555555;
  4012d6:	f003 3255 	and.w	r2, r3, #1431655765	@ 0x55555555
        d += (t >> 1) & 0x55555555;
  4012da:	085b      	lsrs	r3, r3, #1
  4012dc:	f003 3355 	and.w	r3, r3, #1431655765	@ 0x55555555
  4012e0:	4413      	add	r3, r2

        for (j = 0; j < 8; j++) {
  4012e2:	eb00 0745 	add.w	r7, r0, r5, lsl #1
        d += (t >> 1) & 0x55555555;
  4012e6:	2402      	movs	r4, #2
            a = (d >> (4 * j + 0)) & 0x3;
  4012e8:	1ea2      	subs	r2, r4, #2
            b = (d >> (4 * j + 2)) & 0x3;
  4012ea:	fa23 f604 	lsr.w	r6, r3, r4
            a = (d >> (4 * j + 0)) & 0x3;
  4012ee:	fa23 f202 	lsr.w	r2, r3, r2
  4012f2:	f002 0203 	and.w	r2, r2, #3
            b = (d >> (4 * j + 2)) & 0x3;
  4012f6:	f006 0603 	and.w	r6, r6, #3
        for (j = 0; j < 8; j++) {
  4012fa:	3404      	adds	r4, #4
            r->coeffs[8 * i + j] = a - b;
  4012fc:	1b92      	subs	r2, r2, r6
        for (j = 0; j < 8; j++) {
  4012fe:	2c22      	cmp	r4, #34	@ 0x22
            r->coeffs[8 * i + j] = a - b;
  401300:	f827 2b02 	strh.w	r2, [r7], #2
        for (j = 0; j < 8; j++) {
  401304:	d1f0      	bne.n	4012e8 <cbd2+0x18>
    for (i = 0; i < KYBER_N / 8; i++) {
  401306:	3508      	adds	r5, #8
  401308:	f5b5 7f80 	cmp.w	r5, #256	@ 0x100
  40130c:	f101 0104 	add.w	r1, r1, #4
  401310:	d1e0      	bne.n	4012d4 <cbd2+0x4>
        }
    }
}
  401312:	bdf0      	pop	{r4, r5, r6, r7, pc}

00401314 <PQCLEAN_MLKEM1024_CLEAN_poly_cbd_eta1>:
* Arguments:   - poly *r: pointer to output polynomial
*              - const uint8_t *buf: pointer to input byte array
**************************************************/

void PQCLEAN_MLKEM1024_CLEAN_poly_cbd_eta1(poly *r, const uint8_t buf[KYBER_ETA1 * KYBER_N / 4]) {
    cbd2(r, buf);
  401314:	4b00      	ldr	r3, [pc, #0]	@ (401318 <PQCLEAN_MLKEM1024_CLEAN_poly_cbd_eta1+0x4>)
  401316:	4718      	bx	r3
  401318:	004012d1 	.word	0x004012d1

0040131c <PQCLEAN_MLKEM1024_CLEAN_poly_cbd_eta2>:
}

void PQCLEAN_MLKEM1024_CLEAN_poly_cbd_eta2(poly *r, const uint8_t buf[KYBER_ETA2 * KYBER_N / 4]) {
  40131c:	4b00      	ldr	r3, [pc, #0]	@ (401320 <PQCLEAN_MLKEM1024_CLEAN_poly_cbd_eta2+0x4>)
  40131e:	4718      	bx	r3
  401320:	004012d1 	.word	0x004012d1

00401324 <keccak_inc_init>:
 * Arguments:   - uint64_t *s_inc: pointer to input/output incremental state
 *                First 25 values represent Keccak state.
 *                26th value represents either the number of absorbed bytes
 *                that have not been permuted, or not-yet-squeezed bytes.
 **************************************************/
static void keccak_inc_init(uint64_t *s_inc) {
  401324:	b510      	push	{r4, lr}
    size_t i;

    for (i = 0; i < 25; ++i) {
        s_inc[i] = 0;
  401326:	4b05      	ldr	r3, [pc, #20]	@ (40133c <keccak_inc_init+0x18>)
  401328:	22c8      	movs	r2, #200	@ 0xc8
  40132a:	2100      	movs	r1, #0
static void keccak_inc_init(uint64_t *s_inc) {
  40132c:	4604      	mov	r4, r0
        s_inc[i] = 0;
  40132e:	4798      	blx	r3
    }
    s_inc[25] = 0;
  401330:	2200      	movs	r2, #0
  401332:	2300      	movs	r3, #0
  401334:	e9c4 2332 	strd	r2, r3, [r4, #200]	@ 0xc8
}
  401338:	bd10      	pop	{r4, pc}
  40133a:	bf00      	nop
  40133c:	00403191 	.word	0x00403191

00401340 <keccak_inc_finalize>:
 *                that have not been permuted, or not-yet-squeezed bytes.
 *              - uint32_t r: rate in bytes (e.g., 168 for SHAKE128)
 *              - uint8_t p: domain-separation byte for different
 *                                 Keccak-derived functions
 **************************************************/
static void keccak_inc_finalize(uint64_t *s_inc, uint32_t r, uint8_t p) {
  401340:	b573      	push	{r0, r1, r4, r5, r6, lr}
  401342:	f88d 2007 	strb.w	r2, [sp, #7]
    /* After keccak_inc_absorb, we are guaranteed that s_inc[25] < r,
       so we can always use one more byte for p in the current state. */
    if(s_inc[25] == r-1){
  401346:	e9d0 2332 	ldrd	r2, r3, [r0, #200]	@ 0xc8
  40134a:	1e4d      	subs	r5, r1, #1
  40134c:	2b00      	cmp	r3, #0
  40134e:	bf08      	it	eq
  401350:	42aa      	cmpeq	r2, r5
  401352:	4e10      	ldr	r6, [pc, #64]	@ (401394 <keccak_inc_finalize+0x54>)
static void keccak_inc_finalize(uint64_t *s_inc, uint32_t r, uint8_t p) {
  401354:	4604      	mov	r4, r0
    if(s_inc[25] == r-1){
  401356:	d10f      	bne.n	401378 <keccak_inc_finalize+0x38>
      p |= 128;
  401358:	f89d 3007 	ldrb.w	r3, [sp, #7]
  40135c:	f063 037f 	orn	r3, r3, #127	@ 0x7f
  401360:	f88d 3007 	strb.w	r3, [sp, #7]
      KeccakF1600_StateXORBytes(s_inc, &p, s_inc[25], 1);
  401364:	f10d 0107 	add.w	r1, sp, #7
  401368:	2301      	movs	r3, #1
    } else {
      KeccakF1600_StateXORBytes(s_inc, &p, s_inc[25], 1);
      p = 128;
      KeccakF1600_StateXORBytes(s_inc, &p, r-1, 1);
  40136a:	47b0      	blx	r6
    }
    s_inc[25] = 0;
  40136c:	2200      	movs	r2, #0
  40136e:	2300      	movs	r3, #0
  401370:	e9c4 2332 	strd	r2, r3, [r4, #200]	@ 0xc8
}
  401374:	b002      	add	sp, #8
  401376:	bd70      	pop	{r4, r5, r6, pc}
      KeccakF1600_StateXORBytes(s_inc, &p, s_inc[25], 1);
  401378:	2301      	movs	r3, #1
  40137a:	f10d 0107 	add.w	r1, sp, #7
  40137e:	47b0      	blx	r6
      p = 128;
  401380:	2380      	movs	r3, #128	@ 0x80
  401382:	f88d 3007 	strb.w	r3, [sp, #7]
      KeccakF1600_StateXORBytes(s_inc, &p, r-1, 1);
  401386:	462a      	mov	r2, r5
  401388:	2301      	movs	r3, #1
  40138a:	f10d 0107 	add.w	r1, sp, #7
  40138e:	4620      	mov	r0, r4
  401390:	e7eb      	b.n	40136a <keccak_inc_finalize+0x2a>
  401392:	bf00      	nop
  401394:	004016c7 	.word	0x004016c7

00401398 <keccak_inc_absorb>:
                              size_t mlen) {
  401398:	e92d 4ff8 	stmdb	sp!, {r3, r4, r5, r6, r7, r8, r9, sl, fp, lr}
  40139c:	f8df a060 	ldr.w	sl, [pc, #96]	@ 401400 <keccak_inc_absorb+0x68>
        KeccakF1600_StatePermute(s_inc);
  4013a0:	f8df b060 	ldr.w	fp, [pc, #96]	@ 401404 <keccak_inc_absorb+0x6c>
                              size_t mlen) {
  4013a4:	4604      	mov	r4, r0
  4013a6:	460f      	mov	r7, r1
  4013a8:	4616      	mov	r6, r2
  4013aa:	461d      	mov	r5, r3
        s_inc[25] = 0;
  4013ac:	f04f 0800 	mov.w	r8, #0
  4013b0:	f04f 0900 	mov.w	r9, #0
    while (mlen + s_inc[25] >= r) {
  4013b4:	e9d4 2332 	ldrd	r2, r3, [r4, #200]	@ 0xc8
  4013b8:	18a9      	adds	r1, r5, r2
  4013ba:	f143 0300 	adc.w	r3, r3, #0
  4013be:	42b9      	cmp	r1, r7
  4013c0:	f173 0300 	sbcs.w	r3, r3, #0
  4013c4:	d20c      	bcs.n	4013e0 <keccak_inc_absorb+0x48>
    KeccakF1600_StateXORBytes(s_inc, m, s_inc[25], mlen);
  4013c6:	462b      	mov	r3, r5
  4013c8:	4631      	mov	r1, r6
  4013ca:	4620      	mov	r0, r4
  4013cc:	47d0      	blx	sl
    s_inc[25] += mlen;
  4013ce:	e9d4 3232 	ldrd	r3, r2, [r4, #200]	@ 0xc8
  4013d2:	195b      	adds	r3, r3, r5
  4013d4:	f142 0200 	adc.w	r2, r2, #0
  4013d8:	e9c4 3232 	strd	r3, r2, [r4, #200]	@ 0xc8
}
  4013dc:	e8bd 8ff8 	ldmia.w	sp!, {r3, r4, r5, r6, r7, r8, r9, sl, fp, pc}
        KeccakF1600_StateXORBytes(s_inc, m, s_inc[25], r-s_inc[25]);
  4013e0:	1abb      	subs	r3, r7, r2
  4013e2:	4631      	mov	r1, r6
  4013e4:	4620      	mov	r0, r4
  4013e6:	47d0      	blx	sl
        mlen -= (size_t)(r - s_inc[25]);
  4013e8:	f8d4 30c8 	ldr.w	r3, [r4, #200]	@ 0xc8
        KeccakF1600_StatePermute(s_inc);
  4013ec:	4620      	mov	r0, r4
        mlen -= (size_t)(r - s_inc[25]);
  4013ee:	1bda      	subs	r2, r3, r7
        s_inc[25] = 0;
  4013f0:	e9c4 8932 	strd	r8, r9, [r4, #200]	@ 0xc8
        m += r - s_inc[25];
  4013f4:	1afb      	subs	r3, r7, r3
        mlen -= (size_t)(r - s_inc[25]);
  4013f6:	4415      	add	r5, r2
        m += r - s_inc[25];
  4013f8:	441e      	add	r6, r3
        KeccakF1600_StatePermute(s_inc);
  4013fa:	47d8      	blx	fp
  4013fc:	e7da      	b.n	4013b4 <keccak_inc_absorb+0x1c>
  4013fe:	bf00      	nop
  401400:	004016c7 	.word	0x004016c7
  401404:	00401719 	.word	0x00401719

00401408 <keccak_absorb>:
{
  401408:	e92d 43f8 	stmdb	sp!, {r3, r4, r5, r6, r7, r8, r9, lr}
  40140c:	f8df 8068 	ldr.w	r8, [pc, #104]	@ 401478 <keccak_absorb+0x70>
    KeccakF1600_StatePermute(s);
  401410:	f8df 9068 	ldr.w	r9, [pc, #104]	@ 40147c <keccak_absorb+0x74>
{
  401414:	4606      	mov	r6, r0
  401416:	460c      	mov	r4, r1
  401418:	4617      	mov	r7, r2
  40141a:	461d      	mov	r5, r3
  while (mlen >= r)
  40141c:	42a5      	cmp	r5, r4
  40141e:	d215      	bcs.n	40144c <keccak_absorb+0x44>
  if(mlen == r-1){
  401420:	3c01      	subs	r4, #1
  if(mlen > 0){
  401422:	b1ed      	cbz	r5, 401460 <keccak_absorb+0x58>
    KeccakF1600_StateXORBytes(s, m, 0, mlen);
  401424:	462b      	mov	r3, r5
  401426:	2200      	movs	r2, #0
  401428:	4639      	mov	r1, r7
  40142a:	4630      	mov	r0, r6
  40142c:	47c0      	blx	r8
  if(mlen == r-1){
  40142e:	42a5      	cmp	r5, r4
  401430:	d116      	bne.n	401460 <keccak_absorb+0x58>
    p |= 128;
  401432:	f89d 3020 	ldrb.w	r3, [sp, #32]
  401436:	f063 037f 	orn	r3, r3, #127	@ 0x7f
  40143a:	f88d 3020 	strb.w	r3, [sp, #32]
    KeccakF1600_StateXORBytes(s, &p, mlen, 1);
  40143e:	462a      	mov	r2, r5
  401440:	2301      	movs	r3, #1
    KeccakF1600_StateXORBytes(s, &p, r-1, 1);
  401442:	a908      	add	r1, sp, #32
  401444:	4630      	mov	r0, r6
  401446:	47c0      	blx	r8
}
  401448:	e8bd 83f8 	ldmia.w	sp!, {r3, r4, r5, r6, r7, r8, r9, pc}
    KeccakF1600_StateXORBytes(s, m, 0, r);
  40144c:	4639      	mov	r1, r7
  40144e:	4623      	mov	r3, r4
  401450:	2200      	movs	r2, #0
  401452:	4630      	mov	r0, r6
  401454:	47c0      	blx	r8
    KeccakF1600_StatePermute(s);
  401456:	4630      	mov	r0, r6
  401458:	47c8      	blx	r9
    mlen -= r;
  40145a:	1b2d      	subs	r5, r5, r4
    m += r;
  40145c:	4427      	add	r7, r4
  40145e:	e7dd      	b.n	40141c <keccak_absorb+0x14>
    KeccakF1600_StateXORBytes(s, &p, mlen, 1);
  401460:	2301      	movs	r3, #1
  401462:	462a      	mov	r2, r5
  401464:	a908      	add	r1, sp, #32
  401466:	4630      	mov	r0, r6
  401468:	47c0      	blx	r8
    p = 128;
  40146a:	2380      	movs	r3, #128	@ 0x80
  40146c:	f88d 3020 	strb.w	r3, [sp, #32]
    KeccakF1600_StateXORBytes(s, &p, r-1, 1);
  401470:	4622      	mov	r2, r4
  401472:	2301      	movs	r3, #1
  401474:	e7e5      	b.n	401442 <keccak_absorb+0x3a>
  401476:	bf00      	nop
  401478:	004016c7 	.word	0x004016c7
  40147c:	00401719 	.word	0x00401719

00401480 <keccak_inc_squeeze>:
 *                26th value represents either the number of absorbed bytes
 *                that have not been permuted, or not-yet-squeezed bytes.
 *              - uint32_t r: rate in bytes (e.g., 168 for SHAKE128)
 **************************************************/
static void keccak_inc_squeeze(uint8_t *h, size_t outlen,
                               uint64_t *s_inc, uint32_t r) {
  401480:	e92d 47f0 	stmdb	sp!, {r4, r5, r6, r7, r8, r9, sl, lr}
  401484:	460d      	mov	r5, r1
  401486:	4614      	mov	r4, r2
    size_t len;
    if(outlen < s_inc[25])
  401488:	e9d2 2132 	ldrd	r2, r1, [r2, #200]	@ 0xc8
                               uint64_t *s_inc, uint32_t r) {
  40148c:	4698      	mov	r8, r3
    if(outlen < s_inc[25])
  40148e:	4295      	cmp	r5, r2
  401490:	f04f 0300 	mov.w	r3, #0
  401494:	418b      	sbcs	r3, r1
    {
        len = outlen;
    }
    else
    {
        len = s_inc[25];
  401496:	bf2c      	ite	cs
  401498:	4692      	movcs	sl, r2
        len = outlen;
  40149a:	46aa      	movcc	sl, r5
                               uint64_t *s_inc, uint32_t r) {
  40149c:	4607      	mov	r7, r0
    }

    KeccakF1600_StateExtractBytes(s_inc, h, r-s_inc[25], len);
  40149e:	4653      	mov	r3, sl
  4014a0:	eba8 0202 	sub.w	r2, r8, r2
  4014a4:	4601      	mov	r1, r0
  4014a6:	f8df 9048 	ldr.w	r9, [pc, #72]	@ 4014f0 <keccak_inc_squeeze+0x70>
  4014aa:	4620      	mov	r0, r4
  4014ac:	47c8      	blx	r9
    h += len;
    outlen -= len;
    s_inc[25] -= len;
  4014ae:	e9d4 6232 	ldrd	r6, r2, [r4, #200]	@ 0xc8
    h += len;
  4014b2:	4457      	add	r7, sl
    s_inc[25] -= len;
  4014b4:	ebb6 060a 	subs.w	r6, r6, sl
    outlen -= len;
  4014b8:	eba5 050a 	sub.w	r5, r5, sl

    /* Then squeeze the remaining necessary blocks */
    while (outlen > 0) {
        KeccakF1600_StatePermute(s_inc);
  4014bc:	f8df a034 	ldr.w	sl, [pc, #52]	@ 4014f4 <keccak_inc_squeeze+0x74>
    s_inc[25] -= len;
  4014c0:	f162 0200 	sbc.w	r2, r2, #0
  4014c4:	e9c4 6232 	strd	r6, r2, [r4, #200]	@ 0xc8
    while (outlen > 0) {
  4014c8:	b90d      	cbnz	r5, 4014ce <keccak_inc_squeeze+0x4e>
        KeccakF1600_StateExtractBytes(s_inc, h, 0, len);
        h += len;
        outlen -= len;
        s_inc[25] = r - len;
    }
}
  4014ca:	e8bd 87f0 	ldmia.w	sp!, {r4, r5, r6, r7, r8, r9, sl, pc}
        KeccakF1600_StatePermute(s_inc);
  4014ce:	4620      	mov	r0, r4
  4014d0:	47d0      	blx	sl
        if(outlen < r)
  4014d2:	4545      	cmp	r5, r8
  4014d4:	462e      	mov	r6, r5
  4014d6:	bf28      	it	cs
  4014d8:	4646      	movcs	r6, r8
        KeccakF1600_StateExtractBytes(s_inc, h, 0, len);
  4014da:	4633      	mov	r3, r6
  4014dc:	2200      	movs	r2, #0
  4014de:	4639      	mov	r1, r7
  4014e0:	4620      	mov	r0, r4
  4014e2:	47c8      	blx	r9
        h += len;
  4014e4:	4437      	add	r7, r6
        outlen -= len;
  4014e6:	1bad      	subs	r5, r5, r6
        s_inc[25] = r - len;
  4014e8:	2200      	movs	r2, #0
  4014ea:	eba8 0606 	sub.w	r6, r8, r6
  4014ee:	e7e9      	b.n	4014c4 <keccak_inc_squeeze+0x44>
  4014f0:	00401685 	.word	0x00401685
  4014f4:	00401719 	.word	0x00401719

004014f8 <keccak_squeezeblocks>:
{
  4014f8:	e92d 43f8 	stmdb	sp!, {r3, r4, r5, r6, r7, r8, r9, lr}
    KeccakF1600_StatePermute(s);
  4014fc:	f8df 8028 	ldr.w	r8, [pc, #40]	@ 401528 <keccak_squeezeblocks+0x30>
    KeccakF1600_StateExtractBytes(s, h, 0, r);
  401500:	f8df 9028 	ldr.w	r9, [pc, #40]	@ 40152c <keccak_squeezeblocks+0x34>
{
  401504:	4605      	mov	r5, r0
  401506:	460c      	mov	r4, r1
  401508:	4616      	mov	r6, r2
  40150a:	461f      	mov	r7, r3
  while(nblocks > 0)
  40150c:	b90c      	cbnz	r4, 401512 <keccak_squeezeblocks+0x1a>
}
  40150e:	e8bd 83f8 	ldmia.w	sp!, {r3, r4, r5, r6, r7, r8, r9, pc}
    KeccakF1600_StatePermute(s);
  401512:	4630      	mov	r0, r6
  401514:	47c0      	blx	r8
    KeccakF1600_StateExtractBytes(s, h, 0, r);
  401516:	4629      	mov	r1, r5
  401518:	463b      	mov	r3, r7
  40151a:	2200      	movs	r2, #0
  40151c:	4630      	mov	r0, r6
  40151e:	47c8      	blx	r9
    h += r;
  401520:	443d      	add	r5, r7
    nblocks--;
  401522:	3c01      	subs	r4, #1
  401524:	e7f2      	b.n	40150c <keccak_squeezeblocks+0x14>
  401526:	bf00      	nop
  401528:	00401719 	.word	0x00401719
  40152c:	00401685 	.word	0x00401685

00401530 <shake256_inc_init>:

void shake128_inc_ctx_release(shake128incctx *state) {
    (void) state;
}

void shake256_inc_init(shake256incctx *state) {
  401530:	4b00      	ldr	r3, [pc, #0]	@ (401534 <shake256_inc_init+0x4>)
  401532:	4718      	bx	r3
  401534:	00401325 	.word	0x00401325

00401538 <shake256_inc_absorb>:
  uint64_t t1 = hal_get_time();
  hash_cycles += (t1-t0);
#endif
}

void shake256_inc_absorb(shake256incctx *state, const uint8_t *input, size_t inlen) {
  401538:	b410      	push	{r4}
#ifdef PROFILE_HASHING
  uint64_t t0 = hal_get_time();
#endif
    keccak_inc_absorb(state->ctx, SHAKE256_RATE, input, inlen);
  40153a:	4c03      	ldr	r4, [pc, #12]	@ (401548 <shake256_inc_absorb+0x10>)
void shake256_inc_absorb(shake256incctx *state, const uint8_t *input, size_t inlen) {
  40153c:	4613      	mov	r3, r2
    keccak_inc_absorb(state->ctx, SHAKE256_RATE, input, inlen);
  40153e:	46a4      	mov	ip, r4
  401540:	460a      	mov	r2, r1
#ifdef PROFILE_HASHING
  uint64_t t1 = hal_get_time();
  hash_cycles += (t1-t0);
#endif
}
  401542:	bc10      	pop	{r4}
    keccak_inc_absorb(state->ctx, SHAKE256_RATE, input, inlen);
  401544:	2188      	movs	r1, #136	@ 0x88
  401546:	4760      	bx	ip
  401548:	00401399 	.word	0x00401399

0040154c <shake256_inc_finalize>:

void shake256_inc_finalize(shake256incctx *state) {
#ifdef PROFILE_HASHING
  uint64_t t0 = hal_get_time();
#endif
    keccak_inc_finalize(state->ctx, SHAKE256_RATE, 0x1F);
  40154c:	4b01      	ldr	r3, [pc, #4]	@ (401554 <shake256_inc_finalize+0x8>)
  40154e:	221f      	movs	r2, #31
  401550:	2188      	movs	r1, #136	@ 0x88
  401552:	4718      	bx	r3
  401554:	00401341 	.word	0x00401341

00401558 <shake256_inc_squeeze>:
  uint64_t t1 = hal_get_time();
  hash_cycles += (t1-t0);
#endif
}

void shake256_inc_squeeze(uint8_t *output, size_t outlen, shake256incctx *state) {
  401558:	b410      	push	{r4}
#ifdef PROFILE_HASHING
  uint64_t t0 = hal_get_time();
#endif
    keccak_inc_squeeze(output, outlen, state->ctx, SHAKE256_RATE);
  40155a:	4c02      	ldr	r4, [pc, #8]	@ (401564 <shake256_inc_squeeze+0xc>)
  40155c:	2388      	movs	r3, #136	@ 0x88
  40155e:	46a4      	mov	ip, r4
#ifdef PROFILE_HASHING
  uint64_t t1 = hal_get_time();
  hash_cycles += (t1-t0);
#endif
}
  401560:	bc10      	pop	{r4}
    keccak_inc_squeeze(output, outlen, state->ctx, SHAKE256_RATE);
  401562:	4760      	bx	ip
  401564:	00401481 	.word	0x00401481

00401568 <shake256_inc_ctx_release>:

void shake256_inc_ctx_clone(shake256incctx* dest, const shake256incctx *src) {
    memcpy(dest, src, sizeof(shake256incctx));
}

void shake256_inc_ctx_release(shake256incctx *state) {
  401568:	4770      	bx	lr
  40156a:	0000      	movs	r0, r0

0040156c <shake128_absorb>:
 * Arguments:   - uint64_t *state:      pointer to (uninitialized) output Keccak state
 *              - const uint8_t *input: pointer to input to be absorbed into state
 *              - size_t inlen:         length of input in bytes
 **************************************************/
void shake128_absorb(shake128ctx *state, const uint8_t *input, size_t inlen)
{
  40156c:	b573      	push	{r0, r1, r4, r5, r6, lr}
#ifdef PROFILE_HASHING
  uint64_t t0 = hal_get_time();
#endif
  int i;
  for (i = 0; i < 25; i++)
    state->ctx[i] = 0;
  40156e:	4b08      	ldr	r3, [pc, #32]	@ (401590 <shake128_absorb+0x24>)
{
  401570:	460d      	mov	r5, r1
  401572:	4616      	mov	r6, r2
    state->ctx[i] = 0;
  401574:	2100      	movs	r1, #0
  401576:	22c8      	movs	r2, #200	@ 0xc8
{
  401578:	4604      	mov	r4, r0
    state->ctx[i] = 0;
  40157a:	4798      	blx	r3

  keccak_absorb(state->ctx, SHAKE128_RATE, input, inlen, 0x1F);
  40157c:	231f      	movs	r3, #31
  40157e:	9300      	str	r3, [sp, #0]
  401580:	4620      	mov	r0, r4
  401582:	4633      	mov	r3, r6
  401584:	4c03      	ldr	r4, [pc, #12]	@ (401594 <shake128_absorb+0x28>)
  401586:	462a      	mov	r2, r5
  401588:	21a8      	movs	r1, #168	@ 0xa8
  40158a:	47a0      	blx	r4
#ifdef PROFILE_HASHING
  uint64_t t1 = hal_get_time();
  hash_cycles += (t1-t0);
#endif
}
  40158c:	b002      	add	sp, #8
  40158e:	bd70      	pop	{r4, r5, r6, pc}
  401590:	00403191 	.word	0x00403191
  401594:	00401409 	.word	0x00401409

00401598 <shake128_squeezeblocks>:
 * Arguments:   - uint8_t *output:     pointer to output blocks
 *              - size_t nblocks:      number of blocks to be squeezed (written to output)
 *              - shake128ctx *state:  pointer to in/output Keccak state
 **************************************************/
void shake128_squeezeblocks(uint8_t *output, size_t nblocks, shake128ctx *state)
{
  401598:	b410      	push	{r4}
#ifdef PROFILE_HASHING
  uint64_t t0 = hal_get_time();
#endif
  keccak_squeezeblocks(output, nblocks, state->ctx, SHAKE128_RATE);
  40159a:	4c02      	ldr	r4, [pc, #8]	@ (4015a4 <shake128_squeezeblocks+0xc>)
  40159c:	23a8      	movs	r3, #168	@ 0xa8
  40159e:	46a4      	mov	ip, r4
#ifdef PROFILE_HASHING
  uint64_t t1 = hal_get_time();
  hash_cycles += (t1-t0);
#endif
}
  4015a0:	bc10      	pop	{r4}
  keccak_squeezeblocks(output, nblocks, state->ctx, SHAKE128_RATE);
  4015a2:	4760      	bx	ip
  4015a4:	004014f9 	.word	0x004014f9

004015a8 <shake128_ctx_release>:
#endif
}

void shake128_ctx_release(shake128ctx *state) {
    (void) state;
}
  4015a8:	4770      	bx	lr
  4015aa:	0000      	movs	r0, r0

004015ac <shake256>:
 *              - const uint8_t *input: pointer to input
 *              - size_t inlen:         length of input in bytes
 **************************************************/
void shake256(uint8_t *output, size_t outlen,
    const uint8_t *input, size_t inlen)
{
  4015ac:	b5f0      	push	{r4, r5, r6, r7, lr}
  4015ae:	b0b5      	sub	sp, #212	@ 0xd4
  4015b0:	4604      	mov	r4, r0
  4015b2:	4616      	mov	r6, r2
  4015b4:	461f      	mov	r7, r3
#ifdef PROFILE_HASHING
  uint64_t t0 = hal_get_time();
#endif
  shake256incctx state;

  keccak_inc_init(state.ctx);
  4015b6:	4668      	mov	r0, sp
  4015b8:	4b0a      	ldr	r3, [pc, #40]	@ (4015e4 <shake256+0x38>)
{
  4015ba:	460d      	mov	r5, r1
  keccak_inc_init(state.ctx);
  4015bc:	4798      	blx	r3

  /* Absorb input */
  keccak_inc_absorb(state.ctx, SHAKE256_RATE, input, inlen);
  4015be:	463b      	mov	r3, r7
  4015c0:	4632      	mov	r2, r6
  4015c2:	4668      	mov	r0, sp
  4015c4:	4e08      	ldr	r6, [pc, #32]	@ (4015e8 <shake256+0x3c>)
  4015c6:	2188      	movs	r1, #136	@ 0x88
  4015c8:	47b0      	blx	r6
  keccak_inc_finalize(state.ctx, SHAKE256_RATE, 0x1F);
  4015ca:	4668      	mov	r0, sp
  4015cc:	4b07      	ldr	r3, [pc, #28]	@ (4015ec <shake256+0x40>)
  4015ce:	221f      	movs	r2, #31
  4015d0:	2188      	movs	r1, #136	@ 0x88
  4015d2:	4798      	blx	r3

  /* Squeeze output */
  keccak_inc_squeeze(output, outlen, state.ctx, SHAKE256_RATE);
  4015d4:	4620      	mov	r0, r4
  4015d6:	2388      	movs	r3, #136	@ 0x88
  4015d8:	4c05      	ldr	r4, [pc, #20]	@ (4015f0 <shake256+0x44>)
  4015da:	466a      	mov	r2, sp
  4015dc:	4629      	mov	r1, r5
  4015de:	47a0      	blx	r4
#ifdef PROFILE_HASHING
  uint64_t t1 = hal_get_time();
  hash_cycles += (t1-t0);
#endif
}
  4015e0:	b035      	add	sp, #212	@ 0xd4
  4015e2:	bdf0      	pop	{r4, r5, r6, r7, pc}
  4015e4:	00401325 	.word	0x00401325
  4015e8:	00401399 	.word	0x00401399
  4015ec:	00401341 	.word	0x00401341
  4015f0:	00401481 	.word	0x00401481

004015f4 <sha3_256>:
 * Arguments:   - uint8_t *output:      pointer to output
 *              - const uint8_t *input: pointer to input
 *              - size_t inlen:         length of input in bytes
 **************************************************/
void sha3_256(uint8_t *output, const uint8_t *input, size_t inlen)
{
  4015f4:	b570      	push	{r4, r5, r6, lr}
  4015f6:	b0b4      	sub	sp, #208	@ 0xd0
  4015f8:	460d      	mov	r5, r1
  4015fa:	4616      	mov	r6, r2
  4015fc:	4604      	mov	r4, r0
#ifdef PROFILE_HASHING
  uint64_t t0 = hal_get_time();
#endif
  sha3_256incctx state;
  keccak_inc_init(state.ctx);
  4015fe:	4b0b      	ldr	r3, [pc, #44]	@ (40162c <sha3_256+0x38>)
  401600:	4668      	mov	r0, sp
  401602:	4798      	blx	r3

  /* Absorb input */
  keccak_inc_absorb(state.ctx, SHA3_256_RATE, input, inlen);
  401604:	4633      	mov	r3, r6
  401606:	462a      	mov	r2, r5
  401608:	4668      	mov	r0, sp
  40160a:	4d09      	ldr	r5, [pc, #36]	@ (401630 <sha3_256+0x3c>)
  40160c:	2188      	movs	r1, #136	@ 0x88
  40160e:	47a8      	blx	r5
  keccak_inc_finalize(state.ctx, SHA3_256_RATE, 0x06);
  401610:	4668      	mov	r0, sp
  401612:	4b08      	ldr	r3, [pc, #32]	@ (401634 <sha3_256+0x40>)
  401614:	2206      	movs	r2, #6
  401616:	2188      	movs	r1, #136	@ 0x88
  401618:	4798      	blx	r3

  /* Squeeze output */
  keccak_inc_squeeze(output, 32, state.ctx, SHA3_256_RATE);
  40161a:	4620      	mov	r0, r4
  40161c:	2388      	movs	r3, #136	@ 0x88
  40161e:	4c06      	ldr	r4, [pc, #24]	@ (401638 <sha3_256+0x44>)
  401620:	466a      	mov	r2, sp
  401622:	2120      	movs	r1, #32
  401624:	47a0      	blx	r4
#ifdef PROFILE_HASHING
  uint64_t t1 = hal_get_time();
  hash_cycles += (t1-t0);
#endif
}
  401626:	b034      	add	sp, #208	@ 0xd0
  401628:	bd70      	pop	{r4, r5, r6, pc}
  40162a:	bf00      	nop
  40162c:	00401325 	.word	0x00401325
  401630:	00401399 	.word	0x00401399
  401634:	00401341 	.word	0x00401341
  401638:	00401481 	.word	0x00401481

0040163c <sha3_512>:
 * Arguments:   - uint8_t *output:      pointer to output
 *              - const uint8_t *input: pointer to input
 *              - size_t inlen:         length of input in bytes
 **************************************************/
void sha3_512(uint8_t *output, const uint8_t *input, size_t inlen)
{
  40163c:	b570      	push	{r4, r5, r6, lr}
  40163e:	b0b4      	sub	sp, #208	@ 0xd0
  401640:	460d      	mov	r5, r1
  401642:	4616      	mov	r6, r2
  401644:	4604      	mov	r4, r0
#ifdef PROFILE_HASHING
  uint64_t t0 = hal_get_time();
#endif
  sha3_512incctx state;
  keccak_inc_init(state.ctx);
  401646:	4b0b      	ldr	r3, [pc, #44]	@ (401674 <sha3_512+0x38>)
  401648:	4668      	mov	r0, sp
  40164a:	4798      	blx	r3

  /* Absorb input */
  keccak_inc_absorb(state.ctx, SHA3_512_RATE, input, inlen);
  40164c:	4633      	mov	r3, r6
  40164e:	462a      	mov	r2, r5
  401650:	4668      	mov	r0, sp
  401652:	4d09      	ldr	r5, [pc, #36]	@ (401678 <sha3_512+0x3c>)
  401654:	2148      	movs	r1, #72	@ 0x48
  401656:	47a8      	blx	r5
  keccak_inc_finalize(state.ctx, SHA3_512_RATE, 0x06);
  401658:	4668      	mov	r0, sp
  40165a:	4b08      	ldr	r3, [pc, #32]	@ (40167c <sha3_512+0x40>)
  40165c:	2206      	movs	r2, #6
  40165e:	2148      	movs	r1, #72	@ 0x48
  401660:	4798      	blx	r3

  /* Squeeze output */
  keccak_inc_squeeze(output, 64, state.ctx, SHA3_512_RATE);
  401662:	4620      	mov	r0, r4
  401664:	2348      	movs	r3, #72	@ 0x48
  401666:	4c06      	ldr	r4, [pc, #24]	@ (401680 <sha3_512+0x44>)
  401668:	466a      	mov	r2, sp
  40166a:	2140      	movs	r1, #64	@ 0x40
  40166c:	47a0      	blx	r4
#ifdef PROFILE_HASHING
  uint64_t t1 = hal_get_time();
  hash_cycles += (t1-t0);
#endif
}
  40166e:	b034      	add	sp, #208	@ 0xd0
  401670:	bd70      	pop	{r4, r5, r6, pc}
  401672:	bf00      	nop
  401674:	00401325 	.word	0x00401325
  401678:	00401399 	.word	0x00401399
  40167c:	00401341 	.word	0x00401341
  401680:	00401481 	.word	0x00401481

00401684 <KeccakF1600_StateExtractBytes>:
    (uint64_t)0x0000000080000001ULL,
    (uint64_t)0x8000000080008008ULL
};

void KeccakF1600_StateExtractBytes(uint64_t *state, unsigned char *data, unsigned int offset, unsigned int length)
{
  401684:	b5f0      	push	{r4, r5, r6, r7, lr}
  401686:	440b      	add	r3, r1
    unsigned int i;
    for(i=0;i<length;i++)
    {
        data[i] = state[(offset + i) >> 3] >> (8*((offset + i) & 0x07));
  401688:	1a52      	subs	r2, r2, r1
    for(i=0;i<length;i++)
  40168a:	4299      	cmp	r1, r3
  40168c:	d100      	bne.n	401690 <KeccakF1600_StateExtractBytes+0xc>
    }
}
  40168e:	bdf0      	pop	{r4, r5, r6, r7, pc}
        data[i] = state[(offset + i) >> 3] >> (8*((offset + i) & 0x07));
  401690:	1854      	adds	r4, r2, r1
  401692:	f024 0607 	bic.w	r6, r4, #7
  401696:	08e5      	lsrs	r5, r4, #3
  401698:	4406      	add	r6, r0
  40169a:	f004 0407 	and.w	r4, r4, #7
  40169e:	f8d6 c004 	ldr.w	ip, [r6, #4]
  4016a2:	f850 5035 	ldr.w	r5, [r0, r5, lsl #3]
  4016a6:	00e4      	lsls	r4, r4, #3
  4016a8:	f1c4 0720 	rsb	r7, r4, #32
  4016ac:	f1a4 0620 	sub.w	r6, r4, #32
  4016b0:	fa0c f707 	lsl.w	r7, ip, r7
  4016b4:	fa25 f404 	lsr.w	r4, r5, r4
  4016b8:	433c      	orrs	r4, r7
  4016ba:	fa2c f606 	lsr.w	r6, ip, r6
  4016be:	4334      	orrs	r4, r6
  4016c0:	f801 4b01 	strb.w	r4, [r1], #1
    for(i=0;i<length;i++)
  4016c4:	e7e1      	b.n	40168a <KeccakF1600_StateExtractBytes+0x6>

004016c6 <KeccakF1600_StateXORBytes>:

void KeccakF1600_StateXORBytes(uint64_t *state, const unsigned char *data, unsigned int offset, unsigned int length)
{
  4016c6:	b5f7      	push	{r0, r1, r2, r4, r5, r6, r7, lr}
  4016c8:	440b      	add	r3, r1
    unsigned int i;
    for(i = 0; i < length; i++)
    {
        state[(offset + i) >> 3] ^= (uint64_t)data[i] << (8 * ((offset + i) & 0x07));
  4016ca:	1a52      	subs	r2, r2, r1
    for(i = 0; i < length; i++)
  4016cc:	4299      	cmp	r1, r3
  4016ce:	d101      	bne.n	4016d4 <KeccakF1600_StateXORBytes+0xe>
    }
}
  4016d0:	b003      	add	sp, #12
  4016d2:	bdf0      	pop	{r4, r5, r6, r7, pc}
        state[(offset + i) >> 3] ^= (uint64_t)data[i] << (8 * ((offset + i) & 0x07));
  4016d4:	1854      	adds	r4, r2, r1
  4016d6:	ea4f 0cd4 	mov.w	ip, r4, lsr #3
  4016da:	f024 0707 	bic.w	r7, r4, #7
  4016de:	f004 0407 	and.w	r4, r4, #7
  4016e2:	f811 6b01 	ldrb.w	r6, [r1], #1
  4016e6:	00e4      	lsls	r4, r4, #3
  4016e8:	4407      	add	r7, r0
  4016ea:	f1a4 0520 	sub.w	r5, r4, #32
  4016ee:	f1c4 0e20 	rsb	lr, r4, #32
  4016f2:	fa06 f505 	lsl.w	r5, r6, r5
  4016f6:	fa26 fe0e 	lsr.w	lr, r6, lr
  4016fa:	40a6      	lsls	r6, r4
  4016fc:	687c      	ldr	r4, [r7, #4]
  4016fe:	9401      	str	r4, [sp, #4]
  401700:	f850 403c 	ldr.w	r4, [r0, ip, lsl #3]
  401704:	4066      	eors	r6, r4
  401706:	9c01      	ldr	r4, [sp, #4]
  401708:	f840 603c 	str.w	r6, [r0, ip, lsl #3]
  40170c:	ea45 050e 	orr.w	r5, r5, lr
  401710:	406c      	eors	r4, r5
  401712:	607c      	str	r4, [r7, #4]
    for(i = 0; i < length; i++)
  401714:	e7da      	b.n	4016cc <KeccakF1600_StateXORBytes+0x6>
  401716:	0000      	movs	r0, r0

00401718 <KeccakF1600_StatePermute>:

void KeccakF1600_StatePermute(uint64_t * state)
{
  401718:	e92d 4ff0 	stmdb	sp!, {r4, r5, r6, r7, r8, r9, sl, fp, lr}
  40171c:	b0bd      	sub	sp, #244	@ 0xf4
        uint64_t Eka, Eke, Eki, Eko, Eku;
        uint64_t Ema, Eme, Emi, Emo, Emu;
        uint64_t Esa, Ese, Esi, Eso, Esu;

        //copyFromState(A, state)
        Aba = state[ 0];
  40171e:	6803      	ldr	r3, [r0, #0]
  401720:	930a      	str	r3, [sp, #40]	@ 0x28
  401722:	6843      	ldr	r3, [r0, #4]
  401724:	930b      	str	r3, [sp, #44]	@ 0x2c
        Abe = state[ 1];
  401726:	6883      	ldr	r3, [r0, #8]
  401728:	930c      	str	r3, [sp, #48]	@ 0x30
  40172a:	68c3      	ldr	r3, [r0, #12]
  40172c:	930d      	str	r3, [sp, #52]	@ 0x34
        Abi = state[ 2];
  40172e:	6903      	ldr	r3, [r0, #16]
  401730:	930e      	str	r3, [sp, #56]	@ 0x38
  401732:	6943      	ldr	r3, [r0, #20]
  401734:	930f      	str	r3, [sp, #60]	@ 0x3c
        Abo = state[ 3];
  401736:	6983      	ldr	r3, [r0, #24]
  401738:	9310      	str	r3, [sp, #64]	@ 0x40
  40173a:	69c3      	ldr	r3, [r0, #28]
  40173c:	9311      	str	r3, [sp, #68]	@ 0x44
        Abu = state[ 4];
  40173e:	6a03      	ldr	r3, [r0, #32]
  401740:	9312      	str	r3, [sp, #72]	@ 0x48
  401742:	6a43      	ldr	r3, [r0, #36]	@ 0x24
  401744:	9313      	str	r3, [sp, #76]	@ 0x4c
        Aga = state[ 5];
  401746:	6a83      	ldr	r3, [r0, #40]	@ 0x28
  401748:	9314      	str	r3, [sp, #80]	@ 0x50
  40174a:	6ac3      	ldr	r3, [r0, #44]	@ 0x2c
  40174c:	9315      	str	r3, [sp, #84]	@ 0x54
        Age = state[ 6];
  40174e:	6b03      	ldr	r3, [r0, #48]	@ 0x30
  401750:	9316      	str	r3, [sp, #88]	@ 0x58
  401752:	6b43      	ldr	r3, [r0, #52]	@ 0x34
  401754:	9317      	str	r3, [sp, #92]	@ 0x5c
        Agi = state[ 7];
  401756:	6b83      	ldr	r3, [r0, #56]	@ 0x38
  401758:	9318      	str	r3, [sp, #96]	@ 0x60
  40175a:	6bc3      	ldr	r3, [r0, #60]	@ 0x3c
  40175c:	9319      	str	r3, [sp, #100]	@ 0x64
        Ago = state[ 8];
  40175e:	6c03      	ldr	r3, [r0, #64]	@ 0x40
  401760:	931a      	str	r3, [sp, #104]	@ 0x68
  401762:	6c43      	ldr	r3, [r0, #68]	@ 0x44
  401764:	931b      	str	r3, [sp, #108]	@ 0x6c
        Agu = state[ 9];
  401766:	6c83      	ldr	r3, [r0, #72]	@ 0x48
  401768:	931c      	str	r3, [sp, #112]	@ 0x70
  40176a:	6cc3      	ldr	r3, [r0, #76]	@ 0x4c
  40176c:	931d      	str	r3, [sp, #116]	@ 0x74
        Aka = state[10];
  40176e:	6d03      	ldr	r3, [r0, #80]	@ 0x50
  401770:	931e      	str	r3, [sp, #120]	@ 0x78
  401772:	6d43      	ldr	r3, [r0, #84]	@ 0x54
  401774:	931f      	str	r3, [sp, #124]	@ 0x7c
        Ake = state[11];
  401776:	6d83      	ldr	r3, [r0, #88]	@ 0x58
  401778:	9320      	str	r3, [sp, #128]	@ 0x80
  40177a:	6dc3      	ldr	r3, [r0, #92]	@ 0x5c
  40177c:	9321      	str	r3, [sp, #132]	@ 0x84
        Aki = state[12];
  40177e:	6e03      	ldr	r3, [r0, #96]	@ 0x60
  401780:	9322      	str	r3, [sp, #136]	@ 0x88
  401782:	6e43      	ldr	r3, [r0, #100]	@ 0x64
  401784:	9323      	str	r3, [sp, #140]	@ 0x8c
        Ako = state[13];
  401786:	6e83      	ldr	r3, [r0, #104]	@ 0x68
  401788:	9324      	str	r3, [sp, #144]	@ 0x90
  40178a:	6ec3      	ldr	r3, [r0, #108]	@ 0x6c
  40178c:	9325      	str	r3, [sp, #148]	@ 0x94
        Aku = state[14];
  40178e:	6f03      	ldr	r3, [r0, #112]	@ 0x70
  401790:	9326      	str	r3, [sp, #152]	@ 0x98
  401792:	6f43      	ldr	r3, [r0, #116]	@ 0x74
  401794:	9327      	str	r3, [sp, #156]	@ 0x9c
        Ama = state[15];
  401796:	6f83      	ldr	r3, [r0, #120]	@ 0x78
  401798:	9328      	str	r3, [sp, #160]	@ 0xa0
  40179a:	6fc3      	ldr	r3, [r0, #124]	@ 0x7c
  40179c:	9329      	str	r3, [sp, #164]	@ 0xa4
        Ame = state[16];
  40179e:	f8d0 3080 	ldr.w	r3, [r0, #128]	@ 0x80
  4017a2:	932a      	str	r3, [sp, #168]	@ 0xa8
  4017a4:	f8d0 3084 	ldr.w	r3, [r0, #132]	@ 0x84
  4017a8:	932b      	str	r3, [sp, #172]	@ 0xac
        Ami = state[17];
  4017aa:	f8d0 3088 	ldr.w	r3, [r0, #136]	@ 0x88
  4017ae:	932c      	str	r3, [sp, #176]	@ 0xb0
  4017b0:	f8d0 308c 	ldr.w	r3, [r0, #140]	@ 0x8c
  4017b4:	932d      	str	r3, [sp, #180]	@ 0xb4
        Amo = state[18];
  4017b6:	f8d0 3090 	ldr.w	r3, [r0, #144]	@ 0x90
  4017ba:	932e      	str	r3, [sp, #184]	@ 0xb8
  4017bc:	f8d0 3094 	ldr.w	r3, [r0, #148]	@ 0x94
  4017c0:	932f      	str	r3, [sp, #188]	@ 0xbc
        Amu = state[19];
  4017c2:	f8d0 3098 	ldr.w	r3, [r0, #152]	@ 0x98
  4017c6:	9330      	str	r3, [sp, #192]	@ 0xc0
  4017c8:	f8d0 309c 	ldr.w	r3, [r0, #156]	@ 0x9c
  4017cc:	9331      	str	r3, [sp, #196]	@ 0xc4
        Asa = state[20];
  4017ce:	f8d0 30a0 	ldr.w	r3, [r0, #160]	@ 0xa0
  4017d2:	9332      	str	r3, [sp, #200]	@ 0xc8
  4017d4:	f8d0 30a4 	ldr.w	r3, [r0, #164]	@ 0xa4
  4017d8:	9333      	str	r3, [sp, #204]	@ 0xcc
        Ase = state[21];
  4017da:	f8d0 30a8 	ldr.w	r3, [r0, #168]	@ 0xa8
  4017de:	9334      	str	r3, [sp, #208]	@ 0xd0
  4017e0:	f8d0 30ac 	ldr.w	r3, [r0, #172]	@ 0xac
  4017e4:	9335      	str	r3, [sp, #212]	@ 0xd4
        Asi = state[22];
  4017e6:	f8d0 30b0 	ldr.w	r3, [r0, #176]	@ 0xb0
  4017ea:	9336      	str	r3, [sp, #216]	@ 0xd8
  4017ec:	f8d0 30b4 	ldr.w	r3, [r0, #180]	@ 0xb4
  4017f0:	9337      	str	r3, [sp, #220]	@ 0xdc
        Aso = state[23];
  4017f2:	f8d0 30b8 	ldr.w	r3, [r0, #184]	@ 0xb8
  4017f6:	9338      	str	r3, [sp, #224]	@ 0xe0
  4017f8:	f8d0 30bc 	ldr.w	r3, [r0, #188]	@ 0xbc
  4017fc:	9339      	str	r3, [sp, #228]	@ 0xe4
        Asu = state[24];
  4017fe:	f8d0 30c0 	ldr.w	r3, [r0, #192]	@ 0xc0
  401802:	4a03      	ldr	r2, [pc, #12]	@ (401810 <KeccakF1600_StatePermute+0xf8>)
  401804:	933a      	str	r3, [sp, #232]	@ 0xe8
  401806:	f8d0 30c4 	ldr.w	r3, [r0, #196]	@ 0xc4

        for( round = 0; round < NROUNDS; round += 2 )
  40180a:	9200      	str	r2, [sp, #0]
  40180c:	e002      	b.n	401814 <KeccakF1600_StatePermute+0xfc>
  40180e:	bf00      	nop
  401810:	00403468 	.word	0x00403468
        {
            //    prepareTheta
            BCa = Aba^Aga^Aka^Ama^Asa;
  401814:	9a0a      	ldr	r2, [sp, #40]	@ 0x28
  401816:	9914      	ldr	r1, [sp, #80]	@ 0x50
  401818:	ea82 0601 	eor.w	r6, r2, r1
  40181c:	9915      	ldr	r1, [sp, #84]	@ 0x54
  40181e:	9a0b      	ldr	r2, [sp, #44]	@ 0x2c
  401820:	404a      	eors	r2, r1
  401822:	991e      	ldr	r1, [sp, #120]	@ 0x78
  401824:	404e      	eors	r6, r1
  401826:	991f      	ldr	r1, [sp, #124]	@ 0x7c
  401828:	404a      	eors	r2, r1
  40182a:	9928      	ldr	r1, [sp, #160]	@ 0xa0
  40182c:	404e      	eors	r6, r1
  40182e:	9929      	ldr	r1, [sp, #164]	@ 0xa4
  401830:	404a      	eors	r2, r1
  401832:	9932      	ldr	r1, [sp, #200]	@ 0xc8
  401834:	404e      	eors	r6, r1
  401836:	9933      	ldr	r1, [sp, #204]	@ 0xcc
  401838:	404a      	eors	r2, r1
  40183a:	9208      	str	r2, [sp, #32]
            BCe = Abe^Age^Ake^Ame^Ase;
  40183c:	9916      	ldr	r1, [sp, #88]	@ 0x58
  40183e:	9a0c      	ldr	r2, [sp, #48]	@ 0x30
  401840:	ea82 0901 	eor.w	r9, r2, r1
  401844:	9a0d      	ldr	r2, [sp, #52]	@ 0x34
  401846:	9917      	ldr	r1, [sp, #92]	@ 0x5c
  401848:	ea82 0801 	eor.w	r8, r2, r1
  40184c:	9a20      	ldr	r2, [sp, #128]	@ 0x80
            BCi = Abi^Agi^Aki^Ami^Asi;
  40184e:	9918      	ldr	r1, [sp, #96]	@ 0x60
            BCe = Abe^Age^Ake^Ame^Ase;
  401850:	ea89 0902 	eor.w	r9, r9, r2
  401854:	9a21      	ldr	r2, [sp, #132]	@ 0x84
  401856:	ea88 0802 	eor.w	r8, r8, r2
  40185a:	9a2a      	ldr	r2, [sp, #168]	@ 0xa8
  40185c:	ea89 0902 	eor.w	r9, r9, r2
  401860:	9a2b      	ldr	r2, [sp, #172]	@ 0xac
  401862:	ea88 0802 	eor.w	r8, r8, r2
  401866:	9a34      	ldr	r2, [sp, #208]	@ 0xd0
  401868:	ea89 0902 	eor.w	r9, r9, r2
  40186c:	9a35      	ldr	r2, [sp, #212]	@ 0xd4
  40186e:	ea88 0802 	eor.w	r8, r8, r2
            BCi = Abi^Agi^Aki^Ami^Asi;
  401872:	9a0e      	ldr	r2, [sp, #56]	@ 0x38
  401874:	ea82 0c01 	eor.w	ip, r2, r1
  401878:	9a0f      	ldr	r2, [sp, #60]	@ 0x3c
  40187a:	9919      	ldr	r1, [sp, #100]	@ 0x64
  40187c:	ea82 0701 	eor.w	r7, r2, r1
  401880:	9a22      	ldr	r2, [sp, #136]	@ 0x88
  401882:	9923      	ldr	r1, [sp, #140]	@ 0x8c
  401884:	ea8c 0c02 	eor.w	ip, ip, r2
  401888:	404f      	eors	r7, r1
  40188a:	9a2c      	ldr	r2, [sp, #176]	@ 0xb0
  40188c:	992d      	ldr	r1, [sp, #180]	@ 0xb4
  40188e:	ea8c 0c02 	eor.w	ip, ip, r2
  401892:	404f      	eors	r7, r1
  401894:	9a36      	ldr	r2, [sp, #216]	@ 0xd8
  401896:	9937      	ldr	r1, [sp, #220]	@ 0xdc
  401898:	ea8c 0c02 	eor.w	ip, ip, r2
  40189c:	404f      	eors	r7, r1
            BCo = Abo^Ago^Ako^Amo^Aso;
  40189e:	9a10      	ldr	r2, [sp, #64]	@ 0x40
  4018a0:	991a      	ldr	r1, [sp, #104]	@ 0x68
  4018a2:	ea82 0501 	eor.w	r5, r2, r1
  4018a6:	9a11      	ldr	r2, [sp, #68]	@ 0x44
  4018a8:	991b      	ldr	r1, [sp, #108]	@ 0x6c
  4018aa:	ea82 0401 	eor.w	r4, r2, r1
  4018ae:	9924      	ldr	r1, [sp, #144]	@ 0x90
            BCu = Abu^Agu^Aku^Amu^Asu;
  4018b0:	9a12      	ldr	r2, [sp, #72]	@ 0x48
            BCo = Abo^Ago^Ako^Amo^Aso;
  4018b2:	404d      	eors	r5, r1
  4018b4:	9925      	ldr	r1, [sp, #148]	@ 0x94
  4018b6:	404c      	eors	r4, r1
  4018b8:	992e      	ldr	r1, [sp, #184]	@ 0xb8
  4018ba:	404d      	eors	r5, r1
  4018bc:	992f      	ldr	r1, [sp, #188]	@ 0xbc
  4018be:	404c      	eors	r4, r1
  4018c0:	9938      	ldr	r1, [sp, #224]	@ 0xe0
  4018c2:	404d      	eors	r5, r1
  4018c4:	9939      	ldr	r1, [sp, #228]	@ 0xe4
  4018c6:	404c      	eors	r4, r1
            BCu = Abu^Agu^Aku^Amu^Asu;
  4018c8:	991c      	ldr	r1, [sp, #112]	@ 0x70
  4018ca:	ea82 0e01 	eor.w	lr, r2, r1
  4018ce:	9a13      	ldr	r2, [sp, #76]	@ 0x4c
  4018d0:	991d      	ldr	r1, [sp, #116]	@ 0x74
  4018d2:	4051      	eors	r1, r2
  4018d4:	9a26      	ldr	r2, [sp, #152]	@ 0x98
  4018d6:	ea8e 0e02 	eor.w	lr, lr, r2
  4018da:	9a27      	ldr	r2, [sp, #156]	@ 0x9c
  4018dc:	4051      	eors	r1, r2
  4018de:	9a30      	ldr	r2, [sp, #192]	@ 0xc0
  4018e0:	ea8e 0e02 	eor.w	lr, lr, r2
  4018e4:	9a31      	ldr	r2, [sp, #196]	@ 0xc4
  4018e6:	4051      	eors	r1, r2
  4018e8:	9a3a      	ldr	r2, [sp, #232]	@ 0xe8

            //thetaRhoPiChiIotaPrepareTheta(round  , A, E)
            Da = BCu^ROL(BCe, 1);
  4018ea:	ea4f 0b49 	mov.w	fp, r9, lsl #1
            BCu = Abu^Agu^Aku^Amu^Asu;
  4018ee:	ea8e 0e02 	eor.w	lr, lr, r2
            Da = BCu^ROL(BCe, 1);
  4018f2:	ea4b 7bd8 	orr.w	fp, fp, r8, lsr #31
  4018f6:	ea4f 0a48 	mov.w	sl, r8, lsl #1
            BCu = Abu^Agu^Aku^Amu^Asu;
  4018fa:	4059      	eors	r1, r3
            Da = BCu^ROL(BCe, 1);
  4018fc:	ea8b 020e 	eor.w	r2, fp, lr
  401900:	ea4a 7ad9 	orr.w	sl, sl, r9, lsr #31
            De = BCa^ROL(BCi, 1);
  401904:	ea4f 0b4c 	mov.w	fp, ip, lsl #1
            Da = BCu^ROL(BCe, 1);
  401908:	9201      	str	r2, [sp, #4]
            De = BCa^ROL(BCi, 1);
  40190a:	ea4b 7bd7 	orr.w	fp, fp, r7, lsr #31
            Da = BCu^ROL(BCe, 1);
  40190e:	ea8a 0201 	eor.w	r2, sl, r1
  401912:	9202      	str	r2, [sp, #8]
            De = BCa^ROL(BCi, 1);
  401914:	ea8b 0206 	eor.w	r2, fp, r6
  401918:	ea4f 0a47 	mov.w	sl, r7, lsl #1
  40191c:	9203      	str	r2, [sp, #12]
  40191e:	9a08      	ldr	r2, [sp, #32]
  401920:	ea4a 7adc 	orr.w	sl, sl, ip, lsr #31
  401924:	ea8a 0202 	eor.w	r2, sl, r2
            Di = BCe^ROL(BCo, 1);
  401928:	ea4f 0a44 	mov.w	sl, r4, lsl #1
  40192c:	ea4a 7ad5 	orr.w	sl, sl, r5, lsr #31
            De = BCa^ROL(BCi, 1);
  401930:	9204      	str	r2, [sp, #16]
            Di = BCe^ROL(BCo, 1);
  401932:	ea8a 0208 	eor.w	r2, sl, r8
            Do = BCi^ROL(BCu, 1);
  401936:	ea4f 084e 	mov.w	r8, lr, lsl #1
  40193a:	ea48 78d1 	orr.w	r8, r8, r1, lsr #31
  40193e:	0049      	lsls	r1, r1, #1
  401940:	ea41 71de 	orr.w	r1, r1, lr, lsr #31
            Di = BCe^ROL(BCo, 1);
  401944:	9205      	str	r2, [sp, #20]
            Do = BCi^ROL(BCu, 1);
  401946:	ea88 020c 	eor.w	r2, r8, ip
  40194a:	9206      	str	r2, [sp, #24]
  40194c:	ea81 0207 	eor.w	r2, r1, r7
  401950:	9207      	str	r2, [sp, #28]
            Du = BCo^ROL(BCa, 1);
  401952:	9a08      	ldr	r2, [sp, #32]
  401954:	0071      	lsls	r1, r6, #1
  401956:	ea41 71d2 	orr.w	r1, r1, r2, lsr #31
  40195a:	0052      	lsls	r2, r2, #1
  40195c:	ea42 72d6 	orr.w	r2, r2, r6, lsr #31
  401960:	4069      	eors	r1, r5
  401962:	4062      	eors	r2, r4
            Di = BCe^ROL(BCo, 1);
  401964:	ea4f 0b45 	mov.w	fp, r5, lsl #1
            Du = BCo^ROL(BCa, 1);
  401968:	9108      	str	r1, [sp, #32]
  40196a:	9209      	str	r2, [sp, #36]	@ 0x24

            Aba ^= Da;
  40196c:	990a      	ldr	r1, [sp, #40]	@ 0x28
  40196e:	9a01      	ldr	r2, [sp, #4]
            Di = BCe^ROL(BCo, 1);
  401970:	ea4b 7bd4 	orr.w	fp, fp, r4, lsr #31
  401974:	ea8b 0b09 	eor.w	fp, fp, r9
            Aba ^= Da;
  401978:	ea82 0901 	eor.w	r9, r2, r1
  40197c:	9a02      	ldr	r2, [sp, #8]
  40197e:	990b      	ldr	r1, [sp, #44]	@ 0x2c
            BCa = Aba;
            Age ^= De;
  401980:	9c17      	ldr	r4, [sp, #92]	@ 0x5c
            BCe = ROL(Age, 44);
            Aki ^= Di;
  401982:	9e23      	ldr	r6, [sp, #140]	@ 0x8c
            BCi = ROL(Aki, 43);
            Amo ^= Do;
  401984:	9f2f      	ldr	r7, [sp, #188]	@ 0xbc
            Aba ^= Da;
  401986:	ea82 0a01 	eor.w	sl, r2, r1
            Age ^= De;
  40198a:	9a03      	ldr	r2, [sp, #12]
  40198c:	9916      	ldr	r1, [sp, #88]	@ 0x58
  40198e:	4051      	eors	r1, r2
  401990:	9a04      	ldr	r2, [sp, #16]
            BCe = ROL(Age, 44);
  401992:	0d0d      	lsrs	r5, r1, #20
            Age ^= De;
  401994:	4062      	eors	r2, r4
            BCe = ROL(Age, 44);
  401996:	ea45 3502 	orr.w	r5, r5, r2, lsl #12
  40199a:	0d12      	lsrs	r2, r2, #20
  40199c:	ea42 3201 	orr.w	r2, r2, r1, lsl #12
            Aki ^= Di;
  4019a0:	9922      	ldr	r1, [sp, #136]	@ 0x88
  4019a2:	9c05      	ldr	r4, [sp, #20]
  4019a4:	ea8b 0101 	eor.w	r1, fp, r1
  4019a8:	4074      	eors	r4, r6
            BCi = ROL(Aki, 43);
  4019aa:	ea4f 5851 	mov.w	r8, r1, lsr #21
  4019ae:	ea48 28c4 	orr.w	r8, r8, r4, lsl #11
  4019b2:	0d64      	lsrs	r4, r4, #21
  4019b4:	ea44 24c1 	orr.w	r4, r4, r1, lsl #11
            Amo ^= Do;
  4019b8:	9e2e      	ldr	r6, [sp, #184]	@ 0xb8
  4019ba:	9906      	ldr	r1, [sp, #24]
  4019bc:	404e      	eors	r6, r1
  4019be:	9907      	ldr	r1, [sp, #28]
            BCo = ROL(Amo, 21);
  4019c0:	ea4f 5e46 	mov.w	lr, r6, lsl #21
            Amo ^= Do;
  4019c4:	4079      	eors	r1, r7
            BCo = ROL(Amo, 21);
  4019c6:	ea4e 2ed1 	orr.w	lr, lr, r1, lsr #11
  4019ca:	0549      	lsls	r1, r1, #21
            Asu ^= Du;
  4019cc:	9f3a      	ldr	r7, [sp, #232]	@ 0xe8
            BCo = ROL(Amo, 21);
  4019ce:	ea41 21d6 	orr.w	r1, r1, r6, lsr #11
            Asu ^= Du;
  4019d2:	9e08      	ldr	r6, [sp, #32]
  4019d4:	407e      	eors	r6, r7
  4019d6:	9f09      	ldr	r7, [sp, #36]	@ 0x24
            BCu = ROL(Asu, 14);
  4019d8:	ea4f 3c86 	mov.w	ip, r6, lsl #14
            Asu ^= Du;
  4019dc:	407b      	eors	r3, r7
            BCu = ROL(Asu, 14);
  4019de:	ea4c 4c93 	orr.w	ip, ip, r3, lsr #18
  4019e2:	039b      	lsls	r3, r3, #14
  4019e4:	ea43 4396 	orr.w	r3, r3, r6, lsr #18
            Eba =   BCa ^((~BCe)&  BCi );
            Eba ^= (uint64_t)KeccakF_RoundConstants[round];
  4019e8:	9e00      	ldr	r6, [sp, #0]
  4019ea:	e9d6 7600 	ldrd	r7, r6, [r6]
  4019ee:	ea8a 0606 	eor.w	r6, sl, r6
  4019f2:	960b      	str	r6, [sp, #44]	@ 0x2c
  4019f4:	ea89 0707 	eor.w	r7, r9, r7
  4019f8:	ea28 0605 	bic.w	r6, r8, r5
  4019fc:	407e      	eors	r6, r7
  4019fe:	9f0b      	ldr	r7, [sp, #44]	@ 0x2c
  401a00:	960a      	str	r6, [sp, #40]	@ 0x28
  401a02:	ea24 0602 	bic.w	r6, r4, r2
  401a06:	4077      	eors	r7, r6
            Ebe =   BCe ^((~BCi)&  BCo );
  401a08:	ea21 0604 	bic.w	r6, r1, r4
  401a0c:	4056      	eors	r6, r2
  401a0e:	9623      	str	r6, [sp, #140]	@ 0x8c
            Ebi =   BCi ^((~BCo)&  BCu );
  401a10:	ea23 0601 	bic.w	r6, r3, r1
  401a14:	4074      	eors	r4, r6
            Ebo =   BCo ^((~BCu)&  BCa );
            Ebu =   BCu ^((~BCa)&  BCe );
  401a16:	ea22 020a 	bic.w	r2, r2, sl
            Eba ^= (uint64_t)KeccakF_RoundConstants[round];
  401a1a:	970b      	str	r7, [sp, #44]	@ 0x2c
            Ebe =   BCe ^((~BCi)&  BCo );
  401a1c:	ea2e 0708 	bic.w	r7, lr, r8
  401a20:	406f      	eors	r7, r5
            Ebi =   BCi ^((~BCo)&  BCu );
  401a22:	943b      	str	r4, [sp, #236]	@ 0xec
            Ebo =   BCo ^((~BCu)&  BCa );
  401a24:	ea2a 0403 	bic.w	r4, sl, r3
            Ebu =   BCu ^((~BCa)&  BCe );
  401a28:	4053      	eors	r3, r2
            Ebo =   BCo ^((~BCu)&  BCa );
  401a2a:	ea29 060c 	bic.w	r6, r9, ip
  401a2e:	4061      	eors	r1, r4
            Ebu =   BCu ^((~BCa)&  BCe );
  401a30:	ea25 0509 	bic.w	r5, r5, r9

            Abo ^= Do;
  401a34:	9a10      	ldr	r2, [sp, #64]	@ 0x40
            Ebe =   BCe ^((~BCi)&  BCo );
  401a36:	9722      	str	r7, [sp, #136]	@ 0x88
            Ebu =   BCu ^((~BCa)&  BCe );
  401a38:	932f      	str	r3, [sp, #188]	@ 0xbc
            Ebi =   BCi ^((~BCo)&  BCu );
  401a3a:	ea2c 070e 	bic.w	r7, ip, lr
            Abo ^= Do;
  401a3e:	9b06      	ldr	r3, [sp, #24]
            Ebo =   BCo ^((~BCu)&  BCa );
  401a40:	9117      	str	r1, [sp, #92]	@ 0x5c
            Ebi =   BCi ^((~BCo)&  BCu );
  401a42:	ea87 0708 	eor.w	r7, r7, r8
            Ebu =   BCu ^((~BCa)&  BCe );
  401a46:	ea85 010c 	eor.w	r1, r5, ip
            Ebo =   BCo ^((~BCu)&  BCa );
  401a4a:	ea86 060e 	eor.w	r6, r6, lr
            Abo ^= Do;
  401a4e:	4053      	eors	r3, r2
            Ebi =   BCi ^((~BCo)&  BCu );
  401a50:	973a      	str	r7, [sp, #232]	@ 0xe8
            Ebo =   BCo ^((~BCu)&  BCa );
  401a52:	9616      	str	r6, [sp, #88]	@ 0x58
            Ebu =   BCu ^((~BCa)&  BCe );
  401a54:	912e      	str	r1, [sp, #184]	@ 0xb8
            Abo ^= Do;
  401a56:	9a07      	ldr	r2, [sp, #28]
  401a58:	9911      	ldr	r1, [sp, #68]	@ 0x44
            BCa = ROL(Abo, 28);
            Agu ^= Du;
  401a5a:	9c1d      	ldr	r4, [sp, #116]	@ 0x74
            BCe = ROL(Agu, 20);
            Aka ^= Da;
  401a5c:	9d1f      	ldr	r5, [sp, #124]	@ 0x7c
            BCi = ROL(Aka,  3);
            Ame ^= De;
  401a5e:	9f2b      	ldr	r7, [sp, #172]	@ 0xac
            Abo ^= Do;
  401a60:	4051      	eors	r1, r2
            BCa = ROL(Abo, 28);
  401a62:	ea4f 7c03 	mov.w	ip, r3, lsl #28
  401a66:	ea4c 1c11 	orr.w	ip, ip, r1, lsr #4
  401a6a:	0709      	lsls	r1, r1, #28
  401a6c:	ea41 1113 	orr.w	r1, r1, r3, lsr #4
            Agu ^= Du;
  401a70:	9a1c      	ldr	r2, [sp, #112]	@ 0x70
  401a72:	9b08      	ldr	r3, [sp, #32]
  401a74:	405a      	eors	r2, r3
  401a76:	9b09      	ldr	r3, [sp, #36]	@ 0x24
            BCe = ROL(Agu, 20);
  401a78:	0516      	lsls	r6, r2, #20
            Agu ^= Du;
  401a7a:	4063      	eors	r3, r4
            BCe = ROL(Agu, 20);
  401a7c:	ea46 3613 	orr.w	r6, r6, r3, lsr #12
  401a80:	051b      	lsls	r3, r3, #20
            Aka ^= Da;
  401a82:	9c1e      	ldr	r4, [sp, #120]	@ 0x78
            BCe = ROL(Agu, 20);
  401a84:	ea43 3312 	orr.w	r3, r3, r2, lsr #12
            Aka ^= Da;
  401a88:	9a01      	ldr	r2, [sp, #4]
  401a8a:	4062      	eors	r2, r4
  401a8c:	9c02      	ldr	r4, [sp, #8]
            BCi = ROL(Aka,  3);
  401a8e:	ea4f 08c2 	mov.w	r8, r2, lsl #3
            Aka ^= Da;
  401a92:	4065      	eors	r5, r4
            BCi = ROL(Aka,  3);
  401a94:	ea48 7855 	orr.w	r8, r8, r5, lsr #29
  401a98:	00ed      	lsls	r5, r5, #3
            Ame ^= De;
  401a9a:	9c2a      	ldr	r4, [sp, #168]	@ 0xa8
            BCi = ROL(Aka,  3);
  401a9c:	ea45 7552 	orr.w	r5, r5, r2, lsr #29
            Ame ^= De;
  401aa0:	9a03      	ldr	r2, [sp, #12]
  401aa2:	4062      	eors	r2, r4
  401aa4:	9c04      	ldr	r4, [sp, #16]
            BCo = ROL(Ame, 45);
  401aa6:	ea4f 4ed2 	mov.w	lr, r2, lsr #19
            Ame ^= De;
  401aaa:	407c      	eors	r4, r7
            BCo = ROL(Ame, 45);
  401aac:	ea4e 3e44 	orr.w	lr, lr, r4, lsl #13
  401ab0:	0ce4      	lsrs	r4, r4, #19
  401ab2:	ea44 3442 	orr.w	r4, r4, r2, lsl #13
            Asi ^= Di;
  401ab6:	9a36      	ldr	r2, [sp, #216]	@ 0xd8
  401ab8:	9f37      	ldr	r7, [sp, #220]	@ 0xdc
  401aba:	ea8b 0902 	eor.w	r9, fp, r2
  401abe:	9a05      	ldr	r2, [sp, #20]
  401ac0:	407a      	eors	r2, r7
            BCu = ROL(Asi, 61);
  401ac2:	ea4f 07d9 	mov.w	r7, r9, lsr #3
  401ac6:	ea47 7742 	orr.w	r7, r7, r2, lsl #29
  401aca:	08d2      	lsrs	r2, r2, #3
  401acc:	ea42 7249 	orr.w	r2, r2, r9, lsl #29
            Ega =   BCa ^((~BCe)&  BCi );
  401ad0:	ea25 0903 	bic.w	r9, r5, r3
  401ad4:	ea89 0901 	eor.w	r9, r9, r1
  401ad8:	f8cd 90ac 	str.w	r9, [sp, #172]	@ 0xac
            Ege =   BCe ^((~BCi)&  BCo );
  401adc:	ea24 0905 	bic.w	r9, r4, r5
            Ega =   BCa ^((~BCe)&  BCi );
  401ae0:	ea28 0a06 	bic.w	sl, r8, r6
            Ege =   BCe ^((~BCi)&  BCo );
  401ae4:	ea89 0903 	eor.w	r9, r9, r3
            Ega =   BCa ^((~BCe)&  BCi );
  401ae8:	ea8a 0a0c 	eor.w	sl, sl, ip
            Ege =   BCe ^((~BCi)&  BCo );
  401aec:	f8cd 9044 	str.w	r9, [sp, #68]	@ 0x44
            Egi =   BCi ^((~BCo)&  BCu );
            Ego =   BCo ^((~BCu)&  BCa );
            Egu =   BCu ^((~BCa)&  BCe );
  401af0:	ea23 0301 	bic.w	r3, r3, r1
            Egi =   BCi ^((~BCo)&  BCu );
  401af4:	ea22 0904 	bic.w	r9, r2, r4
  401af8:	ea89 0505 	eor.w	r5, r9, r5
            Egu =   BCu ^((~BCa)&  BCe );
  401afc:	4053      	eors	r3, r2
            Ega =   BCa ^((~BCe)&  BCi );
  401afe:	f8cd a0a8 	str.w	sl, [sp, #168]	@ 0xa8
            Ege =   BCe ^((~BCi)&  BCo );
  401b02:	ea2e 0a08 	bic.w	sl, lr, r8
  401b06:	ea8a 0a06 	eor.w	sl, sl, r6
            Egi =   BCi ^((~BCo)&  BCu );
  401b0a:	951f      	str	r5, [sp, #124]	@ 0x7c
            Egu =   BCu ^((~BCa)&  BCe );
  401b0c:	ea26 060c 	bic.w	r6, r6, ip
            Ego =   BCo ^((~BCu)&  BCa );
  401b10:	ea21 0502 	bic.w	r5, r1, r2
            Egu =   BCu ^((~BCa)&  BCe );
  401b14:	931d      	str	r3, [sp, #116]	@ 0x74

            Abe ^= De;
  401b16:	9a0c      	ldr	r2, [sp, #48]	@ 0x30
  401b18:	9b03      	ldr	r3, [sp, #12]
            Ege =   BCe ^((~BCi)&  BCo );
  401b1a:	f8cd a040 	str.w	sl, [sp, #64]	@ 0x40
            Egu =   BCu ^((~BCa)&  BCe );
  401b1e:	ea86 0107 	eor.w	r1, r6, r7
            Egi =   BCi ^((~BCo)&  BCu );
  401b22:	ea27 0a0e 	bic.w	sl, r7, lr
            Abe ^= De;
  401b26:	4053      	eors	r3, r2
            Egu =   BCu ^((~BCa)&  BCe );
  401b28:	911c      	str	r1, [sp, #112]	@ 0x70
            Abe ^= De;
  401b2a:	9a04      	ldr	r2, [sp, #16]
  401b2c:	990d      	ldr	r1, [sp, #52]	@ 0x34
            Egi =   BCi ^((~BCo)&  BCu );
  401b2e:	ea8a 0808 	eor.w	r8, sl, r8
            Abe ^= De;
  401b32:	4051      	eors	r1, r2
            Egi =   BCi ^((~BCo)&  BCu );
  401b34:	f8cd 8078 	str.w	r8, [sp, #120]	@ 0x78
            Ego =   BCo ^((~BCu)&  BCa );
  401b38:	ea2c 0807 	bic.w	r8, ip, r7
            BCa = ROL(Abe,  1);
  401b3c:	ea4f 0c43 	mov.w	ip, r3, lsl #1
  401b40:	ea4c 7cd1 	orr.w	ip, ip, r1, lsr #31
  401b44:	0049      	lsls	r1, r1, #1
  401b46:	ea41 71d3 	orr.w	r1, r1, r3, lsr #31
            Agi ^= Di;
  401b4a:	9b18      	ldr	r3, [sp, #96]	@ 0x60
            Ego =   BCo ^((~BCu)&  BCa );
  401b4c:	ea88 0e0e 	eor.w	lr, r8, lr
  401b50:	406c      	eors	r4, r5
            Agi ^= Di;
  401b52:	ea8b 0203 	eor.w	r2, fp, r3
            Ego =   BCo ^((~BCu)&  BCa );
  401b56:	f8cd e0d8 	str.w	lr, [sp, #216]	@ 0xd8
  401b5a:	9437      	str	r4, [sp, #220]	@ 0xdc
            Agi ^= Di;
  401b5c:	9b05      	ldr	r3, [sp, #20]
  401b5e:	9c19      	ldr	r4, [sp, #100]	@ 0x64
            BCe = ROL(Agi,  6);
            Ako ^= Do;
  401b60:	9d25      	ldr	r5, [sp, #148]	@ 0x94
            BCi = ROL(Ako, 25);
            Amu ^= Du;
  401b62:	9f31      	ldr	r7, [sp, #196]	@ 0xc4
            Agi ^= Di;
  401b64:	4063      	eors	r3, r4
            BCe = ROL(Agi,  6);
  401b66:	0196      	lsls	r6, r2, #6
  401b68:	ea46 6693 	orr.w	r6, r6, r3, lsr #26
  401b6c:	019b      	lsls	r3, r3, #6
            Ako ^= Do;
  401b6e:	9c24      	ldr	r4, [sp, #144]	@ 0x90
            BCe = ROL(Agi,  6);
  401b70:	ea43 6392 	orr.w	r3, r3, r2, lsr #26
            Ako ^= Do;
  401b74:	9a06      	ldr	r2, [sp, #24]
  401b76:	4062      	eors	r2, r4
  401b78:	9c07      	ldr	r4, [sp, #28]
            BCi = ROL(Ako, 25);
  401b7a:	ea4f 6842 	mov.w	r8, r2, lsl #25
            Ako ^= Do;
  401b7e:	4065      	eors	r5, r4
            BCi = ROL(Ako, 25);
  401b80:	ea48 18d5 	orr.w	r8, r8, r5, lsr #7
  401b84:	066d      	lsls	r5, r5, #25
            Amu ^= Du;
  401b86:	9c30      	ldr	r4, [sp, #192]	@ 0xc0
            BCi = ROL(Ako, 25);
  401b88:	ea45 15d2 	orr.w	r5, r5, r2, lsr #7
            Amu ^= Du;
  401b8c:	9a08      	ldr	r2, [sp, #32]
  401b8e:	4062      	eors	r2, r4
  401b90:	9c09      	ldr	r4, [sp, #36]	@ 0x24
            BCo = ROL(Amu,  8);
  401b92:	ea4f 2e02 	mov.w	lr, r2, lsl #8
            Amu ^= Du;
  401b96:	407c      	eors	r4, r7
            BCo = ROL(Amu,  8);
  401b98:	ea4e 6e14 	orr.w	lr, lr, r4, lsr #24
  401b9c:	0224      	lsls	r4, r4, #8
            Asa ^= Da;
  401b9e:	9f32      	ldr	r7, [sp, #200]	@ 0xc8
            BCo = ROL(Amu,  8);
  401ba0:	ea44 6412 	orr.w	r4, r4, r2, lsr #24
            Asa ^= Da;
  401ba4:	9a01      	ldr	r2, [sp, #4]
  401ba6:	ea82 0907 	eor.w	r9, r2, r7
  401baa:	9f33      	ldr	r7, [sp, #204]	@ 0xcc
  401bac:	9a02      	ldr	r2, [sp, #8]
  401bae:	407a      	eors	r2, r7
            BCu = ROL(Asa, 18);
  401bb0:	ea4f 4789 	mov.w	r7, r9, lsl #18
  401bb4:	ea47 3792 	orr.w	r7, r7, r2, lsr #14
  401bb8:	0492      	lsls	r2, r2, #18
  401bba:	ea42 3299 	orr.w	r2, r2, r9, lsr #14
            Eka =   BCa ^((~BCe)&  BCi );
  401bbe:	ea25 0903 	bic.w	r9, r5, r3
  401bc2:	ea89 0901 	eor.w	r9, r9, r1
  401bc6:	f8cd 9064 	str.w	r9, [sp, #100]	@ 0x64
            Eke =   BCe ^((~BCi)&  BCo );
  401bca:	ea24 0905 	bic.w	r9, r4, r5
            Eka =   BCa ^((~BCe)&  BCi );
  401bce:	ea28 0a06 	bic.w	sl, r8, r6
            Eke =   BCe ^((~BCi)&  BCo );
  401bd2:	ea89 0903 	eor.w	r9, r9, r3
            Eka =   BCa ^((~BCe)&  BCi );
  401bd6:	ea8a 0a0c 	eor.w	sl, sl, ip
            Eke =   BCe ^((~BCi)&  BCo );
  401bda:	f8cd 90c4 	str.w	r9, [sp, #196]	@ 0xc4
            Eki =   BCi ^((~BCo)&  BCu );
            Eko =   BCo ^((~BCu)&  BCa );
            Eku =   BCu ^((~BCa)&  BCe );
  401bde:	ea23 0301 	bic.w	r3, r3, r1
            Eki =   BCi ^((~BCo)&  BCu );
  401be2:	ea22 0904 	bic.w	r9, r2, r4
  401be6:	ea89 0505 	eor.w	r5, r9, r5
            Eku =   BCu ^((~BCa)&  BCe );
  401bea:	4053      	eors	r3, r2
            Eka =   BCa ^((~BCe)&  BCi );
  401bec:	f8cd a060 	str.w	sl, [sp, #96]	@ 0x60
            Eke =   BCe ^((~BCi)&  BCo );
  401bf0:	ea2e 0a08 	bic.w	sl, lr, r8
  401bf4:	ea8a 0a06 	eor.w	sl, sl, r6
            Eki =   BCi ^((~BCo)&  BCu );
  401bf8:	950d      	str	r5, [sp, #52]	@ 0x34
            Eku =   BCu ^((~BCa)&  BCe );
  401bfa:	ea26 060c 	bic.w	r6, r6, ip
            Eko =   BCo ^((~BCu)&  BCa );
  401bfe:	ea21 0502 	bic.w	r5, r1, r2
            Eku =   BCu ^((~BCa)&  BCe );
  401c02:	9333      	str	r3, [sp, #204]	@ 0xcc

            Abu ^= Du;
  401c04:	9a12      	ldr	r2, [sp, #72]	@ 0x48
  401c06:	9b08      	ldr	r3, [sp, #32]
            Eke =   BCe ^((~BCi)&  BCo );
  401c08:	f8cd a0c0 	str.w	sl, [sp, #192]	@ 0xc0
            Eku =   BCu ^((~BCa)&  BCe );
  401c0c:	ea86 0107 	eor.w	r1, r6, r7
            Eki =   BCi ^((~BCo)&  BCu );
  401c10:	ea27 0a0e 	bic.w	sl, r7, lr
            Abu ^= Du;
  401c14:	4053      	eors	r3, r2
            Eku =   BCu ^((~BCa)&  BCe );
  401c16:	9132      	str	r1, [sp, #200]	@ 0xc8
            Abu ^= Du;
  401c18:	9a09      	ldr	r2, [sp, #36]	@ 0x24
  401c1a:	9913      	ldr	r1, [sp, #76]	@ 0x4c
            Eki =   BCi ^((~BCo)&  BCu );
  401c1c:	ea8a 0808 	eor.w	r8, sl, r8
            Abu ^= Du;
  401c20:	4051      	eors	r1, r2
            Eki =   BCi ^((~BCo)&  BCu );
  401c22:	f8cd 8030 	str.w	r8, [sp, #48]	@ 0x30
            Eko =   BCo ^((~BCu)&  BCa );
  401c26:	ea2c 0807 	bic.w	r8, ip, r7
            BCa = ROL(Abu, 27);
  401c2a:	ea4f 6cc3 	mov.w	ip, r3, lsl #27
  401c2e:	ea4c 1c51 	orr.w	ip, ip, r1, lsr #5
  401c32:	06c9      	lsls	r1, r1, #27
  401c34:	ea41 1153 	orr.w	r1, r1, r3, lsr #5
            Aga ^= Da;
  401c38:	9a14      	ldr	r2, [sp, #80]	@ 0x50
  401c3a:	9b01      	ldr	r3, [sp, #4]
            Eko =   BCo ^((~BCu)&  BCa );
  401c3c:	406c      	eors	r4, r5
            Aga ^= Da;
  401c3e:	405a      	eors	r2, r3
            Eko =   BCo ^((~BCu)&  BCa );
  401c40:	9425      	str	r4, [sp, #148]	@ 0x94
            Aga ^= Da;
  401c42:	9b02      	ldr	r3, [sp, #8]
  401c44:	9c15      	ldr	r4, [sp, #84]	@ 0x54
            BCe = ROL(Aga, 36);
  401c46:	0f16      	lsrs	r6, r2, #28
            Aga ^= Da;
  401c48:	4063      	eors	r3, r4
            BCe = ROL(Aga, 36);
  401c4a:	ea46 1603 	orr.w	r6, r6, r3, lsl #4
            Eko =   BCo ^((~BCu)&  BCa );
  401c4e:	ea88 0e0e 	eor.w	lr, r8, lr
            BCe = ROL(Aga, 36);
  401c52:	0f1b      	lsrs	r3, r3, #28
  401c54:	ea43 1302 	orr.w	r3, r3, r2, lsl #4
            Eko =   BCo ^((~BCu)&  BCa );
  401c58:	f8cd e090 	str.w	lr, [sp, #144]	@ 0x90
            Ake ^= De;
  401c5c:	9a03      	ldr	r2, [sp, #12]
  401c5e:	9c20      	ldr	r4, [sp, #128]	@ 0x80
  401c60:	9d21      	ldr	r5, [sp, #132]	@ 0x84
            BCi = ROL(Ake, 10);
            Ami ^= Di;
  401c62:	9f2d      	ldr	r7, [sp, #180]	@ 0xb4
            Ake ^= De;
  401c64:	4062      	eors	r2, r4
  401c66:	9c04      	ldr	r4, [sp, #16]
            BCi = ROL(Ake, 10);
  401c68:	ea4f 2882 	mov.w	r8, r2, lsl #10
            Ake ^= De;
  401c6c:	4065      	eors	r5, r4
            BCi = ROL(Ake, 10);
  401c6e:	ea48 5895 	orr.w	r8, r8, r5, lsr #22
  401c72:	02ad      	lsls	r5, r5, #10
  401c74:	ea45 5592 	orr.w	r5, r5, r2, lsr #22
            Ami ^= Di;
  401c78:	9a2c      	ldr	r2, [sp, #176]	@ 0xb0
  401c7a:	9c05      	ldr	r4, [sp, #20]
  401c7c:	ea8b 0202 	eor.w	r2, fp, r2
  401c80:	407c      	eors	r4, r7
            BCo = ROL(Ami, 15);
  401c82:	ea4f 3ec2 	mov.w	lr, r2, lsl #15
  401c86:	ea4e 4e54 	orr.w	lr, lr, r4, lsr #17
  401c8a:	03e4      	lsls	r4, r4, #15
            Aso ^= Do;
  401c8c:	9f38      	ldr	r7, [sp, #224]	@ 0xe0
            BCo = ROL(Ami, 15);
  401c8e:	ea44 4452 	orr.w	r4, r4, r2, lsr #17
            Aso ^= Do;
  401c92:	9a06      	ldr	r2, [sp, #24]
  401c94:	ea82 0907 	eor.w	r9, r2, r7
  401c98:	9f39      	ldr	r7, [sp, #228]	@ 0xe4
  401c9a:	9a07      	ldr	r2, [sp, #28]
  401c9c:	407a      	eors	r2, r7
            BCu = ROL(Aso, 56);
  401c9e:	ea4f 2719 	mov.w	r7, r9, lsr #8
  401ca2:	ea47 6702 	orr.w	r7, r7, r2, lsl #24
  401ca6:	0a12      	lsrs	r2, r2, #8
  401ca8:	ea42 6209 	orr.w	r2, r2, r9, lsl #24
            Ema =   BCa ^((~BCe)&  BCi );
  401cac:	ea25 0903 	bic.w	r9, r5, r3
  401cb0:	ea89 0901 	eor.w	r9, r9, r1
  401cb4:	ea28 0a06 	bic.w	sl, r8, r6
  401cb8:	f8cd 90e4 	str.w	r9, [sp, #228]	@ 0xe4
            Eme =   BCe ^((~BCi)&  BCo );
  401cbc:	ea24 0905 	bic.w	r9, r4, r5
            Ema =   BCa ^((~BCe)&  BCi );
  401cc0:	ea8a 0a0c 	eor.w	sl, sl, ip
            Eme =   BCe ^((~BCi)&  BCo );
  401cc4:	ea89 0903 	eor.w	r9, r9, r3
            Ema =   BCa ^((~BCe)&  BCi );
  401cc8:	f8cd a0e0 	str.w	sl, [sp, #224]	@ 0xe0
            Eme =   BCe ^((~BCi)&  BCo );
  401ccc:	f8cd 9054 	str.w	r9, [sp, #84]	@ 0x54
  401cd0:	ea2e 0a08 	bic.w	sl, lr, r8
            Emi =   BCi ^((~BCo)&  BCu );
  401cd4:	ea22 0904 	bic.w	r9, r2, r4
            Emo =   BCo ^((~BCu)&  BCa );
            Emu =   BCu ^((~BCa)&  BCe );
  401cd8:	ea23 0301 	bic.w	r3, r3, r1
            Eme =   BCe ^((~BCi)&  BCo );
  401cdc:	ea8a 0a06 	eor.w	sl, sl, r6
            Emi =   BCi ^((~BCo)&  BCu );
  401ce0:	ea89 0505 	eor.w	r5, r9, r5
            Emu =   BCu ^((~BCa)&  BCe );
  401ce4:	ea26 060c 	bic.w	r6, r6, ip
  401ce8:	4053      	eors	r3, r2
            Emi =   BCi ^((~BCo)&  BCu );
  401cea:	952d      	str	r5, [sp, #180]	@ 0xb4
            Emu =   BCu ^((~BCa)&  BCe );
  401cec:	9321      	str	r3, [sp, #132]	@ 0x84
            Emo =   BCo ^((~BCu)&  BCa );
  401cee:	ea21 0502 	bic.w	r5, r1, r2

            Abi ^= Di;
  401cf2:	9b0e      	ldr	r3, [sp, #56]	@ 0x38
  401cf4:	9a05      	ldr	r2, [sp, #20]
            Eme =   BCe ^((~BCi)&  BCo );
  401cf6:	f8cd a050 	str.w	sl, [sp, #80]	@ 0x50
            Emu =   BCu ^((~BCa)&  BCe );
  401cfa:	ea86 0107 	eor.w	r1, r6, r7
  401cfe:	9120      	str	r1, [sp, #128]	@ 0x80
            Abi ^= Di;
  401d00:	990f      	ldr	r1, [sp, #60]	@ 0x3c
            BCa = ROL(Abi, 62);
            Ago ^= Do;
            BCe = ROL(Ago, 55);
            Aku ^= Du;
  401d02:	9e26      	ldr	r6, [sp, #152]	@ 0x98
            Abi ^= Di;
  401d04:	ea8b 0303 	eor.w	r3, fp, r3
            Emo =   BCo ^((~BCu)&  BCa );
  401d08:	406c      	eors	r4, r5
  401d0a:	9413      	str	r4, [sp, #76]	@ 0x4c
            BCa = ROL(Abi, 62);
  401d0c:	089d      	lsrs	r5, r3, #2
            Abi ^= Di;
  401d0e:	ea82 0401 	eor.w	r4, r2, r1
            BCa = ROL(Abi, 62);
  401d12:	ea45 7584 	orr.w	r5, r5, r4, lsl #30
  401d16:	08a4      	lsrs	r4, r4, #2
  401d18:	ea44 7483 	orr.w	r4, r4, r3, lsl #30
            Ago ^= Do;
  401d1c:	9a1a      	ldr	r2, [sp, #104]	@ 0x68
  401d1e:	9b06      	ldr	r3, [sp, #24]
  401d20:	ea83 0102 	eor.w	r1, r3, r2
  401d24:	9a1b      	ldr	r2, [sp, #108]	@ 0x6c
  401d26:	9b07      	ldr	r3, [sp, #28]
  401d28:	4053      	eors	r3, r2
            BCe = ROL(Ago, 55);
  401d2a:	0a4a      	lsrs	r2, r1, #9
  401d2c:	ea42 52c3 	orr.w	r2, r2, r3, lsl #23
  401d30:	0a5b      	lsrs	r3, r3, #9
            Emi =   BCi ^((~BCo)&  BCu );
  401d32:	ea27 0a0e 	bic.w	sl, r7, lr
            BCe = ROL(Ago, 55);
  401d36:	ea43 53c1 	orr.w	r3, r3, r1, lsl #23
            Aku ^= Du;
  401d3a:	9908      	ldr	r1, [sp, #32]
            Emi =   BCi ^((~BCo)&  BCu );
  401d3c:	ea8a 0808 	eor.w	r8, sl, r8
            Aku ^= Du;
  401d40:	4071      	eors	r1, r6
            Emi =   BCi ^((~BCo)&  BCu );
  401d42:	f8cd 80b0 	str.w	r8, [sp, #176]	@ 0xb0
            Aku ^= Du;
  401d46:	9e09      	ldr	r6, [sp, #36]	@ 0x24
            Emo =   BCo ^((~BCu)&  BCa );
  401d48:	ea2c 0807 	bic.w	r8, ip, r7
            Aku ^= Du;
  401d4c:	9f27      	ldr	r7, [sp, #156]	@ 0x9c
            BCi = ROL(Aku, 39);
  401d4e:	ea4f 6c51 	mov.w	ip, r1, lsr #25
            Aku ^= Du;
  401d52:	4077      	eors	r7, r6
            BCi = ROL(Aku, 39);
  401d54:	ea4c 1cc7 	orr.w	ip, ip, r7, lsl #7
            Emo =   BCo ^((~BCu)&  BCa );
  401d58:	ea88 0e0e 	eor.w	lr, r8, lr
            BCi = ROL(Aku, 39);
  401d5c:	0e7f      	lsrs	r7, r7, #25
  401d5e:	ea47 17c1 	orr.w	r7, r7, r1, lsl #7
            Emo =   BCo ^((~BCu)&  BCa );
  401d62:	f8cd e048 	str.w	lr, [sp, #72]	@ 0x48
            Ama ^= Da;
  401d66:	9901      	ldr	r1, [sp, #4]
  401d68:	9e28      	ldr	r6, [sp, #160]	@ 0xa0
  401d6a:	f8dd e0a4 	ldr.w	lr, [sp, #164]	@ 0xa4
  401d6e:	4071      	eors	r1, r6
  401d70:	9e02      	ldr	r6, [sp, #8]
            BCo = ROL(Ama, 41);
  401d72:	ea4f 58d1 	mov.w	r8, r1, lsr #23
            Ama ^= Da;
  401d76:	ea86 060e 	eor.w	r6, r6, lr
            BCo = ROL(Ama, 41);
  401d7a:	ea48 2846 	orr.w	r8, r8, r6, lsl #9
  401d7e:	0df6      	lsrs	r6, r6, #23
            Ase ^= De;
  401d80:	f8dd e0d0 	ldr.w	lr, [sp, #208]	@ 0xd0
            BCo = ROL(Ama, 41);
  401d84:	ea46 2641 	orr.w	r6, r6, r1, lsl #9
            Ase ^= De;
  401d88:	9903      	ldr	r1, [sp, #12]
  401d8a:	ea81 090e 	eor.w	r9, r1, lr
  401d8e:	f8dd e0d4 	ldr.w	lr, [sp, #212]	@ 0xd4
  401d92:	9904      	ldr	r1, [sp, #16]
  401d94:	ea81 010e 	eor.w	r1, r1, lr
            BCu = ROL(Ase,  2);
  401d98:	ea4f 0e89 	mov.w	lr, r9, lsl #2
  401d9c:	ea4e 7e91 	orr.w	lr, lr, r1, lsr #30
  401da0:	0089      	lsls	r1, r1, #2
  401da2:	ea41 7199 	orr.w	r1, r1, r9, lsr #30
            Esa =   BCa ^((~BCe)&  BCi );
  401da6:	ea27 0903 	bic.w	r9, r7, r3
  401daa:	ea2c 0a02 	bic.w	sl, ip, r2
  401dae:	ea89 0904 	eor.w	r9, r9, r4
  401db2:	ea8a 0a05 	eor.w	sl, sl, r5
  401db6:	f8cd 909c 	str.w	r9, [sp, #156]	@ 0x9c
            Ese =   BCe ^((~BCi)&  BCo );
  401dba:	ea26 0907 	bic.w	r9, r6, r7
            Esa =   BCa ^((~BCe)&  BCi );
  401dbe:	f8cd a098 	str.w	sl, [sp, #152]	@ 0x98
            Ese =   BCe ^((~BCi)&  BCo );
  401dc2:	ea89 0903 	eor.w	r9, r9, r3
  401dc6:	ea28 0a0c 	bic.w	sl, r8, ip
  401dca:	ea8a 0a02 	eor.w	sl, sl, r2
  401dce:	f8cd 90d4 	str.w	r9, [sp, #212]	@ 0xd4
            Esi =   BCi ^((~BCo)&  BCu );
            Eso =   BCo ^((~BCu)&  BCa );
            Esu =   BCu ^((~BCa)&  BCe );
  401dd2:	ea22 0205 	bic.w	r2, r2, r5
            Esi =   BCi ^((~BCo)&  BCu );
  401dd6:	ea21 0906 	bic.w	r9, r1, r6
            Esu =   BCu ^((~BCa)&  BCe );
  401dda:	ea23 0304 	bic.w	r3, r3, r4
            Esi =   BCi ^((~BCo)&  BCu );
  401dde:	ea89 0707 	eor.w	r7, r9, r7
            Esu =   BCu ^((~BCa)&  BCe );
  401de2:	ea82 020e 	eor.w	r2, r2, lr
  401de6:	404b      	eors	r3, r1
            Esi =   BCi ^((~BCo)&  BCu );
  401de8:	971b      	str	r7, [sp, #108]	@ 0x6c
            Esu =   BCu ^((~BCa)&  BCe );
  401dea:	920e      	str	r2, [sp, #56]	@ 0x38
            Eso =   BCo ^((~BCu)&  BCa );
  401dec:	ea24 0701 	bic.w	r7, r4, r1

            //    prepareTheta
            BCa = Eba^Ega^Eka^Ema^Esa;
  401df0:	9a2a      	ldr	r2, [sp, #168]	@ 0xa8
            Esu =   BCu ^((~BCa)&  BCe );
  401df2:	930f      	str	r3, [sp, #60]	@ 0x3c
            BCa = Eba^Ega^Eka^Ema^Esa;
  401df4:	9b0a      	ldr	r3, [sp, #40]	@ 0x28
  401df6:	9918      	ldr	r1, [sp, #96]	@ 0x60
            Ese =   BCe ^((~BCi)&  BCo );
  401df8:	f8cd a0d0 	str.w	sl, [sp, #208]	@ 0xd0
            Eso =   BCo ^((~BCu)&  BCa );
  401dfc:	407e      	eors	r6, r7
  401dfe:	9629      	str	r6, [sp, #164]	@ 0xa4
            BCa = Eba^Ega^Eka^Ema^Esa;
  401e00:	ea83 0602 	eor.w	r6, r3, r2
  401e04:	9a2b      	ldr	r2, [sp, #172]	@ 0xac
  401e06:	9b0b      	ldr	r3, [sp, #44]	@ 0x2c
  401e08:	404e      	eors	r6, r1
  401e0a:	9919      	ldr	r1, [sp, #100]	@ 0x64
  401e0c:	4053      	eors	r3, r2
  401e0e:	404b      	eors	r3, r1
  401e10:	9938      	ldr	r1, [sp, #224]	@ 0xe0
            BCe = Ebe^Ege^Eke^Eme^Ese;
  401e12:	9a22      	ldr	r2, [sp, #136]	@ 0x88
            BCa = Eba^Ega^Eka^Ema^Esa;
  401e14:	404e      	eors	r6, r1
  401e16:	9939      	ldr	r1, [sp, #228]	@ 0xe4
  401e18:	404b      	eors	r3, r1
  401e1a:	9926      	ldr	r1, [sp, #152]	@ 0x98
  401e1c:	404e      	eors	r6, r1
  401e1e:	9927      	ldr	r1, [sp, #156]	@ 0x9c
            Esi =   BCi ^((~BCo)&  BCu );
  401e20:	ea2e 0a08 	bic.w	sl, lr, r8
            BCa = Eba^Ega^Eka^Ema^Esa;
  401e24:	404b      	eors	r3, r1
            BCe = Ebe^Ege^Eke^Eme^Ese;
  401e26:	9910      	ldr	r1, [sp, #64]	@ 0x40
            Esi =   BCi ^((~BCo)&  BCu );
  401e28:	ea8a 0c0c 	eor.w	ip, sl, ip
            BCe = Ebe^Ege^Eke^Eme^Ese;
  401e2c:	ea82 0901 	eor.w	r9, r2, r1
            Esi =   BCi ^((~BCo)&  BCu );
  401e30:	f8cd c068 	str.w	ip, [sp, #104]	@ 0x68
            BCe = Ebe^Ege^Eke^Eme^Ese;
  401e34:	9911      	ldr	r1, [sp, #68]	@ 0x44
  401e36:	9a23      	ldr	r2, [sp, #140]	@ 0x8c
            Eso =   BCo ^((~BCu)&  BCa );
  401e38:	ea25 0c0e 	bic.w	ip, r5, lr
  401e3c:	ea8c 0c08 	eor.w	ip, ip, r8
  401e40:	f8cd c0a0 	str.w	ip, [sp, #160]	@ 0xa0
            BCe = Ebe^Ege^Eke^Eme^Ese;
  401e44:	ea82 0801 	eor.w	r8, r2, r1
  401e48:	9a30      	ldr	r2, [sp, #192]	@ 0xc0
            BCi = Ebi^Egi^Eki^Emi^Esi;
  401e4a:	991e      	ldr	r1, [sp, #120]	@ 0x78
            BCe = Ebe^Ege^Eke^Eme^Ese;
  401e4c:	ea89 0902 	eor.w	r9, r9, r2
  401e50:	9a31      	ldr	r2, [sp, #196]	@ 0xc4
  401e52:	ea88 0802 	eor.w	r8, r8, r2
  401e56:	9a14      	ldr	r2, [sp, #80]	@ 0x50
  401e58:	ea89 0902 	eor.w	r9, r9, r2
  401e5c:	9a15      	ldr	r2, [sp, #84]	@ 0x54
  401e5e:	ea88 0802 	eor.w	r8, r8, r2
  401e62:	9a34      	ldr	r2, [sp, #208]	@ 0xd0
  401e64:	ea89 0902 	eor.w	r9, r9, r2
  401e68:	9a35      	ldr	r2, [sp, #212]	@ 0xd4
  401e6a:	ea88 0802 	eor.w	r8, r8, r2
            BCi = Ebi^Egi^Eki^Emi^Esi;
  401e6e:	9a3a      	ldr	r2, [sp, #232]	@ 0xe8
  401e70:	ea82 0c01 	eor.w	ip, r2, r1
  401e74:	9a3b      	ldr	r2, [sp, #236]	@ 0xec
  401e76:	991f      	ldr	r1, [sp, #124]	@ 0x7c
  401e78:	ea82 0701 	eor.w	r7, r2, r1
  401e7c:	9a0c      	ldr	r2, [sp, #48]	@ 0x30
  401e7e:	990d      	ldr	r1, [sp, #52]	@ 0x34
  401e80:	ea8c 0c02 	eor.w	ip, ip, r2
  401e84:	404f      	eors	r7, r1
  401e86:	9a2c      	ldr	r2, [sp, #176]	@ 0xb0
  401e88:	992d      	ldr	r1, [sp, #180]	@ 0xb4
  401e8a:	ea8c 0c02 	eor.w	ip, ip, r2
  401e8e:	404f      	eors	r7, r1
  401e90:	9a1a      	ldr	r2, [sp, #104]	@ 0x68
  401e92:	991b      	ldr	r1, [sp, #108]	@ 0x6c
  401e94:	ea8c 0c02 	eor.w	ip, ip, r2
  401e98:	404f      	eors	r7, r1
            BCo = Ebo^Ego^Eko^Emo^Eso;
  401e9a:	9a16      	ldr	r2, [sp, #88]	@ 0x58
  401e9c:	9936      	ldr	r1, [sp, #216]	@ 0xd8
  401e9e:	ea82 0501 	eor.w	r5, r2, r1
  401ea2:	9a17      	ldr	r2, [sp, #92]	@ 0x5c
  401ea4:	9937      	ldr	r1, [sp, #220]	@ 0xdc
  401ea6:	ea82 0401 	eor.w	r4, r2, r1
  401eaa:	9924      	ldr	r1, [sp, #144]	@ 0x90
            BCu = Ebu^Egu^Eku^Emu^Esu;
  401eac:	9a1c      	ldr	r2, [sp, #112]	@ 0x70
            BCo = Ebo^Ego^Eko^Emo^Eso;
  401eae:	404d      	eors	r5, r1
  401eb0:	9925      	ldr	r1, [sp, #148]	@ 0x94
  401eb2:	404c      	eors	r4, r1
  401eb4:	9912      	ldr	r1, [sp, #72]	@ 0x48
  401eb6:	404d      	eors	r5, r1
  401eb8:	9913      	ldr	r1, [sp, #76]	@ 0x4c
  401eba:	404c      	eors	r4, r1
  401ebc:	9928      	ldr	r1, [sp, #160]	@ 0xa0
  401ebe:	404d      	eors	r5, r1
  401ec0:	9929      	ldr	r1, [sp, #164]	@ 0xa4
  401ec2:	404c      	eors	r4, r1
            BCu = Ebu^Egu^Eku^Emu^Esu;
  401ec4:	9932      	ldr	r1, [sp, #200]	@ 0xc8
  401ec6:	ea82 0e01 	eor.w	lr, r2, r1
  401eca:	9a1d      	ldr	r2, [sp, #116]	@ 0x74
  401ecc:	9933      	ldr	r1, [sp, #204]	@ 0xcc
  401ece:	4051      	eors	r1, r2
  401ed0:	9a2e      	ldr	r2, [sp, #184]	@ 0xb8
  401ed2:	ea8e 0e02 	eor.w	lr, lr, r2
  401ed6:	9a2f      	ldr	r2, [sp, #188]	@ 0xbc
  401ed8:	4051      	eors	r1, r2
  401eda:	9a20      	ldr	r2, [sp, #128]	@ 0x80
  401edc:	ea8e 0e02 	eor.w	lr, lr, r2
  401ee0:	9a21      	ldr	r2, [sp, #132]	@ 0x84
  401ee2:	4051      	eors	r1, r2
  401ee4:	9a0e      	ldr	r2, [sp, #56]	@ 0x38

            //thetaRhoPiChiIotaPrepareTheta(round+1, E, A)
            Da = BCu^ROL(BCe, 1);
  401ee6:	ea4f 0b49 	mov.w	fp, r9, lsl #1
            BCu = Ebu^Egu^Eku^Emu^Esu;
  401eea:	ea8e 0e02 	eor.w	lr, lr, r2
  401eee:	9a0f      	ldr	r2, [sp, #60]	@ 0x3c
            Da = BCu^ROL(BCe, 1);
  401ef0:	ea4b 7bd8 	orr.w	fp, fp, r8, lsr #31
  401ef4:	ea4f 0a48 	mov.w	sl, r8, lsl #1
            BCu = Ebu^Egu^Eku^Emu^Esu;
  401ef8:	4051      	eors	r1, r2
            Da = BCu^ROL(BCe, 1);
  401efa:	ea4a 7ad9 	orr.w	sl, sl, r9, lsr #31
  401efe:	ea8b 020e 	eor.w	r2, fp, lr
            De = BCa^ROL(BCi, 1);
  401f02:	ea4f 0b4c 	mov.w	fp, ip, lsl #1
            Da = BCu^ROL(BCe, 1);
  401f06:	9201      	str	r2, [sp, #4]
            De = BCa^ROL(BCi, 1);
  401f08:	ea4b 7bd7 	orr.w	fp, fp, r7, lsr #31
            Da = BCu^ROL(BCe, 1);
  401f0c:	ea8a 0201 	eor.w	r2, sl, r1
            De = BCa^ROL(BCi, 1);
  401f10:	ea4f 0a47 	mov.w	sl, r7, lsl #1
            Da = BCu^ROL(BCe, 1);
  401f14:	9202      	str	r2, [sp, #8]
            De = BCa^ROL(BCi, 1);
  401f16:	ea4a 7adc 	orr.w	sl, sl, ip, lsr #31
  401f1a:	ea8b 0206 	eor.w	r2, fp, r6
  401f1e:	9203      	str	r2, [sp, #12]
  401f20:	ea8a 0203 	eor.w	r2, sl, r3
            Di = BCe^ROL(BCo, 1);
  401f24:	ea4f 0a44 	mov.w	sl, r4, lsl #1
  401f28:	ea4a 7ad5 	orr.w	sl, sl, r5, lsr #31
            De = BCa^ROL(BCi, 1);
  401f2c:	9204      	str	r2, [sp, #16]
            Di = BCe^ROL(BCo, 1);
  401f2e:	ea8a 0208 	eor.w	r2, sl, r8
            Do = BCi^ROL(BCu, 1);
  401f32:	ea4f 084e 	mov.w	r8, lr, lsl #1
  401f36:	ea48 78d1 	orr.w	r8, r8, r1, lsr #31
  401f3a:	0049      	lsls	r1, r1, #1
            Di = BCe^ROL(BCo, 1);
  401f3c:	9205      	str	r2, [sp, #20]
            Do = BCi^ROL(BCu, 1);
  401f3e:	ea41 71de 	orr.w	r1, r1, lr, lsr #31
  401f42:	ea88 020c 	eor.w	r2, r8, ip
  401f46:	9206      	str	r2, [sp, #24]
  401f48:	ea81 0207 	eor.w	r2, r1, r7
            Du = BCo^ROL(BCa, 1);
  401f4c:	0071      	lsls	r1, r6, #1
  401f4e:	ea41 71d3 	orr.w	r1, r1, r3, lsr #31
  401f52:	005b      	lsls	r3, r3, #1
  401f54:	ea43 73d6 	orr.w	r3, r3, r6, lsr #31
            Do = BCi^ROL(BCu, 1);
  401f58:	9207      	str	r2, [sp, #28]
            Du = BCo^ROL(BCa, 1);
  401f5a:	4063      	eors	r3, r4
  401f5c:	ea81 0205 	eor.w	r2, r1, r5
  401f60:	9208      	str	r2, [sp, #32]
  401f62:	9309      	str	r3, [sp, #36]	@ 0x24

            Eba ^= Da;
  401f64:	9a01      	ldr	r2, [sp, #4]
  401f66:	9b0a      	ldr	r3, [sp, #40]	@ 0x28
            BCe = ROL(Ege, 44);
            Eki ^= Di;
            BCi = ROL(Eki, 43);
            Emo ^= Do;
            BCo = ROL(Emo, 21);
            Esu ^= Du;
  401f68:	9f09      	ldr	r7, [sp, #36]	@ 0x24
            Di = BCe^ROL(BCo, 1);
  401f6a:	ea4f 0b45 	mov.w	fp, r5, lsl #1
  401f6e:	ea4b 7bd4 	orr.w	fp, fp, r4, lsr #31
  401f72:	ea8b 0b09 	eor.w	fp, fp, r9
            Eba ^= Da;
  401f76:	ea83 0902 	eor.w	r9, r3, r2
  401f7a:	9b0b      	ldr	r3, [sp, #44]	@ 0x2c
  401f7c:	9a02      	ldr	r2, [sp, #8]
            Eki ^= Di;
  401f7e:	9c05      	ldr	r4, [sp, #20]
            Eba ^= Da;
  401f80:	ea83 0a02 	eor.w	sl, r3, r2
            Ege ^= De;
  401f84:	9b10      	ldr	r3, [sp, #64]	@ 0x40
  401f86:	9a03      	ldr	r2, [sp, #12]
  401f88:	ea83 0102 	eor.w	r1, r3, r2
  401f8c:	9a04      	ldr	r2, [sp, #16]
  401f8e:	9b11      	ldr	r3, [sp, #68]	@ 0x44
            BCe = ROL(Ege, 44);
  401f90:	0d0d      	lsrs	r5, r1, #20
            Ege ^= De;
  401f92:	4053      	eors	r3, r2
            Eki ^= Di;
  401f94:	9a0c      	ldr	r2, [sp, #48]	@ 0x30
            BCe = ROL(Ege, 44);
  401f96:	ea45 3503 	orr.w	r5, r5, r3, lsl #12
  401f9a:	0d1b      	lsrs	r3, r3, #20
  401f9c:	ea43 3301 	orr.w	r3, r3, r1, lsl #12
            Eki ^= Di;
  401fa0:	ea82 010b 	eor.w	r1, r2, fp
  401fa4:	9a0d      	ldr	r2, [sp, #52]	@ 0x34
            BCi = ROL(Eki, 43);
  401fa6:	ea4f 5851 	mov.w	r8, r1, lsr #21
            Eki ^= Di;
  401faa:	4054      	eors	r4, r2
            BCi = ROL(Eki, 43);
  401fac:	ea48 28c4 	orr.w	r8, r8, r4, lsl #11
  401fb0:	0d64      	lsrs	r4, r4, #21
  401fb2:	ea44 24c1 	orr.w	r4, r4, r1, lsl #11
            Emo ^= Do;
  401fb6:	9a12      	ldr	r2, [sp, #72]	@ 0x48
  401fb8:	9906      	ldr	r1, [sp, #24]
  401fba:	ea82 0601 	eor.w	r6, r2, r1
  401fbe:	9a13      	ldr	r2, [sp, #76]	@ 0x4c
  401fc0:	9907      	ldr	r1, [sp, #28]
            BCo = ROL(Emo, 21);
  401fc2:	ea4f 5e46 	mov.w	lr, r6, lsl #21
            Emo ^= Do;
  401fc6:	4051      	eors	r1, r2
            BCo = ROL(Emo, 21);
  401fc8:	ea4e 2ed1 	orr.w	lr, lr, r1, lsr #11
  401fcc:	0549      	lsls	r1, r1, #21
  401fce:	ea41 21d6 	orr.w	r1, r1, r6, lsr #11
            Esu ^= Du;
  401fd2:	9a08      	ldr	r2, [sp, #32]
  401fd4:	9e0e      	ldr	r6, [sp, #56]	@ 0x38
  401fd6:	4056      	eors	r6, r2
  401fd8:	9a0f      	ldr	r2, [sp, #60]	@ 0x3c
            BCu = ROL(Esu, 14);
  401fda:	ea4f 3c86 	mov.w	ip, r6, lsl #14
            Esu ^= Du;
  401fde:	407a      	eors	r2, r7
            BCu = ROL(Esu, 14);
  401fe0:	ea4c 4c92 	orr.w	ip, ip, r2, lsr #18
  401fe4:	0392      	lsls	r2, r2, #14
  401fe6:	ea42 4296 	orr.w	r2, r2, r6, lsr #18
            Aba =   BCa ^((~BCe)&  BCi );
            Aba ^= (uint64_t)KeccakF_RoundConstants[round+1];
  401fea:	9e00      	ldr	r6, [sp, #0]
  401fec:	e9d6 7602 	ldrd	r7, r6, [r6, #8]
  401ff0:	ea8a 0606 	eor.w	r6, sl, r6
  401ff4:	960b      	str	r6, [sp, #44]	@ 0x2c
  401ff6:	ea89 0707 	eor.w	r7, r9, r7
  401ffa:	ea28 0605 	bic.w	r6, r8, r5
  401ffe:	407e      	eors	r6, r7
  402000:	9f0b      	ldr	r7, [sp, #44]	@ 0x2c
  402002:	960a      	str	r6, [sp, #40]	@ 0x28
  402004:	ea24 0603 	bic.w	r6, r4, r3
  402008:	4077      	eors	r7, r6
            Abe =   BCe ^((~BCi)&  BCo );
  40200a:	ea21 0604 	bic.w	r6, r1, r4
  40200e:	405e      	eors	r6, r3
  402010:	960d      	str	r6, [sp, #52]	@ 0x34
            Abi =   BCi ^((~BCo)&  BCu );
  402012:	ea22 0601 	bic.w	r6, r2, r1
  402016:	4074      	eors	r4, r6
            Abo =   BCo ^((~BCu)&  BCa );
            Abu =   BCu ^((~BCa)&  BCe );
  402018:	ea23 030a 	bic.w	r3, r3, sl
  40201c:	4053      	eors	r3, r2
            Aba ^= (uint64_t)KeccakF_RoundConstants[round+1];
  40201e:	970b      	str	r7, [sp, #44]	@ 0x2c
            Abi =   BCi ^((~BCo)&  BCu );
  402020:	940f      	str	r4, [sp, #60]	@ 0x3c
            Abe =   BCe ^((~BCi)&  BCo );
  402022:	ea2e 0708 	bic.w	r7, lr, r8
            Abo =   BCo ^((~BCu)&  BCa );
  402026:	ea2a 0402 	bic.w	r4, sl, r2
            Abe =   BCe ^((~BCi)&  BCo );
  40202a:	406f      	eors	r7, r5

            Ebo ^= Do;
  40202c:	9a06      	ldr	r2, [sp, #24]
            Abu =   BCu ^((~BCa)&  BCe );
  40202e:	9313      	str	r3, [sp, #76]	@ 0x4c
            Abo =   BCo ^((~BCu)&  BCa );
  402030:	4061      	eors	r1, r4
            Abu =   BCu ^((~BCa)&  BCe );
  402032:	ea25 0509 	bic.w	r5, r5, r9
            Ebo ^= Do;
  402036:	9b16      	ldr	r3, [sp, #88]	@ 0x58
            Abo =   BCo ^((~BCu)&  BCa );
  402038:	9111      	str	r1, [sp, #68]	@ 0x44
            Abu =   BCu ^((~BCa)&  BCe );
  40203a:	ea85 010c 	eor.w	r1, r5, ip
            Ebo ^= Do;
  40203e:	4053      	eors	r3, r2
            Abu =   BCu ^((~BCa)&  BCe );
  402040:	9112      	str	r1, [sp, #72]	@ 0x48
            Ebo ^= Do;
  402042:	9a17      	ldr	r2, [sp, #92]	@ 0x5c
  402044:	9907      	ldr	r1, [sp, #28]
            Abe =   BCe ^((~BCi)&  BCo );
  402046:	970c      	str	r7, [sp, #48]	@ 0x30
            Abo =   BCo ^((~BCu)&  BCa );
  402048:	ea29 060c 	bic.w	r6, r9, ip
            Abi =   BCi ^((~BCo)&  BCu );
  40204c:	ea2c 070e 	bic.w	r7, ip, lr
            Ebo ^= Do;
  402050:	4051      	eors	r1, r2
            BCa = ROL(Ebo, 28);
  402052:	ea4f 7c03 	mov.w	ip, r3, lsl #28
  402056:	ea4c 1c11 	orr.w	ip, ip, r1, lsr #4
  40205a:	0709      	lsls	r1, r1, #28
  40205c:	ea41 1113 	orr.w	r1, r1, r3, lsr #4
            Egu ^= Du;
  402060:	9a08      	ldr	r2, [sp, #32]
  402062:	9b1c      	ldr	r3, [sp, #112]	@ 0x70
  402064:	9c09      	ldr	r4, [sp, #36]	@ 0x24
            BCe = ROL(Egu, 20);
            Eka ^= Da;
  402066:	9d02      	ldr	r5, [sp, #8]
            Egu ^= Du;
  402068:	405a      	eors	r2, r3
  40206a:	9b1d      	ldr	r3, [sp, #116]	@ 0x74
            Abo =   BCo ^((~BCu)&  BCa );
  40206c:	ea86 060e 	eor.w	r6, r6, lr
            Egu ^= Du;
  402070:	4063      	eors	r3, r4
            Abo =   BCo ^((~BCu)&  BCa );
  402072:	9610      	str	r6, [sp, #64]	@ 0x40
            BCe = ROL(Egu, 20);
  402074:	0516      	lsls	r6, r2, #20
  402076:	ea46 3613 	orr.w	r6, r6, r3, lsr #12
  40207a:	051b      	lsls	r3, r3, #20
  40207c:	ea43 3312 	orr.w	r3, r3, r2, lsr #12
            Eka ^= Da;
  402080:	9c01      	ldr	r4, [sp, #4]
  402082:	9a18      	ldr	r2, [sp, #96]	@ 0x60
  402084:	4062      	eors	r2, r4
  402086:	9c19      	ldr	r4, [sp, #100]	@ 0x64
            Abi =   BCi ^((~BCo)&  BCu );
  402088:	ea87 0708 	eor.w	r7, r7, r8
            Eka ^= Da;
  40208c:	4065      	eors	r5, r4
            BCi = ROL(Eka, 3);
  40208e:	ea4f 08c2 	mov.w	r8, r2, lsl #3
  402092:	ea48 7855 	orr.w	r8, r8, r5, lsr #29
  402096:	00ed      	lsls	r5, r5, #3
  402098:	ea45 7552 	orr.w	r5, r5, r2, lsr #29
            Eme ^= De;
  40209c:	9c03      	ldr	r4, [sp, #12]
  40209e:	9a14      	ldr	r2, [sp, #80]	@ 0x50
            Abi =   BCi ^((~BCo)&  BCu );
  4020a0:	970e      	str	r7, [sp, #56]	@ 0x38
            Eme ^= De;
  4020a2:	4062      	eors	r2, r4
  4020a4:	9f04      	ldr	r7, [sp, #16]
  4020a6:	9c15      	ldr	r4, [sp, #84]	@ 0x54
            BCo = ROL(Eme, 45);
  4020a8:	ea4f 4ed2 	mov.w	lr, r2, lsr #19
            Eme ^= De;
  4020ac:	407c      	eors	r4, r7
            BCo = ROL(Eme, 45);
  4020ae:	ea4e 3e44 	orr.w	lr, lr, r4, lsl #13
  4020b2:	0ce4      	lsrs	r4, r4, #19
  4020b4:	ea44 3442 	orr.w	r4, r4, r2, lsl #13
            Esi ^= Di;
  4020b8:	9a1a      	ldr	r2, [sp, #104]	@ 0x68
  4020ba:	ea82 090b 	eor.w	r9, r2, fp
  4020be:	9a1b      	ldr	r2, [sp, #108]	@ 0x6c
  4020c0:	9f05      	ldr	r7, [sp, #20]
  4020c2:	407a      	eors	r2, r7
            BCu = ROL(Esi, 61);
  4020c4:	ea4f 07d9 	mov.w	r7, r9, lsr #3
  4020c8:	ea47 7742 	orr.w	r7, r7, r2, lsl #29
  4020cc:	08d2      	lsrs	r2, r2, #3
  4020ce:	ea42 7249 	orr.w	r2, r2, r9, lsl #29
            Aga =   BCa ^((~BCe)&  BCi );
  4020d2:	ea25 0903 	bic.w	r9, r5, r3
  4020d6:	ea89 0901 	eor.w	r9, r9, r1
  4020da:	f8cd 9054 	str.w	r9, [sp, #84]	@ 0x54
            Age =   BCe ^((~BCi)&  BCo );
  4020de:	ea24 0905 	bic.w	r9, r4, r5
            Aga =   BCa ^((~BCe)&  BCi );
  4020e2:	ea28 0a06 	bic.w	sl, r8, r6
            Age =   BCe ^((~BCi)&  BCo );
  4020e6:	ea89 0903 	eor.w	r9, r9, r3
            Aga =   BCa ^((~BCe)&  BCi );
  4020ea:	ea8a 0a0c 	eor.w	sl, sl, ip
            Age =   BCe ^((~BCi)&  BCo );
  4020ee:	f8cd 905c 	str.w	r9, [sp, #92]	@ 0x5c
            Agi =   BCi ^((~BCo)&  BCu );
            Ago =   BCo ^((~BCu)&  BCa );
            Agu =   BCu ^((~BCa)&  BCe );
  4020f2:	ea23 0301 	bic.w	r3, r3, r1
            Agi =   BCi ^((~BCo)&  BCu );
  4020f6:	ea22 0904 	bic.w	r9, r2, r4
  4020fa:	ea89 0505 	eor.w	r5, r9, r5
            Agu =   BCu ^((~BCa)&  BCe );
  4020fe:	4053      	eors	r3, r2
            Aga =   BCa ^((~BCe)&  BCi );
  402100:	f8cd a050 	str.w	sl, [sp, #80]	@ 0x50
            Age =   BCe ^((~BCi)&  BCo );
  402104:	ea2e 0a08 	bic.w	sl, lr, r8
  402108:	ea8a 0a06 	eor.w	sl, sl, r6
            Agi =   BCi ^((~BCo)&  BCu );
  40210c:	9519      	str	r5, [sp, #100]	@ 0x64
            Agu =   BCu ^((~BCa)&  BCe );
  40210e:	ea26 060c 	bic.w	r6, r6, ip
            Ago =   BCo ^((~BCu)&  BCa );
  402112:	ea21 0502 	bic.w	r5, r1, r2
            Agu =   BCu ^((~BCa)&  BCe );
  402116:	931d      	str	r3, [sp, #116]	@ 0x74

            Ebe ^= De;
  402118:	9a03      	ldr	r2, [sp, #12]
  40211a:	9b22      	ldr	r3, [sp, #136]	@ 0x88
            Age =   BCe ^((~BCi)&  BCo );
  40211c:	f8cd a058 	str.w	sl, [sp, #88]	@ 0x58
            Agu =   BCu ^((~BCa)&  BCe );
  402120:	ea86 0107 	eor.w	r1, r6, r7
            Agi =   BCi ^((~BCo)&  BCu );
  402124:	ea27 0a0e 	bic.w	sl, r7, lr
            Ebe ^= De;
  402128:	4053      	eors	r3, r2
            Agu =   BCu ^((~BCa)&  BCe );
  40212a:	911c      	str	r1, [sp, #112]	@ 0x70
            Ebe ^= De;
  40212c:	9a23      	ldr	r2, [sp, #140]	@ 0x8c
  40212e:	9904      	ldr	r1, [sp, #16]
            Agi =   BCi ^((~BCo)&  BCu );
  402130:	ea8a 0808 	eor.w	r8, sl, r8
            Ebe ^= De;
  402134:	4051      	eors	r1, r2
            Agi =   BCi ^((~BCo)&  BCu );
  402136:	f8cd 8060 	str.w	r8, [sp, #96]	@ 0x60
            Ago =   BCo ^((~BCu)&  BCa );
  40213a:	ea2c 0807 	bic.w	r8, ip, r7
            BCa = ROL(Ebe, 1);
  40213e:	ea4f 0c43 	mov.w	ip, r3, lsl #1
  402142:	ea4c 7cd1 	orr.w	ip, ip, r1, lsr #31
  402146:	0049      	lsls	r1, r1, #1
  402148:	ea41 71d3 	orr.w	r1, r1, r3, lsr #31
            Egi ^= Di;
  40214c:	9b1e      	ldr	r3, [sp, #120]	@ 0x78
            BCe = ROL(Egi, 6);
            Eko ^= Do;
            BCi = ROL(Eko, 25);
            Emu ^= Du;
  40214e:	9f09      	ldr	r7, [sp, #36]	@ 0x24
            Ago =   BCo ^((~BCu)&  BCa );
  402150:	406c      	eors	r4, r5
            Egi ^= Di;
  402152:	ea83 020b 	eor.w	r2, r3, fp
            Ago =   BCo ^((~BCu)&  BCa );
  402156:	941b      	str	r4, [sp, #108]	@ 0x6c
            Egi ^= Di;
  402158:	9b1f      	ldr	r3, [sp, #124]	@ 0x7c
  40215a:	9c05      	ldr	r4, [sp, #20]
            Eko ^= Do;
  40215c:	9d07      	ldr	r5, [sp, #28]
            Egi ^= Di;
  40215e:	4063      	eors	r3, r4
            BCe = ROL(Egi, 6);
  402160:	0196      	lsls	r6, r2, #6
  402162:	ea46 6693 	orr.w	r6, r6, r3, lsr #26
  402166:	019b      	lsls	r3, r3, #6
  402168:	ea43 6392 	orr.w	r3, r3, r2, lsr #26
            Eko ^= Do;
  40216c:	9c06      	ldr	r4, [sp, #24]
  40216e:	9a24      	ldr	r2, [sp, #144]	@ 0x90
  402170:	4062      	eors	r2, r4
  402172:	9c25      	ldr	r4, [sp, #148]	@ 0x94
            Ago =   BCo ^((~BCu)&  BCa );
  402174:	ea88 0e0e 	eor.w	lr, r8, lr
            Eko ^= Do;
  402178:	4065      	eors	r5, r4
            BCi = ROL(Eko, 25);
  40217a:	ea4f 6842 	mov.w	r8, r2, lsl #25
  40217e:	ea48 18d5 	orr.w	r8, r8, r5, lsr #7
  402182:	066d      	lsls	r5, r5, #25
  402184:	ea45 15d2 	orr.w	r5, r5, r2, lsr #7
            Emu ^= Du;
  402188:	9c08      	ldr	r4, [sp, #32]
  40218a:	9a20      	ldr	r2, [sp, #128]	@ 0x80
            Ago =   BCo ^((~BCu)&  BCa );
  40218c:	f8cd e068 	str.w	lr, [sp, #104]	@ 0x68
            Emu ^= Du;
  402190:	4062      	eors	r2, r4
  402192:	9c21      	ldr	r4, [sp, #132]	@ 0x84
            BCo = ROL(Emu, 8);
  402194:	ea4f 2e02 	mov.w	lr, r2, lsl #8
            Emu ^= Du;
  402198:	407c      	eors	r4, r7
            BCo = ROL(Emu, 8);
  40219a:	ea4e 6e14 	orr.w	lr, lr, r4, lsr #24
  40219e:	0224      	lsls	r4, r4, #8
  4021a0:	ea44 6412 	orr.w	r4, r4, r2, lsr #24
            Esa ^= Da;
  4021a4:	9f01      	ldr	r7, [sp, #4]
  4021a6:	9a26      	ldr	r2, [sp, #152]	@ 0x98
  4021a8:	ea82 0907 	eor.w	r9, r2, r7
  4021ac:	9f02      	ldr	r7, [sp, #8]
  4021ae:	9a27      	ldr	r2, [sp, #156]	@ 0x9c
  4021b0:	407a      	eors	r2, r7
            BCu = ROL(Esa, 18);
  4021b2:	ea4f 4789 	mov.w	r7, r9, lsl #18
  4021b6:	ea47 3792 	orr.w	r7, r7, r2, lsr #14
  4021ba:	0492      	lsls	r2, r2, #18
  4021bc:	ea42 3299 	orr.w	r2, r2, r9, lsr #14
            Aka =   BCa ^((~BCe)&  BCi );
  4021c0:	ea28 0a06 	bic.w	sl, r8, r6
  4021c4:	ea25 0903 	bic.w	r9, r5, r3
  4021c8:	ea8a 0a0c 	eor.w	sl, sl, ip
  4021cc:	ea89 0901 	eor.w	r9, r9, r1
  4021d0:	f8cd a078 	str.w	sl, [sp, #120]	@ 0x78
  4021d4:	f8cd 907c 	str.w	r9, [sp, #124]	@ 0x7c
            Ake =   BCe ^((~BCi)&  BCo );
  4021d8:	ea24 0905 	bic.w	r9, r4, r5
  4021dc:	ea89 0903 	eor.w	r9, r9, r3
  4021e0:	f8cd 9084 	str.w	r9, [sp, #132]	@ 0x84
            Aki =   BCi ^((~BCo)&  BCu );
            Ako =   BCo ^((~BCu)&  BCa );
            Aku =   BCu ^((~BCa)&  BCe );
  4021e4:	ea23 0301 	bic.w	r3, r3, r1
            Aki =   BCi ^((~BCo)&  BCu );
  4021e8:	ea22 0904 	bic.w	r9, r2, r4
            Ake =   BCe ^((~BCi)&  BCo );
  4021ec:	ea2e 0a08 	bic.w	sl, lr, r8
            Aki =   BCi ^((~BCo)&  BCu );
  4021f0:	ea89 0505 	eor.w	r5, r9, r5
            Aku =   BCu ^((~BCa)&  BCe );
  4021f4:	4053      	eors	r3, r2
            Ake =   BCe ^((~BCi)&  BCo );
  4021f6:	ea8a 0a06 	eor.w	sl, sl, r6
            Aki =   BCi ^((~BCo)&  BCu );
  4021fa:	9523      	str	r5, [sp, #140]	@ 0x8c
            Aku =   BCu ^((~BCa)&  BCe );
  4021fc:	ea26 060c 	bic.w	r6, r6, ip
            Ako =   BCo ^((~BCu)&  BCa );
  402200:	ea21 0502 	bic.w	r5, r1, r2
            Aku =   BCu ^((~BCa)&  BCe );
  402204:	9327      	str	r3, [sp, #156]	@ 0x9c

            Ebu ^= Du;
  402206:	9a08      	ldr	r2, [sp, #32]
  402208:	9b2e      	ldr	r3, [sp, #184]	@ 0xb8
            Ake =   BCe ^((~BCi)&  BCo );
  40220a:	f8cd a080 	str.w	sl, [sp, #128]	@ 0x80
            Aku =   BCu ^((~BCa)&  BCe );
  40220e:	ea86 0107 	eor.w	r1, r6, r7
            Aki =   BCi ^((~BCo)&  BCu );
  402212:	ea27 0a0e 	bic.w	sl, r7, lr
            Ebu ^= Du;
  402216:	4053      	eors	r3, r2
            Aku =   BCu ^((~BCa)&  BCe );
  402218:	9126      	str	r1, [sp, #152]	@ 0x98
            Ebu ^= Du;
  40221a:	9a2f      	ldr	r2, [sp, #188]	@ 0xbc
  40221c:	9909      	ldr	r1, [sp, #36]	@ 0x24
            Aki =   BCi ^((~BCo)&  BCu );
  40221e:	ea8a 0808 	eor.w	r8, sl, r8
            Ebu ^= Du;
  402222:	4051      	eors	r1, r2
            Aki =   BCi ^((~BCo)&  BCu );
  402224:	f8cd 8088 	str.w	r8, [sp, #136]	@ 0x88
            Ako =   BCo ^((~BCu)&  BCa );
  402228:	ea2c 0807 	bic.w	r8, ip, r7
            BCa = ROL(Ebu, 27);
  40222c:	ea4f 6cc3 	mov.w	ip, r3, lsl #27
  402230:	ea4c 1c51 	orr.w	ip, ip, r1, lsr #5
  402234:	06c9      	lsls	r1, r1, #27
  402236:	ea41 1153 	orr.w	r1, r1, r3, lsr #5
            Ega ^= Da;
  40223a:	9a01      	ldr	r2, [sp, #4]
  40223c:	9b2a      	ldr	r3, [sp, #168]	@ 0xa8
            BCe = ROL(Ega, 36);
            Eke ^= De;
            BCi = ROL(Eke, 10);
            Emi ^= Di;
  40223e:	9f05      	ldr	r7, [sp, #20]
            Ako =   BCo ^((~BCu)&  BCa );
  402240:	406c      	eors	r4, r5
            Ega ^= Da;
  402242:	405a      	eors	r2, r3
            Ako =   BCo ^((~BCu)&  BCa );
  402244:	9425      	str	r4, [sp, #148]	@ 0x94
            Ega ^= Da;
  402246:	9b2b      	ldr	r3, [sp, #172]	@ 0xac
  402248:	9c02      	ldr	r4, [sp, #8]
            Eke ^= De;
  40224a:	9d04      	ldr	r5, [sp, #16]
            Ega ^= Da;
  40224c:	4063      	eors	r3, r4
            BCe = ROL(Ega, 36);
  40224e:	0f16      	lsrs	r6, r2, #28
  402250:	ea46 1603 	orr.w	r6, r6, r3, lsl #4
  402254:	0f1b      	lsrs	r3, r3, #28
  402256:	ea43 1302 	orr.w	r3, r3, r2, lsl #4
            Eke ^= De;
  40225a:	9c03      	ldr	r4, [sp, #12]
  40225c:	9a30      	ldr	r2, [sp, #192]	@ 0xc0
  40225e:	4062      	eors	r2, r4
  402260:	9c31      	ldr	r4, [sp, #196]	@ 0xc4
            Ako =   BCo ^((~BCu)&  BCa );
  402262:	ea88 0e0e 	eor.w	lr, r8, lr
            Eke ^= De;
  402266:	4065      	eors	r5, r4
            BCi = ROL(Eke, 10);
  402268:	ea4f 2882 	mov.w	r8, r2, lsl #10
  40226c:	ea48 5895 	orr.w	r8, r8, r5, lsr #22
  402270:	02ad      	lsls	r5, r5, #10
  402272:	ea45 5592 	orr.w	r5, r5, r2, lsr #22
            Emi ^= Di;
  402276:	9a2c      	ldr	r2, [sp, #176]	@ 0xb0
  402278:	9c2d      	ldr	r4, [sp, #180]	@ 0xb4
            Ako =   BCo ^((~BCu)&  BCa );
  40227a:	f8cd e090 	str.w	lr, [sp, #144]	@ 0x90
            Emi ^= Di;
  40227e:	ea82 020b 	eor.w	r2, r2, fp
  402282:	407c      	eors	r4, r7
            BCo = ROL(Emi, 15);
  402284:	ea4f 3ec2 	mov.w	lr, r2, lsl #15
  402288:	ea4e 4e54 	orr.w	lr, lr, r4, lsr #17
  40228c:	03e4      	lsls	r4, r4, #15
  40228e:	ea44 4452 	orr.w	r4, r4, r2, lsr #17
            Eso ^= Do;
  402292:	9f06      	ldr	r7, [sp, #24]
  402294:	9a28      	ldr	r2, [sp, #160]	@ 0xa0
  402296:	ea82 0907 	eor.w	r9, r2, r7
  40229a:	9a29      	ldr	r2, [sp, #164]	@ 0xa4
  40229c:	9f07      	ldr	r7, [sp, #28]
  40229e:	407a      	eors	r2, r7
            BCu = ROL(Eso, 56);
  4022a0:	ea4f 2719 	mov.w	r7, r9, lsr #8
  4022a4:	ea47 6702 	orr.w	r7, r7, r2, lsl #24
  4022a8:	0a12      	lsrs	r2, r2, #8
  4022aa:	ea42 6209 	orr.w	r2, r2, r9, lsl #24
            Ama =   BCa ^((~BCe)&  BCi );
  4022ae:	ea28 0a06 	bic.w	sl, r8, r6
  4022b2:	ea25 0903 	bic.w	r9, r5, r3
  4022b6:	ea8a 0a0c 	eor.w	sl, sl, ip
  4022ba:	ea89 0901 	eor.w	r9, r9, r1
  4022be:	f8cd a0a0 	str.w	sl, [sp, #160]	@ 0xa0
  4022c2:	f8cd 90a4 	str.w	r9, [sp, #164]	@ 0xa4
            Ame =   BCe ^((~BCi)&  BCo );
  4022c6:	ea2e 0a08 	bic.w	sl, lr, r8
  4022ca:	ea24 0905 	bic.w	r9, r4, r5
  4022ce:	ea8a 0a06 	eor.w	sl, sl, r6
  4022d2:	ea89 0903 	eor.w	r9, r9, r3
  4022d6:	f8cd a0a8 	str.w	sl, [sp, #168]	@ 0xa8
  4022da:	f8cd 90ac 	str.w	r9, [sp, #172]	@ 0xac
            Ami =   BCi ^((~BCo)&  BCu );
  4022de:	ea27 0a0e 	bic.w	sl, r7, lr
  4022e2:	ea22 0904 	bic.w	r9, r2, r4
            Amo =   BCo ^((~BCu)&  BCa );
            Amu =   BCu ^((~BCa)&  BCe );
  4022e6:	ea23 0301 	bic.w	r3, r3, r1
            Ami =   BCi ^((~BCo)&  BCu );
  4022ea:	ea8a 0808 	eor.w	r8, sl, r8
  4022ee:	ea89 0505 	eor.w	r5, r9, r5
            Amu =   BCu ^((~BCa)&  BCe );
  4022f2:	ea26 060c 	bic.w	r6, r6, ip
  4022f6:	4053      	eors	r3, r2
            Ami =   BCi ^((~BCo)&  BCu );
  4022f8:	f8cd 80b0 	str.w	r8, [sp, #176]	@ 0xb0
  4022fc:	952d      	str	r5, [sp, #180]	@ 0xb4
            Amo =   BCo ^((~BCu)&  BCa );
  4022fe:	ea21 0502 	bic.w	r5, r1, r2
            Amu =   BCu ^((~BCa)&  BCe );
  402302:	9331      	str	r3, [sp, #196]	@ 0xc4
  402304:	ea86 0107 	eor.w	r1, r6, r7

            Ebi ^= Di;
  402308:	9b3a      	ldr	r3, [sp, #232]	@ 0xe8
  40230a:	9a3b      	ldr	r2, [sp, #236]	@ 0xec
            Amu =   BCu ^((~BCa)&  BCe );
  40230c:	9130      	str	r1, [sp, #192]	@ 0xc0
            Ebi ^= Di;
  40230e:	9905      	ldr	r1, [sp, #20]
  402310:	ea83 030b 	eor.w	r3, r3, fp
            Amo =   BCo ^((~BCu)&  BCa );
  402314:	ea2c 0807 	bic.w	r8, ip, r7
            Ebi ^= Di;
  402318:	4051      	eors	r1, r2
            BCa = ROL(Ebi, 62);
  40231a:	ea4f 0c93 	mov.w	ip, r3, lsr #2
  40231e:	ea4c 7c81 	orr.w	ip, ip, r1, lsl #30
  402322:	0889      	lsrs	r1, r1, #2
  402324:	ea41 7183 	orr.w	r1, r1, r3, lsl #30
            Ego ^= Do;
  402328:	9a06      	ldr	r2, [sp, #24]
  40232a:	9b36      	ldr	r3, [sp, #216]	@ 0xd8
            BCe = ROL(Ego, 55);
            Eku ^= Du;
            BCi = ROL(Eku, 39);
            Ema ^= Da;
  40232c:	9f02      	ldr	r7, [sp, #8]
            Amo =   BCo ^((~BCu)&  BCa );
  40232e:	406c      	eors	r4, r5
            Ego ^= Do;
  402330:	405a      	eors	r2, r3
            Amo =   BCo ^((~BCu)&  BCa );
  402332:	942f      	str	r4, [sp, #188]	@ 0xbc
            Ego ^= Do;
  402334:	9b37      	ldr	r3, [sp, #220]	@ 0xdc
  402336:	9c07      	ldr	r4, [sp, #28]
            Eku ^= Du;
  402338:	9d09      	ldr	r5, [sp, #36]	@ 0x24
            Ego ^= Do;
  40233a:	4063      	eors	r3, r4
            BCe = ROL(Ego, 55);
  40233c:	0a56      	lsrs	r6, r2, #9
  40233e:	ea46 56c3 	orr.w	r6, r6, r3, lsl #23
  402342:	0a5b      	lsrs	r3, r3, #9
  402344:	ea43 53c2 	orr.w	r3, r3, r2, lsl #23
            Eku ^= Du;
  402348:	9c08      	ldr	r4, [sp, #32]
  40234a:	9a32      	ldr	r2, [sp, #200]	@ 0xc8
  40234c:	4062      	eors	r2, r4
  40234e:	9c33      	ldr	r4, [sp, #204]	@ 0xcc
            Amo =   BCo ^((~BCu)&  BCa );
  402350:	ea88 0e0e 	eor.w	lr, r8, lr
            Eku ^= Du;
  402354:	4065      	eors	r5, r4
            BCi = ROL(Eku, 39);
  402356:	ea4f 6852 	mov.w	r8, r2, lsr #25
  40235a:	ea48 18c5 	orr.w	r8, r8, r5, lsl #7
  40235e:	0e6d      	lsrs	r5, r5, #25
  402360:	ea45 15c2 	orr.w	r5, r5, r2, lsl #7
            Ema ^= Da;
  402364:	9c01      	ldr	r4, [sp, #4]
  402366:	9a38      	ldr	r2, [sp, #224]	@ 0xe0
            Amo =   BCo ^((~BCu)&  BCa );
  402368:	f8cd e0b8 	str.w	lr, [sp, #184]	@ 0xb8
            Ema ^= Da;
  40236c:	4062      	eors	r2, r4
  40236e:	9c39      	ldr	r4, [sp, #228]	@ 0xe4
            BCo = ROL(Ema, 41);
  402370:	ea4f 5ed2 	mov.w	lr, r2, lsr #23
            Ema ^= Da;
  402374:	407c      	eors	r4, r7
            BCo = ROL(Ema, 41);
  402376:	ea4e 2e44 	orr.w	lr, lr, r4, lsl #9
  40237a:	0de4      	lsrs	r4, r4, #23
  40237c:	ea44 2442 	orr.w	r4, r4, r2, lsl #9
            Ese ^= De;
  402380:	9f03      	ldr	r7, [sp, #12]
  402382:	9a34      	ldr	r2, [sp, #208]	@ 0xd0
  402384:	ea82 0907 	eor.w	r9, r2, r7
  402388:	9a35      	ldr	r2, [sp, #212]	@ 0xd4
  40238a:	9f04      	ldr	r7, [sp, #16]
  40238c:	407a      	eors	r2, r7
            BCu = ROL(Ese, 2);
  40238e:	ea4f 0789 	mov.w	r7, r9, lsl #2
  402392:	ea47 7792 	orr.w	r7, r7, r2, lsr #30
  402396:	0092      	lsls	r2, r2, #2
  402398:	ea42 7299 	orr.w	r2, r2, r9, lsr #30
            Asa =   BCa ^((~BCe)&  BCi );
  40239c:	ea28 0a06 	bic.w	sl, r8, r6
  4023a0:	ea25 0903 	bic.w	r9, r5, r3
  4023a4:	ea89 0901 	eor.w	r9, r9, r1
  4023a8:	ea8a 0a0c 	eor.w	sl, sl, ip
  4023ac:	f8cd a0c8 	str.w	sl, [sp, #200]	@ 0xc8
  4023b0:	f8cd 90cc 	str.w	r9, [sp, #204]	@ 0xcc
            Ase =   BCe ^((~BCi)&  BCo );
  4023b4:	ea2e 0a08 	bic.w	sl, lr, r8
  4023b8:	ea24 0905 	bic.w	r9, r4, r5
  4023bc:	ea8a 0a06 	eor.w	sl, sl, r6
  4023c0:	ea89 0903 	eor.w	r9, r9, r3
  4023c4:	f8cd a0d0 	str.w	sl, [sp, #208]	@ 0xd0
  4023c8:	f8cd 90d4 	str.w	r9, [sp, #212]	@ 0xd4
            Asi =   BCi ^((~BCo)&  BCu );
  4023cc:	ea27 0a0e 	bic.w	sl, r7, lr
  4023d0:	ea22 0904 	bic.w	r9, r2, r4
  4023d4:	ea8a 0808 	eor.w	r8, sl, r8
  4023d8:	ea89 0505 	eor.w	r5, r9, r5
  4023dc:	f8cd 80d8 	str.w	r8, [sp, #216]	@ 0xd8
  4023e0:	9537      	str	r5, [sp, #220]	@ 0xdc
            Aso =   BCo ^((~BCu)&  BCa );
  4023e2:	ea2c 0807 	bic.w	r8, ip, r7
  4023e6:	ea21 0502 	bic.w	r5, r1, r2
            Asu =   BCu ^((~BCa)&  BCe );
  4023ea:	ea26 060c 	bic.w	r6, r6, ip
  4023ee:	ea23 0301 	bic.w	r3, r3, r1
            Aso =   BCo ^((~BCu)&  BCa );
  4023f2:	ea88 0e0e 	eor.w	lr, r8, lr
            Asu =   BCu ^((~BCa)&  BCe );
  4023f6:	ea86 0107 	eor.w	r1, r6, r7
            Aso =   BCo ^((~BCu)&  BCa );
  4023fa:	406c      	eors	r4, r5
            Asu =   BCu ^((~BCa)&  BCe );
  4023fc:	913a      	str	r1, [sp, #232]	@ 0xe8
            Aso =   BCo ^((~BCu)&  BCa );
  4023fe:	f8cd e0e0 	str.w	lr, [sp, #224]	@ 0xe0
  402402:	9439      	str	r4, [sp, #228]	@ 0xe4
            Asu =   BCu ^((~BCa)&  BCe );
  402404:	4053      	eors	r3, r2
        for( round = 0; round < NROUNDS; round += 2 )
  402406:	9a00      	ldr	r2, [sp, #0]
  402408:	3210      	adds	r2, #16
  40240a:	9200      	str	r2, [sp, #0]
  40240c:	9900      	ldr	r1, [sp, #0]
  40240e:	4a3c      	ldr	r2, [pc, #240]	@ (402500 <KeccakF1600_StatePermute+0xde8>)
  402410:	428a      	cmp	r2, r1
  402412:	f47f a9ff 	bne.w	401814 <KeccakF1600_StatePermute+0xfc>
        }

        //copyToState(state, A)
        state[ 0] = Aba;
  402416:	9a0a      	ldr	r2, [sp, #40]	@ 0x28
  402418:	6002      	str	r2, [r0, #0]
  40241a:	9a0b      	ldr	r2, [sp, #44]	@ 0x2c
  40241c:	6042      	str	r2, [r0, #4]
        state[ 1] = Abe;
  40241e:	9a0c      	ldr	r2, [sp, #48]	@ 0x30
  402420:	6082      	str	r2, [r0, #8]
  402422:	9a0d      	ldr	r2, [sp, #52]	@ 0x34
  402424:	60c2      	str	r2, [r0, #12]
        state[ 2] = Abi;
  402426:	9a0e      	ldr	r2, [sp, #56]	@ 0x38
  402428:	6102      	str	r2, [r0, #16]
  40242a:	9a0f      	ldr	r2, [sp, #60]	@ 0x3c
  40242c:	6142      	str	r2, [r0, #20]
        state[ 3] = Abo;
  40242e:	9a10      	ldr	r2, [sp, #64]	@ 0x40
  402430:	6182      	str	r2, [r0, #24]
  402432:	9a11      	ldr	r2, [sp, #68]	@ 0x44
  402434:	61c2      	str	r2, [r0, #28]
        state[ 4] = Abu;
  402436:	9a12      	ldr	r2, [sp, #72]	@ 0x48
  402438:	6202      	str	r2, [r0, #32]
  40243a:	9a13      	ldr	r2, [sp, #76]	@ 0x4c
  40243c:	6242      	str	r2, [r0, #36]	@ 0x24
        state[ 5] = Aga;
  40243e:	9a14      	ldr	r2, [sp, #80]	@ 0x50
  402440:	6282      	str	r2, [r0, #40]	@ 0x28
  402442:	9a15      	ldr	r2, [sp, #84]	@ 0x54
  402444:	62c2      	str	r2, [r0, #44]	@ 0x2c
        state[ 6] = Age;
  402446:	9a16      	ldr	r2, [sp, #88]	@ 0x58
  402448:	6302      	str	r2, [r0, #48]	@ 0x30
  40244a:	9a17      	ldr	r2, [sp, #92]	@ 0x5c
  40244c:	6342      	str	r2, [r0, #52]	@ 0x34
        state[ 7] = Agi;
  40244e:	9a18      	ldr	r2, [sp, #96]	@ 0x60
  402450:	6382      	str	r2, [r0, #56]	@ 0x38
  402452:	9a19      	ldr	r2, [sp, #100]	@ 0x64
  402454:	63c2      	str	r2, [r0, #60]	@ 0x3c
        state[ 8] = Ago;
  402456:	9a1a      	ldr	r2, [sp, #104]	@ 0x68
  402458:	6402      	str	r2, [r0, #64]	@ 0x40
  40245a:	9a1b      	ldr	r2, [sp, #108]	@ 0x6c
  40245c:	6442      	str	r2, [r0, #68]	@ 0x44
        state[ 9] = Agu;
  40245e:	9a1c      	ldr	r2, [sp, #112]	@ 0x70
  402460:	6482      	str	r2, [r0, #72]	@ 0x48
  402462:	9a1d      	ldr	r2, [sp, #116]	@ 0x74
  402464:	64c2      	str	r2, [r0, #76]	@ 0x4c
        state[10] = Aka;
  402466:	9a1e      	ldr	r2, [sp, #120]	@ 0x78
  402468:	6502      	str	r2, [r0, #80]	@ 0x50
  40246a:	9a1f      	ldr	r2, [sp, #124]	@ 0x7c
  40246c:	6542      	str	r2, [r0, #84]	@ 0x54
        state[11] = Ake;
  40246e:	9a20      	ldr	r2, [sp, #128]	@ 0x80
  402470:	6582      	str	r2, [r0, #88]	@ 0x58
  402472:	9a21      	ldr	r2, [sp, #132]	@ 0x84
  402474:	65c2      	str	r2, [r0, #92]	@ 0x5c
        state[12] = Aki;
  402476:	9a22      	ldr	r2, [sp, #136]	@ 0x88
  402478:	6602      	str	r2, [r0, #96]	@ 0x60
  40247a:	9a23      	ldr	r2, [sp, #140]	@ 0x8c
  40247c:	6642      	str	r2, [r0, #100]	@ 0x64
        state[13] = Ako;
  40247e:	9a24      	ldr	r2, [sp, #144]	@ 0x90
  402480:	6682      	str	r2, [r0, #104]	@ 0x68
  402482:	9a25      	ldr	r2, [sp, #148]	@ 0x94
  402484:	66c2      	str	r2, [r0, #108]	@ 0x6c
        state[14] = Aku;
  402486:	9a26      	ldr	r2, [sp, #152]	@ 0x98
  402488:	6702      	str	r2, [r0, #112]	@ 0x70
  40248a:	9a27      	ldr	r2, [sp, #156]	@ 0x9c
  40248c:	6742      	str	r2, [r0, #116]	@ 0x74
        state[15] = Ama;
  40248e:	9a28      	ldr	r2, [sp, #160]	@ 0xa0
  402490:	6782      	str	r2, [r0, #120]	@ 0x78
  402492:	9a29      	ldr	r2, [sp, #164]	@ 0xa4
  402494:	67c2      	str	r2, [r0, #124]	@ 0x7c
        state[16] = Ame;
  402496:	9a2a      	ldr	r2, [sp, #168]	@ 0xa8
  402498:	f8c0 2080 	str.w	r2, [r0, #128]	@ 0x80
  40249c:	9a2b      	ldr	r2, [sp, #172]	@ 0xac
  40249e:	f8c0 2084 	str.w	r2, [r0, #132]	@ 0x84
        state[17] = Ami;
  4024a2:	9a2c      	ldr	r2, [sp, #176]	@ 0xb0
  4024a4:	f8c0 2088 	str.w	r2, [r0, #136]	@ 0x88
  4024a8:	9a2d      	ldr	r2, [sp, #180]	@ 0xb4
  4024aa:	f8c0 208c 	str.w	r2, [r0, #140]	@ 0x8c
        state[18] = Amo;
  4024ae:	9a2e      	ldr	r2, [sp, #184]	@ 0xb8
  4024b0:	f8c0 2090 	str.w	r2, [r0, #144]	@ 0x90
  4024b4:	9a2f      	ldr	r2, [sp, #188]	@ 0xbc
  4024b6:	f8c0 2094 	str.w	r2, [r0, #148]	@ 0x94
        state[19] = Amu;
  4024ba:	9a30      	ldr	r2, [sp, #192]	@ 0xc0
  4024bc:	f8c0 2098 	str.w	r2, [r0, #152]	@ 0x98
  4024c0:	9a31      	ldr	r2, [sp, #196]	@ 0xc4
  4024c2:	f8c0 209c 	str.w	r2, [r0, #156]	@ 0x9c
        state[20] = Asa;
  4024c6:	9a32      	ldr	r2, [sp, #200]	@ 0xc8
  4024c8:	f8c0 20a0 	str.w	r2, [r0, #160]	@ 0xa0
  4024cc:	9a33      	ldr	r2, [sp, #204]	@ 0xcc
  4024ce:	f8c0 20a4 	str.w	r2, [r0, #164]	@ 0xa4
        state[21] = Ase;
  4024d2:	9a34      	ldr	r2, [sp, #208]	@ 0xd0
  4024d4:	f8c0 20a8 	str.w	r2, [r0, #168]	@ 0xa8
  4024d8:	9a35      	ldr	r2, [sp, #212]	@ 0xd4
  4024da:	f8c0 20ac 	str.w	r2, [r0, #172]	@ 0xac
        state[22] = Asi;
  4024de:	9a36      	ldr	r2, [sp, #216]	@ 0xd8
  4024e0:	f8c0 20b0 	str.w	r2, [r0, #176]	@ 0xb0
  4024e4:	9a37      	ldr	r2, [sp, #220]	@ 0xdc
  4024e6:	f8c0 20b4 	str.w	r2, [r0, #180]	@ 0xb4
        state[23] = Aso;
        state[24] = Asu;
  4024ea:	9a3a      	ldr	r2, [sp, #232]	@ 0xe8
        state[23] = Aso;
  4024ec:	f8c0 e0b8 	str.w	lr, [r0, #184]	@ 0xb8
  4024f0:	f8c0 40bc 	str.w	r4, [r0, #188]	@ 0xbc
        state[24] = Asu;
  4024f4:	e9c0 2330 	strd	r2, r3, [r0, #192]	@ 0xc0

        #undef    round
}
  4024f8:	b03d      	add	sp, #244	@ 0xf4
  4024fa:	e8bd 8ff0 	ldmia.w	sp!, {r4, r5, r6, r7, r8, r9, sl, fp, pc}
  4024fe:	bf00      	nop
  402500:	00403528 	.word	0x00403528

00402504 <PQCLEAN_MLKEM1024_CLEAN_kyber_shake128_absorb>:
*              - uint8_t j: additional byte of input
**************************************************/
void PQCLEAN_MLKEM1024_CLEAN_kyber_shake128_absorb(xof_state *state,
        const uint8_t seed[KYBER_SYMBYTES],
        uint8_t x,
        uint8_t y) {
  402504:	b5f0      	push	{r4, r5, r6, r7, lr}
  402506:	b08b      	sub	sp, #44	@ 0x2c
  402508:	4606      	mov	r6, r0
    uint8_t extseed[KYBER_SYMBYTES + 2];

    memcpy(extseed, seed, KYBER_SYMBYTES);
  40250a:	460c      	mov	r4, r1
  40250c:	af01      	add	r7, sp, #4
  40250e:	f101 0c20 	add.w	ip, r1, #32
  402512:	6820      	ldr	r0, [r4, #0]
  402514:	6861      	ldr	r1, [r4, #4]
  402516:	463d      	mov	r5, r7
  402518:	c503      	stmia	r5!, {r0, r1}
  40251a:	3408      	adds	r4, #8
  40251c:	4564      	cmp	r4, ip
  40251e:	462f      	mov	r7, r5
  402520:	d1f7      	bne.n	402512 <PQCLEAN_MLKEM1024_CLEAN_kyber_shake128_absorb+0xe>
    extseed[KYBER_SYMBYTES + 0] = x;
  402522:	f88d 2024 	strb.w	r2, [sp, #36]	@ 0x24
    extseed[KYBER_SYMBYTES + 1] = y;
  402526:	f88d 3025 	strb.w	r3, [sp, #37]	@ 0x25

    shake128_absorb(state, extseed, sizeof(extseed));
  40252a:	2222      	movs	r2, #34	@ 0x22
  40252c:	4b02      	ldr	r3, [pc, #8]	@ (402538 <PQCLEAN_MLKEM1024_CLEAN_kyber_shake128_absorb+0x34>)
  40252e:	a901      	add	r1, sp, #4
  402530:	4630      	mov	r0, r6
  402532:	4798      	blx	r3
}
  402534:	b00b      	add	sp, #44	@ 0x2c
  402536:	bdf0      	pop	{r4, r5, r6, r7, pc}
  402538:	0040156d 	.word	0x0040156d

0040253c <PQCLEAN_MLKEM1024_CLEAN_kyber_shake256_prf>:
* Arguments:   - uint8_t *out: pointer to output
*              - size_t outlen: number of requested output bytes
*              - const uint8_t *key: pointer to the key (of length KYBER_SYMBYTES)
*              - uint8_t nonce: single-byte nonce (public PRF input)
**************************************************/
void PQCLEAN_MLKEM1024_CLEAN_kyber_shake256_prf(uint8_t *out, size_t outlen, const uint8_t key[KYBER_SYMBYTES], uint8_t nonce) {
  40253c:	b5f0      	push	{r4, r5, r6, r7, lr}
  40253e:	b08b      	sub	sp, #44	@ 0x2c
  402540:	4605      	mov	r5, r0
  402542:	460e      	mov	r6, r1
    uint8_t extkey[KYBER_SYMBYTES + 1];

    memcpy(extkey, key, KYBER_SYMBYTES);
  402544:	af01      	add	r7, sp, #4
  402546:	f102 0c20 	add.w	ip, r2, #32
  40254a:	6810      	ldr	r0, [r2, #0]
  40254c:	6851      	ldr	r1, [r2, #4]
  40254e:	463c      	mov	r4, r7
  402550:	c403      	stmia	r4!, {r0, r1}
  402552:	3208      	adds	r2, #8
  402554:	4562      	cmp	r2, ip
  402556:	4627      	mov	r7, r4
  402558:	d1f7      	bne.n	40254a <PQCLEAN_MLKEM1024_CLEAN_kyber_shake256_prf+0xe>
    extkey[KYBER_SYMBYTES] = nonce;
  40255a:	f88d 3024 	strb.w	r3, [sp, #36]	@ 0x24

    shake256(out, outlen, extkey, sizeof(extkey));
  40255e:	4c04      	ldr	r4, [pc, #16]	@ (402570 <PQCLEAN_MLKEM1024_CLEAN_kyber_shake256_prf+0x34>)
  402560:	2321      	movs	r3, #33	@ 0x21
  402562:	aa01      	add	r2, sp, #4
  402564:	4631      	mov	r1, r6
  402566:	4628      	mov	r0, r5
  402568:	47a0      	blx	r4
}
  40256a:	b00b      	add	sp, #44	@ 0x2c
  40256c:	bdf0      	pop	{r4, r5, r6, r7, pc}
  40256e:	bf00      	nop
  402570:	004015ad 	.word	0x004015ad

00402574 <PQCLEAN_MLKEM1024_CLEAN_kyber_shake256_rkprf>:
* Arguments:   - uint8_t *out: pointer to output
*              - size_t outlen: number of requested output bytes
*              - const uint8_t *key: pointer to the key (of length KYBER_SYMBYTES)
*              - uint8_t nonce: single-byte nonce (public PRF input)
**************************************************/
void PQCLEAN_MLKEM1024_CLEAN_kyber_shake256_rkprf(uint8_t out[KYBER_SSBYTES], const uint8_t key[KYBER_SYMBYTES], const uint8_t input[KYBER_CIPHERTEXTBYTES]) {
  402574:	b570      	push	{r4, r5, r6, lr}
  402576:	b0b4      	sub	sp, #208	@ 0xd0
    shake256incctx s;

    shake256_inc_init(&s);
  402578:	4b0e      	ldr	r3, [pc, #56]	@ (4025b4 <PQCLEAN_MLKEM1024_CLEAN_kyber_shake256_rkprf+0x40>)
void PQCLEAN_MLKEM1024_CLEAN_kyber_shake256_rkprf(uint8_t out[KYBER_SSBYTES], const uint8_t key[KYBER_SYMBYTES], const uint8_t input[KYBER_CIPHERTEXTBYTES]) {
  40257a:	4604      	mov	r4, r0
  40257c:	460e      	mov	r6, r1
    shake256_inc_init(&s);
  40257e:	4668      	mov	r0, sp
void PQCLEAN_MLKEM1024_CLEAN_kyber_shake256_rkprf(uint8_t out[KYBER_SSBYTES], const uint8_t key[KYBER_SYMBYTES], const uint8_t input[KYBER_CIPHERTEXTBYTES]) {
  402580:	4615      	mov	r5, r2
    shake256_inc_init(&s);
  402582:	4798      	blx	r3
    shake256_inc_absorb(&s, key, KYBER_SYMBYTES);
  402584:	4631      	mov	r1, r6
  402586:	4668      	mov	r0, sp
  402588:	4e0b      	ldr	r6, [pc, #44]	@ (4025b8 <PQCLEAN_MLKEM1024_CLEAN_kyber_shake256_rkprf+0x44>)
  40258a:	2220      	movs	r2, #32
  40258c:	47b0      	blx	r6
    shake256_inc_absorb(&s, input, KYBER_CIPHERTEXTBYTES);
  40258e:	4629      	mov	r1, r5
  402590:	f44f 62c4 	mov.w	r2, #1568	@ 0x620
  402594:	4668      	mov	r0, sp
  402596:	47b0      	blx	r6
    shake256_inc_finalize(&s);
  402598:	4668      	mov	r0, sp
  40259a:	4b08      	ldr	r3, [pc, #32]	@ (4025bc <PQCLEAN_MLKEM1024_CLEAN_kyber_shake256_rkprf+0x48>)
  40259c:	4798      	blx	r3
    shake256_inc_squeeze(out, KYBER_SSBYTES, &s);
  40259e:	466a      	mov	r2, sp
  4025a0:	2120      	movs	r1, #32
  4025a2:	4620      	mov	r0, r4
  4025a4:	4b06      	ldr	r3, [pc, #24]	@ (4025c0 <PQCLEAN_MLKEM1024_CLEAN_kyber_shake256_rkprf+0x4c>)
  4025a6:	4798      	blx	r3
    shake256_inc_ctx_release(&s);
  4025a8:	4b06      	ldr	r3, [pc, #24]	@ (4025c4 <PQCLEAN_MLKEM1024_CLEAN_kyber_shake256_rkprf+0x50>)
  4025aa:	4668      	mov	r0, sp
  4025ac:	4798      	blx	r3
}
  4025ae:	b034      	add	sp, #208	@ 0xd0
  4025b0:	bd70      	pop	{r4, r5, r6, pc}
  4025b2:	bf00      	nop
  4025b4:	00401531 	.word	0x00401531
  4025b8:	00401539 	.word	0x00401539
  4025bc:	0040154d 	.word	0x0040154d
  4025c0:	00401559 	.word	0x00401559
  4025c4:	00401569 	.word	0x00401569

004025c8 <PQCLEAN_MLKEM1024_CLEAN_montgomery_reduce>:
* Returns:     integer in {-q+1,...,q-1} congruent to a * R^-1 modulo q.
**************************************************/
int16_t PQCLEAN_MLKEM1024_CLEAN_montgomery_reduce(int32_t a) {
    int16_t t;

    t = (int16_t)a * QINV;
  4025c8:	eb00 0340 	add.w	r3, r0, r0, lsl #1
  4025cc:	eb03 03c3 	add.w	r3, r3, r3, lsl #3
  4025d0:	eb03 03c3 	add.w	r3, r3, r3, lsl #3
  4025d4:	eb00 2303 	add.w	r3, r0, r3, lsl #8
    t = (a - (int32_t)t * KYBER_Q) >> 16;
  4025d8:	f24f 22ff 	movw	r2, #62207	@ 0xf2ff
  4025dc:	fb13 0002 	smlabb	r0, r3, r2, r0
    return t;
}
  4025e0:	1400      	asrs	r0, r0, #16
  4025e2:	4770      	bx	lr

004025e4 <PQCLEAN_MLKEM1024_CLEAN_barrett_reduce>:
**************************************************/
int16_t PQCLEAN_MLKEM1024_CLEAN_barrett_reduce(int16_t a) {
    int16_t t;
    const int16_t v = ((1 << 26) + KYBER_Q / 2) / KYBER_Q;

    t  = ((int32_t)v * a + (1 << 25)) >> 26;
  4025e4:	f04f 7200 	mov.w	r2, #33554432	@ 0x2000000
  4025e8:	f644 63bf 	movw	r3, #20159	@ 0x4ebf
  4025ec:	fb10 2303 	smlabb	r3, r0, r3, r2
  4025f0:	169b      	asrs	r3, r3, #26
    t *= KYBER_Q;
  4025f2:	eb03 0243 	add.w	r2, r3, r3, lsl #1
  4025f6:	eb03 0282 	add.w	r2, r3, r2, lsl #2
  4025fa:	eb03 2302 	add.w	r3, r3, r2, lsl #8
    return a - t;
  4025fe:	1ac0      	subs	r0, r0, r3
}
  402600:	b200      	sxth	r0, r0
  402602:	4770      	bx	lr

00402604 <surf>:

#define ROTATE(x, b) (((x) << (b)) | ((x) >> (32 - (b))))
#define MUSH(i, b) x = t[i] += (((x ^ seed[i]) + sum) ^ ROTATE(x, b));

static void surf(uint32_t out[8])
{
  402604:	e92d 4ff0 	stmdb	sp!, {r4, r5, r6, r7, r8, r9, sl, fp, lr}
  402608:	b091      	sub	sp, #68	@ 0x44
  40260a:	4c4d      	ldr	r4, [pc, #308]	@ (402740 <surf+0x13c>)
  40260c:	9001      	str	r0, [sp, #4]
  40260e:	484d      	ldr	r0, [pc, #308]	@ (402744 <surf+0x140>)
  402610:	a904      	add	r1, sp, #16
  uint32_t sum = 0;
  int32_t r;
  int32_t i;
  int32_t loop;

  for (i = 0; i < 12; ++i) {
  402612:	2300      	movs	r3, #0
    t[i] = in[i] ^ seed[12 + i];
  402614:	f854 5b04 	ldr.w	r5, [r4], #4
  402618:	f850 2f04 	ldr.w	r2, [r0, #4]!
  for (i = 0; i < 12; ++i) {
  40261c:	3301      	adds	r3, #1
    t[i] = in[i] ^ seed[12 + i];
  40261e:	406a      	eors	r2, r5
  for (i = 0; i < 12; ++i) {
  402620:	2b0c      	cmp	r3, #12
    t[i] = in[i] ^ seed[12 + i];
  402622:	f841 2b04 	str.w	r2, [r1], #4
  for (i = 0; i < 12; ++i) {
  402626:	d1f5      	bne.n	402614 <surf+0x10>
  }
  for (i = 0; i < 8; ++i) {
    out[i] = seed[24 + i];
  402628:	4d47      	ldr	r5, [pc, #284]	@ (402748 <surf+0x144>)
  40262a:	9c01      	ldr	r4, [sp, #4]
  }
  x = t[11];
  40262c:	f8dd 903c 	ldr.w	r9, [sp, #60]	@ 0x3c
    out[i] = seed[24 + i];
  402630:	cd0f      	ldmia	r5!, {r0, r1, r2, r3}
  402632:	c40f      	stmia	r4!, {r0, r1, r2, r3}
  402634:	e895 000f 	ldmia.w	r5, {r0, r1, r2, r3}
  402638:	e884 000f 	stmia.w	r4, {r0, r1, r2, r3}
  for (loop = 0; loop < 2; ++loop) {
  40263c:	9a01      	ldr	r2, [sp, #4]
  40263e:	e9dd 0704 	ldrd	r0, r7, [sp, #16]
  402642:	e9dd be06 	ldrd	fp, lr, [sp, #24]
  402646:	321c      	adds	r2, #28
  uint32_t sum = 0;
  402648:	2300      	movs	r3, #0
  40264a:	9203      	str	r2, [sp, #12]
    for (r = 0; r < 16; ++r) {
  40264c:	f8df a0fc 	ldr.w	sl, [pc, #252]	@ 40274c <surf+0x148>
  402650:	9a0e      	ldr	r2, [sp, #56]	@ 0x38
  402652:	e9dd 8c08 	ldrd	r8, ip, [sp, #32]
  402656:	e9dd 650a 	ldrd	r6, r5, [sp, #40]	@ 0x28
  40265a:	e9dd 410c 	ldrd	r4, r1, [sp, #48]	@ 0x30
  40265e:	449a      	add	sl, r3
  402660:	f8cd a008 	str.w	sl, [sp, #8]
      sum += 0x9e3779b9;
  402664:	f1a3 43c3 	sub.w	r3, r3, #1635778560	@ 0x61800000
  402668:	f5a3 0391 	sub.w	r3, r3, #4751360	@ 0x488000
  40266c:	f2a3 6347 	subw	r3, r3, #1607	@ 0x647
      MUSH(0, 5)
  402670:	f089 0a03 	eor.w	sl, r9, #3
  402674:	449a      	add	sl, r3
  402676:	ea8a 6af9 	eor.w	sl, sl, r9, ror #27
  40267a:	4450      	add	r0, sl
      MUSH(1, 7)
  40267c:	f080 0a01 	eor.w	sl, r0, #1
  402680:	449a      	add	sl, r3
  402682:	ea8a 6a70 	eor.w	sl, sl, r0, ror #25
  402686:	4457      	add	r7, sl
      MUSH(2, 9)
  402688:	f087 0a04 	eor.w	sl, r7, #4
  40268c:	449a      	add	sl, r3
  40268e:	ea8a 5af7 	eor.w	sl, sl, r7, ror #23
  402692:	44d3      	add	fp, sl
      MUSH(3, 13)
  402694:	f08b 0a01 	eor.w	sl, fp, #1
  402698:	449a      	add	sl, r3
  40269a:	ea8a 4afb 	eor.w	sl, sl, fp, ror #19
  40269e:	44d6      	add	lr, sl
      MUSH(4, 5)
  4026a0:	f08e 0a05 	eor.w	sl, lr, #5
  4026a4:	449a      	add	sl, r3
  4026a6:	ea8a 6afe 	eor.w	sl, sl, lr, ror #27
  4026aa:	44d0      	add	r8, sl
      MUSH(5, 7)
  4026ac:	f088 0a09 	eor.w	sl, r8, #9
  4026b0:	449a      	add	sl, r3
  4026b2:	ea8a 6a78 	eor.w	sl, sl, r8, ror #25
  4026b6:	44d4      	add	ip, sl
      MUSH(6, 9)
  4026b8:	f08c 0a02 	eor.w	sl, ip, #2
  4026bc:	449a      	add	sl, r3
  4026be:	ea8a 5afc 	eor.w	sl, sl, ip, ror #23
  4026c2:	4456      	add	r6, sl
      MUSH(7, 13)
  4026c4:	f086 0a06 	eor.w	sl, r6, #6
  4026c8:	449a      	add	sl, r3
  4026ca:	ea8a 4af6 	eor.w	sl, sl, r6, ror #19
  4026ce:	4455      	add	r5, sl
      MUSH(8, 5)
  4026d0:	f085 0a05 	eor.w	sl, r5, #5
  4026d4:	449a      	add	sl, r3
  4026d6:	ea8a 6af5 	eor.w	sl, sl, r5, ror #27
  4026da:	4454      	add	r4, sl
      MUSH(9, 7)
  4026dc:	f084 0a03 	eor.w	sl, r4, #3
  4026e0:	449a      	add	sl, r3
  4026e2:	ea8a 6a74 	eor.w	sl, sl, r4, ror #25
  4026e6:	4451      	add	r1, sl
      MUSH(10, 9)
  4026e8:	f081 0a05 	eor.w	sl, r1, #5
  4026ec:	449a      	add	sl, r3
  4026ee:	ea8a 5af1 	eor.w	sl, sl, r1, ror #23
  4026f2:	4452      	add	r2, sl
      MUSH(11, 13)
  4026f4:	f082 0a08 	eor.w	sl, r2, #8
  4026f8:	449a      	add	sl, r3
  4026fa:	ea8a 4af2 	eor.w	sl, sl, r2, ror #19
  4026fe:	44d1      	add	r9, sl
    for (r = 0; r < 16; ++r) {
  402700:	f8dd a008 	ldr.w	sl, [sp, #8]
  402704:	4553      	cmp	r3, sl
  402706:	d1ad      	bne.n	402664 <surf+0x60>
  402708:	9b01      	ldr	r3, [sp, #4]
  40270a:	e9cd 8c08 	strd	r8, ip, [sp, #32]
  40270e:	e9cd 650a 	strd	r6, r5, [sp, #40]	@ 0x28
  402712:	e9cd 290e 	strd	r2, r9, [sp, #56]	@ 0x38
    }
    for (i = 0; i < 8; ++i) {
  402716:	e9cd 410c 	strd	r4, r1, [sp, #48]	@ 0x30
  40271a:	3b04      	subs	r3, #4
  40271c:	a907      	add	r1, sp, #28
      out[i] ^= t[i + 4];
  40271e:	f853 2f04 	ldr.w	r2, [r3, #4]!
  402722:	f851 4f04 	ldr.w	r4, [r1, #4]!
  402726:	4062      	eors	r2, r4
  402728:	601a      	str	r2, [r3, #0]
    for (i = 0; i < 8; ++i) {
  40272a:	9a03      	ldr	r2, [sp, #12]
  40272c:	429a      	cmp	r2, r3
  40272e:	d1f6      	bne.n	40271e <surf+0x11a>
  for (loop = 0; loop < 2; ++loop) {
  402730:	9a02      	ldr	r2, [sp, #8]
  402732:	4907      	ldr	r1, [pc, #28]	@ (402750 <surf+0x14c>)
  402734:	4b05      	ldr	r3, [pc, #20]	@ (40274c <surf+0x148>)
  402736:	428a      	cmp	r2, r1
  402738:	d188      	bne.n	40264c <surf+0x48>
    }
  }
}
  40273a:	b011      	add	sp, #68	@ 0x44
  40273c:	e8bd 8ff0 	ldmia.w	sp!, {r4, r5, r6, r7, r8, r9, sl, fp, pc}
  402740:	20001930 	.word	0x20001930
  402744:	00403554 	.word	0x00403554
  402748:	00403588 	.word	0x00403588
  40274c:	e3779b90 	.word	0xe3779b90
  402750:	c6ef3720 	.word	0xc6ef3720

00402754 <randombytes_regen>:

void randombytes_regen(void);
void randombytes_regen(void)
{
  402754:	e92d 41f0 	stmdb	sp!, {r4, r5, r6, r7, r8, lr}
  uint32_t out[8];
  if (!++in[0]) {
  402758:	4c21      	ldr	r4, [pc, #132]	@ (4027e0 <randombytes_regen+0x8c>)
  40275a:	6825      	ldr	r5, [r4, #0]
  40275c:	1c6b      	adds	r3, r5, #1
{
  40275e:	b088      	sub	sp, #32
  if (!++in[0]) {
  402760:	6023      	str	r3, [r4, #0]
  402762:	b953      	cbnz	r3, 40277a <randombytes_regen+0x26>
    if (!++in[1]) {
  402764:	6863      	ldr	r3, [r4, #4]
  402766:	3301      	adds	r3, #1
  402768:	6063      	str	r3, [r4, #4]
  40276a:	b933      	cbnz	r3, 40277a <randombytes_regen+0x26>
      if (!++in[2]) {
  40276c:	68a3      	ldr	r3, [r4, #8]
  40276e:	3301      	adds	r3, #1
  402770:	60a3      	str	r3, [r4, #8]
  402772:	b913      	cbnz	r3, 40277a <randombytes_regen+0x26>
        ++in[3];
  402774:	68e3      	ldr	r3, [r4, #12]
  402776:	3301      	adds	r3, #1
  402778:	60e3      	str	r3, [r4, #12]
      }
    }
  }
  surf(out);
  40277a:	f8df 8068 	ldr.w	r8, [pc, #104]	@ 4027e4 <randombytes_regen+0x90>
  memcpy(out_buf, out, sizeof(out));
  40277e:	4e1a      	ldr	r6, [pc, #104]	@ (4027e8 <randombytes_regen+0x94>)
  surf(out);
  402780:	4668      	mov	r0, sp
  402782:	47c0      	blx	r8
  memcpy(out_buf, out, sizeof(out));
  402784:	466f      	mov	r7, sp
  402786:	4642      	mov	r2, r8
  402788:	463b      	mov	r3, r7
  40278a:	cb03      	ldmia	r3!, {r0, r1}
  40278c:	6071      	str	r1, [r6, #4]
  40278e:	a908      	add	r1, sp, #32
  402790:	428b      	cmp	r3, r1
  402792:	6030      	str	r0, [r6, #0]
  402794:	461f      	mov	r7, r3
  402796:	f106 0608 	add.w	r6, r6, #8
  40279a:	d1f5      	bne.n	402788 <randombytes_regen+0x34>
  if (!++in[0]) {
  40279c:	3502      	adds	r5, #2
  40279e:	6025      	str	r5, [r4, #0]
  4027a0:	b955      	cbnz	r5, 4027b8 <randombytes_regen+0x64>
    if (!++in[1]) {
  4027a2:	6863      	ldr	r3, [r4, #4]
  4027a4:	3301      	adds	r3, #1
  4027a6:	6063      	str	r3, [r4, #4]
  4027a8:	b933      	cbnz	r3, 4027b8 <randombytes_regen+0x64>
      if (!++in[2]) {
  4027aa:	68a3      	ldr	r3, [r4, #8]
  4027ac:	3301      	adds	r3, #1
  4027ae:	60a3      	str	r3, [r4, #8]
  4027b0:	b913      	cbnz	r3, 4027b8 <randombytes_regen+0x64>
        ++in[3];
  4027b2:	68e3      	ldr	r3, [r4, #12]
  4027b4:	3301      	adds	r3, #1
  4027b6:	60e3      	str	r3, [r4, #12]
      }
    }
  }
  surf(out);
  4027b8:	4668      	mov	r0, sp
  memcpy(out_buf + sizeof(out), out, sizeof(out));
  4027ba:	4c0c      	ldr	r4, [pc, #48]	@ (4027ec <randombytes_regen+0x98>)
  surf(out);
  4027bc:	4790      	blx	r2
  memcpy(out_buf + sizeof(out), out, sizeof(out));
  4027be:	466b      	mov	r3, sp
  4027c0:	461a      	mov	r2, r3
  4027c2:	ca03      	ldmia	r2!, {r0, r1}
  4027c4:	6061      	str	r1, [r4, #4]
  4027c6:	a908      	add	r1, sp, #32
  4027c8:	428a      	cmp	r2, r1
  4027ca:	6020      	str	r0, [r4, #0]
  4027cc:	4613      	mov	r3, r2
  4027ce:	f104 0408 	add.w	r4, r4, #8
  4027d2:	d1f5      	bne.n	4027c0 <randombytes_regen+0x6c>
  outleft = sizeof(out_buf);
  4027d4:	4b06      	ldr	r3, [pc, #24]	@ (4027f0 <randombytes_regen+0x9c>)
  4027d6:	2240      	movs	r2, #64	@ 0x40
  4027d8:	601a      	str	r2, [r3, #0]
}
  4027da:	b008      	add	sp, #32
  4027dc:	e8bd 81f0 	ldmia.w	sp!, {r4, r5, r6, r7, r8, pc}
  4027e0:	20001930 	.word	0x20001930
  4027e4:	00402605 	.word	0x00402605
  4027e8:	200018f0 	.word	0x200018f0
  4027ec:	20001910 	.word	0x20001910
  4027f0:	200018ec 	.word	0x200018ec

004027f4 <PQCLEAN_randombytes>:

int randombytes(uint8_t* buf, size_t xlen)
{
  4027f4:	b5f8      	push	{r3, r4, r5, r6, r7, lr}
  while (xlen > 0) {
    if (!outleft) {
  4027f6:	4e09      	ldr	r6, [pc, #36]	@ (40281c <PQCLEAN_randombytes+0x28>)
      randombytes_regen();
  4027f8:	4f09      	ldr	r7, [pc, #36]	@ (402820 <PQCLEAN_randombytes+0x2c>)
{
  4027fa:	4604      	mov	r4, r0
  while (xlen > 0) {
  4027fc:	1845      	adds	r5, r0, r1
  4027fe:	42ac      	cmp	r4, r5
  402800:	d101      	bne.n	402806 <PQCLEAN_randombytes+0x12>
    *buf = out_buf[--outleft];
    ++buf;
    --xlen;
  }
  return 0;
}
  402802:	2000      	movs	r0, #0
  402804:	bdf8      	pop	{r3, r4, r5, r6, r7, pc}
    if (!outleft) {
  402806:	6833      	ldr	r3, [r6, #0]
  402808:	b903      	cbnz	r3, 40280c <PQCLEAN_randombytes+0x18>
      randombytes_regen();
  40280a:	47b8      	blx	r7
    *buf = out_buf[--outleft];
  40280c:	6833      	ldr	r3, [r6, #0]
  40280e:	4a05      	ldr	r2, [pc, #20]	@ (402824 <PQCLEAN_randombytes+0x30>)
  402810:	3b01      	subs	r3, #1
  402812:	6033      	str	r3, [r6, #0]
  402814:	5cd3      	ldrb	r3, [r2, r3]
  402816:	f804 3b01 	strb.w	r3, [r4], #1
    --xlen;
  40281a:	e7f0      	b.n	4027fe <PQCLEAN_randombytes+0xa>
  40281c:	200018ec 	.word	0x200018ec
  402820:	00402755 	.word	0x00402755
  402824:	200018f0 	.word	0x200018f0

00402828 <ss_crc>:


// 0xA6 formerly 
#define CW_CRC 0x4D 
uint8_t ss_crc(uint8_t *buf, uint8_t len)
{
  402828:	b510      	push	{r4, lr}
  40282a:	4602      	mov	r2, r0
	unsigned int k = 0;
	uint8_t crc = 0x00;
	while (len--) {
  40282c:	4401      	add	r1, r0
	uint8_t crc = 0x00;
  40282e:	2000      	movs	r0, #0
	while (len--) {
  402830:	428a      	cmp	r2, r1
  402832:	d100      	bne.n	402836 <ss_crc+0xe>
			crc = crc & 0x80 ? (crc << 1) ^ CW_CRC: crc << 1;
		}
	}
	return crc;

}
  402834:	bd10      	pop	{r4, pc}
		crc ^= *buf++;
  402836:	f812 3b01 	ldrb.w	r3, [r2], #1
  40283a:	2408      	movs	r4, #8
  40283c:	4058      	eors	r0, r3
			crc = crc & 0x80 ? (crc << 1) ^ CW_CRC: crc << 1;
  40283e:	b243      	sxtb	r3, r0
  402840:	2b00      	cmp	r3, #0
  402842:	bfba      	itte	lt
  402844:	005b      	lsllt	r3, r3, #1
  402846:	f083 034d 	eorlt.w	r3, r3, #77	@ 0x4d
  40284a:	0043      	lslge	r3, r0, #1
		for (k = 0; k < 8; k++) {
  40284c:	3c01      	subs	r4, #1
			crc = crc & 0x80 ? (crc << 1) ^ CW_CRC: crc << 1;
  40284e:	b2d8      	uxtb	r0, r3
		for (k = 0; k < 8; k++) {
  402850:	d1f5      	bne.n	40283e <ss_crc+0x16>
  402852:	e7ed      	b.n	402830 <ss_crc+0x8>

00402854 <stuff_data>:
    return 0x00;

}

uint8_t stuff_data(uint8_t *buf, uint8_t len)
{
  402854:	b530      	push	{r4, r5, lr}
	uint8_t i = 1;
	uint8_t last = 0;
  402856:	2200      	movs	r2, #0
  402858:	4604      	mov	r4, r0
	uint8_t i = 1;
  40285a:	2301      	movs	r3, #1
	for (; i < len; i++) {
  40285c:	428b      	cmp	r3, r1
  40285e:	d301      	bcc.n	402864 <stuff_data+0x10>
			buf[last] = i - last;
			last = i;
		}
	}
	return 0x00;
}
  402860:	2000      	movs	r0, #0
  402862:	bd30      	pop	{r4, r5, pc}
		if (buf[i] == FRAME_BYTE) {
  402864:	f814 5f01 	ldrb.w	r5, [r4, #1]!
  402868:	b915      	cbnz	r5, 402870 <stuff_data+0x1c>
			buf[last] = i - last;
  40286a:	1a9d      	subs	r5, r3, r2
  40286c:	5485      	strb	r5, [r0, r2]
			last = i;
  40286e:	461a      	mov	r2, r3
	for (; i < len; i++) {
  402870:	3301      	adds	r3, #1
  402872:	b2db      	uxtb	r3, r3
  402874:	e7f2      	b.n	40285c <stuff_data+0x8>

00402876 <unstuff_data>:

uint8_t unstuff_data(uint8_t *buf, uint8_t len)
{
  402876:	b530      	push	{r4, r5, lr}
	uint8_t next = buf[0];
  402878:	7804      	ldrb	r4, [r0, #0]
	buf[0] = 0x00;
  40287a:	2500      	movs	r5, #0
{
  40287c:	4602      	mov	r2, r0
	buf[0] = 0x00;
  40287e:	7005      	strb	r5, [r0, #0]
	uint8_t next = buf[0];
  402880:	4620      	mov	r0, r4
	//len -= 1;
	uint8_t tmp = next;
	while ((next < len) && tmp != 0) {
  402882:	4288      	cmp	r0, r1
  402884:	d200      	bcs.n	402888 <unstuff_data+0x12>
  402886:	b904      	cbnz	r4, 40288a <unstuff_data+0x14>
		tmp = buf[next];
		buf[next] = FRAME_BYTE;
		next += tmp;
	}
	return next;
}
  402888:	bd30      	pop	{r4, r5, pc}
		tmp = buf[next];
  40288a:	5c14      	ldrb	r4, [r2, r0]
		buf[next] = FRAME_BYTE;
  40288c:	5415      	strb	r5, [r2, r0]
		next += tmp;
  40288e:	1903      	adds	r3, r0, r4
  402890:	b2d8      	uxtb	r0, r3
  402892:	e7f6      	b.n	402882 <unstuff_data+0xc>

00402894 <simpleserial_addcmd>:
	simpleserial_addcmd('v', 0, check_version);
    simpleserial_addcmd('w', 0, ss_get_commands);
}

int simpleserial_addcmd(char c, unsigned int len, uint8_t (*fp)(uint8_t, uint8_t, uint8_t, uint8_t*))
{
  402894:	b5f8      	push	{r3, r4, r5, r6, r7, lr}
	if(num_commands >= MAX_SS_CMDS) {
  402896:	4d0c      	ldr	r5, [pc, #48]	@ (4028c8 <simpleserial_addcmd+0x34>)
  402898:	682b      	ldr	r3, [r5, #0]
  40289a:	2b1f      	cmp	r3, #31
  40289c:	dd04      	ble.n	4028a8 <simpleserial_addcmd+0x14>
		putch('a');
  40289e:	2061      	movs	r0, #97	@ 0x61
		return 1;
	}

	if(len >= MAX_SS_LEN) {
		putch('b');
  4028a0:	4b0a      	ldr	r3, [pc, #40]	@ (4028cc <simpleserial_addcmd+0x38>)
  4028a2:	4798      	blx	r3
		return 1;
  4028a4:	2001      	movs	r0, #1
	commands[num_commands].len = len;
	commands[num_commands].fp  = fp;
	num_commands++;

	return 0;
}
  4028a6:	bdf8      	pop	{r3, r4, r5, r6, r7, pc}
	if(len >= MAX_SS_LEN) {
  4028a8:	29f8      	cmp	r1, #248	@ 0xf8
  4028aa:	d901      	bls.n	4028b0 <simpleserial_addcmd+0x1c>
		putch('b');
  4028ac:	2062      	movs	r0, #98	@ 0x62
  4028ae:	e7f7      	b.n	4028a0 <simpleserial_addcmd+0xc>
	commands[num_commands].c   = c;
  4028b0:	4f07      	ldr	r7, [pc, #28]	@ (4028d0 <simpleserial_addcmd+0x3c>)
  4028b2:	240c      	movs	r4, #12
  4028b4:	435c      	muls	r4, r3
  4028b6:	193e      	adds	r6, r7, r4
	num_commands++;
  4028b8:	3301      	adds	r3, #1
	commands[num_commands].c   = c;
  4028ba:	5538      	strb	r0, [r7, r4]
	commands[num_commands].fp  = fp;
  4028bc:	e9c6 1201 	strd	r1, r2, [r6, #4]
	num_commands++;
  4028c0:	602b      	str	r3, [r5, #0]
	return 0;
  4028c2:	2000      	movs	r0, #0
  4028c4:	e7ef      	b.n	4028a6 <simpleserial_addcmd+0x12>
  4028c6:	bf00      	nop
  4028c8:	20001ae0 	.word	0x20001ae0
  4028cc:	00402c49 	.word	0x00402c49
  4028d0:	20001960 	.word	0x20001960

004028d4 <simpleserial_init>:
{
  4028d4:	b510      	push	{r4, lr}
	simpleserial_addcmd('v', 0, check_version);
  4028d6:	4c06      	ldr	r4, [pc, #24]	@ (4028f0 <simpleserial_init+0x1c>)
  4028d8:	4a06      	ldr	r2, [pc, #24]	@ (4028f4 <simpleserial_init+0x20>)
  4028da:	2100      	movs	r1, #0
  4028dc:	2076      	movs	r0, #118	@ 0x76
  4028de:	47a0      	blx	r4
    simpleserial_addcmd('w', 0, ss_get_commands);
  4028e0:	4623      	mov	r3, r4
  4028e2:	4a05      	ldr	r2, [pc, #20]	@ (4028f8 <simpleserial_init+0x24>)
}
  4028e4:	e8bd 4010 	ldmia.w	sp!, {r4, lr}
    simpleserial_addcmd('w', 0, ss_get_commands);
  4028e8:	2100      	movs	r1, #0
  4028ea:	2077      	movs	r0, #119	@ 0x77
  4028ec:	4718      	bx	r3
  4028ee:	bf00      	nop
  4028f0:	00402895 	.word	0x00402895
  4028f4:	00402969 	.word	0x00402969
  4028f8:	00402989 	.word	0x00402989

004028fc <simpleserial_put>:
	simpleserial_put('e', 0x01, &err);
	return;
}

void simpleserial_put(char c, uint8_t size, uint8_t* output)
{
  4028fc:	b5f0      	push	{r4, r5, r6, r7, lr}
  4028fe:	460d      	mov	r5, r1
  402900:	b0c1      	sub	sp, #260	@ 0x104
    if (!output) return;
  402902:	b31a      	cbz	r2, 40294c <simpleserial_put+0x50>
	uint8_t data_buf[MAX_SS_LEN+5];
	data_buf[0] = 0x00;
  402904:	2300      	movs	r3, #0
	data_buf[1] = c;
	data_buf[2] = size;
  402906:	f88d 1002 	strb.w	r1, [sp, #2]
	data_buf[0] = 0x00;
  40290a:	466c      	mov	r4, sp
  40290c:	f88d 3000 	strb.w	r3, [sp]
	data_buf[1] = c;
  402910:	f88d 0001 	strb.w	r0, [sp, #1]
	int i = 0;
	for (; i < size; i++) {
  402914:	f10d 0102 	add.w	r1, sp, #2
  402918:	429d      	cmp	r5, r3
  40291a:	dc19      	bgt.n	402950 <simpleserial_put+0x54>
		data_buf[i + 3] = output[i];
	}
	data_buf[i + 3] = ss_crc(data_buf+1, size+2);
  40291c:	1ca9      	adds	r1, r5, #2
  40291e:	4b0f      	ldr	r3, [pc, #60]	@ (40295c <simpleserial_put+0x60>)
  402920:	b2c9      	uxtb	r1, r1
  402922:	f10d 0001 	add.w	r0, sp, #1
  402926:	4798      	blx	r3
  402928:	1963      	adds	r3, r4, r5
	data_buf[i + 4] = 0x00;
  40292a:	1d2f      	adds	r7, r5, #4
	stuff_data(data_buf, i + 5);
  40292c:	1d69      	adds	r1, r5, #5
	data_buf[i + 3] = ss_crc(data_buf+1, size+2);
  40292e:	70d8      	strb	r0, [r3, #3]
	data_buf[i + 4] = 0x00;
  402930:	2600      	movs	r6, #0
	stuff_data(data_buf, i + 5);
  402932:	4b0b      	ldr	r3, [pc, #44]	@ (402960 <simpleserial_put+0x64>)
	data_buf[i + 4] = 0x00;
  402934:	55e6      	strb	r6, [r4, r7]
	stuff_data(data_buf, i + 5);
  402936:	b2c9      	uxtb	r1, r1
  402938:	4620      	mov	r0, r4
  40293a:	4798      	blx	r3
	for (int i = 0; i < size + 5; i++) {
  40293c:	4635      	mov	r5, r6
		putch(data_buf[i]);
  40293e:	4e09      	ldr	r6, [pc, #36]	@ (402964 <simpleserial_put+0x68>)
  402940:	f814 0b01 	ldrb.w	r0, [r4], #1
	for (int i = 0; i < size + 5; i++) {
  402944:	3501      	adds	r5, #1
		putch(data_buf[i]);
  402946:	47b0      	blx	r6
	for (int i = 0; i < size + 5; i++) {
  402948:	42af      	cmp	r7, r5
  40294a:	daf9      	bge.n	402940 <simpleserial_put+0x44>
	}
}
  40294c:	b041      	add	sp, #260	@ 0x104
  40294e:	bdf0      	pop	{r4, r5, r6, r7, pc}
		data_buf[i + 3] = output[i];
  402950:	5cd0      	ldrb	r0, [r2, r3]
  402952:	f801 0f01 	strb.w	r0, [r1, #1]!
	for (; i < size; i++) {
  402956:	3301      	adds	r3, #1
  402958:	e7de      	b.n	402918 <simpleserial_put+0x1c>
  40295a:	bf00      	nop
  40295c:	00402829 	.word	0x00402829
  402960:	00402855 	.word	0x00402855
  402964:	00402c49 	.word	0x00402c49

00402968 <check_version>:
{
  402968:	b507      	push	{r0, r1, r2, lr}
	uint8_t ver = SS_VER;
  40296a:	2303      	movs	r3, #3
  40296c:	f88d 3007 	strb.w	r3, [sp, #7]
	simpleserial_put('r', 1, &ver);
  402970:	f10d 0207 	add.w	r2, sp, #7
  402974:	4b03      	ldr	r3, [pc, #12]	@ (402984 <check_version+0x1c>)
  402976:	2101      	movs	r1, #1
  402978:	2072      	movs	r0, #114	@ 0x72
  40297a:	4798      	blx	r3
}
  40297c:	2000      	movs	r0, #0
  40297e:	b003      	add	sp, #12
  402980:	f85d fb04 	ldr.w	pc, [sp], #4
  402984:	004028fd 	.word	0x004028fd

00402988 <ss_get_commands>:
{
  402988:	b530      	push	{r4, r5, lr}
    for (uint8_t i = 0; i < (num_commands & 0xFF); i++) {
  40298a:	4b0d      	ldr	r3, [pc, #52]	@ (4029c0 <ss_get_commands+0x38>)
        cmd_chars[i] = commands[i].c;
  40298c:	480d      	ldr	r0, [pc, #52]	@ (4029c4 <ss_get_commands+0x3c>)
    for (uint8_t i = 0; i < (num_commands & 0xFF); i++) {
  40298e:	7819      	ldrb	r1, [r3, #0]
{
  402990:	b089      	sub	sp, #36	@ 0x24
    for (uint8_t i = 0; i < (num_commands & 0xFF); i++) {
  402992:	2200      	movs	r2, #0
        cmd_chars[i] = commands[i].c;
  402994:	240c      	movs	r4, #12
    for (uint8_t i = 0; i < (num_commands & 0xFF); i++) {
  402996:	b2d3      	uxtb	r3, r2
  402998:	428b      	cmp	r3, r1
  40299a:	f102 0201 	add.w	r2, r2, #1
  40299e:	db06      	blt.n	4029ae <ss_get_commands+0x26>
    simpleserial_put('r', num_commands & 0xFF, (void *)cmd_chars);
  4029a0:	4b09      	ldr	r3, [pc, #36]	@ (4029c8 <ss_get_commands+0x40>)
  4029a2:	466a      	mov	r2, sp
  4029a4:	2072      	movs	r0, #114	@ 0x72
  4029a6:	4798      	blx	r3
}
  4029a8:	2000      	movs	r0, #0
  4029aa:	b009      	add	sp, #36	@ 0x24
  4029ac:	bd30      	pop	{r4, r5, pc}
        cmd_chars[i] = commands[i].c;
  4029ae:	f103 0520 	add.w	r5, r3, #32
  4029b2:	4363      	muls	r3, r4
  4029b4:	446d      	add	r5, sp
  4029b6:	5cc3      	ldrb	r3, [r0, r3]
  4029b8:	f805 3c20 	strb.w	r3, [r5, #-32]
    for (uint8_t i = 0; i < (num_commands & 0xFF); i++) {
  4029bc:	e7eb      	b.n	402996 <ss_get_commands+0xe>
  4029be:	bf00      	nop
  4029c0:	20001ae0 	.word	0x20001ae0
  4029c4:	20001960 	.word	0x20001960
  4029c8:	004028fd 	.word	0x004028fd

004029cc <simpleserial_get>:
{
  4029cc:	e92d 47f0 	stmdb	sp!, {r4, r5, r6, r7, r8, r9, sl, lr}
  4029d0:	b0c0      	sub	sp, #256	@ 0x100
	uint8_t err = 0;
  4029d2:	2400      	movs	r4, #0
  4029d4:	ad01      	add	r5, sp, #4
		data_buf[i] = getch(); //PTR, cmd, scmd, len
  4029d6:	f8df 90e0 	ldr.w	r9, [pc, #224]	@ 402ab8 <simpleserial_get+0xec>
	uint8_t err = 0;
  4029da:	f88d 4003 	strb.w	r4, [sp, #3]
	for (int i = 0; i < 4; i++) {
  4029de:	462f      	mov	r7, r5
		data_buf[i] = getch(); //PTR, cmd, scmd, len
  4029e0:	47c8      	blx	r9
  4029e2:	f805 0b01 	strb.w	r0, [r5], #1
		if (data_buf[i] == FRAME_BYTE) {
  4029e6:	b958      	cbnz	r0, 402a00 <simpleserial_get+0x34>
			goto ERROR;
  4029e8:	2005      	movs	r0, #5
			err = SS_ERR_FRAME_BYTE;
  4029ea:	f88d 0003 	strb.w	r0, [sp, #3]
	simpleserial_put('e', 0x01, &err);
  4029ee:	4b33      	ldr	r3, [pc, #204]	@ (402abc <simpleserial_get+0xf0>)
  4029f0:	f10d 0203 	add.w	r2, sp, #3
  4029f4:	2101      	movs	r1, #1
  4029f6:	2065      	movs	r0, #101	@ 0x65
  4029f8:	4798      	blx	r3
}
  4029fa:	b040      	add	sp, #256	@ 0x100
  4029fc:	e8bd 87f0 	ldmia.w	sp!, {r4, r5, r6, r7, r8, r9, sl, pc}
	for (int i = 0; i < 4; i++) {
  402a00:	3401      	adds	r4, #1
  402a02:	2c04      	cmp	r4, #4
  402a04:	d1ec      	bne.n	4029e0 <simpleserial_get+0x14>
	uint8_t next_frame = unstuff_data(data_buf, 4);
  402a06:	4621      	mov	r1, r4
  402a08:	f8df 80b4 	ldr.w	r8, [pc, #180]	@ 402ac0 <simpleserial_get+0xf4>
  402a0c:	4638      	mov	r0, r7
  402a0e:	47c0      	blx	r8
	for(c = 0; c < num_commands; c++)
  402a10:	4b2c      	ldr	r3, [pc, #176]	@ (402ac4 <simpleserial_get+0xf8>)
		if(commands[c].c == data_buf[1])
  402a12:	f89d 1005 	ldrb.w	r1, [sp, #5]
	for(c = 0; c < num_commands; c++)
  402a16:	681a      	ldr	r2, [r3, #0]
	uint8_t next_frame = unstuff_data(data_buf, 4);
  402a18:	4605      	mov	r5, r0
		if(commands[c].c == data_buf[1])
  402a1a:	482b      	ldr	r0, [pc, #172]	@ (402ac8 <simpleserial_get+0xfc>)
	for(c = 0; c < num_commands; c++)
  402a1c:	2300      	movs	r3, #0
		if(commands[c].c == data_buf[1])
  402a1e:	f04f 0c0c 	mov.w	ip, #12
	for(c = 0; c < num_commands; c++)
  402a22:	b2de      	uxtb	r6, r3
  402a24:	4296      	cmp	r6, r2
  402a26:	db02      	blt.n	402a2e <simpleserial_get+0x62>
	if (c == num_commands) {
  402a28:	d108      	bne.n	402a3c <simpleserial_get+0x70>
  402a2a:	2001      	movs	r0, #1
  402a2c:	e7dd      	b.n	4029ea <simpleserial_get+0x1e>
		if(commands[c].c == data_buf[1])
  402a2e:	fb0c fe06 	mul.w	lr, ip, r6
  402a32:	3301      	adds	r3, #1
  402a34:	f810 e00e 	ldrb.w	lr, [r0, lr]
  402a38:	458e      	cmp	lr, r1
  402a3a:	d1f2      	bne.n	402a22 <simpleserial_get+0x56>
	if ((data_buf[3] + 5) < next_frame) {
  402a3c:	f89d 3007 	ldrb.w	r3, [sp, #7]
  402a40:	3305      	adds	r3, #5
  402a42:	42ab      	cmp	r3, r5
  402a44:	da06      	bge.n	402a54 <simpleserial_get+0x88>
		goto ERROR;
  402a46:	2004      	movs	r0, #4
  402a48:	e7cf      	b.n	4029ea <simpleserial_get+0x1e>
		data_buf[i] = getch();
  402a4a:	47c8      	blx	r9
  402a4c:	5538      	strb	r0, [r7, r4]
		if (data_buf[i] == FRAME_BYTE) {
  402a4e:	2800      	cmp	r0, #0
  402a50:	d0ca      	beq.n	4029e8 <simpleserial_get+0x1c>
	for (; i < data_buf[3] + 5; i++) {
  402a52:	3401      	adds	r4, #1
  402a54:	f89d 3007 	ldrb.w	r3, [sp, #7]
  402a58:	3304      	adds	r3, #4
  402a5a:	42a3      	cmp	r3, r4
  402a5c:	daf5      	bge.n	402a4a <simpleserial_get+0x7e>
	data_buf[i] = getch();
  402a5e:	47c8      	blx	r9
  402a60:	f504 7380 	add.w	r3, r4, #256	@ 0x100
  402a64:	eb0d 0a03 	add.w	sl, sp, r3
  402a68:	f80a 0cfc 	strb.w	r0, [sl, #-252]
	if (data_buf[i] != FRAME_BYTE) {
  402a6c:	2800      	cmp	r0, #0
  402a6e:	d1ea      	bne.n	402a46 <simpleserial_get+0x7a>
	unstuff_data(data_buf + next_frame, i - next_frame + 1);
  402a70:	f1c5 0301 	rsb	r3, r5, #1
  402a74:	fa53 f184 	uxtab	r1, r3, r4
  402a78:	b2c9      	uxtb	r1, r1
  402a7a:	fa5f f984 	uxtb.w	r9, r4
  402a7e:	1978      	adds	r0, r7, r5
  402a80:	47c0      	blx	r8
	uint8_t crc = ss_crc(data_buf+1, i-2);
  402a82:	f1a9 0102 	sub.w	r1, r9, #2
  402a86:	4b11      	ldr	r3, [pc, #68]	@ (402acc <simpleserial_get+0x100>)
  402a88:	b2c9      	uxtb	r1, r1
  402a8a:	f10d 0005 	add.w	r0, sp, #5
  402a8e:	4798      	blx	r3
	if (crc != data_buf[i-1]) {
  402a90:	f81a 3cfd 	ldrb.w	r3, [sl, #-253]
  402a94:	4283      	cmp	r3, r0
  402a96:	d10d      	bne.n	402ab4 <simpleserial_get+0xe8>
	err = commands[c].fp(data_buf[1], data_buf[2], data_buf[3], data_buf+4);
  402a98:	4b0b      	ldr	r3, [pc, #44]	@ (402ac8 <simpleserial_get+0xfc>)
  402a9a:	f89d 1006 	ldrb.w	r1, [sp, #6]
  402a9e:	f89d 0005 	ldrb.w	r0, [sp, #5]
  402aa2:	220c      	movs	r2, #12
  402aa4:	fb02 3306 	mla	r3, r2, r6, r3
  402aa8:	f89d 2007 	ldrb.w	r2, [sp, #7]
  402aac:	689c      	ldr	r4, [r3, #8]
  402aae:	ab02      	add	r3, sp, #8
  402ab0:	47a0      	blx	r4
  402ab2:	e79a      	b.n	4029ea <simpleserial_get+0x1e>
  402ab4:	2002      	movs	r0, #2
  402ab6:	e798      	b.n	4029ea <simpleserial_get+0x1e>
  402ab8:	00402c65 	.word	0x00402c65
  402abc:	004028fd 	.word	0x004028fd
  402ac0:	00402877 	.word	0x00402877
  402ac4:	20001ae0 	.word	0x20001ae0
  402ac8:	20001960 	.word	0x20001960
  402acc:	00402829 	.word	0x00402829

00402ad0 <Dummy_Handler>:
/**
 * \brief Default interrupt handler for unused IRQs.
 */
void Dummy_Handler(void)
{
	while (1) {
  402ad0:	e7fe      	b.n	402ad0 <Dummy_Handler>
  402ad2:	0000      	movs	r0, r0

00402ad4 <Reset_Handler>:
{
  402ad4:	b508      	push	{r3, lr}
	if (pSrc > pDest) {
  402ad6:	4a15      	ldr	r2, [pc, #84]	@ (402b2c <Reset_Handler+0x58>)
  402ad8:	4b15      	ldr	r3, [pc, #84]	@ (402b30 <Reset_Handler+0x5c>)
  402ada:	429a      	cmp	r2, r3
  402adc:	d915      	bls.n	402b0a <Reset_Handler+0x36>
		for (; pDest < &_erelocate;) {
  402ade:	4915      	ldr	r1, [pc, #84]	@ (402b34 <Reset_Handler+0x60>)
  402ae0:	428b      	cmp	r3, r1
  402ae2:	d30d      	bcc.n	402b00 <Reset_Handler+0x2c>

    No Operation does nothing. This instruction can be used for code alignment purposes.
 */
__attribute__( ( always_inline ) ) __STATIC_INLINE void __NOP(void)
{
  __ASM volatile ("nop");
  402ae4:	bf00      	nop
	for (pDest = &_szero; pDest < &_ezero;) {
  402ae6:	4b14      	ldr	r3, [pc, #80]	@ (402b38 <Reset_Handler+0x64>)
  402ae8:	4a14      	ldr	r2, [pc, #80]	@ (402b3c <Reset_Handler+0x68>)
		*pDest++ = 0;
  402aea:	2100      	movs	r1, #0
	for (pDest = &_szero; pDest < &_ezero;) {
  402aec:	4293      	cmp	r3, r2
  402aee:	d31a      	bcc.n	402b26 <Reset_Handler+0x52>
	SCB->VTOR = ((uint32_t) pSrc);
  402af0:	4b13      	ldr	r3, [pc, #76]	@ (402b40 <Reset_Handler+0x6c>)
  402af2:	4a14      	ldr	r2, [pc, #80]	@ (402b44 <Reset_Handler+0x70>)
  402af4:	609a      	str	r2, [r3, #8]
	__libc_init_array();
  402af6:	4b14      	ldr	r3, [pc, #80]	@ (402b48 <Reset_Handler+0x74>)
  402af8:	4798      	blx	r3
	main();
  402afa:	4b14      	ldr	r3, [pc, #80]	@ (402b4c <Reset_Handler+0x78>)
  402afc:	4798      	blx	r3
	while (1);
  402afe:	e7fe      	b.n	402afe <Reset_Handler+0x2a>
			*pDest++ = *pSrc++;
  402b00:	f852 0b04 	ldr.w	r0, [r2], #4
  402b04:	f843 0b04 	str.w	r0, [r3], #4
  402b08:	e7ea      	b.n	402ae0 <Reset_Handler+0xc>
	} else if (pSrc < pDest) {
  402b0a:	d2eb      	bcs.n	402ae4 <Reset_Handler+0x10>
		uint32_t nb_bytes = (uint32_t)&_erelocate - (uint32_t)&_srelocate;
  402b0c:	4909      	ldr	r1, [pc, #36]	@ (402b34 <Reset_Handler+0x60>)
		pSrc = (uint32_t*)((uint32_t)pSrc + nb_bytes) - 1;
  402b0e:	1f10      	subs	r0, r2, #4
		uint32_t nb_bytes = (uint32_t)&_erelocate - (uint32_t)&_srelocate;
  402b10:	1acb      	subs	r3, r1, r3
		pSrc = (uint32_t*)((uint32_t)pSrc + nb_bytes) - 1;
  402b12:	4403      	add	r3, r0
		for (;nb_bytes;nb_bytes -= 4) {
  402b14:	f1c2 0204 	rsb	r2, r2, #4
  402b18:	42d3      	cmn	r3, r2
  402b1a:	d0e3      	beq.n	402ae4 <Reset_Handler+0x10>
			*pDest-- = *pSrc--;
  402b1c:	f853 0904 	ldr.w	r0, [r3], #-4
  402b20:	f841 0d04 	str.w	r0, [r1, #-4]!
		for (;nb_bytes;nb_bytes -= 4) {
  402b24:	e7f8      	b.n	402b18 <Reset_Handler+0x44>
		*pDest++ = 0;
  402b26:	f843 1b04 	str.w	r1, [r3], #4
  402b2a:	e7df      	b.n	402aec <Reset_Handler+0x18>
  402b2c:	004035d0 	.word	0x004035d0
  402b30:	20000000 	.word	0x20000000
  402b34:	20000004 	.word	0x20000004
  402b38:	20000004 	.word	0x20000004
  402b3c:	20001ae4 	.word	0x20001ae4
  402b40:	e000ed00 	.word	0xe000ed00
  402b44:	00400000 	.word	0x00400000
  402b48:	00403141 	.word	0x00403141
  402b4c:	0040043d 	.word	0x0040043d

00402b50 <platform_init>:
#include "sysclk.h"
#include "gpio.h"

void platform_init(void)
{
	WDT->WDT_MR = WDT_MR_WDDIS;
  402b50:	4b18      	ldr	r3, [pc, #96]	@ (402bb4 <platform_init+0x64>)
  402b52:	f44f 4200 	mov.w	r2, #32768	@ 0x8000
{
  402b56:	b570      	push	{r4, r5, r6, lr}
 *
 * \param ul_id Id (number) of the peripheral clock.
 */
static inline void sysclk_enable_peripheral_clock(uint32_t ul_id)
{
	pmc_enable_periph_clk(ul_id);
  402b58:	2000      	movs	r0, #0
	WDT->WDT_MR = WDT_MR_WDDIS;
  402b5a:	655a      	str	r2, [r3, #84]	@ 0x54
  402b5c:	4c16      	ldr	r4, [pc, #88]	@ (402bb8 <platform_init+0x68>)
    sysclk_enable_peripheral_clock(ID_SUPC);
    sysclk_enable_peripheral_clock(ID_RSTC);
    sysclk_enable_peripheral_clock(ID_PMC);
    pmc_set_writeprotect(0);
    system_init_flash(CHIP_FREQ_CPU_MAX);
  402b5e:	4d17      	ldr	r5, [pc, #92]	@ (402bbc <platform_init+0x6c>)
	case OSC_MAINCK_4M_RC:
	case OSC_MAINCK_8M_RC:
	case OSC_MAINCK_12M_RC:
	case OSC_MAINCK_XTAL:
	case OSC_MAINCK_BYPASS:
		return pmc_osc_is_ready_mainck();
  402b60:	4e17      	ldr	r6, [pc, #92]	@ (402bc0 <platform_init+0x70>)
  402b62:	47a0      	blx	r4
  402b64:	2001      	movs	r0, #1
  402b66:	47a0      	blx	r4
  402b68:	2005      	movs	r0, #5
  402b6a:	47a0      	blx	r4
    pmc_set_writeprotect(0);
  402b6c:	4b15      	ldr	r3, [pc, #84]	@ (402bc4 <platform_init+0x74>)
  402b6e:	2000      	movs	r0, #0
  402b70:	4798      	blx	r3
    system_init_flash(CHIP_FREQ_CPU_MAX);
  402b72:	4815      	ldr	r0, [pc, #84]	@ (402bc8 <platform_init+0x78>)
  402b74:	47a8      	blx	r5
    pmc_switch_mck_to_sclk(SYSCLK_PRES_1);
  402b76:	4b15      	ldr	r3, [pc, #84]	@ (402bcc <platform_init+0x7c>)
  402b78:	2000      	movs	r0, #0
  402b7a:	4798      	blx	r3
		pmc_switch_mainck_to_xtal(PMC_OSC_BYPASS,
  402b7c:	4b14      	ldr	r3, [pc, #80]	@ (402bd0 <platform_init+0x80>)
  402b7e:	213e      	movs	r1, #62	@ 0x3e
  402b80:	2001      	movs	r0, #1
  402b82:	4798      	blx	r3
		return pmc_osc_is_ready_mainck();
  402b84:	47b0      	blx	r6
 *
 * \param id A number identifying the oscillator to wait for.
 */
static inline void osc_wait_ready(uint8_t id)
{
	while (!osc_is_ready(id)) {
  402b86:	2800      	cmp	r0, #0
  402b88:	d0fc      	beq.n	402b84 <platform_init+0x34>
    osc_enable(OSC_MAINCK_BYPASS);
    osc_wait_ready(OSC_MAINCK_BYPASS);
    pmc_switch_mck_to_mainck(SYSCLK_PRES_1);
  402b8a:	4b12      	ldr	r3, [pc, #72]	@ (402bd4 <platform_init+0x84>)
  402b8c:	2000      	movs	r0, #0
  402b8e:	4798      	blx	r3
    SystemCoreClockUpdate();
  402b90:	4b11      	ldr	r3, [pc, #68]	@ (402bd8 <platform_init+0x88>)
  402b92:	4798      	blx	r3
    system_init_flash(7.37E6);
  402b94:	4811      	ldr	r0, [pc, #68]	@ (402bdc <platform_init+0x8c>)
  402b96:	47a8      	blx	r5
    EFC0->EEFC_FMR &= ~(0b100 << 24); // disable code loop optimizations (causes trace desyncs)
  402b98:	4a11      	ldr	r2, [pc, #68]	@ (402be0 <platform_init+0x90>)
  402b9a:	6813      	ldr	r3, [r2, #0]
  402b9c:	f023 6380 	bic.w	r3, r3, #67108864	@ 0x4000000
  402ba0:	6013      	str	r3, [r2, #0]
  402ba2:	200b      	movs	r0, #11
  402ba4:	47a0      	blx	r4
    //     gpio_configure_pin(PIO_PA16_IDX, PIO_OUTPUT_1 | PIO_DEFAULT);
    //     for (volatile uint32_t i = 0; i < 100000; i++) {
    //     }
    // }
    // gpio_configure_pin(PIO_PA10_IDX, PIO_PERIPH_A | PIO_DEFAULT);
}
  402ba6:	e8bd 4070 	ldmia.w	sp!, {r4, r5, r6, lr}
    gpio_configure_pin(PIO_PA15_IDX, PIO_OUTPUT_1 | PIO_DEFAULT);
  402baa:	4b0e      	ldr	r3, [pc, #56]	@ (402be4 <platform_init+0x94>)
  402bac:	f04f 5160 	mov.w	r1, #939524096	@ 0x38000000
  402bb0:	200f      	movs	r0, #15
  402bb2:	4718      	bx	r3
  402bb4:	400e1400 	.word	0x400e1400
  402bb8:	004030e9 	.word	0x004030e9
  402bbc:	00402fa5 	.word	0x00402fa5
  402bc0:	004030d9 	.word	0x004030d9
  402bc4:	00403125 	.word	0x00403125
  402bc8:	07270e00 	.word	0x07270e00
  402bcc:	00403009 	.word	0x00403009
  402bd0:	0040308d 	.word	0x0040308d
  402bd4:	00403049 	.word	0x00403049
  402bd8:	00402ed9 	.word	0x00402ed9
  402bdc:	00707510 	.word	0x00707510
  402be0:	400e0a00 	.word	0x400e0a00
  402be4:	00402e35 	.word	0x00402e35

00402be8 <init_uart>:

void init_uart(void)
{
  402be8:	b51f      	push	{r0, r1, r2, r3, r4, lr}
    #if SS_VER == SS_VER_2_1
        uopts.ul_baudrate = 230400;
    #else
        uopts.ul_baudrate = 38400;
    #endif
    uopts.ul_mck = 7.45E6; //overestimate clock a little to avoid large baud error from calc rounding down, 38400/7.37E6 results in baud of 41k, not 38400
  402bea:	4b0f      	ldr	r3, [pc, #60]	@ (402c28 <init_uart+0x40>)


    uart_init(UART0, &uopts);
    uart_enable_rx(UART0);
    uart_enable_tx(UART0);
    gpio_configure_pin(PIO_PA9_IDX, PIO_PERIPH_A | PIO_DEFAULT | PIO_PULLUP);
  402bec:	4c0f      	ldr	r4, [pc, #60]	@ (402c2c <init_uart+0x44>)
    uopts.ul_mck = 7.45E6; //overestimate clock a little to avoid large baud error from calc rounding down, 38400/7.37E6 results in baud of 41k, not 38400
  402bee:	f44f 3261 	mov.w	r2, #230400	@ 0x38400
  402bf2:	e9cd 3201 	strd	r3, r2, [sp, #4]
    uopts.ul_mode = (0x00 << 14) | (0x04 << 9);
  402bf6:	f44f 6300 	mov.w	r3, #2048	@ 0x800
  402bfa:	9303      	str	r3, [sp, #12]
  402bfc:	2008      	movs	r0, #8
  402bfe:	4b0c      	ldr	r3, [pc, #48]	@ (402c30 <init_uart+0x48>)
  402c00:	4798      	blx	r3
    uart_init(UART0, &uopts);
  402c02:	a901      	add	r1, sp, #4
  402c04:	4b0b      	ldr	r3, [pc, #44]	@ (402c34 <init_uart+0x4c>)
  402c06:	480c      	ldr	r0, [pc, #48]	@ (402c38 <init_uart+0x50>)
  402c08:	4798      	blx	r3
    uart_enable_rx(UART0);
  402c0a:	480b      	ldr	r0, [pc, #44]	@ (402c38 <init_uart+0x50>)
  402c0c:	4b0b      	ldr	r3, [pc, #44]	@ (402c3c <init_uart+0x54>)
  402c0e:	4798      	blx	r3
    uart_enable_tx(UART0);
  402c10:	4b0b      	ldr	r3, [pc, #44]	@ (402c40 <init_uart+0x58>)
  402c12:	4809      	ldr	r0, [pc, #36]	@ (402c38 <init_uart+0x50>)
  402c14:	4798      	blx	r3
    gpio_configure_pin(PIO_PA9_IDX, PIO_PERIPH_A | PIO_DEFAULT | PIO_PULLUP);
  402c16:	490b      	ldr	r1, [pc, #44]	@ (402c44 <init_uart+0x5c>)
  402c18:	2009      	movs	r0, #9
  402c1a:	47a0      	blx	r4
    gpio_configure_pin(PIO_PA10_IDX, PIO_PERIPH_A | PIO_DEFAULT);
  402c1c:	f04f 6100 	mov.w	r1, #134217728	@ 0x8000000
  402c20:	200a      	movs	r0, #10
  402c22:	47a0      	blx	r4
}
  402c24:	b004      	add	sp, #16
  402c26:	bd10      	pop	{r4, pc}
  402c28:	0071ad90 	.word	0x0071ad90
  402c2c:	00402e35 	.word	0x00402e35
  402c30:	004030e9 	.word	0x004030e9
  402c34:	00402ce5 	.word	0x00402ce5
  402c38:	400e0600 	.word	0x400e0600
  402c3c:	00402d1f 	.word	0x00402d1f
  402c40:	00402d19 	.word	0x00402d19
  402c44:	08000001 	.word	0x08000001

00402c48 <putch>:

void putch(char c)
{
  402c48:	b538      	push	{r3, r4, r5, lr}
    // while (!uart_is_tx_buf_end(UART0));
    while(uart_write(UART0, c));
  402c4a:	4d04      	ldr	r5, [pc, #16]	@ (402c5c <putch+0x14>)
{
  402c4c:	4604      	mov	r4, r0
    while(uart_write(UART0, c));
  402c4e:	4804      	ldr	r0, [pc, #16]	@ (402c60 <putch+0x18>)
  402c50:	4621      	mov	r1, r4
  402c52:	47a8      	blx	r5
  402c54:	2800      	cmp	r0, #0
  402c56:	d1fa      	bne.n	402c4e <putch+0x6>
}
  402c58:	bd38      	pop	{r3, r4, r5, pc}
  402c5a:	bf00      	nop
  402c5c:	00402d25 	.word	0x00402d25
  402c60:	400e0600 	.word	0x400e0600

00402c64 <getch>:

char getch(void)
{
  402c64:	b513      	push	{r0, r1, r4, lr}
    uint8_t c;
    while(uart_read(UART0, &c));
  402c66:	4c05      	ldr	r4, [pc, #20]	@ (402c7c <getch+0x18>)
  402c68:	4805      	ldr	r0, [pc, #20]	@ (402c80 <getch+0x1c>)
  402c6a:	f10d 0107 	add.w	r1, sp, #7
  402c6e:	47a0      	blx	r4
  402c70:	2800      	cmp	r0, #0
  402c72:	d1f9      	bne.n	402c68 <getch+0x4>
    return c;
}
  402c74:	f89d 0007 	ldrb.w	r0, [sp, #7]
  402c78:	b002      	add	sp, #8
  402c7a:	bd10      	pop	{r4, pc}
  402c7c:	00402d33 	.word	0x00402d33
  402c80:	400e0600 	.word	0x400e0600

00402c84 <trigger_setup>:

void trigger_setup(void)
{
  402c84:	b510      	push	{r4, lr}
  402c86:	4b05      	ldr	r3, [pc, #20]	@ (402c9c <trigger_setup+0x18>)
  402c88:	200b      	movs	r0, #11
  402c8a:	4798      	blx	r3
    sysclk_enable_peripheral_clock(ID_PIOA);
    gpio_configure_pin(PIO_PA7_IDX, PIO_OUTPUT_0 | PIO_DEFAULT);
}
  402c8c:	e8bd 4010 	ldmia.w	sp!, {r4, lr}
    gpio_configure_pin(PIO_PA7_IDX, PIO_OUTPUT_0 | PIO_DEFAULT);
  402c90:	4b03      	ldr	r3, [pc, #12]	@ (402ca0 <trigger_setup+0x1c>)
  402c92:	f04f 5140 	mov.w	r1, #805306368	@ 0x30000000
  402c96:	2007      	movs	r0, #7
  402c98:	4718      	bx	r3
  402c9a:	bf00      	nop
  402c9c:	004030e9 	.word	0x004030e9
  402ca0:	00402e35 	.word	0x00402e35

00402ca4 <trigger_low>:

void trigger_low(void)
{
  402ca4:	b510      	push	{r4, lr}
    gpio_set_pin_low(PIO_PA7_IDX);
  402ca6:	4b05      	ldr	r3, [pc, #20]	@ (402cbc <trigger_low+0x18>)
  402ca8:	2007      	movs	r0, #7
  402caa:	4798      	blx	r3
    gpio_configure_pin(PIO_PA7_IDX, PIO_OUTPUT_0 | PIO_DEFAULT);
}
  402cac:	e8bd 4010 	ldmia.w	sp!, {r4, lr}
    gpio_configure_pin(PIO_PA7_IDX, PIO_OUTPUT_0 | PIO_DEFAULT);
  402cb0:	4b03      	ldr	r3, [pc, #12]	@ (402cc0 <trigger_low+0x1c>)
  402cb2:	f04f 5140 	mov.w	r1, #805306368	@ 0x30000000
  402cb6:	2007      	movs	r0, #7
  402cb8:	4718      	bx	r3
  402cba:	bf00      	nop
  402cbc:	00402e1b 	.word	0x00402e1b
  402cc0:	00402e35 	.word	0x00402e35

00402cc4 <trigger_high>:

void trigger_high(void)
{
  402cc4:	b510      	push	{r4, lr}
    gpio_set_pin_high(PIO_PA7_IDX);
  402cc6:	4b05      	ldr	r3, [pc, #20]	@ (402cdc <trigger_high+0x18>)
  402cc8:	2007      	movs	r0, #7
  402cca:	4798      	blx	r3
    gpio_configure_pin(PIO_PA7_IDX, PIO_OUTPUT_1 | PIO_DEFAULT);
  402ccc:	e8bd 4010 	ldmia.w	sp!, {r4, lr}
    gpio_configure_pin(PIO_PA7_IDX, PIO_OUTPUT_1 | PIO_DEFAULT);
  402cd0:	4b03      	ldr	r3, [pc, #12]	@ (402ce0 <trigger_high+0x1c>)
  402cd2:	f04f 5160 	mov.w	r1, #939524096	@ 0x38000000
  402cd6:	2007      	movs	r0, #7
  402cd8:	4718      	bx	r3
  402cda:	bf00      	nop
  402cdc:	00402e03 	.word	0x00402e03
  402ce0:	00402e35 	.word	0x00402e35

00402ce4 <uart_init>:
uint32_t uart_init(Uart *p_uart, const sam_uart_opt_t *p_uart_opt)
{
	uint32_t cd = 0;

	/* Reset and disable receiver & transmitter */
	p_uart->UART_CR = UART_CR_RSTRX | UART_CR_RSTTX
  402ce4:	23ac      	movs	r3, #172	@ 0xac
{
  402ce6:	b510      	push	{r4, lr}
	p_uart->UART_CR = UART_CR_RSTRX | UART_CR_RSTTX
  402ce8:	6003      	str	r3, [r0, #0]
			| UART_CR_RXDIS | UART_CR_TXDIS;

	/* Check and configure baudrate */
	/* Asynchronous, no oversampling */
	cd = (p_uart_opt->ul_mck / p_uart_opt->ul_baudrate) / UART_MCK_DIV;
  402cea:	e9d1 3200 	ldrd	r3, r2, [r1]
  402cee:	fbb3 f3f2 	udiv	r3, r3, r2
  402cf2:	091b      	lsrs	r3, r3, #4
	if (cd < UART_MCK_DIV_MIN_FACTOR || cd > UART_MCK_DIV_MAX_FACTOR)
  402cf4:	1e5c      	subs	r4, r3, #1
  402cf6:	f64f 72fe 	movw	r2, #65534	@ 0xfffe
  402cfa:	4294      	cmp	r4, r2
  402cfc:	d80a      	bhi.n	402d14 <uart_init+0x30>
		return 1;

	p_uart->UART_BRGR = cd;
  402cfe:	6203      	str	r3, [r0, #32]
	/* Configure mode */
	p_uart->UART_MR = p_uart_opt->ul_mode;
  402d00:	688b      	ldr	r3, [r1, #8]
  402d02:	6043      	str	r3, [r0, #4]

#if (!SAMV71 && !SAMV70 && !SAME70 && !SAMS70)
	/* Disable PDC channel */
	p_uart->UART_PTCR = UART_PTCR_RXTDIS | UART_PTCR_TXTDIS;
  402d04:	f240 2302 	movw	r3, #514	@ 0x202
  402d08:	f8c0 3120 	str.w	r3, [r0, #288]	@ 0x120
#endif

	/* Enable receiver and transmitter */
	p_uart->UART_CR = UART_CR_RXEN | UART_CR_TXEN;
  402d0c:	2350      	movs	r3, #80	@ 0x50
  402d0e:	6003      	str	r3, [r0, #0]

	return 0;
  402d10:	2000      	movs	r0, #0
}
  402d12:	bd10      	pop	{r4, pc}
		return 1;
  402d14:	2001      	movs	r0, #1
  402d16:	e7fc      	b.n	402d12 <uart_init+0x2e>

00402d18 <uart_enable_tx>:
 * \param p_uart Pointer to a UART instance.
 */
void uart_enable_tx(Uart *p_uart)
{
	/* Enable transmitter */
	p_uart->UART_CR = UART_CR_TXEN;
  402d18:	2340      	movs	r3, #64	@ 0x40
  402d1a:	6003      	str	r3, [r0, #0]
}
  402d1c:	4770      	bx	lr

00402d1e <uart_enable_rx>:
 * \param p_uart Pointer to a UART instance.
 */
void uart_enable_rx(Uart *p_uart)
{
	/* Enable receiver */
	p_uart->UART_CR = UART_CR_RXEN;
  402d1e:	2310      	movs	r3, #16
  402d20:	6003      	str	r3, [r0, #0]
}
  402d22:	4770      	bx	lr

00402d24 <uart_write>:
 * \retval 1 I/O Failure, UART is not ready.
 */
uint32_t uart_write(Uart *p_uart, const uint8_t uc_data)
{
	/* Check if the transmitter is ready */
	if (!(p_uart->UART_SR & UART_SR_TXRDY))
  402d24:	6943      	ldr	r3, [r0, #20]
  402d26:	079b      	lsls	r3, r3, #30
		return 1;

	/* Send character */
	p_uart->UART_THR = uc_data;
  402d28:	bf46      	itte	mi
  402d2a:	61c1      	strmi	r1, [r0, #28]
	return 0;
  402d2c:	2000      	movmi	r0, #0
		return 1;
  402d2e:	2001      	movpl	r0, #1
}
  402d30:	4770      	bx	lr

00402d32 <uart_read>:
 * \retval 1 I/O Failure, UART is not ready.
 */
uint32_t uart_read(Uart *p_uart, uint8_t *puc_data)
{
	/* Check if the receiver is ready */
	if ((p_uart->UART_SR & UART_SR_RXRDY) == 0)
  402d32:	6943      	ldr	r3, [r0, #20]
  402d34:	07db      	lsls	r3, r3, #31
		return 1;

	/* Read character */
	*puc_data = (uint8_t) p_uart->UART_RHR;
  402d36:	bf43      	ittte	mi
  402d38:	6983      	ldrmi	r3, [r0, #24]
  402d3a:	700b      	strbmi	r3, [r1, #0]
	return 0;
  402d3c:	2000      	movmi	r0, #0
		return 1;
  402d3e:	2001      	movpl	r0, #1
}
  402d40:	4770      	bx	lr

00402d42 <pio_set_peripheral>:

	/* Disable interrupts on the pin(s) */
	p_pio->PIO_IDR = ul_mask;

#if (SAM3S || SAM3N || SAM4S || SAM4E || SAM4N || SAM4C || SAMG || SAM4CP || SAM4CM || SAMV71 || SAMV70 || SAME70 || SAMS70)
	switch (ul_type) {
  402d42:	f1b1 5fc0 	cmp.w	r1, #402653184	@ 0x18000000
	p_pio->PIO_IDR = ul_mask;
  402d46:	6442      	str	r2, [r0, #68]	@ 0x44
	switch (ul_type) {
  402d48:	d026      	beq.n	402d98 <pio_set_peripheral+0x56>
  402d4a:	d807      	bhi.n	402d5c <pio_set_peripheral+0x1a>
  402d4c:	f1b1 6f00 	cmp.w	r1, #134217728	@ 0x8000000
  402d50:	d011      	beq.n	402d76 <pio_set_peripheral+0x34>
  402d52:	f1b1 5f80 	cmp.w	r1, #268435456	@ 0x10000000
  402d56:	d01c      	beq.n	402d92 <pio_set_peripheral+0x50>
  402d58:	b9c9      	cbnz	r1, 402d8e <pio_set_peripheral+0x4c>
  402d5a:	4770      	bx	lr
  402d5c:	f1b1 5f00 	cmp.w	r1, #536870912	@ 0x20000000
  402d60:	d023      	beq.n	402daa <pio_set_peripheral+0x68>
  402d62:	d314      	bcc.n	402d8e <pio_set_peripheral+0x4c>
  402d64:	f1b1 5f40 	cmp.w	r1, #805306368	@ 0x30000000
  402d68:	d012      	beq.n	402d90 <pio_set_peripheral+0x4e>
  402d6a:	f021 5180 	bic.w	r1, r1, #268435456	@ 0x10000000
  402d6e:	f1b1 5f20 	cmp.w	r1, #671088640	@ 0x28000000
  402d72:	d10c      	bne.n	402d8e <pio_set_peripheral+0x4c>
  402d74:	4770      	bx	lr
	case PIO_PERIPH_A:
		ul_sr = p_pio->PIO_ABCDSR[0];
  402d76:	6f01      	ldr	r1, [r0, #112]	@ 0x70
		p_pio->PIO_ABCDSR[0] &= (~ul_mask & ul_sr);
  402d78:	6f03      	ldr	r3, [r0, #112]	@ 0x70
  402d7a:	400b      	ands	r3, r1
  402d7c:	ea23 0302 	bic.w	r3, r3, r2
		ul_sr = p_pio->PIO_ABCDSR[1];
		p_pio->PIO_ABCDSR[1] &= (~ul_mask & ul_sr);
		break;
	case PIO_PERIPH_B:
		ul_sr = p_pio->PIO_ABCDSR[0];
		p_pio->PIO_ABCDSR[0] = (ul_mask | ul_sr);
  402d80:	6703      	str	r3, [r0, #112]	@ 0x70

		ul_sr = p_pio->PIO_ABCDSR[1];
  402d82:	6f41      	ldr	r1, [r0, #116]	@ 0x74
		p_pio->PIO_ABCDSR[1] &= (~ul_mask & ul_sr);
  402d84:	6f43      	ldr	r3, [r0, #116]	@ 0x74
  402d86:	400b      	ands	r3, r1
  402d88:	ea23 0302 	bic.w	r3, r3, r2
	case PIO_PERIPH_D:
		ul_sr = p_pio->PIO_ABCDSR[0];
		p_pio->PIO_ABCDSR[0] = (ul_mask | ul_sr);

		ul_sr = p_pio->PIO_ABCDSR[1];
		p_pio->PIO_ABCDSR[1] = (ul_mask | ul_sr);
  402d8c:	6743      	str	r3, [r0, #116]	@ 0x74
#else
#error "Unsupported device"
#endif

	/* Remove the pins from under the control of PIO */
	p_pio->PIO_PDR = ul_mask;
  402d8e:	6042      	str	r2, [r0, #4]
}
  402d90:	4770      	bx	lr
		ul_sr = p_pio->PIO_ABCDSR[0];
  402d92:	6f03      	ldr	r3, [r0, #112]	@ 0x70
		p_pio->PIO_ABCDSR[0] = (ul_mask | ul_sr);
  402d94:	4313      	orrs	r3, r2
  402d96:	e7f3      	b.n	402d80 <pio_set_peripheral+0x3e>
		ul_sr = p_pio->PIO_ABCDSR[0];
  402d98:	6f01      	ldr	r1, [r0, #112]	@ 0x70
		p_pio->PIO_ABCDSR[0] &= (~ul_mask & ul_sr);
  402d9a:	6f03      	ldr	r3, [r0, #112]	@ 0x70
  402d9c:	400b      	ands	r3, r1
  402d9e:	ea23 0302 	bic.w	r3, r3, r2
		p_pio->PIO_ABCDSR[0] = (ul_mask | ul_sr);
  402da2:	6703      	str	r3, [r0, #112]	@ 0x70
		ul_sr = p_pio->PIO_ABCDSR[1];
  402da4:	6f43      	ldr	r3, [r0, #116]	@ 0x74
		p_pio->PIO_ABCDSR[1] = (ul_mask | ul_sr);
  402da6:	4313      	orrs	r3, r2
  402da8:	e7f0      	b.n	402d8c <pio_set_peripheral+0x4a>
		ul_sr = p_pio->PIO_ABCDSR[0];
  402daa:	6f03      	ldr	r3, [r0, #112]	@ 0x70
		p_pio->PIO_ABCDSR[0] = (ul_mask | ul_sr);
  402dac:	4313      	orrs	r3, r2
  402dae:	e7f8      	b.n	402da2 <pio_set_peripheral+0x60>

00402db0 <pio_set_input>:
	if (ul_pull_up_enable) {
  402db0:	07d3      	lsls	r3, r2, #31
 * \param p_pio Pointer to a PIO instance.
 * \param ul_mask Interrupt sources bit map.
 */
void pio_disable_interrupt(Pio *p_pio, const uint32_t ul_mask)
{
	p_pio->PIO_IDR = ul_mask;
  402db2:	6441      	str	r1, [r0, #68]	@ 0x44
		p_pio->PIO_PUER = ul_mask;
  402db4:	bf4c      	ite	mi
  402db6:	6641      	strmi	r1, [r0, #100]	@ 0x64
		p_pio->PIO_PUDR = ul_mask;
  402db8:	6601      	strpl	r1, [r0, #96]	@ 0x60
	if (ul_attribute & (PIO_DEGLITCH | PIO_DEBOUNCE)) {
  402dba:	f012 0f0a 	tst.w	r2, #10
  402dbe:	d007      	beq.n	402dd0 <pio_set_input+0x20>
	if (ul_attribute & PIO_DEGLITCH) {
  402dc0:	0793      	lsls	r3, r2, #30
		p_pio->PIO_IFER = ul_mask;
  402dc2:	6201      	str	r1, [r0, #32]
	if (ul_attribute & PIO_DEGLITCH) {
  402dc4:	d408      	bmi.n	402dd8 <pio_set_input+0x28>
		if (ul_attribute & PIO_DEBOUNCE) {
  402dc6:	0713      	lsls	r3, r2, #28
			p_pio->PIO_IFSCER = ul_mask;
  402dc8:	bf48      	it	mi
  402dca:	f8c0 1084 	strmi.w	r1, [r0, #132]	@ 0x84
  402dce:	e000      	b.n	402dd2 <pio_set_input+0x22>
		p_pio->PIO_IFDR = ul_mask;
  402dd0:	6241      	str	r1, [r0, #36]	@ 0x24
	p_pio->PIO_ODR = ul_mask;
  402dd2:	6141      	str	r1, [r0, #20]
	p_pio->PIO_PER = ul_mask;
  402dd4:	6001      	str	r1, [r0, #0]
}
  402dd6:	4770      	bx	lr
		p_pio->PIO_IFSCDR = ul_mask;
  402dd8:	f8c0 1080 	str.w	r1, [r0, #128]	@ 0x80
  402ddc:	e7f9      	b.n	402dd2 <pio_set_input+0x22>

00402dde <pio_set_output>:
{
  402dde:	b510      	push	{r4, lr}
  402de0:	9c02      	ldr	r4, [sp, #8]
	p_pio->PIO_IDR = ul_mask;
  402de2:	6441      	str	r1, [r0, #68]	@ 0x44
	if (ul_pull_up_enable) {
  402de4:	b13c      	cbz	r4, 402df6 <pio_set_output+0x18>
		p_pio->PIO_PUER = ul_mask;
  402de6:	6641      	str	r1, [r0, #100]	@ 0x64
	if (ul_multidrive_enable) {
  402de8:	b13b      	cbz	r3, 402dfa <pio_set_output+0x1c>
		p_pio->PIO_MDER = ul_mask;
  402dea:	6501      	str	r1, [r0, #80]	@ 0x50
	if (ul_default_level) {
  402dec:	b13a      	cbz	r2, 402dfe <pio_set_output+0x20>
		p_pio->PIO_SODR = ul_mask;
  402dee:	6301      	str	r1, [r0, #48]	@ 0x30
	p_pio->PIO_OER = ul_mask;
  402df0:	6101      	str	r1, [r0, #16]
	p_pio->PIO_PER = ul_mask;
  402df2:	6001      	str	r1, [r0, #0]
}
  402df4:	bd10      	pop	{r4, pc}
		p_pio->PIO_PUDR = ul_mask;
  402df6:	6601      	str	r1, [r0, #96]	@ 0x60
  402df8:	e7f6      	b.n	402de8 <pio_set_output+0xa>
		p_pio->PIO_MDDR = ul_mask;
  402dfa:	6541      	str	r1, [r0, #84]	@ 0x54
  402dfc:	e7f6      	b.n	402dec <pio_set_output+0xe>
		p_pio->PIO_CODR = ul_mask;
  402dfe:	6341      	str	r1, [r0, #52]	@ 0x34
  402e00:	e7f6      	b.n	402df0 <pio_set_output+0x12>

00402e02 <pio_set_pin_high>:
		p_pio = PIOC;
	} else {
		p_pio = (Pio *)((uint32_t)PIOA + (PIO_DELTA * (ul_pin >> 5)));
	}
#else
	p_pio = (Pio *)((uint32_t)PIOA + (PIO_DELTA * (ul_pin >> 5)));
  402e02:	0943      	lsrs	r3, r0, #5
  402e04:	f503 1300 	add.w	r3, r3, #2097152	@ 0x200000
  402e08:	f203 7307 	addw	r3, r3, #1799	@ 0x707
  402e0c:	025b      	lsls	r3, r3, #9
	p_pio->PIO_SODR = 1 << (ul_pin & 0x1F);
  402e0e:	f000 001f 	and.w	r0, r0, #31
  402e12:	2201      	movs	r2, #1
  402e14:	4082      	lsls	r2, r0
  402e16:	631a      	str	r2, [r3, #48]	@ 0x30
}
  402e18:	4770      	bx	lr

00402e1a <pio_set_pin_low>:
	p_pio = (Pio *)((uint32_t)PIOA + (PIO_DELTA * (ul_pin >> 5)));
  402e1a:	0943      	lsrs	r3, r0, #5
  402e1c:	f503 1300 	add.w	r3, r3, #2097152	@ 0x200000
  402e20:	f203 7307 	addw	r3, r3, #1799	@ 0x707
  402e24:	025b      	lsls	r3, r3, #9
	p_pio->PIO_CODR = 1 << (ul_pin & 0x1F);
  402e26:	f000 001f 	and.w	r0, r0, #31
  402e2a:	2201      	movs	r2, #1
  402e2c:	4082      	lsls	r2, r0
  402e2e:	635a      	str	r2, [r3, #52]	@ 0x34
}
  402e30:	4770      	bx	lr
  402e32:	0000      	movs	r0, r0

00402e34 <pio_configure_pin>:
{
  402e34:	b537      	push	{r0, r1, r2, r4, r5, lr}
  402e36:	4604      	mov	r4, r0
	p_pio = (Pio *)((uint32_t)PIOA + (PIO_DELTA * (ul_pin >> 5)));
  402e38:	0940      	lsrs	r0, r0, #5
{
  402e3a:	460d      	mov	r5, r1
	p_pio = (Pio *)((uint32_t)PIOA + (PIO_DELTA * (ul_pin >> 5)));
  402e3c:	f500 1000 	add.w	r0, r0, #2097152	@ 0x200000
	switch (ul_flags & PIO_TYPE_Msk) {
  402e40:	f001 41f0 	and.w	r1, r1, #2013265920	@ 0x78000000
	p_pio = (Pio *)((uint32_t)PIOA + (PIO_DELTA * (ul_pin >> 5)));
  402e44:	f200 7007 	addw	r0, r0, #1799	@ 0x707
	switch (ul_flags & PIO_TYPE_Msk) {
  402e48:	f1b1 5f00 	cmp.w	r1, #536870912	@ 0x20000000
	p_pio = (Pio *)((uint32_t)PIOA + (PIO_DELTA * (ul_pin >> 5)));
  402e4c:	ea4f 2040 	mov.w	r0, r0, lsl #9
	switch (ul_flags & PIO_TYPE_Msk) {
  402e50:	d01f      	beq.n	402e92 <pio_configure_pin+0x5e>
  402e52:	d80b      	bhi.n	402e6c <pio_configure_pin+0x38>
  402e54:	f1b1 5f80 	cmp.w	r1, #268435456	@ 0x10000000
  402e58:	d01b      	beq.n	402e92 <pio_configure_pin+0x5e>
  402e5a:	f1b1 5fc0 	cmp.w	r1, #402653184	@ 0x18000000
  402e5e:	d018      	beq.n	402e92 <pio_configure_pin+0x5e>
  402e60:	f1b1 6f00 	cmp.w	r1, #134217728	@ 0x8000000
  402e64:	d015      	beq.n	402e92 <pio_configure_pin+0x5e>
  402e66:	2000      	movs	r0, #0
}
  402e68:	b003      	add	sp, #12
  402e6a:	bd30      	pop	{r4, r5, pc}
	switch (ul_flags & PIO_TYPE_Msk) {
  402e6c:	f005 43e0 	and.w	r3, r5, #1879048192	@ 0x70000000
  402e70:	f1b3 5f40 	cmp.w	r3, #805306368	@ 0x30000000
  402e74:	d017      	beq.n	402ea6 <pio_configure_pin+0x72>
  402e76:	f1b1 5f20 	cmp.w	r1, #671088640	@ 0x28000000
  402e7a:	d1f4      	bne.n	402e66 <pio_configure_pin+0x32>
		pio_set_input(p_pio, (1 << (ul_pin & 0x1F)), ul_flags);
  402e7c:	f004 041f 	and.w	r4, r4, #31
  402e80:	2101      	movs	r1, #1
  402e82:	4b12      	ldr	r3, [pc, #72]	@ (402ecc <pio_configure_pin+0x98>)
  402e84:	462a      	mov	r2, r5
  402e86:	40a1      	lsls	r1, r4
  402e88:	4798      	blx	r3
		break;
  402e8a:	e000      	b.n	402e8e <pio_configure_pin+0x5a>
		p_pio->PIO_PUDR = ul_mask;
  402e8c:	6602      	str	r2, [r0, #96]	@ 0x60
	return 1;
  402e8e:	2001      	movs	r0, #1
  402e90:	e7ea      	b.n	402e68 <pio_configure_pin+0x34>
		pio_set_peripheral(p_pio, PIO_PERIPH_D, (1 << (ul_pin & 0x1F)));
  402e92:	f004 041f 	and.w	r4, r4, #31
  402e96:	2201      	movs	r2, #1
  402e98:	40a2      	lsls	r2, r4
  402e9a:	4b0d      	ldr	r3, [pc, #52]	@ (402ed0 <pio_configure_pin+0x9c>)
  402e9c:	4798      	blx	r3
	if (ul_pull_up_enable) {
  402e9e:	07ec      	lsls	r4, r5, #31
  402ea0:	d5f4      	bpl.n	402e8c <pio_configure_pin+0x58>
		p_pio->PIO_PUER = ul_mask;
  402ea2:	6642      	str	r2, [r0, #100]	@ 0x64
  402ea4:	e7f3      	b.n	402e8e <pio_configure_pin+0x5a>
				((ul_flags & PIO_TYPE_PIO_OUTPUT_1)
  402ea6:	f005 5260 	and.w	r2, r5, #939524096	@ 0x38000000
		pio_set_output(p_pio, (1 << (ul_pin & 0x1F)),
  402eaa:	f102 4148 	add.w	r1, r2, #3355443200	@ 0xc8000000
  402eae:	424a      	negs	r2, r1
  402eb0:	f005 0301 	and.w	r3, r5, #1
  402eb4:	f004 041f 	and.w	r4, r4, #31
  402eb8:	414a      	adcs	r2, r1
  402eba:	2101      	movs	r1, #1
  402ebc:	9300      	str	r3, [sp, #0]
  402ebe:	40a1      	lsls	r1, r4
  402ec0:	f3c5 0380 	ubfx	r3, r5, #2, #1
  402ec4:	4c03      	ldr	r4, [pc, #12]	@ (402ed4 <pio_configure_pin+0xa0>)
  402ec6:	47a0      	blx	r4
		break;
  402ec8:	e7e1      	b.n	402e8e <pio_configure_pin+0x5a>
  402eca:	bf00      	nop
  402ecc:	00402db1 	.word	0x00402db1
  402ed0:	00402d43 	.word	0x00402d43
  402ed4:	00402ddf 	.word	0x00402ddf

00402ed8 <SystemCoreClockUpdate>:

/**
 * \brief Get Core Clock Frequency.
 */
void SystemCoreClockUpdate( void )
{
  402ed8:	b510      	push	{r4, lr}
	/* Determine clock frequency according to clock register values */
	switch ( PMC->PMC_MCKR & (uint32_t) PMC_MCKR_CSS_Msk ) {
  402eda:	4a2c      	ldr	r2, [pc, #176]	@ (402f8c <SystemCoreClockUpdate+0xb4>)
  402edc:	4b2c      	ldr	r3, [pc, #176]	@ (402f90 <SystemCoreClockUpdate+0xb8>)
  402ede:	6b11      	ldr	r1, [r2, #48]	@ 0x30
  402ee0:	f001 0103 	and.w	r1, r1, #3
  402ee4:	2901      	cmp	r1, #1
  402ee6:	d02a      	beq.n	402f3e <SystemCoreClockUpdate+0x66>
  402ee8:	3902      	subs	r1, #2
  402eea:	2901      	cmp	r1, #1
  402eec:	d81d      	bhi.n	402f2a <SystemCoreClockUpdate+0x52>
		}
		break;
		
	case PMC_MCKR_CSS_PLLA_CLK:	/* PLLA clock */
	case PMC_MCKR_CSS_PLLB_CLK:	/* PLLB clock */
			if ( PMC->CKGR_MOR & CKGR_MOR_MOSCSEL ) {
  402eee:	6a11      	ldr	r1, [r2, #32]
  402ef0:	01cc      	lsls	r4, r1, #7
  402ef2:	d448      	bmi.n	402f86 <SystemCoreClockUpdate+0xae>
				SystemCoreClock = CHIP_FREQ_XTAL;
			} else {
				SystemCoreClock = CHIP_FREQ_MAINCK_RC_4MHZ;
  402ef4:	4927      	ldr	r1, [pc, #156]	@ (402f94 <SystemCoreClockUpdate+0xbc>)
  402ef6:	6019      	str	r1, [r3, #0]
				
				switch ( PMC->CKGR_MOR & CKGR_MOR_MOSCRCF_Msk ) {
  402ef8:	6a11      	ldr	r1, [r2, #32]
  402efa:	f001 0170 	and.w	r1, r1, #112	@ 0x70
  402efe:	2910      	cmp	r1, #16
  402f00:	d03e      	beq.n	402f80 <SystemCoreClockUpdate+0xa8>
  402f02:	2920      	cmp	r1, #32
  402f04:	d03f      	beq.n	402f86 <SystemCoreClockUpdate+0xae>
				default:
					break;
				}
			}
			
			if ( (uint32_t)(PMC->PMC_MCKR & (uint32_t) PMC_MCKR_CSS_Msk) ==
  402f06:	6b10      	ldr	r0, [r2, #48]	@ 0x30
					PMC_MCKR_CSS_PLLA_CLK ) {
				SystemCoreClock *= ((((PMC->CKGR_PLLAR) & CKGR_PLLAR_MULA_Msk)
  402f08:	6819      	ldr	r1, [r3, #0]
			if ( (uint32_t)(PMC->PMC_MCKR & (uint32_t) PMC_MCKR_CSS_Msk) ==
  402f0a:	f000 0003 	and.w	r0, r0, #3
  402f0e:	2802      	cmp	r0, #2
				SystemCoreClock *= ((((PMC->CKGR_PLLAR) & CKGR_PLLAR_MULA_Msk)
  402f10:	bf0b      	itete	eq
  402f12:	6a94      	ldreq	r4, [r2, #40]	@ 0x28
						>> CKGR_PLLAR_MULA_Pos) + 1U);
				SystemCoreClock /= ((((PMC->CKGR_PLLAR) & CKGR_PLLAR_DIVA_Msk)
						>> CKGR_PLLAR_DIVA_Pos));
			} else {
				SystemCoreClock *= ((((PMC->CKGR_PLLBR) & CKGR_PLLBR_MULB_Msk)
  402f14:	6ad4      	ldrne	r4, [r2, #44]	@ 0x2c
				SystemCoreClock /= ((((PMC->CKGR_PLLAR) & CKGR_PLLAR_DIVA_Msk)
  402f16:	6a90      	ldreq	r0, [r2, #40]	@ 0x28
						>> CKGR_PLLBR_MULB_Pos) + 1U);
				SystemCoreClock /= ((((PMC->CKGR_PLLBR) & CKGR_PLLBR_DIVB_Msk)
  402f18:	6ad0      	ldrne	r0, [r2, #44]	@ 0x2c
						>> CKGR_PLLBR_MULB_Pos) + 1U);
  402f1a:	f3c4 440a 	ubfx	r4, r4, #16, #11
				SystemCoreClock *= ((((PMC->CKGR_PLLBR) & CKGR_PLLBR_MULB_Msk)
  402f1e:	fb04 1101 	mla	r1, r4, r1, r1
						>> CKGR_PLLBR_DIVB_Pos));
  402f22:	b2c0      	uxtb	r0, r0
				SystemCoreClock /= ((((PMC->CKGR_PLLBR) & CKGR_PLLBR_DIVB_Msk)
  402f24:	fbb1 f1f0 	udiv	r1, r1, r0
  402f28:	e007      	b.n	402f3a <SystemCoreClockUpdate+0x62>
			if ( SUPC->SUPC_SR & SUPC_SR_OSCSEL ) {
  402f2a:	491b      	ldr	r1, [pc, #108]	@ (402f98 <SystemCoreClockUpdate+0xc0>)
  402f2c:	6a49      	ldr	r1, [r1, #36]	@ 0x24
  402f2e:	0608      	lsls	r0, r1, #24
				SystemCoreClock = CHIP_FREQ_XTAL_32K;
  402f30:	bf4c      	ite	mi
  402f32:	f44f 4100 	movmi.w	r1, #32768	@ 0x8000
				SystemCoreClock = CHIP_FREQ_SLCK_RC;
  402f36:	f44f 41fa 	movpl.w	r1, #32000	@ 0x7d00
				SystemCoreClock /= ((((PMC->CKGR_PLLBR) & CKGR_PLLBR_DIVB_Msk)
  402f3a:	6019      	str	r1, [r3, #0]
  402f3c:	e00d      	b.n	402f5a <SystemCoreClockUpdate+0x82>
		if ( PMC->CKGR_MOR & CKGR_MOR_MOSCSEL ) {
  402f3e:	6a11      	ldr	r1, [r2, #32]
  402f40:	01c9      	lsls	r1, r1, #7
  402f42:	d501      	bpl.n	402f48 <SystemCoreClockUpdate+0x70>
				SystemCoreClock = CHIP_FREQ_MAINCK_RC_12MHZ;
  402f44:	4915      	ldr	r1, [pc, #84]	@ (402f9c <SystemCoreClockUpdate+0xc4>)
  402f46:	e7f8      	b.n	402f3a <SystemCoreClockUpdate+0x62>
			SystemCoreClock = CHIP_FREQ_MAINCK_RC_4MHZ;
  402f48:	4912      	ldr	r1, [pc, #72]	@ (402f94 <SystemCoreClockUpdate+0xbc>)
  402f4a:	6019      	str	r1, [r3, #0]
			switch ( PMC->CKGR_MOR & CKGR_MOR_MOSCRCF_Msk ) {
  402f4c:	6a11      	ldr	r1, [r2, #32]
  402f4e:	f001 0170 	and.w	r1, r1, #112	@ 0x70
  402f52:	2910      	cmp	r1, #16
  402f54:	d012      	beq.n	402f7c <SystemCoreClockUpdate+0xa4>
  402f56:	2920      	cmp	r1, #32
  402f58:	d0f4      	beq.n	402f44 <SystemCoreClockUpdate+0x6c>
		
	default:
		break;
	}

	if ( (PMC->PMC_MCKR & PMC_MCKR_PRES_Msk) == PMC_MCKR_PRES_CLK_3 ) {
  402f5a:	6b10      	ldr	r0, [r2, #48]	@ 0x30
		SystemCoreClock /= 3U;
  402f5c:	6819      	ldr	r1, [r3, #0]
	if ( (PMC->PMC_MCKR & PMC_MCKR_PRES_Msk) == PMC_MCKR_PRES_CLK_3 ) {
  402f5e:	f000 0070 	and.w	r0, r0, #112	@ 0x70
  402f62:	2870      	cmp	r0, #112	@ 0x70
	} else {
		SystemCoreClock >>=
			((PMC->PMC_MCKR & PMC_MCKR_PRES_Msk) >> PMC_MCKR_PRES_Pos);
  402f64:	bf1b      	ittet	ne
  402f66:	6b12      	ldrne	r2, [r2, #48]	@ 0x30
  402f68:	f3c2 1202 	ubfxne	r2, r2, #4, #3
		SystemCoreClock /= 3U;
  402f6c:	2203      	moveq	r2, #3
		SystemCoreClock >>=
  402f6e:	fa21 f202 	lsrne.w	r2, r1, r2
		SystemCoreClock /= 3U;
  402f72:	bf08      	it	eq
  402f74:	fbb1 f2f2 	udiveq	r2, r1, r2
		SystemCoreClock >>=
  402f78:	601a      	str	r2, [r3, #0]
	}
}
  402f7a:	bd10      	pop	{r4, pc}
				SystemCoreClock = CHIP_FREQ_MAINCK_RC_8MHZ;
  402f7c:	4908      	ldr	r1, [pc, #32]	@ (402fa0 <SystemCoreClockUpdate+0xc8>)
  402f7e:	e7dc      	b.n	402f3a <SystemCoreClockUpdate+0x62>
					SystemCoreClock = CHIP_FREQ_MAINCK_RC_8MHZ;
  402f80:	4907      	ldr	r1, [pc, #28]	@ (402fa0 <SystemCoreClockUpdate+0xc8>)
					SystemCoreClock = CHIP_FREQ_MAINCK_RC_12MHZ;
  402f82:	6019      	str	r1, [r3, #0]
					break;
  402f84:	e7bf      	b.n	402f06 <SystemCoreClockUpdate+0x2e>
					SystemCoreClock = CHIP_FREQ_MAINCK_RC_12MHZ;
  402f86:	4905      	ldr	r1, [pc, #20]	@ (402f9c <SystemCoreClockUpdate+0xc4>)
  402f88:	e7fb      	b.n	402f82 <SystemCoreClockUpdate+0xaa>
  402f8a:	bf00      	nop
  402f8c:	400e0400 	.word	0x400e0400
  402f90:	20000000 	.word	0x20000000
  402f94:	003d0900 	.word	0x003d0900
  402f98:	400e1400 	.word	0x400e1400
  402f9c:	00b71b00 	.word	0x00b71b00
  402fa0:	007a1200 	.word	0x007a1200

00402fa4 <system_init_flash>:
 */
void system_init_flash( uint32_t ul_clk )
{
  /* Set FWS for embedded Flash access according to operating frequency */
#if !defined(ID_EFC1)
	if ( ul_clk < CHIP_FREQ_FWS_0 ) {
  402fa4:	4b0e      	ldr	r3, [pc, #56]	@ (402fe0 <system_init_flash+0x3c>)
  402fa6:	4298      	cmp	r0, r3
  402fa8:	4b0e      	ldr	r3, [pc, #56]	@ (402fe4 <system_init_flash+0x40>)
  402faa:	d803      	bhi.n	402fb4 <system_init_flash+0x10>
		EFC0->EEFC_FMR = EEFC_FMR_FWS(0)|EEFC_FMR_CLOE;
  402fac:	f04f 6280 	mov.w	r2, #67108864	@ 0x4000000
					EFC0->EEFC_FMR = EEFC_FMR_FWS(3)|EEFC_FMR_CLOE;
				} else {
					if ( ul_clk < CHIP_FREQ_FWS_4 ) {
					EFC0->EEFC_FMR = EEFC_FMR_FWS(4)|EEFC_FMR_CLOE;
					} else {
					EFC0->EEFC_FMR = EEFC_FMR_FWS(5)|EEFC_FMR_CLOE;
  402fb0:	601a      	str	r2, [r3, #0]
				}
			}
		}
	}
#endif
}
  402fb2:	4770      	bx	lr
		if ( ul_clk < CHIP_FREQ_FWS_1 ) {
  402fb4:	4a0c      	ldr	r2, [pc, #48]	@ (402fe8 <system_init_flash+0x44>)
  402fb6:	4290      	cmp	r0, r2
  402fb8:	d201      	bcs.n	402fbe <system_init_flash+0x1a>
			EFC0->EEFC_FMR = EEFC_FMR_FWS(1)|EEFC_FMR_CLOE;
  402fba:	4a0c      	ldr	r2, [pc, #48]	@ (402fec <system_init_flash+0x48>)
  402fbc:	e7f8      	b.n	402fb0 <system_init_flash+0xc>
			if ( ul_clk < CHIP_FREQ_FWS_2 ) {
  402fbe:	4a0c      	ldr	r2, [pc, #48]	@ (402ff0 <system_init_flash+0x4c>)
  402fc0:	4290      	cmp	r0, r2
  402fc2:	d201      	bcs.n	402fc8 <system_init_flash+0x24>
				EFC0->EEFC_FMR = EEFC_FMR_FWS(2)|EEFC_FMR_CLOE;
  402fc4:	4a0b      	ldr	r2, [pc, #44]	@ (402ff4 <system_init_flash+0x50>)
  402fc6:	e7f3      	b.n	402fb0 <system_init_flash+0xc>
				if ( ul_clk < CHIP_FREQ_FWS_3 ) {
  402fc8:	4a0b      	ldr	r2, [pc, #44]	@ (402ff8 <system_init_flash+0x54>)
  402fca:	4290      	cmp	r0, r2
  402fcc:	d801      	bhi.n	402fd2 <system_init_flash+0x2e>
					EFC0->EEFC_FMR = EEFC_FMR_FWS(3)|EEFC_FMR_CLOE;
  402fce:	4a0b      	ldr	r2, [pc, #44]	@ (402ffc <system_init_flash+0x58>)
  402fd0:	e7ee      	b.n	402fb0 <system_init_flash+0xc>
					if ( ul_clk < CHIP_FREQ_FWS_4 ) {
  402fd2:	4a0b      	ldr	r2, [pc, #44]	@ (403000 <system_init_flash+0x5c>)
  402fd4:	4290      	cmp	r0, r2
					EFC0->EEFC_FMR = EEFC_FMR_FWS(5)|EEFC_FMR_CLOE;
  402fd6:	bf8c      	ite	hi
  402fd8:	4a0a      	ldrhi	r2, [pc, #40]	@ (403004 <system_init_flash+0x60>)
					EFC0->EEFC_FMR = EEFC_FMR_FWS(4)|EEFC_FMR_CLOE;
  402fda:	f04f 2204 	movls.w	r2, #67109888	@ 0x4000400
					EFC0->EEFC_FMR = EEFC_FMR_FWS(5)|EEFC_FMR_CLOE;
  402fde:	e7e7      	b.n	402fb0 <system_init_flash+0xc>
  402fe0:	01312cff 	.word	0x01312cff
  402fe4:	400e0a00 	.word	0x400e0a00
  402fe8:	02625a00 	.word	0x02625a00
  402fec:	04000100 	.word	0x04000100
  402ff0:	03938700 	.word	0x03938700
  402ff4:	04000200 	.word	0x04000200
  402ff8:	04c4b3ff 	.word	0x04c4b3ff
  402ffc:	04000300 	.word	0x04000300
  403000:	05f5e0ff 	.word	0x05f5e0ff
  403004:	04000500 	.word	0x04000500

00403008 <pmc_switch_mck_to_sclk>:
 */
uint32_t pmc_switch_mck_to_sclk(uint32_t ul_pres)
{
	uint32_t ul_timeout;

	PMC->PMC_MCKR = (PMC->PMC_MCKR & (~PMC_MCKR_CSS_Msk)) |
  403008:	4b0e      	ldr	r3, [pc, #56]	@ (403044 <pmc_switch_mck_to_sclk+0x3c>)
  40300a:	6b1a      	ldr	r2, [r3, #48]	@ 0x30
  40300c:	f022 0203 	bic.w	r2, r2, #3
  403010:	631a      	str	r2, [r3, #48]	@ 0x30
			PMC_MCKR_CSS_SLOW_CLK;
	for (ul_timeout = PMC_TIMEOUT; !(PMC->PMC_SR & PMC_SR_MCKRDY);
  403012:	f640 0201 	movw	r2, #2049	@ 0x801
  403016:	6e99      	ldr	r1, [r3, #104]	@ 0x68
  403018:	0709      	lsls	r1, r1, #28
  40301a:	d50b      	bpl.n	403034 <pmc_switch_mck_to_sclk+0x2c>
		if (ul_timeout == 0) {
			return 1;
		}
	}

	PMC->PMC_MCKR = (PMC->PMC_MCKR & (~PMC_MCKR_PRES_Msk)) | ul_pres;
  40301c:	6b1a      	ldr	r2, [r3, #48]	@ 0x30
  40301e:	f022 0270 	bic.w	r2, r2, #112	@ 0x70
  403022:	4310      	orrs	r0, r2
  403024:	6318      	str	r0, [r3, #48]	@ 0x30
	for (ul_timeout = PMC_TIMEOUT; !(PMC->PMC_SR & PMC_SR_MCKRDY);
  403026:	f640 0201 	movw	r2, #2049	@ 0x801
  40302a:	6e99      	ldr	r1, [r3, #104]	@ 0x68
  40302c:	0709      	lsls	r1, r1, #28
  40302e:	d505      	bpl.n	40303c <pmc_switch_mck_to_sclk+0x34>
		if (ul_timeout == 0) {
			return 1;
		}
	}

	return 0;
  403030:	2000      	movs	r0, #0
}
  403032:	4770      	bx	lr
		if (ul_timeout == 0) {
  403034:	3a01      	subs	r2, #1
  403036:	d1ee      	bne.n	403016 <pmc_switch_mck_to_sclk+0xe>
			return 1;
  403038:	2001      	movs	r0, #1
  40303a:	4770      	bx	lr
		if (ul_timeout == 0) {
  40303c:	3a01      	subs	r2, #1
  40303e:	d1f4      	bne.n	40302a <pmc_switch_mck_to_sclk+0x22>
  403040:	e7fa      	b.n	403038 <pmc_switch_mck_to_sclk+0x30>
  403042:	bf00      	nop
  403044:	400e0400 	.word	0x400e0400

00403048 <pmc_switch_mck_to_mainck>:
 */
uint32_t pmc_switch_mck_to_mainck(uint32_t ul_pres)
{
	uint32_t ul_timeout;

	PMC->PMC_MCKR = (PMC->PMC_MCKR & (~PMC_MCKR_CSS_Msk)) |
  403048:	4b0f      	ldr	r3, [pc, #60]	@ (403088 <pmc_switch_mck_to_mainck+0x40>)
  40304a:	6b1a      	ldr	r2, [r3, #48]	@ 0x30
  40304c:	f022 0203 	bic.w	r2, r2, #3
  403050:	f042 0201 	orr.w	r2, r2, #1
  403054:	631a      	str	r2, [r3, #48]	@ 0x30
			PMC_MCKR_CSS_MAIN_CLK;
	for (ul_timeout = PMC_TIMEOUT; !(PMC->PMC_SR & PMC_SR_MCKRDY);
  403056:	f640 0201 	movw	r2, #2049	@ 0x801
  40305a:	6e99      	ldr	r1, [r3, #104]	@ 0x68
  40305c:	0709      	lsls	r1, r1, #28
  40305e:	d50b      	bpl.n	403078 <pmc_switch_mck_to_mainck+0x30>
		if (ul_timeout == 0) {
			return 1;
		}
	}

	PMC->PMC_MCKR = (PMC->PMC_MCKR & (~PMC_MCKR_PRES_Msk)) | ul_pres;
  403060:	6b1a      	ldr	r2, [r3, #48]	@ 0x30
  403062:	f022 0270 	bic.w	r2, r2, #112	@ 0x70
  403066:	4310      	orrs	r0, r2
  403068:	6318      	str	r0, [r3, #48]	@ 0x30
	for (ul_timeout = PMC_TIMEOUT; !(PMC->PMC_SR & PMC_SR_MCKRDY);
  40306a:	f640 0201 	movw	r2, #2049	@ 0x801
  40306e:	6e99      	ldr	r1, [r3, #104]	@ 0x68
  403070:	0709      	lsls	r1, r1, #28
  403072:	d505      	bpl.n	403080 <pmc_switch_mck_to_mainck+0x38>
		if (ul_timeout == 0) {
			return 1;
		}
	}

	return 0;
  403074:	2000      	movs	r0, #0
}
  403076:	4770      	bx	lr
		if (ul_timeout == 0) {
  403078:	3a01      	subs	r2, #1
  40307a:	d1ee      	bne.n	40305a <pmc_switch_mck_to_mainck+0x12>
			return 1;
  40307c:	2001      	movs	r0, #1
  40307e:	4770      	bx	lr
		if (ul_timeout == 0) {
  403080:	3a01      	subs	r2, #1
  403082:	d1f4      	bne.n	40306e <pmc_switch_mck_to_mainck+0x26>
  403084:	e7fa      	b.n	40307c <pmc_switch_mck_to_mainck+0x34>
  403086:	bf00      	nop
  403088:	400e0400 	.word	0x400e0400

0040308c <pmc_switch_mainck_to_xtal>:
 */
void pmc_switch_mainck_to_xtal(uint32_t ul_bypass,
		uint32_t ul_xtal_startup_time)
{
	/* Enable Main Xtal oscillator */
	if (ul_bypass) {
  40308c:	4a0f      	ldr	r2, [pc, #60]	@ (4030cc <pmc_switch_mainck_to_xtal+0x40>)
  40308e:	b130      	cbz	r0, 40309e <pmc_switch_mainck_to_xtal+0x12>
		PMC->CKGR_MOR = (PMC->CKGR_MOR & ~CKGR_MOR_MOSCXTEN) |
  403090:	6a13      	ldr	r3, [r2, #32]
				CKGR_MOR_KEY_PASSWD | CKGR_MOR_MOSCXTBY |
  403092:	490f      	ldr	r1, [pc, #60]	@ (4030d0 <pmc_switch_mainck_to_xtal+0x44>)
  403094:	4019      	ands	r1, r3
  403096:	4b0f      	ldr	r3, [pc, #60]	@ (4030d4 <pmc_switch_mainck_to_xtal+0x48>)
  403098:	430b      	orrs	r3, r1
				CKGR_MOR_KEY_PASSWD | CKGR_MOR_MOSCXTEN |
				CKGR_MOR_MOSCXTST(ul_xtal_startup_time);
		/* Wait the Xtal to stabilize */
		while (!(PMC->PMC_SR & PMC_SR_MOSCXTS));

		PMC->CKGR_MOR |= CKGR_MOR_KEY_PASSWD | CKGR_MOR_MOSCSEL;
  40309a:	6213      	str	r3, [r2, #32]
	}
}
  40309c:	4770      	bx	lr
		PMC->CKGR_MOR = (PMC->CKGR_MOR & ~CKGR_MOR_MOSCXTBY) |
  40309e:	6a10      	ldr	r0, [r2, #32]
				CKGR_MOR_MOSCXTST(ul_xtal_startup_time);
  4030a0:	020b      	lsls	r3, r1, #8
				CKGR_MOR_KEY_PASSWD | CKGR_MOR_MOSCXTEN |
  4030a2:	f420 115c 	bic.w	r1, r0, #3604480	@ 0x370000
				CKGR_MOR_MOSCXTST(ul_xtal_startup_time);
  4030a6:	b29b      	uxth	r3, r3
				CKGR_MOR_KEY_PASSWD | CKGR_MOR_MOSCXTEN |
  4030a8:	f021 0103 	bic.w	r1, r1, #3
  4030ac:	430b      	orrs	r3, r1
  4030ae:	f443 135c 	orr.w	r3, r3, #3604480	@ 0x370000
  4030b2:	f043 0301 	orr.w	r3, r3, #1
		PMC->CKGR_MOR = (PMC->CKGR_MOR & ~CKGR_MOR_MOSCXTBY) |
  4030b6:	6213      	str	r3, [r2, #32]
		while (!(PMC->PMC_SR & PMC_SR_MOSCXTS));
  4030b8:	6e93      	ldr	r3, [r2, #104]	@ 0x68
  4030ba:	07db      	lsls	r3, r3, #31
  4030bc:	d5fc      	bpl.n	4030b8 <pmc_switch_mainck_to_xtal+0x2c>
		PMC->CKGR_MOR |= CKGR_MOR_KEY_PASSWD | CKGR_MOR_MOSCSEL;
  4030be:	6a13      	ldr	r3, [r2, #32]
  4030c0:	f043 739b 	orr.w	r3, r3, #20316160	@ 0x1360000
  4030c4:	f443 3380 	orr.w	r3, r3, #65536	@ 0x10000
  4030c8:	e7e7      	b.n	40309a <pmc_switch_mainck_to_xtal+0xe>
  4030ca:	bf00      	nop
  4030cc:	400e0400 	.word	0x400e0400
  4030d0:	fec8fffc 	.word	0xfec8fffc
  4030d4:	01370002 	.word	0x01370002

004030d8 <pmc_osc_is_ready_mainck>:
 * \retval 1 Xtal is ready.
 * \retval 0 Xtal is not ready.
 */
uint32_t pmc_osc_is_ready_mainck(void)
{
	return PMC->PMC_SR & PMC_SR_MOSCSELS;
  4030d8:	4b02      	ldr	r3, [pc, #8]	@ (4030e4 <pmc_osc_is_ready_mainck+0xc>)
  4030da:	6e98      	ldr	r0, [r3, #104]	@ 0x68
}
  4030dc:	f400 3080 	and.w	r0, r0, #65536	@ 0x10000
  4030e0:	4770      	bx	lr
  4030e2:	bf00      	nop
  4030e4:	400e0400 	.word	0x400e0400

004030e8 <pmc_enable_periph_clk>:
	PMC->PMC_PCR = ul_id & 0x7F;
	pcr = PMC->PMC_PCR | PMC_PCR_EN | PMC_PCR_CMD;
	PMC->PMC_PCR = pcr;
	return 0;
#else
	if (ul_id > MAX_PERIPH_ID) {
  4030e8:	2822      	cmp	r0, #34	@ 0x22
  4030ea:	d816      	bhi.n	40311a <pmc_enable_periph_clk+0x32>
		return 1;
	}

	if (ul_id < 32) {
  4030ec:	281f      	cmp	r0, #31
  4030ee:	4a0c      	ldr	r2, [pc, #48]	@ (403120 <pmc_enable_periph_clk+0x38>)
  4030f0:	f04f 0301 	mov.w	r3, #1
  4030f4:	d807      	bhi.n	403106 <pmc_enable_periph_clk+0x1e>
		if ((PMC->PMC_PCSR0 & (1u << ul_id)) != (1u << ul_id)) {
  4030f6:	6991      	ldr	r1, [r2, #24]
  4030f8:	4083      	lsls	r3, r0
  4030fa:	ea33 0101 	bics.w	r1, r3, r1
			PMC->PMC_PCER0 = 1 << ul_id;
  4030fe:	bf18      	it	ne
  403100:	6113      	strne	r3, [r2, #16]
			PMC->PMC_PCER1 = 1 << ul_id;
		}
#endif
	}

	return 0;
  403102:	2000      	movs	r0, #0
  403104:	4770      	bx	lr
		if ((PMC->PMC_PCSR1 & (1u << ul_id)) != (1u << ul_id)) {
  403106:	f8d2 1108 	ldr.w	r1, [r2, #264]	@ 0x108
		ul_id -= 32;
  40310a:	3820      	subs	r0, #32
		if ((PMC->PMC_PCSR1 & (1u << ul_id)) != (1u << ul_id)) {
  40310c:	4083      	lsls	r3, r0
  40310e:	ea33 0101 	bics.w	r1, r3, r1
  403112:	d0f6      	beq.n	403102 <pmc_enable_periph_clk+0x1a>
			PMC->PMC_PCER1 = 1 << ul_id;
  403114:	f8c2 3100 	str.w	r3, [r2, #256]	@ 0x100
  403118:	e7f3      	b.n	403102 <pmc_enable_periph_clk+0x1a>
		return 1;
  40311a:	2001      	movs	r0, #1
#endif /* defined(REG_PMC_PCR) && !SAMG55 */
}
  40311c:	4770      	bx	lr
  40311e:	bf00      	nop
  403120:	400e0400 	.word	0x400e0400

00403124 <pmc_set_writeprotect>:
 *
 * \param ul_enable 1 to enable, 0 to disable.
 */
void pmc_set_writeprotect(uint32_t ul_enable)
{
	if (ul_enable) {
  403124:	4b03      	ldr	r3, [pc, #12]	@ (403134 <pmc_set_writeprotect+0x10>)
  403126:	b118      	cbz	r0, 403130 <pmc_set_writeprotect+0xc>
		PMC->PMC_WPMR = PMC_WPMR_WPKEY_PASSWD | PMC_WPMR_WPEN;
  403128:	4a03      	ldr	r2, [pc, #12]	@ (403138 <pmc_set_writeprotect+0x14>)
	} else {
		PMC->PMC_WPMR = PMC_WPMR_WPKEY_PASSWD;
  40312a:	f8c3 20e4 	str.w	r2, [r3, #228]	@ 0xe4
	}
}
  40312e:	4770      	bx	lr
		PMC->PMC_WPMR = PMC_WPMR_WPKEY_PASSWD;
  403130:	4a02      	ldr	r2, [pc, #8]	@ (40313c <pmc_set_writeprotect+0x18>)
  403132:	e7fa      	b.n	40312a <pmc_set_writeprotect+0x6>
  403134:	400e0400 	.word	0x400e0400
  403138:	504d4301 	.word	0x504d4301
  40313c:	504d4300 	.word	0x504d4300

00403140 <__libc_init_array>:
  403140:	b570      	push	{r4, r5, r6, lr}
  403142:	4b0f      	ldr	r3, [pc, #60]	@ (403180 <__libc_init_array+0x40>)
  403144:	4d0f      	ldr	r5, [pc, #60]	@ (403184 <__libc_init_array+0x44>)
  403146:	42ab      	cmp	r3, r5
  403148:	eba3 0605 	sub.w	r6, r3, r5
  40314c:	d007      	beq.n	40315e <__libc_init_array+0x1e>
  40314e:	10b6      	asrs	r6, r6, #2
  403150:	2400      	movs	r4, #0
  403152:	f855 3b04 	ldr.w	r3, [r5], #4
  403156:	3401      	adds	r4, #1
  403158:	4798      	blx	r3
  40315a:	42a6      	cmp	r6, r4
  40315c:	d8f9      	bhi.n	403152 <__libc_init_array+0x12>
  40315e:	f000 fa23 	bl	4035a8 <_init>
  403162:	4d09      	ldr	r5, [pc, #36]	@ (403188 <__libc_init_array+0x48>)
  403164:	4b09      	ldr	r3, [pc, #36]	@ (40318c <__libc_init_array+0x4c>)
  403166:	1b5e      	subs	r6, r3, r5
  403168:	42ab      	cmp	r3, r5
  40316a:	ea4f 06a6 	mov.w	r6, r6, asr #2
  40316e:	d006      	beq.n	40317e <__libc_init_array+0x3e>
  403170:	2400      	movs	r4, #0
  403172:	f855 3b04 	ldr.w	r3, [r5], #4
  403176:	3401      	adds	r4, #1
  403178:	4798      	blx	r3
  40317a:	42a6      	cmp	r6, r4
  40317c:	d8f9      	bhi.n	403172 <__libc_init_array+0x32>
  40317e:	bd70      	pop	{r4, r5, r6, pc}
  403180:	004035b4 	.word	0x004035b4
  403184:	004035b4 	.word	0x004035b4
  403188:	004035b4 	.word	0x004035b4
  40318c:	004035b8 	.word	0x004035b8

00403190 <memset>:
  403190:	0783      	lsls	r3, r0, #30
  403192:	b530      	push	{r4, r5, lr}
  403194:	d047      	beq.n	403226 <memset+0x96>
  403196:	1e54      	subs	r4, r2, #1
  403198:	2a00      	cmp	r2, #0
  40319a:	d03e      	beq.n	40321a <memset+0x8a>
  40319c:	b2ca      	uxtb	r2, r1
  40319e:	4603      	mov	r3, r0
  4031a0:	e001      	b.n	4031a6 <memset+0x16>
  4031a2:	3c01      	subs	r4, #1
  4031a4:	d339      	bcc.n	40321a <memset+0x8a>
  4031a6:	f803 2b01 	strb.w	r2, [r3], #1
  4031aa:	079d      	lsls	r5, r3, #30
  4031ac:	d1f9      	bne.n	4031a2 <memset+0x12>
  4031ae:	2c03      	cmp	r4, #3
  4031b0:	d92c      	bls.n	40320c <memset+0x7c>
  4031b2:	b2cd      	uxtb	r5, r1
  4031b4:	eb05 2505 	add.w	r5, r5, r5, lsl #8
  4031b8:	2c0f      	cmp	r4, #15
  4031ba:	eb05 4505 	add.w	r5, r5, r5, lsl #16
  4031be:	d935      	bls.n	40322c <memset+0x9c>
  4031c0:	f1a4 0210 	sub.w	r2, r4, #16
  4031c4:	f022 0c0f 	bic.w	ip, r2, #15
  4031c8:	f103 0e10 	add.w	lr, r3, #16
  4031cc:	44e6      	add	lr, ip
  4031ce:	ea4f 1c12 	mov.w	ip, r2, lsr #4
  4031d2:	461a      	mov	r2, r3
  4031d4:	e9c2 5500 	strd	r5, r5, [r2]
  4031d8:	e9c2 5502 	strd	r5, r5, [r2, #8]
  4031dc:	3210      	adds	r2, #16
  4031de:	4572      	cmp	r2, lr
  4031e0:	d1f8      	bne.n	4031d4 <memset+0x44>
  4031e2:	f10c 0201 	add.w	r2, ip, #1
  4031e6:	f014 0f0c 	tst.w	r4, #12
  4031ea:	eb03 1202 	add.w	r2, r3, r2, lsl #4
  4031ee:	f004 0c0f 	and.w	ip, r4, #15
  4031f2:	d013      	beq.n	40321c <memset+0x8c>
  4031f4:	f1ac 0304 	sub.w	r3, ip, #4
  4031f8:	f023 0303 	bic.w	r3, r3, #3
  4031fc:	3304      	adds	r3, #4
  4031fe:	4413      	add	r3, r2
  403200:	f842 5b04 	str.w	r5, [r2], #4
  403204:	4293      	cmp	r3, r2
  403206:	d1fb      	bne.n	403200 <memset+0x70>
  403208:	f00c 0403 	and.w	r4, ip, #3
  40320c:	b12c      	cbz	r4, 40321a <memset+0x8a>
  40320e:	b2c9      	uxtb	r1, r1
  403210:	441c      	add	r4, r3
  403212:	f803 1b01 	strb.w	r1, [r3], #1
  403216:	42a3      	cmp	r3, r4
  403218:	d1fb      	bne.n	403212 <memset+0x82>
  40321a:	bd30      	pop	{r4, r5, pc}
  40321c:	4664      	mov	r4, ip
  40321e:	4613      	mov	r3, r2
  403220:	2c00      	cmp	r4, #0
  403222:	d1f4      	bne.n	40320e <memset+0x7e>
  403224:	e7f9      	b.n	40321a <memset+0x8a>
  403226:	4603      	mov	r3, r0
  403228:	4614      	mov	r4, r2
  40322a:	e7c0      	b.n	4031ae <memset+0x1e>
  40322c:	461a      	mov	r2, r3
  40322e:	46a4      	mov	ip, r4
  403230:	e7e0      	b.n	4031f4 <memset+0x64>
  403232:	bf00      	nop

00403234 <memcpy>:
  403234:	4684      	mov	ip, r0
  403236:	ea41 0300 	orr.w	r3, r1, r0
  40323a:	f013 0303 	ands.w	r3, r3, #3
  40323e:	d16d      	bne.n	40331c <memcpy+0xe8>
  403240:	3a40      	subs	r2, #64	@ 0x40
  403242:	d341      	bcc.n	4032c8 <memcpy+0x94>
  403244:	f851 3b04 	ldr.w	r3, [r1], #4
  403248:	f840 3b04 	str.w	r3, [r0], #4
  40324c:	f851 3b04 	ldr.w	r3, [r1], #4
  403250:	f840 3b04 	str.w	r3, [r0], #4
  403254:	f851 3b04 	ldr.w	r3, [r1], #4
  403258:	f840 3b04 	str.w	r3, [r0], #4
  40325c:	f851 3b04 	ldr.w	r3, [r1], #4
  403260:	f840 3b04 	str.w	r3, [r0], #4
  403264:	f851 3b04 	ldr.w	r3, [r1], #4
  403268:	f840 3b04 	str.w	r3, [r0], #4
  40326c:	f851 3b04 	ldr.w	r3, [r1], #4
  403270:	f840 3b04 	str.w	r3, [r0], #4
  403274:	f851 3b04 	ldr.w	r3, [r1], #4
  403278:	f840 3b04 	str.w	r3, [r0], #4
  40327c:	f851 3b04 	ldr.w	r3, [r1], #4
  403280:	f840 3b04 	str.w	r3, [r0], #4
  403284:	f851 3b04 	ldr.w	r3, [r1], #4
  403288:	f840 3b04 	str.w	r3, [r0], #4
  40328c:	f851 3b04 	ldr.w	r3, [r1], #4
  403290:	f840 3b04 	str.w	r3, [r0], #4
  403294:	f851 3b04 	ldr.w	r3, [r1], #4
  403298:	f840 3b04 	str.w	r3, [r0], #4
  40329c:	f851 3b04 	ldr.w	r3, [r1], #4
  4032a0:	f840 3b04 	str.w	r3, [r0], #4
  4032a4:	f851 3b04 	ldr.w	r3, [r1], #4
  4032a8:	f840 3b04 	str.w	r3, [r0], #4
  4032ac:	f851 3b04 	ldr.w	r3, [r1], #4
  4032b0:	f840 3b04 	str.w	r3, [r0], #4
  4032b4:	f851 3b04 	ldr.w	r3, [r1], #4
  4032b8:	f840 3b04 	str.w	r3, [r0], #4
  4032bc:	f851 3b04 	ldr.w	r3, [r1], #4
  4032c0:	f840 3b04 	str.w	r3, [r0], #4
  4032c4:	3a40      	subs	r2, #64	@ 0x40
  4032c6:	d2bd      	bcs.n	403244 <memcpy+0x10>
  4032c8:	3230      	adds	r2, #48	@ 0x30
  4032ca:	d311      	bcc.n	4032f0 <memcpy+0xbc>
  4032cc:	f851 3b04 	ldr.w	r3, [r1], #4
  4032d0:	f840 3b04 	str.w	r3, [r0], #4
  4032d4:	f851 3b04 	ldr.w	r3, [r1], #4
  4032d8:	f840 3b04 	str.w	r3, [r0], #4
  4032dc:	f851 3b04 	ldr.w	r3, [r1], #4
  4032e0:	f840 3b04 	str.w	r3, [r0], #4
  4032e4:	f851 3b04 	ldr.w	r3, [r1], #4
  4032e8:	f840 3b04 	str.w	r3, [r0], #4
  4032ec:	3a10      	subs	r2, #16
  4032ee:	d2ed      	bcs.n	4032cc <memcpy+0x98>
  4032f0:	320c      	adds	r2, #12
  4032f2:	d305      	bcc.n	403300 <memcpy+0xcc>
  4032f4:	f851 3b04 	ldr.w	r3, [r1], #4
  4032f8:	f840 3b04 	str.w	r3, [r0], #4
  4032fc:	3a04      	subs	r2, #4
  4032fe:	d2f9      	bcs.n	4032f4 <memcpy+0xc0>
  403300:	3204      	adds	r2, #4
  403302:	d008      	beq.n	403316 <memcpy+0xe2>
  403304:	07d2      	lsls	r2, r2, #31
  403306:	bf1c      	itt	ne
  403308:	f811 3b01 	ldrbne.w	r3, [r1], #1
  40330c:	f800 3b01 	strbne.w	r3, [r0], #1
  403310:	d301      	bcc.n	403316 <memcpy+0xe2>
  403312:	880b      	ldrh	r3, [r1, #0]
  403314:	8003      	strh	r3, [r0, #0]
  403316:	4660      	mov	r0, ip
  403318:	4770      	bx	lr
  40331a:	bf00      	nop
  40331c:	2a08      	cmp	r2, #8
  40331e:	d313      	bcc.n	403348 <memcpy+0x114>
  403320:	078b      	lsls	r3, r1, #30
  403322:	d08d      	beq.n	403240 <memcpy+0xc>
  403324:	f010 0303 	ands.w	r3, r0, #3
  403328:	d08a      	beq.n	403240 <memcpy+0xc>
  40332a:	f1c3 0304 	rsb	r3, r3, #4
  40332e:	1ad2      	subs	r2, r2, r3
  403330:	07db      	lsls	r3, r3, #31
  403332:	bf1c      	itt	ne
  403334:	f811 3b01 	ldrbne.w	r3, [r1], #1
  403338:	f800 3b01 	strbne.w	r3, [r0], #1
  40333c:	d380      	bcc.n	403240 <memcpy+0xc>
  40333e:	f831 3b02 	ldrh.w	r3, [r1], #2
  403342:	f820 3b02 	strh.w	r3, [r0], #2
  403346:	e77b      	b.n	403240 <memcpy+0xc>
  403348:	3a04      	subs	r2, #4
  40334a:	d3d9      	bcc.n	403300 <memcpy+0xcc>
  40334c:	3a01      	subs	r2, #1
  40334e:	f811 3b01 	ldrb.w	r3, [r1], #1
  403352:	f800 3b01 	strb.w	r3, [r0], #1
  403356:	d2f9      	bcs.n	40334c <memcpy+0x118>
  403358:	780b      	ldrb	r3, [r1, #0]
  40335a:	7003      	strb	r3, [r0, #0]
  40335c:	784b      	ldrb	r3, [r1, #1]
  40335e:	7043      	strb	r3, [r0, #1]
  403360:	788b      	ldrb	r3, [r1, #2]
  403362:	7083      	strb	r3, [r0, #2]
  403364:	4660      	mov	r0, ip
  403366:	4770      	bx	lr

00403368 <PQCLEAN_MLKEM1024_CLEAN_zetas>:
  403368:	fbec fd0a fe99 fa13 05d5 058e 011f 00ca     ................
  403378:	ff55 026e 0629 00b6 03c2 fb4e fa3e 05bc     U.n.).....N.>...
  403388:	023d fad3 0108 017f fcc3 05b2 f9be ff7e     =.............~.
  403398:	fd57 03f9 02dc 0260 f9fa 019b ff33 f9dd     W.....`.....3...
  4033a8:	04c7 028c fdd8 03f7 faf3 05d3 fee6 f9f8     ................
  4033b8:	0204 fff8 fec0 fd66 f9ae fb76 007e 05bd     ......f...v.~...
  4033c8:	fcab ffa6 fef1 033e 006b fa73 ff09 fc49     ......>.k.s...I.
  4033d8:	fe72 03c1 fa1c fd2b 01c0 fbd7 02a5 fb05     r.....+.........
  4033e8:	fbb1 01ae 022b 034b fb1d 0367 060e 0069     ....+.K...g...i.
  4033f8:	01a6 024b 00b1 ff15 fedd fe34 0626 0675     ..K.......4.&.u.
  403408:	ff0a 030a 0487 ff6d fcf7 05cb fda6 045f     ......m......._.
  403418:	f9ca 0284 fc98 015d 01a2 0149 ff64 ffb5     ......]...I.d...
  403428:	0331 0449 025b 0262 052a fafb fa47 0180     1.I.[.b.*...G...
  403438:	fb41 ff78 04c2 fac9 fc96 00dc fb5d f985     A.x.........]...
  403448:	fb5f fa06 fb02 031a fa1a fcaa fc9a 01de     _...............
  403458:	ff94 fecc 03e4 03df 03be fa4c 05f2 065c     ..........L...\.

00403468 <KeccakF_RoundConstants>:
  403468:	0001 0000 0000 0000 8082 0000 0000 0000     ................
  403478:	808a 0000 0000 8000 8000 8000 0000 8000     ................
  403488:	808b 0000 0000 0000 0001 8000 0000 0000     ................
  403498:	8081 8000 0000 8000 8009 0000 0000 8000     ................
  4034a8:	008a 0000 0000 0000 0088 0000 0000 0000     ................
  4034b8:	8009 8000 0000 0000 000a 8000 0000 0000     ................
  4034c8:	808b 8000 0000 0000 008b 0000 0000 8000     ................
  4034d8:	8089 0000 0000 8000 8003 0000 0000 8000     ................
  4034e8:	8002 0000 0000 8000 0080 0000 0000 8000     ................
  4034f8:	800a 0000 0000 0000 000a 8000 0000 8000     ................
  403508:	8081 8000 0000 8000 8080 0000 0000 8000     ................
  403518:	0001 8000 0000 0000 8008 8000 0000 8000     ................

00403528 <seed>:
  403528:	0003 0000 0001 0000 0004 0000 0001 0000     ................
  403538:	0005 0000 0009 0000 0002 0000 0006 0000     ................
  403548:	0005 0000 0003 0000 0005 0000 0008 0000     ................
  403558:	0009 0000 0007 0000 0009 0000 0003 0000     ................
  403568:	0002 0000 0003 0000 0008 0000 0004 0000     ................
  403578:	0006 0000 0002 0000 0006 0000 0004 0000     ................
  403588:	0003 0000 0003 0000 0008 0000 0003 0000     ................
  403598:	0002 0000 0007 0000 0009 0000 0005 0000     ................

004035a8 <_init>:
  4035a8:	b5f8      	push	{r3, r4, r5, r6, r7, lr}
  4035aa:	bf00      	nop
  4035ac:	bcf8      	pop	{r3, r4, r5, r6, r7}
  4035ae:	bc08      	pop	{r3}
  4035b0:	469e      	mov	lr, r3
  4035b2:	4770      	bx	lr

004035b4 <__frame_dummy_init_array_entry>:
  4035b4:	0135 0040                                   5.@.

004035b8 <_fini>:
  4035b8:	b5f8      	push	{r3, r4, r5, r6, r7, lr}
  4035ba:	bf00      	nop
  4035bc:	bcf8      	pop	{r3, r4, r5, r6, r7}
  4035be:	bc08      	pop	{r3}
  4035c0:	469e      	mov	lr, r3
  4035c2:	4770      	bx	lr

004035c4 <__do_global_dtors_aux_fini_array_entry>:
  4035c4:	010d 0040                                   ..@.
