   1              	 .cpu cortex-m4
   2              	 .arch armv7e-m
   3              	 .fpu softvfp
   4              	 .eabi_attribute 20,1
   5              	 .eabi_attribute 21,1
   6              	 .eabi_attribute 23,3
   7              	 .eabi_attribute 24,1
   8              	 .eabi_attribute 25,1
   9              	 .eabi_attribute 26,1
  10              	 .eabi_attribute 30,4
  11              	 .eabi_attribute 34,1
  12              	 .eabi_attribute 18,4
  13              	 .file "simpleserial.c"
  14              	 .text
  15              	.Ltext0:
  16              	 .cfi_sections .debug_frame
  17              	 .file 1 ".././simpleserial/simpleserial.c"
  18              	 .section .text.ss_crc,"ax",%progbits
  19              	 .align 1
  20              	 .global ss_crc
  21              	 .syntax unified
  22              	 .thumb
  23              	 .thumb_func
  25              	ss_crc:
  26              	.LVL0:
  27              	.LFB0:
   1:.././simpleserial/simpleserial.c **** // simpleserial.c
   2:.././simpleserial/simpleserial.c **** 
   3:.././simpleserial/simpleserial.c **** #include "simpleserial.h"
   4:.././simpleserial/simpleserial.c **** #include <stdint.h>
   5:.././simpleserial/simpleserial.c **** #include "hal.h"
   6:.././simpleserial/simpleserial.c **** 
   7:.././simpleserial/simpleserial.c **** 
   8:.././simpleserial/simpleserial.c **** #define MAX_SS_CMDS 32
   9:.././simpleserial/simpleserial.c **** static int num_commands = 0;
  10:.././simpleserial/simpleserial.c **** 
  11:.././simpleserial/simpleserial.c **** 
  12:.././simpleserial/simpleserial.c **** //#define SS_VER_1_0 0
  13:.././simpleserial/simpleserial.c **** //#define SS_VER_1_1 1
  14:.././simpleserial/simpleserial.c **** //#define SS_VER_2_0 2
  15:.././simpleserial/simpleserial.c **** 
  16:.././simpleserial/simpleserial.c **** 
  17:.././simpleserial/simpleserial.c **** // 0xA6 formerly 
  18:.././simpleserial/simpleserial.c **** #define CW_CRC 0x4D 
  19:.././simpleserial/simpleserial.c **** uint8_t ss_crc(uint8_t *buf, uint8_t len)
  20:.././simpleserial/simpleserial.c **** {
  28              	 .loc 1 20 1 view-0
  29              	 .cfi_startproc
  30              	 
  31              	 
  32              	 .loc 1 20 1 is_stmt 0 view .LVU1
  33 0000 10B5     	 push {r4,lr}
  34              	.LCFI0:
  35              	 .cfi_def_cfa_offset 8
  36              	 .cfi_offset 4,-8
  37              	 .cfi_offset 14,-4
  38              	 .loc 1 20 1 view .LVU2
  39 0002 0246     	 mov r2,r0
  21:.././simpleserial/simpleserial.c **** 	unsigned int k = 0;
  40              	 .loc 1 21 2 is_stmt 1 view .LVU3
  41              	.LVL1:
  22:.././simpleserial/simpleserial.c **** 	uint8_t crc = 0x00;
  42              	 .loc 1 22 2 view .LVU4
  23:.././simpleserial/simpleserial.c **** 	while (len--) {
  43              	 .loc 1 23 2 view .LVU5
  44 0004 0144     	 add r1,r1,r0
  45              	.LVL2:
  22:.././simpleserial/simpleserial.c **** 	uint8_t crc = 0x00;
  46              	 .loc 1 22 10 is_stmt 0 view .LVU6
  47 0006 0020     	 movs r0,#0
  48              	.LVL3:
  49              	.L2:
  50              	 .loc 1 23 9 is_stmt 1 view .LVU7
  51              	 .loc 1 23 9 is_stmt 0 view .LVU8
  52 0008 8A42     	 cmp r2,r1
  53 000a 00D1     	 bne .L6
  24:.././simpleserial/simpleserial.c **** 		crc ^= *buf++;
  25:.././simpleserial/simpleserial.c **** 		for (k = 0; k < 8; k++) {
  26:.././simpleserial/simpleserial.c **** 			crc = crc & 0x80 ? (crc << 1) ^ CW_CRC: crc << 1;
  27:.././simpleserial/simpleserial.c **** 		}
  28:.././simpleserial/simpleserial.c **** 	}
  29:.././simpleserial/simpleserial.c **** 	return crc;
  54              	 .loc 1 29 2 is_stmt 1 view .LVU9
  30:.././simpleserial/simpleserial.c **** 
  31:.././simpleserial/simpleserial.c **** }
  55              	 .loc 1 31 1 is_stmt 0 view .LVU10
  56 000c 10BD     	 pop {r4,pc}
  57              	.L6:
  24:.././simpleserial/simpleserial.c **** 		crc ^= *buf++;
  58              	 .loc 1 24 3 is_stmt 1 view .LVU11
  59              	.LVL4:
  24:.././simpleserial/simpleserial.c **** 		crc ^= *buf++;
  60              	 .loc 1 24 7 is_stmt 0 view .LVU12
  61 000e 12F8013B 	 ldrb r3,[r2],#1
  62              	.LVL5:
  24:.././simpleserial/simpleserial.c **** 		crc ^= *buf++;
  63              	 .loc 1 24 7 view .LVU13
  64 0012 0824     	 movs r4,#8
  65 0014 5840     	 eors r0,r0,r3
  66              	.LVL6:
  25:.././simpleserial/simpleserial.c **** 			crc = crc & 0x80 ? (crc << 1) ^ CW_CRC: crc << 1;
  67              	 .loc 1 25 3 is_stmt 1 view .LVU14
  25:.././simpleserial/simpleserial.c **** 			crc = crc & 0x80 ? (crc << 1) ^ CW_CRC: crc << 1;
  68              	 .loc 1 25 17 discriminator 1 view .LVU15
  69              	.L5:
  26:.././simpleserial/simpleserial.c **** 		}
  70              	 .loc 1 26 4 view .LVU16
  26:.././simpleserial/simpleserial.c **** 		}
  71              	 .loc 1 26 21 is_stmt 0 view .LVU17
  72 0016 43B2     	 sxtb r3,r0
  26:.././simpleserial/simpleserial.c **** 		}
  73              	 .loc 1 26 8 view .LVU18
  74 0018 002B     	 cmp r3,#0
  26:.././simpleserial/simpleserial.c **** 		}
  75              	 .loc 1 26 34 discriminator 1 view .LVU19
  76 001a BABF     	 itte lt
  77 001c 5B00     	 lsllt r3,r3,#1
  78 001e 83F04D03 	 eorlt r3,r3,#77
  26:.././simpleserial/simpleserial.c **** 		}
  79              	 .loc 1 26 8 discriminator 2 view .LVU20
  80 0022 4300     	 lslge r3,r0,#1
  25:.././simpleserial/simpleserial.c **** 			crc = crc & 0x80 ? (crc << 1) ^ CW_CRC: crc << 1;
  81              	 .loc 1 25 17 discriminator 1 view .LVU21
  82 0024 013C     	 subs r4,r4,#1
  83              	.LVL7:
  26:.././simpleserial/simpleserial.c **** 		}
  84              	 .loc 1 26 8 discriminator 2 view .LVU22
  85 0026 D8B2     	 uxtb r0,r3
  86              	.LVL8:
  25:.././simpleserial/simpleserial.c **** 			crc = crc & 0x80 ? (crc << 1) ^ CW_CRC: crc << 1;
  87              	 .loc 1 25 23 is_stmt 1 discriminator 2 view .LVU23
  25:.././simpleserial/simpleserial.c **** 			crc = crc & 0x80 ? (crc << 1) ^ CW_CRC: crc << 1;
  88              	 .loc 1 25 17 discriminator 1 view .LVU24
  89 0028 F5D1     	 bne .L5
  90 002a EDE7     	 b .L2
  91              	 .cfi_endproc
  92              	.LFE0:
  94              	 .section .text.hex_decode,"ax",%progbits
  95              	 .align 1
  96              	 .global hex_decode
  97              	 .syntax unified
  98              	 .thumb
  99              	 .thumb_func
 101              	hex_decode:
 102              	.LVL9:
 103              	.LFB1:
  32:.././simpleserial/simpleserial.c **** 
  33:.././simpleserial/simpleserial.c **** // [B_STUFF, CMD, SCMD, LEN, B_STUFF, DATA..., CRC, TERM]
  34:.././simpleserial/simpleserial.c **** 
  35:.././simpleserial/simpleserial.c **** //#define SS_VER SS_VER_2_0
  36:.././simpleserial/simpleserial.c **** #if SS_VER == SS_VER_2_0
  37:.././simpleserial/simpleserial.c **** #error "SS_VER_2_0 is deprecated! Use SS_VER_2_1 instead."
  38:.././simpleserial/simpleserial.c **** #elif SS_VER == SS_VER_2_1
  39:.././simpleserial/simpleserial.c **** 
  40:.././simpleserial/simpleserial.c **** #define MAX_SS_LEN 249
  41:.././simpleserial/simpleserial.c **** 
  42:.././simpleserial/simpleserial.c **** int hex_decode(int len, char* ascii_buf, uint8_t* data_buf)
  43:.././simpleserial/simpleserial.c **** {
 104              	 .loc 1 43 1 view-0
 105              	 .cfi_startproc
 106              	 
 107              	 
  44:.././simpleserial/simpleserial.c **** 	for(int i = 0; i < len; i++)
 108              	 .loc 1 44 2 view .LVU26
 109              	.LBB2:
 110              	 .loc 1 44 6 view .LVU27
 111              	 .loc 1 44 6 is_stmt 0 view .LVU28
 112              	.LBE2:
  43:.././simpleserial/simpleserial.c **** 	for(int i = 0; i < len; i++)
 113              	 .loc 1 43 1 view .LVU29
 114 0000 F0B5     	 push {r4,r5,r6,r7,lr}
 115              	.LCFI1:
 116              	 .cfi_def_cfa_offset 20
 117              	 .cfi_offset 4,-20
 118              	 .cfi_offset 5,-16
 119              	 .cfi_offset 6,-12
 120              	 .cfi_offset 7,-8
 121              	 .cfi_offset 14,-4
 122              	.LBB7:
 123              	 .loc 1 44 10 view .LVU30
 124 0002 0025     	 movs r5,#0
 125              	.LBB3:
  45:.././simpleserial/simpleserial.c **** 	{
  46:.././simpleserial/simpleserial.c **** 		char n_hi = ascii_buf[2*i];
  47:.././simpleserial/simpleserial.c **** 		char n_lo = ascii_buf[2*i+1];
 126              	 .loc 1 47 8 view .LVU31
 127 0004 4F1C     	 adds r7,r1,#1
 128              	.LVL10:
 129              	.L10:
 130              	 .loc 1 47 8 view .LVU32
 131              	.LBE3:
  44:.././simpleserial/simpleserial.c **** 	{
 132              	 .loc 1 44 19 is_stmt 1 discriminator 1 view .LVU33
 133 0006 8542     	 cmp r5,r0
 134 0008 01DB     	 blt .L20
 135              	.LBE7:
  48:.././simpleserial/simpleserial.c **** 
  49:.././simpleserial/simpleserial.c **** 		if(n_lo >= '0' && n_lo <= '9')
  50:.././simpleserial/simpleserial.c **** 			data_buf[i] = n_lo - '0';
  51:.././simpleserial/simpleserial.c **** 		else if(n_lo >= 'A' && n_lo <= 'F')
  52:.././simpleserial/simpleserial.c **** 			data_buf[i] = n_lo - 'A' + 10;
  53:.././simpleserial/simpleserial.c **** 		else if(n_lo >= 'a' && n_lo <= 'f')
  54:.././simpleserial/simpleserial.c **** 			data_buf[i] = n_lo - 'a' + 10;
  55:.././simpleserial/simpleserial.c **** 		else
  56:.././simpleserial/simpleserial.c **** 			return 1;
  57:.././simpleserial/simpleserial.c **** 
  58:.././simpleserial/simpleserial.c **** 		if(n_hi >= '0' && n_hi <= '9')
  59:.././simpleserial/simpleserial.c **** 			data_buf[i] |= (n_hi - '0') << 4;
  60:.././simpleserial/simpleserial.c **** 		else if(n_hi >= 'A' && n_hi <= 'F')
  61:.././simpleserial/simpleserial.c **** 			data_buf[i] |= (n_hi - 'A' + 10) << 4;
  62:.././simpleserial/simpleserial.c **** 		else if(n_hi >= 'a' && n_hi <= 'f')
  63:.././simpleserial/simpleserial.c **** 			data_buf[i] |= (n_hi - 'a' + 10) << 4;
  64:.././simpleserial/simpleserial.c **** 		else
  65:.././simpleserial/simpleserial.c **** 			return 1;
  66:.././simpleserial/simpleserial.c **** 	}
  67:.././simpleserial/simpleserial.c **** 
  68:.././simpleserial/simpleserial.c **** 	return 0;
 136              	 .loc 1 68 9 is_stmt 0 view .LVU34
 137 000a 0020     	 movs r0,#0
 138              	.LVL11:
 139              	 .loc 1 68 9 view .LVU35
 140 000c 21E0     	 b .L9
 141              	.LVL12:
 142              	.L20:
 143              	.LBB8:
 144              	.LBB4:
  46:.././simpleserial/simpleserial.c **** 		char n_lo = ascii_buf[2*i+1];
 145              	 .loc 1 46 3 is_stmt 1 view .LVU36
  47:.././simpleserial/simpleserial.c **** 
 146              	 .loc 1 47 8 is_stmt 0 view .LVU37
 147 000e 17F81540 	 ldrb r4,[r7,r5,lsl#1]
  46:.././simpleserial/simpleserial.c **** 		char n_lo = ascii_buf[2*i+1];
 148              	 .loc 1 46 8 view .LVU38
 149 0012 11F81530 	 ldrb r3,[r1,r5,lsl#1]
 150              	.LVL13:
  47:.././simpleserial/simpleserial.c **** 
 151              	 .loc 1 47 3 is_stmt 1 view .LVU39
  49:.././simpleserial/simpleserial.c **** 			data_buf[i] = n_lo - '0';
 152              	 .loc 1 49 3 view .LVU40
  49:.././simpleserial/simpleserial.c **** 			data_buf[i] = n_lo - '0';
 153              	 .loc 1 49 18 is_stmt 0 view .LVU41
 154 0016 A4F13006 	 sub r6,r4,#48
 155 001a F6B2     	 uxtb r6,r6
  49:.././simpleserial/simpleserial.c **** 			data_buf[i] = n_lo - '0';
 156              	 .loc 1 49 5 view .LVU42
 157 001c 092E     	 cmp r6,#9
 158 001e 0CD8     	 bhi .L11
  50:.././simpleserial/simpleserial.c **** 		else if(n_lo >= 'A' && n_lo <= 'F')
 159              	 .loc 1 50 4 is_stmt 1 view .LVU43
  50:.././simpleserial/simpleserial.c **** 		else if(n_lo >= 'A' && n_lo <= 'F')
 160              	 .loc 1 50 16 is_stmt 0 view .LVU44
 161 0020 1670     	 strb r6,[r2]
 162              	.LVL14:
 163              	.L12:
  58:.././simpleserial/simpleserial.c **** 			data_buf[i] |= (n_hi - '0') << 4;
 164              	 .loc 1 58 3 is_stmt 1 view .LVU45
  58:.././simpleserial/simpleserial.c **** 			data_buf[i] |= (n_hi - '0') << 4;
 165              	 .loc 1 58 18 is_stmt 0 view .LVU46
 166 0022 A3F13004 	 sub r4,r3,#48
 167 0026 E4B2     	 uxtb r4,r4
  58:.././simpleserial/simpleserial.c **** 			data_buf[i] |= (n_hi - '0') << 4;
 168              	 .loc 1 58 5 view .LVU47
 169 0028 092C     	 cmp r4,#9
 170 002a 15D8     	 bhi .L16
 171              	.L23:
  61:.././simpleserial/simpleserial.c **** 		else if(n_hi >= 'a' && n_hi <= 'f')
 172              	 .loc 1 61 16 view .LVU48
 173 002c 1378     	 ldrb r3,[r2]
 174              	.LVL15:
  61:.././simpleserial/simpleserial.c **** 		else if(n_hi >= 'a' && n_hi <= 'f')
 175              	 .loc 1 61 16 view .LVU49
 176 002e 43EA0413 	 orr r3,r3,r4,lsl#4
 177              	.L22:
  63:.././simpleserial/simpleserial.c **** 		else
 178              	 .loc 1 63 16 view .LVU50
 179 0032 1370     	 strb r3,[r2]
 180              	.LBE4:
  44:.././simpleserial/simpleserial.c **** 	{
 181              	 .loc 1 44 27 is_stmt 1 discriminator 2 view .LVU51
 182 0034 0135     	 adds r5,r5,#1
 183              	.LVL16:
  44:.././simpleserial/simpleserial.c **** 	{
 184              	 .loc 1 44 27 is_stmt 0 discriminator 2 view .LVU52
 185 0036 0132     	 adds r2,r2,#1
 186 0038 E5E7     	 b .L10
 187              	.LVL17:
 188              	.L11:
 189              	.LBB5:
  51:.././simpleserial/simpleserial.c **** 			data_buf[i] = n_lo - 'A' + 10;
 190              	 .loc 1 51 8 is_stmt 1 view .LVU53
  51:.././simpleserial/simpleserial.c **** 			data_buf[i] = n_lo - 'A' + 10;
 191              	 .loc 1 51 10 is_stmt 0 view .LVU54
 192 003a A4F14106 	 sub r6,r4,#65
 193 003e 052E     	 cmp r6,#5
 194 0040 02D8     	 bhi .L13
  52:.././simpleserial/simpleserial.c **** 		else if(n_lo >= 'a' && n_lo <= 'f')
 195              	 .loc 1 52 4 is_stmt 1 view .LVU55
  52:.././simpleserial/simpleserial.c **** 		else if(n_lo >= 'a' && n_lo <= 'f')
 196              	 .loc 1 52 29 is_stmt 0 view .LVU56
 197 0042 373C     	 subs r4,r4,#55
 198              	.LVL18:
 199              	.L21:
  54:.././simpleserial/simpleserial.c **** 		else
 200              	 .loc 1 54 16 view .LVU57
 201 0044 1470     	 strb r4,[r2]
 202              	.LVL19:
  54:.././simpleserial/simpleserial.c **** 		else
 203              	 .loc 1 54 16 view .LVU58
 204 0046 ECE7     	 b .L12
 205              	.LVL20:
 206              	.L13:
  53:.././simpleserial/simpleserial.c **** 			data_buf[i] = n_lo - 'a' + 10;
 207              	 .loc 1 53 8 is_stmt 1 view .LVU59
  53:.././simpleserial/simpleserial.c **** 			data_buf[i] = n_lo - 'a' + 10;
 208              	 .loc 1 53 10 is_stmt 0 view .LVU60
 209 0048 A4F16106 	 sub r6,r4,#97
 210 004c 052E     	 cmp r6,#5
 211 004e 01D9     	 bls .L14
 212              	.LVL21:
 213              	.L19:
  56:.././simpleserial/simpleserial.c **** 
 214              	 .loc 1 56 11 view .LVU61
 215 0050 0120     	 movs r0,#1
 216              	.LVL22:
 217              	.L9:
  56:.././simpleserial/simpleserial.c **** 
 218              	 .loc 1 56 11 view .LVU62
 219              	.LBE5:
 220              	.LBE8:
  69:.././simpleserial/simpleserial.c **** }
 221              	 .loc 1 69 1 view .LVU63
 222 0052 F0BD     	 pop {r4,r5,r6,r7,pc}
 223              	.LVL23:
 224              	.L14:
 225              	.LBB9:
 226              	.LBB6:
  54:.././simpleserial/simpleserial.c **** 		else
 227              	 .loc 1 54 4 is_stmt 1 view .LVU64
  54:.././simpleserial/simpleserial.c **** 		else
 228              	 .loc 1 54 29 is_stmt 0 view .LVU65
 229 0054 573C     	 subs r4,r4,#87
 230              	.LVL24:
  54:.././simpleserial/simpleserial.c **** 		else
 231              	 .loc 1 54 29 view .LVU66
 232 0056 F5E7     	 b .L21
 233              	.LVL25:
 234              	.L16:
  60:.././simpleserial/simpleserial.c **** 			data_buf[i] |= (n_hi - 'A' + 10) << 4;
 235              	 .loc 1 60 8 is_stmt 1 view .LVU67
  60:.././simpleserial/simpleserial.c **** 			data_buf[i] |= (n_hi - 'A' + 10) << 4;
 236              	 .loc 1 60 10 is_stmt 0 view .LVU68
 237 0058 A3F14104 	 sub r4,r3,#65
 238 005c 052C     	 cmp r4,#5
 239 005e 02D8     	 bhi .L18
  61:.././simpleserial/simpleserial.c **** 		else if(n_hi >= 'a' && n_hi <= 'f')
 240              	 .loc 1 61 4 is_stmt 1 view .LVU69
  61:.././simpleserial/simpleserial.c **** 		else if(n_hi >= 'a' && n_hi <= 'f')
 241              	 .loc 1 61 16 is_stmt 0 view .LVU70
 242 0060 A3F13704 	 sub r4,r3,#55
 243 0064 E2E7     	 b .L23
 244              	.L18:
  62:.././simpleserial/simpleserial.c **** 			data_buf[i] |= (n_hi - 'a' + 10) << 4;
 245              	 .loc 1 62 8 is_stmt 1 view .LVU71
  62:.././simpleserial/simpleserial.c **** 			data_buf[i] |= (n_hi - 'a' + 10) << 4;
 246              	 .loc 1 62 10 is_stmt 0 view .LVU72
 247 0066 A3F16104 	 sub r4,r3,#97
 248 006a 052C     	 cmp r4,#5
 249 006c F0D8     	 bhi .L19
  63:.././simpleserial/simpleserial.c **** 		else
 250              	 .loc 1 63 4 is_stmt 1 view .LVU73
  63:.././simpleserial/simpleserial.c **** 		else
 251              	 .loc 1 63 16 is_stmt 0 view .LVU74
 252 006e 1478     	 ldrb r4,[r2]
 253 0070 573B     	 subs r3,r3,#87
 254              	.LVL26:
  63:.././simpleserial/simpleserial.c **** 		else
 255              	 .loc 1 63 16 view .LVU75
 256 0072 44EA0313 	 orr r3,r4,r3,lsl#4
 257              	.LVL27:
  63:.././simpleserial/simpleserial.c **** 		else
 258              	 .loc 1 63 16 view .LVU76
 259 0076 DCE7     	 b .L22
 260              	.LBE6:
 261              	.LBE9:
 262              	 .cfi_endproc
 263              	.LFE1:
 265              	 .section .text.ss_puts,"ax",%progbits
 266              	 .align 1
 267              	 .global ss_puts
 268              	 .syntax unified
 269              	 .thumb
 270              	 .thumb_func
 272              	ss_puts:
 273              	.LVL28:
 274              	.LFB2:
  70:.././simpleserial/simpleserial.c **** 
  71:.././simpleserial/simpleserial.c **** typedef struct ss_cmd
  72:.././simpleserial/simpleserial.c **** {
  73:.././simpleserial/simpleserial.c **** 	char c;
  74:.././simpleserial/simpleserial.c **** 	unsigned int len;
  75:.././simpleserial/simpleserial.c **** 	uint8_t (*fp)(uint8_t, uint8_t, uint8_t, uint8_t *);
  76:.././simpleserial/simpleserial.c **** } ss_cmd;
  77:.././simpleserial/simpleserial.c **** static ss_cmd commands[MAX_SS_CMDS];
  78:.././simpleserial/simpleserial.c **** 
  79:.././simpleserial/simpleserial.c **** void ss_puts(char *x)
  80:.././simpleserial/simpleserial.c **** {
 275              	 .loc 1 80 1 is_stmt 1 view-0
 276              	 .cfi_startproc
 277              	 
 278              	 
 279              	 .loc 1 80 1 is_stmt 0 view .LVU78
 280 0000 38B5     	 push {r3,r4,r5,lr}
 281              	.LCFI2:
 282              	 .cfi_def_cfa_offset 16
 283              	 .cfi_offset 3,-16
 284              	 .cfi_offset 4,-12
 285              	 .cfi_offset 5,-8
 286              	 .cfi_offset 14,-4
  81:.././simpleserial/simpleserial.c **** 	do {
  82:.././simpleserial/simpleserial.c **** 		putch(*x);
 287              	 .loc 1 82 3 view .LVU79
 288 0002 044D     	 ldr r5,.L27
  80:.././simpleserial/simpleserial.c **** 	do {
 289              	 .loc 1 80 1 view .LVU80
 290 0004 0446     	 mov r4,r0
 291              	.LVL29:
 292              	.L25:
  81:.././simpleserial/simpleserial.c **** 	do {
 293              	 .loc 1 81 2 is_stmt 1 view .LVU81
 294              	 .loc 1 82 3 view .LVU82
 295 0006 2078     	 ldrb r0,[r4]
 296 0008 A847     	 blx r5
 297              	.LVL30:
  83:.././simpleserial/simpleserial.c **** 	} while (*++x);
 298              	 .loc 1 83 11 discriminator 1 view .LVU83
 299              	 .loc 1 83 11 is_stmt 0 discriminator 1 view .LVU84
 300 000a 14F8013F 	 ldrb r3,[r4,#1]!
 301              	.LVL31:
 302              	 .loc 1 83 11 discriminator 1 view .LVU85
 303 000e 002B     	 cmp r3,#0
 304 0010 F9D1     	 bne .L25
  84:.././simpleserial/simpleserial.c **** }
 305              	 .loc 1 84 1 view .LVU86
 306 0012 38BD     	 pop {r3,r4,r5,pc}
 307              	.LVL32:
 308              	.L28:
 309              	 .loc 1 84 1 view .LVU87
 310              	 .align 2
 311              	.L27:
 312 0014 00000000 	 .word putch
 313              	 .cfi_endproc
 314              	.LFE2:
 316              	 .section .text.stuff_data,"ax",%progbits
 317              	 .align 1
 318              	 .global stuff_data
 319              	 .syntax unified
 320              	 .thumb
 321              	 .thumb_func
 323              	stuff_data:
 324              	.LVL33:
 325              	.LFB5:
  85:.././simpleserial/simpleserial.c **** 
  86:.././simpleserial/simpleserial.c **** #define FRAME_BYTE 0x00
  87:.././simpleserial/simpleserial.c **** 
  88:.././simpleserial/simpleserial.c **** uint8_t check_version(uint8_t cmd, uint8_t scmd, uint8_t len, uint8_t *data)
  89:.././simpleserial/simpleserial.c **** {
  90:.././simpleserial/simpleserial.c **** 	uint8_t ver = SS_VER;
  91:.././simpleserial/simpleserial.c **** 	simpleserial_put('r', 1, &ver);
  92:.././simpleserial/simpleserial.c **** 	return SS_ERR_OK;
  93:.././simpleserial/simpleserial.c **** }
  94:.././simpleserial/simpleserial.c **** 
  95:.././simpleserial/simpleserial.c **** uint8_t ss_get_commands(uint8_t cmd, uint8_t scmd, uint8_t len, uint8_t *data)
  96:.././simpleserial/simpleserial.c **** {
  97:.././simpleserial/simpleserial.c ****     uint8_t cmd_chars[MAX_SS_CMDS];
  98:.././simpleserial/simpleserial.c ****     for (uint8_t i = 0; i < (num_commands & 0xFF); i++) {
  99:.././simpleserial/simpleserial.c ****         cmd_chars[i] = commands[i].c;
 100:.././simpleserial/simpleserial.c ****     }
 101:.././simpleserial/simpleserial.c **** 
 102:.././simpleserial/simpleserial.c ****     simpleserial_put('r', num_commands & 0xFF, (void *)cmd_chars);
 103:.././simpleserial/simpleserial.c ****     return 0x00;
 104:.././simpleserial/simpleserial.c **** 
 105:.././simpleserial/simpleserial.c **** }
 106:.././simpleserial/simpleserial.c **** 
 107:.././simpleserial/simpleserial.c **** uint8_t stuff_data(uint8_t *buf, uint8_t len)
 108:.././simpleserial/simpleserial.c **** {
 326              	 .loc 1 108 1 is_stmt 1 view-0
 327              	 .cfi_startproc
 328              	 
 329              	 
 109:.././simpleserial/simpleserial.c **** 	uint8_t i = 1;
 330              	 .loc 1 109 2 view .LVU89
 110:.././simpleserial/simpleserial.c **** 	uint8_t last = 0;
 331              	 .loc 1 110 2 view .LVU90
 111:.././simpleserial/simpleserial.c **** 	for (; i < len; i++) {
 332              	 .loc 1 111 2 view .LVU91
 108:.././simpleserial/simpleserial.c **** 	uint8_t i = 1;
 333              	 .loc 1 108 1 is_stmt 0 view .LVU92
 334 0000 30B5     	 push {r4,r5,lr}
 335              	.LCFI3:
 336              	 .cfi_def_cfa_offset 12
 337              	 .cfi_offset 4,-12
 338              	 .cfi_offset 5,-8
 339              	 .cfi_offset 14,-4
 110:.././simpleserial/simpleserial.c **** 	uint8_t last = 0;
 340              	 .loc 1 110 10 view .LVU93
 341 0002 0022     	 movs r2,#0
 342 0004 0446     	 mov r4,r0
 109:.././simpleserial/simpleserial.c **** 	uint8_t last = 0;
 343              	 .loc 1 109 10 view .LVU94
 344 0006 0123     	 movs r3,#1
 345              	.LVL34:
 346              	.L30:
 347              	 .loc 1 111 11 is_stmt 1 discriminator 1 view .LVU95
 348 0008 8B42     	 cmp r3,r1
 349 000a 01D3     	 bcc .L32
 112:.././simpleserial/simpleserial.c **** 		if (buf[i] == FRAME_BYTE) {
 113:.././simpleserial/simpleserial.c **** 			buf[last] = i - last;
 114:.././simpleserial/simpleserial.c **** 			last = i;
 115:.././simpleserial/simpleserial.c **** 		}
 116:.././simpleserial/simpleserial.c **** 	}
 117:.././simpleserial/simpleserial.c **** 	return 0x00;
 350              	 .loc 1 117 2 view .LVU96
 118:.././simpleserial/simpleserial.c **** }
 351              	 .loc 1 118 1 is_stmt 0 view .LVU97
 352 000c 0020     	 movs r0,#0
 353              	.LVL35:
 354              	 .loc 1 118 1 view .LVU98
 355 000e 30BD     	 pop {r4,r5,pc}
 356              	.LVL36:
 357              	.L32:
 112:.././simpleserial/simpleserial.c **** 		if (buf[i] == FRAME_BYTE) {
 358              	 .loc 1 112 3 is_stmt 1 view .LVU99
 112:.././simpleserial/simpleserial.c **** 		if (buf[i] == FRAME_BYTE) {
 359              	 .loc 1 112 6 is_stmt 0 view .LVU100
 360 0010 14F8015F 	 ldrb r5,[r4,#1]!
 361 0014 15B9     	 cbnz r5,.L31
 113:.././simpleserial/simpleserial.c **** 			last = i;
 362              	 .loc 1 113 4 is_stmt 1 view .LVU101
 113:.././simpleserial/simpleserial.c **** 			last = i;
 363              	 .loc 1 113 18 is_stmt 0 view .LVU102
 364 0016 9D1A     	 subs r5,r3,r2
 113:.././simpleserial/simpleserial.c **** 			last = i;
 365              	 .loc 1 113 14 view .LVU103
 366 0018 8554     	 strb r5,[r0,r2]
 114:.././simpleserial/simpleserial.c **** 		}
 367              	 .loc 1 114 4 is_stmt 1 view .LVU104
 368              	.LVL37:
 114:.././simpleserial/simpleserial.c **** 		}
 369              	 .loc 1 114 9 is_stmt 0 view .LVU105
 370 001a 1A46     	 mov r2,r3
 371              	.LVL38:
 372              	.L31:
 111:.././simpleserial/simpleserial.c **** 		if (buf[i] == FRAME_BYTE) {
 373              	 .loc 1 111 19 is_stmt 1 view .LVU106
 374 001c 0133     	 adds r3,r3,#1
 375              	.LVL39:
 111:.././simpleserial/simpleserial.c **** 		if (buf[i] == FRAME_BYTE) {
 376              	 .loc 1 111 19 is_stmt 0 view .LVU107
 377 001e DBB2     	 uxtb r3,r3
 378              	.LVL40:
 111:.././simpleserial/simpleserial.c **** 		if (buf[i] == FRAME_BYTE) {
 379              	 .loc 1 111 19 view .LVU108
 380 0020 F2E7     	 b .L30
 381              	 .cfi_endproc
 382              	.LFE5:
 384              	 .section .text.unstuff_data,"ax",%progbits
 385              	 .align 1
 386              	 .global unstuff_data
 387              	 .syntax unified
 388              	 .thumb
 389              	 .thumb_func
 391              	unstuff_data:
 392              	.LVL41:
 393              	.LFB6:
 119:.././simpleserial/simpleserial.c **** 
 120:.././simpleserial/simpleserial.c **** uint8_t unstuff_data(uint8_t *buf, uint8_t len)
 121:.././simpleserial/simpleserial.c **** {
 394              	 .loc 1 121 1 is_stmt 1 view-0
 395              	 .cfi_startproc
 396              	 
 397              	 
 122:.././simpleserial/simpleserial.c **** 	uint8_t next = buf[0];
 398              	 .loc 1 122 2 view .LVU110
 121:.././simpleserial/simpleserial.c **** 	uint8_t next = buf[0];
 399              	 .loc 1 121 1 is_stmt 0 view .LVU111
 400 0000 30B5     	 push {r4,r5,lr}
 401              	.LCFI4:
 402              	 .cfi_def_cfa_offset 12
 403              	 .cfi_offset 4,-12
 404              	 .cfi_offset 5,-8
 405              	 .cfi_offset 14,-4
 406              	 .loc 1 122 10 view .LVU112
 407 0002 0478     	 ldrb r4,[r0]
 408              	.LVL42:
 123:.././simpleserial/simpleserial.c **** 	buf[0] = 0x00;
 409              	 .loc 1 123 2 is_stmt 1 view .LVU113
 410              	 .loc 1 123 9 is_stmt 0 view .LVU114
 411 0004 0025     	 movs r5,#0
 121:.././simpleserial/simpleserial.c **** 	uint8_t next = buf[0];
 412              	 .loc 1 121 1 view .LVU115
 413 0006 0246     	 mov r2,r0
 414              	 .loc 1 123 9 view .LVU116
 415 0008 0570     	 strb r5,[r0]
 124:.././simpleserial/simpleserial.c **** 	//len -= 1;
 125:.././simpleserial/simpleserial.c **** 	uint8_t tmp = next;
 416              	 .loc 1 125 2 is_stmt 1 view .LVU117
 417              	.LVL43:
 126:.././simpleserial/simpleserial.c **** 	while ((next < len) && tmp != 0) {
 418              	 .loc 1 126 2 view .LVU118
 122:.././simpleserial/simpleserial.c **** 	buf[0] = 0x00;
 419              	 .loc 1 122 10 is_stmt 0 view .LVU119
 420 000a 2046     	 mov r0,r4
 421              	.LVL44:
 422              	.L34:
 423              	 .loc 1 126 22 is_stmt 1 view .LVU120
 424 000c 8842     	 cmp r0,r1
 425 000e 00D2     	 bcs .L38
 426              	 .loc 1 126 22 is_stmt 0 discriminator 1 view .LVU121
 427 0010 04B9     	 cbnz r4,.L36
 428              	.L38:
 127:.././simpleserial/simpleserial.c **** 		tmp = buf[next];
 128:.././simpleserial/simpleserial.c **** 		buf[next] = FRAME_BYTE;
 129:.././simpleserial/simpleserial.c **** 		next += tmp;
 130:.././simpleserial/simpleserial.c **** 	}
 131:.././simpleserial/simpleserial.c **** 	return next;
 132:.././simpleserial/simpleserial.c **** }
 429              	 .loc 1 132 1 view .LVU122
 430 0012 30BD     	 pop {r4,r5,pc}
 431              	.LVL45:
 432              	.L36:
 127:.././simpleserial/simpleserial.c **** 		tmp = buf[next];
 433              	 .loc 1 127 3 is_stmt 1 view .LVU123
 127:.././simpleserial/simpleserial.c **** 		tmp = buf[next];
 434              	 .loc 1 127 7 is_stmt 0 view .LVU124
 435 0014 145C     	 ldrb r4,[r2,r0]
 436              	.LVL46:
 128:.././simpleserial/simpleserial.c **** 		next += tmp;
 437              	 .loc 1 128 3 is_stmt 1 view .LVU125
 128:.././simpleserial/simpleserial.c **** 		next += tmp;
 438              	 .loc 1 128 13 is_stmt 0 view .LVU126
 439 0016 1554     	 strb r5,[r2,r0]
 129:.././simpleserial/simpleserial.c **** 	}
 440              	 .loc 1 129 3 is_stmt 1 view .LVU127
 129:.././simpleserial/simpleserial.c **** 	}
 441              	 .loc 1 129 8 is_stmt 0 view .LVU128
 442 0018 0319     	 adds r3,r0,r4
 443 001a D8B2     	 uxtb r0,r3
 444              	.LVL47:
 129:.././simpleserial/simpleserial.c **** 	}
 445              	 .loc 1 129 8 view .LVU129
 446 001c F6E7     	 b .L34
 447              	 .cfi_endproc
 448              	.LFE6:
 450              	 .section .text.simpleserial_addcmd,"ax",%progbits
 451              	 .align 1
 452              	 .global simpleserial_addcmd
 453              	 .syntax unified
 454              	 .thumb
 455              	 .thumb_func
 457              	simpleserial_addcmd:
 458              	.LVL48:
 459              	.LFB8:
 133:.././simpleserial/simpleserial.c **** 
 134:.././simpleserial/simpleserial.c **** // Set up the SimpleSerial module by preparing internal commands
 135:.././simpleserial/simpleserial.c **** // This just adds the "v" command for now...
 136:.././simpleserial/simpleserial.c **** void simpleserial_init()
 137:.././simpleserial/simpleserial.c **** {
 138:.././simpleserial/simpleserial.c **** 	simpleserial_addcmd('v', 0, check_version);
 139:.././simpleserial/simpleserial.c ****     simpleserial_addcmd('w', 0, ss_get_commands);
 140:.././simpleserial/simpleserial.c **** }
 141:.././simpleserial/simpleserial.c **** 
 142:.././simpleserial/simpleserial.c **** int simpleserial_addcmd(char c, unsigned int len, uint8_t (*fp)(uint8_t, uint8_t, uint8_t, uint8_t*
 143:.././simpleserial/simpleserial.c **** {
 460              	 .loc 1 143 1 is_stmt 1 view-0
 461              	 .cfi_startproc
 462              	 
 463              	 
 144:.././simpleserial/simpleserial.c **** 	if(num_commands >= MAX_SS_CMDS) {
 464              	 .loc 1 144 2 view .LVU131
 143:.././simpleserial/simpleserial.c **** 	if(num_commands >= MAX_SS_CMDS) {
 465              	 .loc 1 143 1 is_stmt 0 view .LVU132
 466 0000 F8B5     	 push {r3,r4,r5,r6,r7,lr}
 467              	.LCFI5:
 468              	 .cfi_def_cfa_offset 24
 469              	 .cfi_offset 3,-24
 470              	 .cfi_offset 4,-20
 471              	 .cfi_offset 5,-16
 472              	 .cfi_offset 6,-12
 473              	 .cfi_offset 7,-8
 474              	 .cfi_offset 14,-4
 475              	 .loc 1 144 18 view .LVU133
 476 0002 0C4D     	 ldr r5,.L45
 477 0004 2B68     	 ldr r3,[r5]
 478              	 .loc 1 144 4 view .LVU134
 479 0006 1F2B     	 cmp r3,#31
 480 0008 04DD     	 ble .L40
 145:.././simpleserial/simpleserial.c **** 		putch('a');
 481              	 .loc 1 145 3 is_stmt 1 view .LVU135
 482 000a 6120     	 movs r0,#97
 483              	.LVL49:
 484              	.L44:
 146:.././simpleserial/simpleserial.c **** 		return 1;
 147:.././simpleserial/simpleserial.c **** 	}
 148:.././simpleserial/simpleserial.c **** 
 149:.././simpleserial/simpleserial.c **** 	if(len >= MAX_SS_LEN) {
 150:.././simpleserial/simpleserial.c **** 		putch('b');
 485              	 .loc 1 150 3 is_stmt 0 view .LVU136
 486 000c 0A4B     	 ldr r3,.L45+4
 487 000e 9847     	 blx r3
 488              	.LVL50:
 151:.././simpleserial/simpleserial.c **** 		return 1;
 489              	 .loc 1 151 3 is_stmt 1 view .LVU137
 146:.././simpleserial/simpleserial.c **** 		return 1;
 490              	 .loc 1 146 10 is_stmt 0 view .LVU138
 491 0010 0120     	 movs r0,#1
 492              	.L39:
 152:.././simpleserial/simpleserial.c **** 	}
 153:.././simpleserial/simpleserial.c **** 
 154:.././simpleserial/simpleserial.c **** 	commands[num_commands].c   = c;
 155:.././simpleserial/simpleserial.c **** 	commands[num_commands].len = len;
 156:.././simpleserial/simpleserial.c **** 	commands[num_commands].fp  = fp;
 157:.././simpleserial/simpleserial.c **** 	num_commands++;
 158:.././simpleserial/simpleserial.c **** 
 159:.././simpleserial/simpleserial.c **** 	return 0;
 160:.././simpleserial/simpleserial.c **** }
 493              	 .loc 1 160 1 view .LVU139
 494 0012 F8BD     	 pop {r3,r4,r5,r6,r7,pc}
 495              	.LVL51:
 496              	.L40:
 149:.././simpleserial/simpleserial.c **** 		putch('b');
 497              	 .loc 1 149 2 is_stmt 1 view .LVU140
 149:.././simpleserial/simpleserial.c **** 		putch('b');
 498              	 .loc 1 149 4 is_stmt 0 view .LVU141
 499 0014 F829     	 cmp r1,#248
 500 0016 01D9     	 bls .L42
 150:.././simpleserial/simpleserial.c **** 		return 1;
 501              	 .loc 1 150 3 is_stmt 1 view .LVU142
 502 0018 6220     	 movs r0,#98
 503              	.LVL52:
 150:.././simpleserial/simpleserial.c **** 		return 1;
 504              	 .loc 1 150 3 is_stmt 0 view .LVU143
 505 001a F7E7     	 b .L44
 506              	.LVL53:
 507              	.L42:
 154:.././simpleserial/simpleserial.c **** 	commands[num_commands].len = len;
 508              	 .loc 1 154 2 is_stmt 1 view .LVU144
 154:.././simpleserial/simpleserial.c **** 	commands[num_commands].len = len;
 509              	 .loc 1 154 29 is_stmt 0 view .LVU145
 510 001c 074F     	 ldr r7,.L45+8
 511 001e 0C24     	 movs r4,#12
 512 0020 5C43     	 muls r4,r3,r4
 513 0022 3E19     	 adds r6,r7,r4
 157:.././simpleserial/simpleserial.c **** 
 514              	 .loc 1 157 14 view .LVU146
 515 0024 0133     	 adds r3,r3,#1
 154:.././simpleserial/simpleserial.c **** 	commands[num_commands].len = len;
 516              	 .loc 1 154 29 view .LVU147
 517 0026 3855     	 strb r0,[r7,r4]
 155:.././simpleserial/simpleserial.c **** 	commands[num_commands].fp  = fp;
 518              	 .loc 1 155 2 is_stmt 1 view .LVU148
 156:.././simpleserial/simpleserial.c **** 	num_commands++;
 519              	 .loc 1 156 29 is_stmt 0 view .LVU149
 520 0028 C6E90112 	 strd r1,r2,[r6,#4]
 157:.././simpleserial/simpleserial.c **** 
 521              	 .loc 1 157 2 is_stmt 1 view .LVU150
 157:.././simpleserial/simpleserial.c **** 
 522              	 .loc 1 157 14 is_stmt 0 view .LVU151
 523 002c 2B60     	 str r3,[r5]
 159:.././simpleserial/simpleserial.c **** }
 524              	 .loc 1 159 2 is_stmt 1 view .LVU152
 159:.././simpleserial/simpleserial.c **** }
 525              	 .loc 1 159 9 is_stmt 0 view .LVU153
 526 002e 0020     	 movs r0,#0
 527              	.LVL54:
 159:.././simpleserial/simpleserial.c **** }
 528              	 .loc 1 159 9 view .LVU154
 529 0030 EFE7     	 b .L39
 530              	.L46:
 531 0032 00BF     	 .align 2
 532              	.L45:
 533 0034 00000000 	 .word num_commands
 534 0038 00000000 	 .word putch
 535 003c 00000000 	 .word commands
 536              	 .cfi_endproc
 537              	.LFE8:
 539              	 .section .text.simpleserial_init,"ax",%progbits
 540              	 .align 1
 541              	 .global simpleserial_init
 542              	 .syntax unified
 543              	 .thumb
 544              	 .thumb_func
 546              	simpleserial_init:
 547              	.LFB7:
 137:.././simpleserial/simpleserial.c **** 	simpleserial_addcmd('v', 0, check_version);
 548              	 .loc 1 137 1 is_stmt 1 view-0
 549              	 .cfi_startproc
 550              	 
 551              	 
 138:.././simpleserial/simpleserial.c ****     simpleserial_addcmd('w', 0, ss_get_commands);
 552              	 .loc 1 138 2 view .LVU156
 137:.././simpleserial/simpleserial.c **** 	simpleserial_addcmd('v', 0, check_version);
 553              	 .loc 1 137 1 is_stmt 0 view .LVU157
 554 0000 10B5     	 push {r4,lr}
 555              	.LCFI6:
 556              	 .cfi_def_cfa_offset 8
 557              	 .cfi_offset 4,-8
 558              	 .cfi_offset 14,-4
 138:.././simpleserial/simpleserial.c ****     simpleserial_addcmd('w', 0, ss_get_commands);
 559              	 .loc 1 138 2 view .LVU158
 560 0002 064C     	 ldr r4,.L48
 561 0004 064A     	 ldr r2,.L48+4
 562 0006 0021     	 movs r1,#0
 563 0008 7620     	 movs r0,#118
 564 000a A047     	 blx r4
 565              	.LVL55:
 139:.././simpleserial/simpleserial.c **** }
 566              	 .loc 1 139 5 is_stmt 1 view .LVU159
 567 000c 2346     	 mov r3,r4
 568 000e 054A     	 ldr r2,.L48+8
 140:.././simpleserial/simpleserial.c **** 
 569              	 .loc 1 140 1 is_stmt 0 view .LVU160
 570 0010 BDE81040 	 pop {r4,lr}
 571              	.LCFI7:
 572              	 .cfi_restore 14
 573              	 .cfi_restore 4
 574              	 .cfi_def_cfa_offset 0
 139:.././simpleserial/simpleserial.c **** }
 575              	 .loc 1 139 5 view .LVU161
 576 0014 0021     	 movs r1,#0
 577 0016 7720     	 movs r0,#119
 578 0018 1847     	 bx r3
 579              	.LVL56:
 580              	.L49:
 581 001a 00BF     	 .align 2
 582              	.L48:
 583 001c 00000000 	 .word simpleserial_addcmd
 584 0020 00000000 	 .word check_version
 585 0024 00000000 	 .word ss_get_commands
 586              	 .cfi_endproc
 587              	.LFE7:
 589              	 .section .text.simpleserial_put,"ax",%progbits
 590              	 .align 1
 591              	 .global simpleserial_put
 592              	 .syntax unified
 593              	 .thumb
 594              	 .thumb_func
 596              	simpleserial_put:
 597              	.LVL57:
 598              	.LFB10:
 161:.././simpleserial/simpleserial.c **** 
 162:.././simpleserial/simpleserial.c **** void simpleserial_get(void)
 163:.././simpleserial/simpleserial.c **** {
 164:.././simpleserial/simpleserial.c **** 	uint8_t data_buf[MAX_SS_LEN];
 165:.././simpleserial/simpleserial.c **** 	uint8_t err = 0;
 166:.././simpleserial/simpleserial.c **** 
 167:.././simpleserial/simpleserial.c **** 	for (int i = 0; i < 4; i++) {
 168:.././simpleserial/simpleserial.c **** 		data_buf[i] = getch(); //PTR, cmd, scmd, len
 169:.././simpleserial/simpleserial.c **** 		if (data_buf[i] == FRAME_BYTE) {
 170:.././simpleserial/simpleserial.c **** 			err = SS_ERR_FRAME_BYTE;
 171:.././simpleserial/simpleserial.c **** 			goto ERROR;
 172:.././simpleserial/simpleserial.c **** 		}
 173:.././simpleserial/simpleserial.c **** 	}
 174:.././simpleserial/simpleserial.c **** 	uint8_t next_frame = unstuff_data(data_buf, 4);
 175:.././simpleserial/simpleserial.c **** 
 176:.././simpleserial/simpleserial.c **** 	// check for valid command
 177:.././simpleserial/simpleserial.c **** 	uint8_t c = 0;
 178:.././simpleserial/simpleserial.c **** 	for(c = 0; c < num_commands; c++)
 179:.././simpleserial/simpleserial.c **** 	{
 180:.././simpleserial/simpleserial.c **** 		if(commands[c].c == data_buf[1])
 181:.././simpleserial/simpleserial.c **** 			break;
 182:.././simpleserial/simpleserial.c **** 	}
 183:.././simpleserial/simpleserial.c **** 
 184:.././simpleserial/simpleserial.c **** 	if (c == num_commands) {
 185:.././simpleserial/simpleserial.c **** 		err = SS_ERR_CMD;
 186:.././simpleserial/simpleserial.c **** 		goto ERROR;
 187:.././simpleserial/simpleserial.c **** 	}
 188:.././simpleserial/simpleserial.c **** 
 189:.././simpleserial/simpleserial.c **** 	//check that next frame not beyond end of message
 190:.././simpleserial/simpleserial.c **** 	// account for cmd, scmd, len, data, crc, end of frame
 191:.././simpleserial/simpleserial.c **** 	if ((data_buf[3] + 5) < next_frame) {
 192:.././simpleserial/simpleserial.c **** 		err = SS_ERR_LEN;
 193:.././simpleserial/simpleserial.c **** 		goto ERROR;
 194:.././simpleserial/simpleserial.c **** 	}
 195:.././simpleserial/simpleserial.c **** 
 196:.././simpleserial/simpleserial.c **** 	// read in data
 197:.././simpleserial/simpleserial.c **** 	// eq to len + crc + frame end
 198:.././simpleserial/simpleserial.c **** 	int i = 4;
 199:.././simpleserial/simpleserial.c **** 	for (; i < data_buf[3] + 5; i++) {
 200:.././simpleserial/simpleserial.c **** 		data_buf[i] = getch();
 201:.././simpleserial/simpleserial.c **** 		if (data_buf[i] == FRAME_BYTE) {
 202:.././simpleserial/simpleserial.c **** 			err = SS_ERR_FRAME_BYTE;
 203:.././simpleserial/simpleserial.c **** 			goto ERROR;
 204:.././simpleserial/simpleserial.c **** 		}
 205:.././simpleserial/simpleserial.c **** 	}
 206:.././simpleserial/simpleserial.c **** 
 207:.././simpleserial/simpleserial.c **** 	//check that final byte is the FRAME_BYTE
 208:.././simpleserial/simpleserial.c **** 	data_buf[i] = getch();
 209:.././simpleserial/simpleserial.c **** 	if (data_buf[i] != FRAME_BYTE) {
 210:.././simpleserial/simpleserial.c **** 		err = SS_ERR_LEN;
 211:.././simpleserial/simpleserial.c **** 		goto ERROR;
 212:.././simpleserial/simpleserial.c **** 	}
 213:.././simpleserial/simpleserial.c **** 
 214:.././simpleserial/simpleserial.c **** 	//fully unstuff data now
 215:.././simpleserial/simpleserial.c **** 	unstuff_data(data_buf + next_frame, i - next_frame + 1);
 216:.././simpleserial/simpleserial.c **** 
 217:.././simpleserial/simpleserial.c **** 	//calc crc excluding original frame offset and frame end and crc
 218:.././simpleserial/simpleserial.c **** 	uint8_t crc = ss_crc(data_buf+1, i-2);
 219:.././simpleserial/simpleserial.c **** 	if (crc != data_buf[i-1]) {
 220:.././simpleserial/simpleserial.c **** 		err = SS_ERR_CRC;
 221:.././simpleserial/simpleserial.c **** 		goto ERROR;
 222:.././simpleserial/simpleserial.c **** 	}
 223:.././simpleserial/simpleserial.c **** 
 224:.././simpleserial/simpleserial.c **** 	err = commands[c].fp(data_buf[1], data_buf[2], data_buf[3], data_buf+4);
 225:.././simpleserial/simpleserial.c **** 
 226:.././simpleserial/simpleserial.c **** ERROR:
 227:.././simpleserial/simpleserial.c **** 	simpleserial_put('e', 0x01, &err);
 228:.././simpleserial/simpleserial.c **** 	return;
 229:.././simpleserial/simpleserial.c **** }
 230:.././simpleserial/simpleserial.c **** 
 231:.././simpleserial/simpleserial.c **** void simpleserial_put(char c, uint8_t size, uint8_t* output)
 232:.././simpleserial/simpleserial.c **** {
 599              	 .loc 1 232 1 is_stmt 1 view-0
 600              	 .cfi_startproc
 601              	 
 602              	 
 233:.././simpleserial/simpleserial.c ****     if (!output) return;
 603              	 .loc 1 233 5 view .LVU163
 232:.././simpleserial/simpleserial.c ****     if (!output) return;
 604              	 .loc 1 232 1 is_stmt 0 view .LVU164
 605 0000 F0B5     	 push {r4,r5,r6,r7,lr}
 606              	.LCFI8:
 607              	 .cfi_def_cfa_offset 20
 608              	 .cfi_offset 4,-20
 609              	 .cfi_offset 5,-16
 610              	 .cfi_offset 6,-12
 611              	 .cfi_offset 7,-8
 612              	 .cfi_offset 14,-4
 613 0002 0D46     	 mov r5,r1
 614 0004 C1B0     	 sub sp,sp,#260
 615              	.LCFI9:
 616              	 .cfi_def_cfa_offset 280
 617              	 .loc 1 233 8 view .LVU165
 618 0006 1AB3     	 cbz r2,.L50
 234:.././simpleserial/simpleserial.c **** 	uint8_t data_buf[MAX_SS_LEN+5];
 619              	 .loc 1 234 2 is_stmt 1 view .LVU166
 235:.././simpleserial/simpleserial.c **** 	data_buf[0] = 0x00;
 620              	 .loc 1 235 2 view .LVU167
 621              	 .loc 1 235 14 is_stmt 0 view .LVU168
 622 0008 0023     	 movs r3,#0
 236:.././simpleserial/simpleserial.c **** 	data_buf[1] = c;
 237:.././simpleserial/simpleserial.c **** 	data_buf[2] = size;
 623              	 .loc 1 237 14 view .LVU169
 624 000a 8DF80210 	 strb r1,[sp,#2]
 235:.././simpleserial/simpleserial.c **** 	data_buf[0] = 0x00;
 625              	 .loc 1 235 14 view .LVU170
 626 000e 6C46     	 mov r4,sp
 627 0010 8DF80030 	 strb r3,[sp]
 236:.././simpleserial/simpleserial.c **** 	data_buf[1] = c;
 628              	 .loc 1 236 2 is_stmt 1 view .LVU171
 236:.././simpleserial/simpleserial.c **** 	data_buf[1] = c;
 629              	 .loc 1 236 14 is_stmt 0 view .LVU172
 630 0014 8DF80100 	 strb r0,[sp,#1]
 631              	 .loc 1 237 2 is_stmt 1 view .LVU173
 238:.././simpleserial/simpleserial.c **** 	int i = 0;
 632              	 .loc 1 238 2 view .LVU174
 633              	.LVL58:
 239:.././simpleserial/simpleserial.c **** 	for (; i < size; i++) {
 634              	 .loc 1 239 2 view .LVU175
 635 0018 0DF10201 	 add r1,sp,#2
 636              	.LVL59:
 637              	.L52:
 638              	 .loc 1 239 11 discriminator 1 view .LVU176
 639 001c 9D42     	 cmp r5,r3
 640 001e 19DC     	 bgt .L53
 240:.././simpleserial/simpleserial.c **** 		data_buf[i + 3] = output[i];
 241:.././simpleserial/simpleserial.c **** 	}
 242:.././simpleserial/simpleserial.c **** 	data_buf[i + 3] = ss_crc(data_buf+1, size+2);
 641              	 .loc 1 242 2 view .LVU177
 642              	 .loc 1 242 20 is_stmt 0 view .LVU178
 643 0020 A91C     	 adds r1,r5,#2
 644 0022 0F4B     	 ldr r3,.L57
 645              	.LVL60:
 646              	 .loc 1 242 20 view .LVU179
 647 0024 C9B2     	 uxtb r1,r1
 648 0026 0DF10100 	 add r0,sp,#1
 649 002a 9847     	 blx r3
 650              	.LVL61:
 651              	 .loc 1 242 18 discriminator 1 view .LVU180
 652 002c 6319     	 adds r3,r4,r5
 243:.././simpleserial/simpleserial.c **** 	data_buf[i + 4] = 0x00;
 653              	 .loc 1 243 13 view .LVU181
 654 002e 2F1D     	 adds r7,r5,#4
 244:.././simpleserial/simpleserial.c **** 	stuff_data(data_buf, i + 5);
 655              	 .loc 1 244 2 view .LVU182
 656 0030 691D     	 adds r1,r5,#5
 242:.././simpleserial/simpleserial.c **** 	data_buf[i + 4] = 0x00;
 657              	 .loc 1 242 18 discriminator 1 view .LVU183
 658 0032 D870     	 strb r0,[r3,#3]
 243:.././simpleserial/simpleserial.c **** 	data_buf[i + 4] = 0x00;
 659              	 .loc 1 243 2 is_stmt 1 view .LVU184
 243:.././simpleserial/simpleserial.c **** 	data_buf[i + 4] = 0x00;
 660              	 .loc 1 243 18 is_stmt 0 view .LVU185
 661 0034 0026     	 movs r6,#0
 662              	 .loc 1 244 2 view .LVU186
 663 0036 0B4B     	 ldr r3,.L57+4
 243:.././simpleserial/simpleserial.c **** 	data_buf[i + 4] = 0x00;
 664              	 .loc 1 243 18 view .LVU187
 665 0038 E655     	 strb r6,[r4,r7]
 666              	 .loc 1 244 2 is_stmt 1 view .LVU188
 667 003a C9B2     	 uxtb r1,r1
 668 003c 2046     	 mov r0,r4
 669 003e 9847     	 blx r3
 670              	.LVL62:
 245:.././simpleserial/simpleserial.c **** 	for (int i = 0; i < size + 5; i++) {
 671              	 .loc 1 245 2 view .LVU189
 672              	.LBB10:
 673              	 .loc 1 245 7 view .LVU190
 674              	 .loc 1 245 20 discriminator 1 view .LVU191
 675              	 .loc 1 245 11 is_stmt 0 view .LVU192
 676 0040 3546     	 mov r5,r6
 677              	.LVL63:
 246:.././simpleserial/simpleserial.c **** 		putch(data_buf[i]);
 678              	 .loc 1 246 3 view .LVU193
 679 0042 094E     	 ldr r6,.L57+8
 680              	.LVL64:
 681              	.L54:
 682              	 .loc 1 246 3 is_stmt 1 view .LVU194
 683 0044 14F8010B 	 ldrb r0,[r4],#1
 245:.././simpleserial/simpleserial.c **** 	for (int i = 0; i < size + 5; i++) {
 684              	 .loc 1 245 33 is_stmt 0 discriminator 3 view .LVU195
 685 0048 0135     	 adds r5,r5,#1
 686              	.LVL65:
 687              	 .loc 1 246 3 view .LVU196
 688 004a B047     	 blx r6
 689              	.LVL66:
 245:.././simpleserial/simpleserial.c **** 	for (int i = 0; i < size + 5; i++) {
 690              	 .loc 1 245 33 is_stmt 1 discriminator 3 view .LVU197
 245:.././simpleserial/simpleserial.c **** 	for (int i = 0; i < size + 5; i++) {
 691              	 .loc 1 245 20 discriminator 1 view .LVU198
 692 004c AF42     	 cmp r7,r5
 693 004e F9DA     	 bge .L54
 694              	.LVL67:
 695              	.L50:
 245:.././simpleserial/simpleserial.c **** 	for (int i = 0; i < size + 5; i++) {
 696              	 .loc 1 245 20 is_stmt 0 discriminator 1 view .LVU199
 697              	.LBE10:
 247:.././simpleserial/simpleserial.c **** 	}
 248:.././simpleserial/simpleserial.c **** }
 698              	 .loc 1 248 1 view .LVU200
 699 0050 41B0     	 add sp,sp,#260
 700              	.LCFI10:
 701              	 .cfi_remember_state
 702              	 .cfi_def_cfa_offset 20
 703              	 
 704 0052 F0BD     	 pop {r4,r5,r6,r7,pc}
 705              	.LVL68:
 706              	.L53:
 707              	.LCFI11:
 708              	 .cfi_restore_state
 240:.././simpleserial/simpleserial.c **** 	}
 709              	 .loc 1 240 3 is_stmt 1 view .LVU201
 240:.././simpleserial/simpleserial.c **** 	}
 710              	 .loc 1 240 19 is_stmt 0 view .LVU202
 711 0054 D05C     	 ldrb r0,[r2,r3]
 712 0056 01F8010F 	 strb r0,[r1,#1]!
 239:.././simpleserial/simpleserial.c **** 		data_buf[i + 3] = output[i];
 713              	 .loc 1 239 20 is_stmt 1 discriminator 2 view .LVU203
 714 005a 0133     	 adds r3,r3,#1
 715              	.LVL69:
 239:.././simpleserial/simpleserial.c **** 		data_buf[i + 3] = output[i];
 716              	 .loc 1 239 20 is_stmt 0 discriminator 2 view .LVU204
 717 005c DEE7     	 b .L52
 718              	.L58:
 719 005e 00BF     	 .align 2
 720              	.L57:
 721 0060 00000000 	 .word ss_crc
 722 0064 00000000 	 .word stuff_data
 723 0068 00000000 	 .word putch
 724              	 .cfi_endproc
 725              	.LFE10:
 727              	 .section .text.check_version,"ax",%progbits
 728              	 .align 1
 729              	 .global check_version
 730              	 .syntax unified
 731              	 .thumb
 732              	 .thumb_func
 734              	check_version:
 735              	.LVL70:
 736              	.LFB3:
  89:.././simpleserial/simpleserial.c **** 	uint8_t ver = SS_VER;
 737              	 .loc 1 89 1 is_stmt 1 view-0
 738              	 .cfi_startproc
 739              	 
 740              	 
  90:.././simpleserial/simpleserial.c **** 	simpleserial_put('r', 1, &ver);
 741              	 .loc 1 90 2 view .LVU206
  89:.././simpleserial/simpleserial.c **** 	uint8_t ver = SS_VER;
 742              	 .loc 1 89 1 is_stmt 0 view .LVU207
 743 0000 07B5     	 push {r0,r1,r2,lr}
 744              	.LCFI12:
 745              	 .cfi_def_cfa_offset 16
 746              	 .cfi_offset 14,-4
  90:.././simpleserial/simpleserial.c **** 	simpleserial_put('r', 1, &ver);
 747              	 .loc 1 90 10 view .LVU208
 748 0002 0323     	 movs r3,#3
 749              	.LVL71:
  90:.././simpleserial/simpleserial.c **** 	simpleserial_put('r', 1, &ver);
 750              	 .loc 1 90 10 view .LVU209
 751 0004 8DF80730 	 strb r3,[sp,#7]
  91:.././simpleserial/simpleserial.c **** 	return SS_ERR_OK;
 752              	 .loc 1 91 2 is_stmt 1 view .LVU210
 753 0008 0DF10702 	 add r2,sp,#7
 754              	.LVL72:
  91:.././simpleserial/simpleserial.c **** 	return SS_ERR_OK;
 755              	 .loc 1 91 2 is_stmt 0 view .LVU211
 756 000c 034B     	 ldr r3,.L60
 757 000e 0121     	 movs r1,#1
 758              	.LVL73:
  91:.././simpleserial/simpleserial.c **** 	return SS_ERR_OK;
 759              	 .loc 1 91 2 view .LVU212
 760 0010 7220     	 movs r0,#114
 761              	.LVL74:
  91:.././simpleserial/simpleserial.c **** 	return SS_ERR_OK;
 762              	 .loc 1 91 2 view .LVU213
 763 0012 9847     	 blx r3
 764              	.LVL75:
  92:.././simpleserial/simpleserial.c **** }
 765              	 .loc 1 92 2 is_stmt 1 view .LVU214
  93:.././simpleserial/simpleserial.c **** 
 766              	 .loc 1 93 1 is_stmt 0 view .LVU215
 767 0014 0020     	 movs r0,#0
 768 0016 03B0     	 add sp,sp,#12
 769              	.LCFI13:
 770              	 .cfi_def_cfa_offset 4
 771              	 
 772 0018 5DF804FB 	 ldr pc,[sp],#4
 773              	.L61:
 774              	 .align 2
 775              	.L60:
 776 001c 00000000 	 .word simpleserial_put
 777              	 .cfi_endproc
 778              	.LFE3:
 780              	 .section .text.ss_get_commands,"ax",%progbits
 781              	 .align 1
 782              	 .global ss_get_commands
 783              	 .syntax unified
 784              	 .thumb
 785              	 .thumb_func
 787              	ss_get_commands:
 788              	.LVL76:
 789              	.LFB4:
  96:.././simpleserial/simpleserial.c ****     uint8_t cmd_chars[MAX_SS_CMDS];
 790              	 .loc 1 96 1 is_stmt 1 view-0
 791              	 .cfi_startproc
 792              	 
 793              	 
  97:.././simpleserial/simpleserial.c ****     for (uint8_t i = 0; i < (num_commands & 0xFF); i++) {
 794              	 .loc 1 97 5 view .LVU217
  98:.././simpleserial/simpleserial.c ****         cmd_chars[i] = commands[i].c;
 795              	 .loc 1 98 5 view .LVU218
 796              	.LBB11:
  98:.././simpleserial/simpleserial.c ****         cmd_chars[i] = commands[i].c;
 797              	 .loc 1 98 10 view .LVU219
  98:.././simpleserial/simpleserial.c ****         cmd_chars[i] = commands[i].c;
 798              	 .loc 1 98 10 is_stmt 0 view .LVU220
 799              	.LBE11:
  96:.././simpleserial/simpleserial.c ****     uint8_t cmd_chars[MAX_SS_CMDS];
 800              	 .loc 1 96 1 view .LVU221
 801 0000 30B5     	 push {r4,r5,lr}
 802              	.LCFI14:
 803              	 .cfi_def_cfa_offset 12
 804              	 .cfi_offset 4,-12
 805              	 .cfi_offset 5,-8
 806              	 .cfi_offset 14,-4
 807              	.LBB12:
  98:.././simpleserial/simpleserial.c ****         cmd_chars[i] = commands[i].c;
 808              	 .loc 1 98 43 discriminator 1 view .LVU222
 809 0002 0D4B     	 ldr r3,.L65
 810              	.LVL77:
  99:.././simpleserial/simpleserial.c ****     }
 811              	 .loc 1 99 35 view .LVU223
 812 0004 0D48     	 ldr r0,.L65+4
 813              	.LVL78:
  98:.././simpleserial/simpleserial.c ****         cmd_chars[i] = commands[i].c;
 814              	 .loc 1 98 43 discriminator 1 view .LVU224
 815 0006 1978     	 ldrb r1,[r3]
 816              	.LVL79:
  98:.././simpleserial/simpleserial.c ****         cmd_chars[i] = commands[i].c;
 817              	 .loc 1 98 43 discriminator 1 view .LVU225
 818              	.LBE12:
  96:.././simpleserial/simpleserial.c ****     uint8_t cmd_chars[MAX_SS_CMDS];
 819              	 .loc 1 96 1 view .LVU226
 820 0008 89B0     	 sub sp,sp,#36
 821              	.LCFI15:
 822              	 .cfi_def_cfa_offset 48
 823              	.LBB13:
  98:.././simpleserial/simpleserial.c ****         cmd_chars[i] = commands[i].c;
 824              	 .loc 1 98 5 view .LVU227
 825 000a 0022     	 movs r2,#0
 826              	.LVL80:
  99:.././simpleserial/simpleserial.c ****     }
 827              	 .loc 1 99 35 view .LVU228
 828 000c 0C24     	 movs r4,#12
 829              	.LVL81:
 830              	.L63:
  98:.././simpleserial/simpleserial.c ****         cmd_chars[i] = commands[i].c;
 831              	 .loc 1 98 27 is_stmt 1 discriminator 1 view .LVU229
 832 000e D3B2     	 uxtb r3,r2
 833 0010 8B42     	 cmp r3,r1
 834 0012 02F10102 	 add r2,r2,#1
 835              	.LVL82:
  98:.././simpleserial/simpleserial.c ****         cmd_chars[i] = commands[i].c;
 836              	 .loc 1 98 27 is_stmt 0 discriminator 1 view .LVU230
 837 0016 06DB     	 blt .L64
 838              	.LBE13:
 102:.././simpleserial/simpleserial.c ****     return 0x00;
 839              	 .loc 1 102 5 is_stmt 1 view .LVU231
 840 0018 094B     	 ldr r3,.L65+8
 841 001a 6A46     	 mov r2,sp
 842              	.LVL83:
 102:.././simpleserial/simpleserial.c ****     return 0x00;
 843              	 .loc 1 102 5 is_stmt 0 view .LVU232
 844 001c 7220     	 movs r0,#114
 845 001e 9847     	 blx r3
 846              	.LVL84:
 103:.././simpleserial/simpleserial.c **** 
 847              	 .loc 1 103 5 is_stmt 1 view .LVU233
 105:.././simpleserial/simpleserial.c **** 
 848              	 .loc 1 105 1 is_stmt 0 view .LVU234
 849 0020 0020     	 movs r0,#0
 850 0022 09B0     	 add sp,sp,#36
 851              	.LCFI16:
 852              	 .cfi_remember_state
 853              	 .cfi_def_cfa_offset 12
 854              	 
 855 0024 30BD     	 pop {r4,r5,pc}
 856              	.LVL85:
 857              	.L64:
 858              	.LCFI17:
 859              	 .cfi_restore_state
 860              	.LBB14:
  99:.././simpleserial/simpleserial.c ****     }
 861              	 .loc 1 99 9 is_stmt 1 view .LVU235
  99:.././simpleserial/simpleserial.c ****     }
 862              	 .loc 1 99 22 is_stmt 0 view .LVU236
 863 0026 03F12005 	 add r5,r3,#32
  99:.././simpleserial/simpleserial.c ****     }
 864              	 .loc 1 99 35 view .LVU237
 865 002a 6343     	 muls r3,r4,r3
  99:.././simpleserial/simpleserial.c ****     }
 866              	 .loc 1 99 22 view .LVU238
 867 002c 6D44     	 add r5,sp,r5
 868 002e C35C     	 ldrb r3,[r0,r3]
 869 0030 05F8203C 	 strb r3,[r5,#-32]
  98:.././simpleserial/simpleserial.c ****         cmd_chars[i] = commands[i].c;
 870              	 .loc 1 98 53 is_stmt 1 discriminator 3 view .LVU239
 871 0034 EBE7     	 b .L63
 872              	.L66:
 873 0036 00BF     	 .align 2
 874              	.L65:
 875 0038 00000000 	 .word num_commands
 876 003c 00000000 	 .word commands
 877 0040 00000000 	 .word simpleserial_put
 878              	.LBE14:
 879              	 .cfi_endproc
 880              	.LFE4:
 882              	 .section .text.simpleserial_get,"ax",%progbits
 883              	 .align 1
 884              	 .global simpleserial_get
 885              	 .syntax unified
 886              	 .thumb
 887              	 .thumb_func
 889              	simpleserial_get:
 890              	.LFB9:
 163:.././simpleserial/simpleserial.c **** 	uint8_t data_buf[MAX_SS_LEN];
 891              	 .loc 1 163 1 view-0
 892              	 .cfi_startproc
 893              	 
 894              	 
 164:.././simpleserial/simpleserial.c **** 	uint8_t err = 0;
 895              	 .loc 1 164 2 view .LVU241
 165:.././simpleserial/simpleserial.c **** 
 896              	 .loc 1 165 2 view .LVU242
 163:.././simpleserial/simpleserial.c **** 	uint8_t data_buf[MAX_SS_LEN];
 897              	 .loc 1 163 1 is_stmt 0 view .LVU243
 898 0000 2DE9F047 	 push {r4,r5,r6,r7,r8,r9,r10,lr}
 899              	.LCFI18:
 900              	 .cfi_def_cfa_offset 32
 901              	 .cfi_offset 4,-32
 902              	 .cfi_offset 5,-28
 903              	 .cfi_offset 6,-24
 904              	 .cfi_offset 7,-20
 905              	 .cfi_offset 8,-16
 906              	 .cfi_offset 9,-12
 907              	 .cfi_offset 10,-8
 908              	 .cfi_offset 14,-4
 909 0004 C0B0     	 sub sp,sp,#256
 910              	.LCFI19:
 911              	 .cfi_def_cfa_offset 288
 165:.././simpleserial/simpleserial.c **** 
 912              	 .loc 1 165 10 view .LVU244
 913 0006 0024     	 movs r4,#0
 914 0008 01AD     	 add r5,sp,#4
 915              	.LBB15:
 168:.././simpleserial/simpleserial.c **** 		if (data_buf[i] == FRAME_BYTE) {
 916              	 .loc 1 168 17 view .LVU245
 917 000a DFF8E090 	 ldr r9,.L85
 918              	.LBE15:
 165:.././simpleserial/simpleserial.c **** 
 919              	 .loc 1 165 10 view .LVU246
 920 000e 8DF80340 	 strb r4,[sp,#3]
 167:.././simpleserial/simpleserial.c **** 		data_buf[i] = getch(); //PTR, cmd, scmd, len
 921              	 .loc 1 167 2 is_stmt 1 view .LVU247
 922              	.LBB16:
 167:.././simpleserial/simpleserial.c **** 		data_buf[i] = getch(); //PTR, cmd, scmd, len
 923              	 .loc 1 167 7 view .LVU248
 924              	.LVL86:
 167:.././simpleserial/simpleserial.c **** 		data_buf[i] = getch(); //PTR, cmd, scmd, len
 925              	 .loc 1 167 20 discriminator 1 view .LVU249
 926 0012 2F46     	 mov r7,r5
 927              	.LVL87:
 928              	.L70:
 168:.././simpleserial/simpleserial.c **** 		if (data_buf[i] == FRAME_BYTE) {
 929              	 .loc 1 168 3 view .LVU250
 168:.././simpleserial/simpleserial.c **** 		if (data_buf[i] == FRAME_BYTE) {
 930              	 .loc 1 168 17 is_stmt 0 view .LVU251
 931 0014 C847     	 blx r9
 932              	.LVL88:
 168:.././simpleserial/simpleserial.c **** 		if (data_buf[i] == FRAME_BYTE) {
 933              	 .loc 1 168 15 discriminator 1 view .LVU252
 934 0016 05F8010B 	 strb r0,[r5],#1
 169:.././simpleserial/simpleserial.c **** 			err = SS_ERR_FRAME_BYTE;
 935              	 .loc 1 169 3 is_stmt 1 view .LVU253
 169:.././simpleserial/simpleserial.c **** 			err = SS_ERR_FRAME_BYTE;
 936              	 .loc 1 169 6 is_stmt 0 view .LVU254
 937 001a 58B9     	 cbnz r0,.L68
 938              	.LVL89:
 939              	.L75:
 170:.././simpleserial/simpleserial.c **** 			goto ERROR;
 940              	 .loc 1 170 4 is_stmt 1 view .LVU255
 171:.././simpleserial/simpleserial.c **** 		}
 941              	 .loc 1 171 4 view .LVU256
 942 001c 0520     	 movs r0,#5
 943              	.L69:
 170:.././simpleserial/simpleserial.c **** 			goto ERROR;
 944              	 .loc 1 170 8 is_stmt 0 view .LVU257
 945 001e 8DF80300 	 strb r0,[sp,#3]
 946              	.LBE16:
 227:.././simpleserial/simpleserial.c **** 	return;
 947              	 .loc 1 227 2 is_stmt 1 view .LVU258
 948 0022 334B     	 ldr r3,.L85+4
 949 0024 0DF10302 	 add r2,sp,#3
 950 0028 0121     	 movs r1,#1
 951 002a 6520     	 movs r0,#101
 952 002c 9847     	 blx r3
 953              	.LVL90:
 228:.././simpleserial/simpleserial.c **** }
 954              	 .loc 1 228 2 view .LVU259
 229:.././simpleserial/simpleserial.c **** 
 955              	 .loc 1 229 1 is_stmt 0 view .LVU260
 956 002e 40B0     	 add sp,sp,#256
 957              	.LCFI20:
 958              	 .cfi_remember_state
 959              	 .cfi_def_cfa_offset 32
 960              	 
 961 0030 BDE8F087 	 pop {r4,r5,r6,r7,r8,r9,r10,pc}
 962              	.LVL91:
 963              	.L68:
 964              	.LCFI21:
 965              	 .cfi_restore_state
 966              	.LBB17:
 167:.././simpleserial/simpleserial.c **** 		data_buf[i] = getch(); //PTR, cmd, scmd, len
 967              	 .loc 1 167 26 is_stmt 1 discriminator 2 view .LVU261
 968 0034 0134     	 adds r4,r4,#1
 969              	.LVL92:
 167:.././simpleserial/simpleserial.c **** 		data_buf[i] = getch(); //PTR, cmd, scmd, len
 970              	 .loc 1 167 20 discriminator 1 view .LVU262
 971 0036 042C     	 cmp r4,#4
 972 0038 ECD1     	 bne .L70
 973              	.LBE17:
 174:.././simpleserial/simpleserial.c **** 
 974              	 .loc 1 174 2 view .LVU263
 174:.././simpleserial/simpleserial.c **** 
 975              	 .loc 1 174 23 is_stmt 0 view .LVU264
 976 003a 2146     	 mov r1,r4
 977 003c DFF8B480 	 ldr r8,.L85+8
 978 0040 3846     	 mov r0,r7
 979 0042 C047     	 blx r8
 980              	.LVL93:
 178:.././simpleserial/simpleserial.c **** 	{
 981              	 .loc 1 178 15 discriminator 1 view .LVU265
 982 0044 2C4B     	 ldr r3,.L85+12
 180:.././simpleserial/simpleserial.c **** 			break;
 983              	 .loc 1 180 31 view .LVU266
 984 0046 9DF80510 	 ldrb r1,[sp,#5]
 178:.././simpleserial/simpleserial.c **** 	{
 985              	 .loc 1 178 15 discriminator 1 view .LVU267
 986 004a 1A68     	 ldr r2,[r3]
 174:.././simpleserial/simpleserial.c **** 
 987              	 .loc 1 174 23 view .LVU268
 988 004c 0546     	 mov r5,r0
 989              	.LVL94:
 177:.././simpleserial/simpleserial.c **** 	for(c = 0; c < num_commands; c++)
 990              	 .loc 1 177 2 is_stmt 1 view .LVU269
 178:.././simpleserial/simpleserial.c **** 	{
 991              	 .loc 1 178 2 view .LVU270
 180:.././simpleserial/simpleserial.c **** 			break;
 992              	 .loc 1 180 17 is_stmt 0 view .LVU271
 993 004e 2B48     	 ldr r0,.L85+16
 178:.././simpleserial/simpleserial.c **** 	{
 994              	 .loc 1 178 2 view .LVU272
 995 0050 0023     	 movs r3,#0
 180:.././simpleserial/simpleserial.c **** 			break;
 996              	 .loc 1 180 17 view .LVU273
 997 0052 4FF00C0C 	 mov ip,#12
 998              	.LVL95:
 999              	.L71:
 178:.././simpleserial/simpleserial.c **** 	{
 1000              	 .loc 1 178 15 is_stmt 1 discriminator 1 view .LVU274
 1001 0056 DEB2     	 uxtb r6,r3
 1002 0058 9642     	 cmp r6,r2
 1003 005a 02DB     	 blt .L73
 184:.././simpleserial/simpleserial.c **** 		err = SS_ERR_CMD;
 1004              	 .loc 1 184 2 view .LVU275
 184:.././simpleserial/simpleserial.c **** 		err = SS_ERR_CMD;
 1005              	 .loc 1 184 5 is_stmt 0 view .LVU276
 1006 005c 08D1     	 bne .L72
 1007 005e 0120     	 movs r0,#1
 1008 0060 DDE7     	 b .L69
 1009              	.L73:
 180:.././simpleserial/simpleserial.c **** 			break;
 1010              	 .loc 1 180 3 is_stmt 1 view .LVU277
 180:.././simpleserial/simpleserial.c **** 			break;
 1011              	 .loc 1 180 17 is_stmt 0 view .LVU278
 1012 0062 0CFB06FE 	 mul lr,ip,r6
 180:.././simpleserial/simpleserial.c **** 			break;
 1013              	 .loc 1 180 5 view .LVU279
 1014 0066 0133     	 adds r3,r3,#1
 1015              	.LVL96:
 180:.././simpleserial/simpleserial.c **** 			break;
 1016              	 .loc 1 180 5 view .LVU280
 1017 0068 10F80EE0 	 ldrb lr,[r0,lr]
 1018 006c 8E45     	 cmp lr,r1
 1019 006e F2D1     	 bne .L71
 1020              	.L72:
 191:.././simpleserial/simpleserial.c **** 		err = SS_ERR_LEN;
 1021              	 .loc 1 191 2 is_stmt 1 view .LVU281
 191:.././simpleserial/simpleserial.c **** 		err = SS_ERR_LEN;
 1022              	 .loc 1 191 15 is_stmt 0 view .LVU282
 1023 0070 9DF80730 	 ldrb r3,[sp,#7]
 191:.././simpleserial/simpleserial.c **** 		err = SS_ERR_LEN;
 1024              	 .loc 1 191 19 view .LVU283
 1025 0074 0533     	 adds r3,r3,#5
 191:.././simpleserial/simpleserial.c **** 		err = SS_ERR_LEN;
 1026              	 .loc 1 191 5 view .LVU284
 1027 0076 AB42     	 cmp r3,r5
 1028 0078 06DA     	 bge .L74
 1029              	.LVL97:
 1030              	.L77:
 192:.././simpleserial/simpleserial.c **** 		goto ERROR;
 1031              	 .loc 1 192 3 is_stmt 1 view .LVU285
 193:.././simpleserial/simpleserial.c **** 	}
 1032              	 .loc 1 193 3 view .LVU286
 1033 007a 0420     	 movs r0,#4
 1034 007c CFE7     	 b .L69
 1035              	.LVL98:
 1036              	.L76:
 200:.././simpleserial/simpleserial.c **** 		if (data_buf[i] == FRAME_BYTE) {
 1037              	 .loc 1 200 3 view .LVU287
 200:.././simpleserial/simpleserial.c **** 		if (data_buf[i] == FRAME_BYTE) {
 1038              	 .loc 1 200 17 is_stmt 0 view .LVU288
 1039 007e C847     	 blx r9
 1040              	.LVL99:
 200:.././simpleserial/simpleserial.c **** 		if (data_buf[i] == FRAME_BYTE) {
 1041              	 .loc 1 200 15 discriminator 1 view .LVU289
 1042 0080 3855     	 strb r0,[r7,r4]
 201:.././simpleserial/simpleserial.c **** 			err = SS_ERR_FRAME_BYTE;
 1043              	 .loc 1 201 3 is_stmt 1 view .LVU290
 201:.././simpleserial/simpleserial.c **** 			err = SS_ERR_FRAME_BYTE;
 1044              	 .loc 1 201 6 is_stmt 0 view .LVU291
 1045 0082 0028     	 cmp r0,#0
 1046 0084 CAD0     	 beq .L75
 199:.././simpleserial/simpleserial.c **** 		data_buf[i] = getch();
 1047              	 .loc 1 199 31 is_stmt 1 view .LVU292
 1048 0086 0134     	 adds r4,r4,#1
 1049              	.LVL100:
 1050              	.L74:
 199:.././simpleserial/simpleserial.c **** 		data_buf[i] = getch();
 1051              	 .loc 1 199 11 discriminator 1 view .LVU293
 199:.././simpleserial/simpleserial.c **** 		data_buf[i] = getch();
 1052              	 .loc 1 199 21 is_stmt 0 discriminator 1 view .LVU294
 1053 0088 9DF80730 	 ldrb r3,[sp,#7]
 199:.././simpleserial/simpleserial.c **** 		data_buf[i] = getch();
 1054              	 .loc 1 199 11 discriminator 1 view .LVU295
 1055 008c 0433     	 adds r3,r3,#4
 1056 008e A342     	 cmp r3,r4
 1057 0090 F5DA     	 bge .L76
 208:.././simpleserial/simpleserial.c **** 	if (data_buf[i] != FRAME_BYTE) {
 1058              	 .loc 1 208 2 is_stmt 1 view .LVU296
 208:.././simpleserial/simpleserial.c **** 	if (data_buf[i] != FRAME_BYTE) {
 1059              	 .loc 1 208 16 is_stmt 0 view .LVU297
 1060 0092 C847     	 blx r9
 1061              	.LVL101:
 208:.././simpleserial/simpleserial.c **** 	if (data_buf[i] != FRAME_BYTE) {
 1062              	 .loc 1 208 14 discriminator 1 view .LVU298
 1063 0094 04F58073 	 add r3,r4,#256
 1064 0098 0DEB030A 	 add r10,sp,r3
 1065 009c 0AF8FC0C 	 strb r0,[r10,#-252]
 209:.././simpleserial/simpleserial.c **** 		err = SS_ERR_LEN;
 1066              	 .loc 1 209 2 is_stmt 1 view .LVU299
 209:.././simpleserial/simpleserial.c **** 		err = SS_ERR_LEN;
 1067              	 .loc 1 209 5 is_stmt 0 view .LVU300
 1068 00a0 0028     	 cmp r0,#0
 1069 00a2 EAD1     	 bne .L77
 215:.././simpleserial/simpleserial.c **** 
 1070              	 .loc 1 215 2 is_stmt 1 view .LVU301
 1071 00a4 C5F10103 	 rsb r3,r5,#1
 1072 00a8 53FA84F1 	 uxtab r1,r3,r4
 1073 00ac C9B2     	 uxtb r1,r1
 215:.././simpleserial/simpleserial.c **** 
 1074              	 .loc 1 215 40 is_stmt 0 view .LVU302
 1075 00ae 5FFA84F9 	 uxtb r9,r4
 215:.././simpleserial/simpleserial.c **** 
 1076              	 .loc 1 215 2 view .LVU303
 1077 00b2 7819     	 adds r0,r7,r5
 1078 00b4 C047     	 blx r8
 1079              	.LVL102:
 218:.././simpleserial/simpleserial.c **** 	if (crc != data_buf[i-1]) {
 1080              	 .loc 1 218 2 is_stmt 1 view .LVU304
 218:.././simpleserial/simpleserial.c **** 	if (crc != data_buf[i-1]) {
 1081              	 .loc 1 218 16 is_stmt 0 view .LVU305
 1082 00b6 A9F10201 	 sub r1,r9,#2
 1083 00ba 114B     	 ldr r3,.L85+20
 1084 00bc C9B2     	 uxtb r1,r1
 1085 00be 0DF10500 	 add r0,sp,#5
 1086 00c2 9847     	 blx r3
 1087              	.LVL103:
 219:.././simpleserial/simpleserial.c **** 		err = SS_ERR_CRC;
 1088              	 .loc 1 219 2 is_stmt 1 view .LVU306
 219:.././simpleserial/simpleserial.c **** 		err = SS_ERR_CRC;
 1089              	 .loc 1 219 5 is_stmt 0 view .LVU307
 1090 00c4 1AF8FD3C 	 ldrb r3,[r10,#-253]
 1091 00c8 8342     	 cmp r3,r0
 1092 00ca 0DD1     	 bne .L79
 224:.././simpleserial/simpleserial.c **** 
 1093              	 .loc 1 224 2 is_stmt 1 view .LVU308
 224:.././simpleserial/simpleserial.c **** 
 1094              	 .loc 1 224 19 is_stmt 0 view .LVU309
 1095 00cc 0B4B     	 ldr r3,.L85+16
 224:.././simpleserial/simpleserial.c **** 
 1096              	 .loc 1 224 8 view .LVU310
 1097 00ce 9DF80610 	 ldrb r1,[sp,#6]
 1098 00d2 9DF80500 	 ldrb r0,[sp,#5]
 1099              	.LVL104:
 224:.././simpleserial/simpleserial.c **** 
 1100              	 .loc 1 224 19 view .LVU311
 1101 00d6 0C22     	 movs r2,#12
 1102 00d8 02FB0633 	 mla r3,r2,r6,r3
 224:.././simpleserial/simpleserial.c **** 
 1103              	 .loc 1 224 8 view .LVU312
 1104 00dc 9DF80720 	 ldrb r2,[sp,#7]
 1105 00e0 9C68     	 ldr r4,[r3,#8]
 1106              	.LVL105:
 224:.././simpleserial/simpleserial.c **** 
 1107              	 .loc 1 224 8 view .LVU313
 1108 00e2 02AB     	 add r3,sp,#8
 1109 00e4 A047     	 blx r4
 1110              	.LVL106:
 1111 00e6 9AE7     	 b .L69
 1112              	.LVL107:
 1113              	.L79:
 224:.././simpleserial/simpleserial.c **** 
 1114              	 .loc 1 224 8 view .LVU314
 1115 00e8 0220     	 movs r0,#2
 1116              	.LVL108:
 224:.././simpleserial/simpleserial.c **** 
 1117              	 .loc 1 224 8 view .LVU315
 1118 00ea 98E7     	 b .L69
 1119              	.L86:
 1120              	 .align 2
 1121              	.L85:
 1122 00ec 00000000 	 .word getch
 1123 00f0 00000000 	 .word simpleserial_put
 1124 00f4 00000000 	 .word unstuff_data
 1125 00f8 00000000 	 .word num_commands
 1126 00fc 00000000 	 .word commands
 1127 0100 00000000 	 .word ss_crc
 1128              	 .cfi_endproc
 1129              	.LFE9:
 1131              	 .section .bss.commands,"aw",%nobits
 1132              	 .align 2
 1135              	commands:
 1136 0000 00000000 	 .space 384
 1136      00000000 
 1136      00000000 
 1136      00000000 
 1136      00000000 
 1137              	 .section .bss.num_commands,"aw",%nobits
 1138              	 .align 2
 1141              	num_commands:
 1142 0000 00000000 	 .space 4
 1143              	 .text
 1144              	.Letext0:
 1145              	 .file 2 "/usr/lib/gcc/arm-none-eabi/14.2.1/include/stdint.h"
 1146              	 .file 3 ".././simpleserial/simpleserial.h"
 1147              	 .file 4 ".././hal/sam4s/sam4s_hal.h"