   1              		.cpu cortex-m0
   2              		.arch armv6s-m
   3              		.fpu softvfp
   4              		.eabi_attribute 20, 1
   5              		.eabi_attribute 21, 1
   6              		.eabi_attribute 23, 3
   7              		.eabi_attribute 24, 1
   8              		.eabi_attribute 25, 1
   9              		.eabi_attribute 26, 1
  10              		.eabi_attribute 30, 4
  11              		.eabi_attribute 34, 0
  12              		.eabi_attribute 18, 4
  13              		.file	"simpleserial-base.c"
  14              		.text
  15              	.Ltext0:
  16              		.cfi_sections	.debug_frame
  17              		.file 1 "simpleserial-base.c"
  18              		.section	.text.tx_key,"ax",%progbits
  19              		.align	1
  20              		.global	tx_key
  21              		.syntax unified
  22              		.code	16
  23              		.thumb_func
  25              	tx_key:
  26              	.LVL0:
  27              	.LFB4:
   1:simpleserial-base.c **** /*
   2:simpleserial-base.c ****     This file is part of the ChipWhisperer Example Targets
   3:simpleserial-base.c ****     Copyright (C) 2012-2017 NewAE Technology Inc.
   4:simpleserial-base.c **** 
   5:simpleserial-base.c ****     This program is free software: you can redistribute it and/or modify
   6:simpleserial-base.c ****     it under the terms of the GNU General Public License as published by
   7:simpleserial-base.c ****     the Free Software Foundation, either version 3 of the License, or
   8:simpleserial-base.c ****     (at your option) any later version.
   9:simpleserial-base.c **** 
  10:simpleserial-base.c ****     This program is distributed in the hope that it will be useful,
  11:simpleserial-base.c ****     but WITHOUT ANY WARRANTY; without even the implied warranty of
  12:simpleserial-base.c ****     MERCHANTABILITY or FITNESS FOR A PARTICULAR PURPOSE.  See the
  13:simpleserial-base.c ****     GNU General Public License for more details.
  14:simpleserial-base.c **** 
  15:simpleserial-base.c ****     You should have received a copy of the GNU General Public License
  16:simpleserial-base.c ****     along with this program.  If not, see <http://www.gnu.org/licenses/>.
  17:simpleserial-base.c **** */
  18:simpleserial-base.c **** 
  19:simpleserial-base.c **** #include "hal.h"
  20:simpleserial-base.c **** #include <stdint.h>
  21:simpleserial-base.c **** #include <stdlib.h>
  22:simpleserial-base.c **** #include <string.h>
  23:simpleserial-base.c **** 
  24:simpleserial-base.c **** #include "simpleserial.h"
  25:simpleserial-base.c **** 
  26:simpleserial-base.c **** #define SK_LEN 1632
  27:simpleserial-base.c **** #define PK_LEN 800
  28:simpleserial-base.c **** #define SS_LEN 32
  29:simpleserial-base.c **** 
  30:simpleserial-base.c **** uint16_t CHUNK_SZ = 248;  // Tamaño de chunk por defecto (1-249)
  31:simpleserial-base.c **** 
  32:simpleserial-base.c **** static uint8_t sk[SK_LEN] = {0};
  33:simpleserial-base.c **** static uint8_t pk[PK_LEN] = {0};
  34:simpleserial-base.c **** static uint8_t ss[SS_LEN] = {0};
  35:simpleserial-base.c **** 
  36:simpleserial-base.c **** uint8_t get_key(uint8_t* k, uint8_t len)
  37:simpleserial-base.c **** {
  38:simpleserial-base.c **** 	// Load key here
  39:simpleserial-base.c **** 	return 0x00;
  40:simpleserial-base.c **** }
  41:simpleserial-base.c **** 
  42:simpleserial-base.c **** uint8_t get_pt(uint8_t* pt, uint8_t len)
  43:simpleserial-base.c **** {
  44:simpleserial-base.c **** 	/**********************************
  45:simpleserial-base.c **** 	* Start user-specific code here. */
  46:simpleserial-base.c **** 	trigger_high();
  47:simpleserial-base.c **** 
  48:simpleserial-base.c **** 	//16 hex bytes held in 'pt' were sent
  49:simpleserial-base.c **** 	//from the computer. Store your response
  50:simpleserial-base.c **** 	//back into 'pt', which will send 16 bytes
  51:simpleserial-base.c **** 	//back to computer. Can ignore of course if
  52:simpleserial-base.c **** 	//not needed
  53:simpleserial-base.c **** 
  54:simpleserial-base.c **** 	trigger_low();
  55:simpleserial-base.c **** 	/* End user-specific code here. *
  56:simpleserial-base.c **** 	********************************/
  57:simpleserial-base.c **** 	simpleserial_put('r', 16, pt);
  58:simpleserial-base.c **** 	return 0x00;
  59:simpleserial-base.c **** }
  60:simpleserial-base.c **** 
  61:simpleserial-base.c **** uint8_t reset(uint8_t* x, uint8_t len)
  62:simpleserial-base.c **** {
  63:simpleserial-base.c **** 	// Reset key here if needed
  64:simpleserial-base.c **** 	return 0x00;
  65:simpleserial-base.c **** }
  66:simpleserial-base.c **** 
  67:simpleserial-base.c **** uint8_t rx_key(uint8_t cmd, uint8_t scmd, uint8_t len, uint8_t *buf)
  68:simpleserial-base.c **** {
  69:simpleserial-base.c ****     uint16_t offset = scmd * CHUNK_SZ;
  70:simpleserial-base.c ****     // Validar que no sobrepasamos los límites
  71:simpleserial-base.c ****     if (offset >= SK_LEN) return SS_ERR_LEN;
  72:simpleserial-base.c ****     // Limitar la cantidad a copiar al espacio disponible
  73:simpleserial-base.c ****     uint16_t to_copy = (offset + len > SK_LEN) ? SK_LEN - offset : len;
  74:simpleserial-base.c ****     memcpy(sk + offset, buf, to_copy);
  75:simpleserial-base.c ****     // Debug: retornar el primer byte del buffer para verificar
  76:simpleserial-base.c ****     trigger_high();
  77:simpleserial-base.c ****     trigger_low();
  78:simpleserial-base.c ****     return 0x00;
  79:simpleserial-base.c **** }
  80:simpleserial-base.c **** 
  81:simpleserial-base.c **** uint8_t tx_key(uint8_t cmd, uint8_t scmd, uint8_t len, uint8_t *buf)
  82:simpleserial-base.c **** {
  28              		.loc 1 82 1 view -0
  29              		.cfi_startproc
  30              		@ args = 0, pretend = 0, frame = 0
  31              		@ frame_needed = 0, uses_anonymous_args = 0
  83:simpleserial-base.c ****     uint16_t offset = scmd * CHUNK_SZ;
  32              		.loc 1 83 5 view .LVU1
  33              		.loc 1 83 28 is_stmt 0 view .LVU2
  34 0000 0B4B     		ldr	r3, .L5
  35              	.LVL1:
  84:simpleserial-base.c ****     // Validar que el offset está dentro de límites
  85:simpleserial-base.c ****     if (offset >= SK_LEN) return SS_ERR_LEN;
  36              		.loc 1 85 34 discriminator 1 view .LVU3
  37 0002 0420     		movs	r0, #4
  38              	.LVL2:
  83:simpleserial-base.c ****     uint16_t offset = scmd * CHUNK_SZ;
  39              		.loc 1 83 28 view .LVU4
  40 0004 1B88     		ldrh	r3, [r3]
  82:simpleserial-base.c ****     uint16_t offset = scmd * CHUNK_SZ;
  41              		.loc 1 82 1 view .LVU5
  42 0006 10B5     		push	{r4, lr}
  43              	.LCFI0:
  44              		.cfi_def_cfa_offset 8
  45              		.cfi_offset 4, -8
  46              		.cfi_offset 14, -4
  83:simpleserial-base.c ****     uint16_t offset = scmd * CHUNK_SZ;
  47              		.loc 1 83 14 view .LVU6
  48 0008 5943     		muls	r1, r3
  49              	.LVL3:
  83:simpleserial-base.c ****     uint16_t offset = scmd * CHUNK_SZ;
  50              		.loc 1 83 14 view .LVU7
  51 000a 8AB2     		uxth	r2, r1
  52              	.LVL4:
  53              		.loc 1 85 5 is_stmt 1 view .LVU8
  54              		.loc 1 85 8 is_stmt 0 view .LVU9
  55 000c CC21     		movs	r1, #204
  56 000e C900     		lsls	r1, r1, #3
  57 0010 8A42     		cmp	r2, r1
  58 0012 0BD2     		bcs	.L2
  86:simpleserial-base.c ****     // Enviar el chunk de datos (CHUNK_SZ o menos si llegamos al final)
  87:simpleserial-base.c ****     uint16_t to_send = (offset + CHUNK_SZ > SK_LEN) ? SK_LEN - offset : CHUNK_SZ;
  59              		.loc 1 87 5 is_stmt 1 view .LVU10
  60              		.loc 1 87 32 is_stmt 0 view .LVU11
  61 0014 D018     		adds	r0, r2, r3
  62              		.loc 1 87 14 view .LVU12
  63 0016 8842     		cmp	r0, r1
  64 0018 01DD     		ble	.L3
  65              		.loc 1 87 14 discriminator 1 view .LVU13
  66 001a 891A     		subs	r1, r1, r2
  67 001c 8BB2     		uxth	r3, r1
  68              	.L3:
  69              	.LVL5:
  88:simpleserial-base.c ****     simpleserial_put('k', to_send, sk + offset);
  70              		.loc 1 88 5 is_stmt 1 view .LVU14
  71 001e 0549     		ldr	r1, .L5+4
  72 0020 6B20     		movs	r0, #107
  73 0022 5218     		adds	r2, r2, r1
  74              	.LVL6:
  75              		.loc 1 88 5 is_stmt 0 view .LVU15
  76 0024 D9B2     		uxtb	r1, r3
  77 0026 FFF7FEFF 		bl	simpleserial_put
  78              	.LVL7:
  89:simpleserial-base.c ****     return 0x00;
  79              		.loc 1 89 5 is_stmt 1 view .LVU16
  80              		.loc 1 89 12 is_stmt 0 view .LVU17
  81 002a 0020     		movs	r0, #0
  82              	.LVL8:
  83              	.L2:
  90:simpleserial-base.c **** }
  84              		.loc 1 90 1 view .LVU18
  85              		@ sp needed
  86 002c 10BD     		pop	{r4, pc}
  87              	.L6:
  88 002e C046     		.align	2
  89              	.L5:
  90 0030 00000000 		.word	.LANCHOR0
  91 0034 40030000 		.word	sk
  92              		.cfi_endproc
  93              	.LFE4:
  95              		.section	.text.tx_pk,"ax",%progbits
  96              		.align	1
  97              		.global	tx_pk
  98              		.syntax unified
  99              		.code	16
 100              		.thumb_func
 102              	tx_pk:
 103              	.LVL9:
 104              	.LFB6:
  91:simpleserial-base.c **** 
  92:simpleserial-base.c **** uint8_t rx_pk(uint8_t cmd, uint8_t scmd, uint8_t len, uint8_t *buf)
  93:simpleserial-base.c **** {
  94:simpleserial-base.c ****     uint16_t offset = scmd * CHUNK_SZ;
  95:simpleserial-base.c ****     if (offset >= PK_LEN) return SS_ERR_LEN;
  96:simpleserial-base.c ****     uint16_t to_copy = (offset + len > PK_LEN) ? PK_LEN - offset : len;
  97:simpleserial-base.c ****     memcpy(pk + offset, buf, to_copy);
  98:simpleserial-base.c ****     return 0x00;
  99:simpleserial-base.c **** }
 100:simpleserial-base.c **** 
 101:simpleserial-base.c **** uint8_t tx_pk(uint8_t cmd, uint8_t scmd, uint8_t len, uint8_t *buf)
 102:simpleserial-base.c **** {
 105              		.loc 1 102 1 is_stmt 1 view -0
 106              		.cfi_startproc
 107              		@ args = 0, pretend = 0, frame = 0
 108              		@ frame_needed = 0, uses_anonymous_args = 0
 103:simpleserial-base.c ****     uint16_t offset = scmd * CHUNK_SZ;
 109              		.loc 1 103 5 view .LVU20
 110              		.loc 1 103 28 is_stmt 0 view .LVU21
 111 0000 0B4B     		ldr	r3, .L11
 112              	.LVL10:
 104:simpleserial-base.c ****     if (offset >= PK_LEN) return SS_ERR_LEN;
 113              		.loc 1 104 34 discriminator 1 view .LVU22
 114 0002 0420     		movs	r0, #4
 115              	.LVL11:
 103:simpleserial-base.c ****     uint16_t offset = scmd * CHUNK_SZ;
 116              		.loc 1 103 28 view .LVU23
 117 0004 1B88     		ldrh	r3, [r3]
 102:simpleserial-base.c ****     uint16_t offset = scmd * CHUNK_SZ;
 118              		.loc 1 102 1 view .LVU24
 119 0006 10B5     		push	{r4, lr}
 120              	.LCFI1:
 121              		.cfi_def_cfa_offset 8
 122              		.cfi_offset 4, -8
 123              		.cfi_offset 14, -4
 103:simpleserial-base.c ****     uint16_t offset = scmd * CHUNK_SZ;
 124              		.loc 1 103 14 view .LVU25
 125 0008 5943     		muls	r1, r3
 126              	.LVL12:
 103:simpleserial-base.c ****     uint16_t offset = scmd * CHUNK_SZ;
 127              		.loc 1 103 14 view .LVU26
 128 000a 8AB2     		uxth	r2, r1
 129              	.LVL13:
 130              		.loc 1 104 5 is_stmt 1 view .LVU27
 131              		.loc 1 104 8 is_stmt 0 view .LVU28
 132 000c C821     		movs	r1, #200
 133 000e 8900     		lsls	r1, r1, #2
 134 0010 8A42     		cmp	r2, r1
 135 0012 0BD2     		bcs	.L8
 105:simpleserial-base.c ****     uint16_t to_send = (offset + CHUNK_SZ > PK_LEN) ? PK_LEN - offset : CHUNK_SZ;
 136              		.loc 1 105 5 is_stmt 1 view .LVU29
 137              		.loc 1 105 32 is_stmt 0 view .LVU30
 138 0014 D018     		adds	r0, r2, r3
 139              		.loc 1 105 14 view .LVU31
 140 0016 8842     		cmp	r0, r1
 141 0018 01DD     		ble	.L9
 142              		.loc 1 105 14 discriminator 1 view .LVU32
 143 001a 891A     		subs	r1, r1, r2
 144 001c 8BB2     		uxth	r3, r1
 145              	.L9:
 146              	.LVL14:
 106:simpleserial-base.c ****     simpleserial_put('p', to_send, pk + offset);
 147              		.loc 1 106 5 is_stmt 1 view .LVU33
 148 001e 0549     		ldr	r1, .L11+4
 149 0020 7020     		movs	r0, #112
 150 0022 5218     		adds	r2, r2, r1
 151              	.LVL15:
 152              		.loc 1 106 5 is_stmt 0 view .LVU34
 153 0024 D9B2     		uxtb	r1, r3
 154 0026 FFF7FEFF 		bl	simpleserial_put
 155              	.LVL16:
 107:simpleserial-base.c ****     return 0x00;
 156              		.loc 1 107 5 is_stmt 1 view .LVU35
 157              		.loc 1 107 12 is_stmt 0 view .LVU36
 158 002a 0020     		movs	r0, #0
 159              	.LVL17:
 160              	.L8:
 108:simpleserial-base.c **** }
 161              		.loc 1 108 1 view .LVU37
 162              		@ sp needed
 163 002c 10BD     		pop	{r4, pc}
 164              	.L12:
 165 002e C046     		.align	2
 166              	.L11:
 167 0030 00000000 		.word	.LANCHOR0
 168 0034 20000000 		.word	pk
 169              		.cfi_endproc
 170              	.LFE6:
 172              		.section	.text.tx_ss,"ax",%progbits
 173              		.align	1
 174              		.global	tx_ss
 175              		.syntax unified
 176              		.code	16
 177              		.thumb_func
 179              	tx_ss:
 180              	.LVL18:
 181              	.LFB8:
 109:simpleserial-base.c **** 
 110:simpleserial-base.c **** uint8_t rx_ss(uint8_t cmd, uint8_t scmd, uint8_t len, uint8_t *buf)
 111:simpleserial-base.c **** {
 112:simpleserial-base.c ****     uint16_t offset = scmd * CHUNK_SZ;
 113:simpleserial-base.c ****     if (offset >= SS_LEN) return SS_ERR_LEN;
 114:simpleserial-base.c ****     uint16_t to_copy = (offset + len > SS_LEN) ? SS_LEN - offset : len;
 115:simpleserial-base.c ****     memcpy(ss + offset, buf, to_copy);
 116:simpleserial-base.c ****     return 0x00;
 117:simpleserial-base.c **** }
 118:simpleserial-base.c **** 
 119:simpleserial-base.c **** uint8_t tx_ss(uint8_t cmd, uint8_t scmd, uint8_t len, uint8_t *buf)
 120:simpleserial-base.c **** {
 182              		.loc 1 120 1 is_stmt 1 view -0
 183              		.cfi_startproc
 184              		@ args = 0, pretend = 0, frame = 0
 185              		@ frame_needed = 0, uses_anonymous_args = 0
 121:simpleserial-base.c ****     uint16_t offset = scmd * CHUNK_SZ;
 186              		.loc 1 121 5 view .LVU39
 187              		.loc 1 121 28 is_stmt 0 view .LVU40
 188 0000 0A4B     		ldr	r3, .L17
 189              	.LVL19:
 122:simpleserial-base.c ****     if (offset >= SS_LEN) return SS_ERR_LEN;
 190              		.loc 1 122 34 discriminator 1 view .LVU41
 191 0002 0420     		movs	r0, #4
 192              	.LVL20:
 121:simpleserial-base.c ****     uint16_t offset = scmd * CHUNK_SZ;
 193              		.loc 1 121 28 view .LVU42
 194 0004 1B88     		ldrh	r3, [r3]
 120:simpleserial-base.c ****     uint16_t offset = scmd * CHUNK_SZ;
 195              		.loc 1 120 1 view .LVU43
 196 0006 10B5     		push	{r4, lr}
 197              	.LCFI2:
 198              		.cfi_def_cfa_offset 8
 199              		.cfi_offset 4, -8
 200              		.cfi_offset 14, -4
 121:simpleserial-base.c ****     uint16_t offset = scmd * CHUNK_SZ;
 201              		.loc 1 121 14 view .LVU44
 202 0008 5943     		muls	r1, r3
 203              	.LVL21:
 121:simpleserial-base.c ****     uint16_t offset = scmd * CHUNK_SZ;
 204              		.loc 1 121 14 view .LVU45
 205 000a 89B2     		uxth	r1, r1
 206              	.LVL22:
 207              		.loc 1 122 5 is_stmt 1 view .LVU46
 208              		.loc 1 122 8 is_stmt 0 view .LVU47
 209 000c 1F29     		cmp	r1, #31
 210 000e 0CD8     		bhi	.L14
 123:simpleserial-base.c ****     uint16_t to_send = (offset + CHUNK_SZ > SS_LEN) ? SS_LEN - offset : CHUNK_SZ;
 211              		.loc 1 123 5 is_stmt 1 view .LVU48
 212              		.loc 1 123 32 is_stmt 0 view .LVU49
 213 0010 CA18     		adds	r2, r1, r3
 214              	.LVL23:
 215              		.loc 1 123 14 view .LVU50
 216 0012 202A     		cmp	r2, #32
 217 0014 02DD     		ble	.L15
 218              		.loc 1 123 14 discriminator 1 view .LVU51
 219 0016 2023     		movs	r3, #32
 220 0018 5B1A     		subs	r3, r3, r1
 221 001a 9BB2     		uxth	r3, r3
 222              	.L15:
 223              	.LVL24:
 124:simpleserial-base.c ****     simpleserial_put('s', to_send, ss + offset);
 224              		.loc 1 124 5 is_stmt 1 view .LVU52
 225 001c 044A     		ldr	r2, .L17+4
 226 001e 7320     		movs	r0, #115
 227 0020 5218     		adds	r2, r2, r1
 228 0022 D9B2     		uxtb	r1, r3
 229              	.LVL25:
 230              		.loc 1 124 5 is_stmt 0 view .LVU53
 231 0024 FFF7FEFF 		bl	simpleserial_put
 232              	.LVL26:
 125:simpleserial-base.c ****     return 0x00;
 233              		.loc 1 125 5 is_stmt 1 view .LVU54
 234              		.loc 1 125 12 is_stmt 0 view .LVU55
 235 0028 0020     		movs	r0, #0
 236              	.LVL27:
 237              	.L14:
 126:simpleserial-base.c **** }
 238              		.loc 1 126 1 view .LVU56
 239              		@ sp needed
 240 002a 10BD     		pop	{r4, pc}
 241              	.L18:
 242              		.align	2
 243              	.L17:
 244 002c 00000000 		.word	.LANCHOR0
 245 0030 00000000 		.word	.LANCHOR1
 246              		.cfi_endproc
 247              	.LFE8:
 249              		.section	.text.rx_key,"ax",%progbits
 250              		.align	1
 251              		.global	rx_key
 252              		.syntax unified
 253              		.code	16
 254              		.thumb_func
 256              	rx_key:
 257              	.LVL28:
 258              	.LFB3:
  68:simpleserial-base.c ****     uint16_t offset = scmd * CHUNK_SZ;
 259              		.loc 1 68 1 is_stmt 1 view -0
 260              		.cfi_startproc
 261              		@ args = 0, pretend = 0, frame = 0
 262              		@ frame_needed = 0, uses_anonymous_args = 0
  69:simpleserial-base.c ****     // Validar que no sobrepasamos los límites
 263              		.loc 1 69 5 view .LVU58
  68:simpleserial-base.c ****     uint16_t offset = scmd * CHUNK_SZ;
 264              		.loc 1 68 1 is_stmt 0 view .LVU59
 265 0000 70B5     		push	{r4, r5, r6, lr}
 266              	.LCFI3:
 267              		.cfi_def_cfa_offset 16
 268              		.cfi_offset 4, -16
 269              		.cfi_offset 5, -12
 270              		.cfi_offset 6, -8
 271              		.cfi_offset 14, -4
  71:simpleserial-base.c ****     // Limitar la cantidad a copiar al espacio disponible
 272              		.loc 1 71 8 view .LVU60
 273 0002 CC25     		movs	r5, #204
  69:simpleserial-base.c ****     // Validar que no sobrepasamos los límites
 274              		.loc 1 69 28 view .LVU61
 275 0004 0B48     		ldr	r0, .L24
 276              	.LVL29:
  71:simpleserial-base.c ****     // Limitar la cantidad a copiar al espacio disponible
 277              		.loc 1 71 8 view .LVU62
 278 0006 ED00     		lsls	r5, r5, #3
  69:simpleserial-base.c ****     // Validar que no sobrepasamos los límites
 279              		.loc 1 69 14 view .LVU63
 280 0008 0488     		ldrh	r4, [r0]
  71:simpleserial-base.c ****     // Limitar la cantidad a copiar al espacio disponible
 281              		.loc 1 71 34 discriminator 1 view .LVU64
 282 000a 0420     		movs	r0, #4
  69:simpleserial-base.c ****     // Validar que no sobrepasamos los límites
 283              		.loc 1 69 14 view .LVU65
 284 000c 4C43     		muls	r4, r1
 285 000e A4B2     		uxth	r4, r4
 286              	.LVL30:
  71:simpleserial-base.c ****     // Limitar la cantidad a copiar al espacio disponible
 287              		.loc 1 71 5 is_stmt 1 view .LVU66
  71:simpleserial-base.c ****     // Limitar la cantidad a copiar al espacio disponible
 288              		.loc 1 71 8 is_stmt 0 view .LVU67
 289 0010 AC42     		cmp	r4, r5
 290 0012 0ED2     		bcs	.L20
  73:simpleserial-base.c ****     memcpy(sk + offset, buf, to_copy);
 291              		.loc 1 73 5 is_stmt 1 view .LVU68
  73:simpleserial-base.c ****     memcpy(sk + offset, buf, to_copy);
 292              		.loc 1 73 32 is_stmt 0 view .LVU69
 293 0014 A118     		adds	r1, r4, r2
 294              	.LVL31:
  73:simpleserial-base.c ****     memcpy(sk + offset, buf, to_copy);
 295              		.loc 1 73 14 view .LVU70
 296 0016 A942     		cmp	r1, r5
 297 0018 01DD     		ble	.L22
  73:simpleserial-base.c ****     memcpy(sk + offset, buf, to_copy);
 298              		.loc 1 73 14 discriminator 1 view .LVU71
 299 001a 2D1B     		subs	r5, r5, r4
 300 001c AAB2     		uxth	r2, r5
 301              	.LVL32:
 302              	.L22:
  74:simpleserial-base.c ****     // Debug: retornar el primer byte del buffer para verificar
 303              		.loc 1 74 5 is_stmt 1 view .LVU72
 304 001e 0648     		ldr	r0, .L24+4
 305 0020 1900     		movs	r1, r3
 306 0022 2018     		adds	r0, r4, r0
 307 0024 FFF7FEFF 		bl	memcpy
 308              	.LVL33:
  76:simpleserial-base.c ****     trigger_low();
 309              		.loc 1 76 5 view .LVU73
 310 0028 FFF7FEFF 		bl	trigger_high
 311              	.LVL34:
  77:simpleserial-base.c ****     return 0x00;
 312              		.loc 1 77 5 view .LVU74
 313 002c FFF7FEFF 		bl	trigger_low
 314              	.LVL35:
  78:simpleserial-base.c **** }
 315              		.loc 1 78 5 view .LVU75
  78:simpleserial-base.c **** }
 316              		.loc 1 78 12 is_stmt 0 view .LVU76
 317 0030 0020     		movs	r0, #0
 318              	.LVL36:
 319              	.L20:
  79:simpleserial-base.c **** 
 320              		.loc 1 79 1 view .LVU77
 321              		@ sp needed
 322              	.LVL37:
  79:simpleserial-base.c **** 
 323              		.loc 1 79 1 view .LVU78
 324 0032 70BD     		pop	{r4, r5, r6, pc}
 325              	.L25:
 326              		.align	2
 327              	.L24:
 328 0034 00000000 		.word	.LANCHOR0
 329 0038 40030000 		.word	sk
 330              		.cfi_endproc
 331              	.LFE3:
 333              		.section	.text.rx_pk,"ax",%progbits
 334              		.align	1
 335              		.global	rx_pk
 336              		.syntax unified
 337              		.code	16
 338              		.thumb_func
 340              	rx_pk:
 341              	.LVL38:
 342              	.LFB5:
  93:simpleserial-base.c ****     uint16_t offset = scmd * CHUNK_SZ;
 343              		.loc 1 93 1 is_stmt 1 view -0
 344              		.cfi_startproc
 345              		@ args = 0, pretend = 0, frame = 0
 346              		@ frame_needed = 0, uses_anonymous_args = 0
  94:simpleserial-base.c ****     if (offset >= PK_LEN) return SS_ERR_LEN;
 347              		.loc 1 94 5 view .LVU80
  93:simpleserial-base.c ****     uint16_t offset = scmd * CHUNK_SZ;
 348              		.loc 1 93 1 is_stmt 0 view .LVU81
 349 0000 70B5     		push	{r4, r5, r6, lr}
 350              	.LCFI4:
 351              		.cfi_def_cfa_offset 16
 352              		.cfi_offset 4, -16
 353              		.cfi_offset 5, -12
 354              		.cfi_offset 6, -8
 355              		.cfi_offset 14, -4
  95:simpleserial-base.c ****     uint16_t to_copy = (offset + len > PK_LEN) ? PK_LEN - offset : len;
 356              		.loc 1 95 8 view .LVU82
 357 0002 C825     		movs	r5, #200
  94:simpleserial-base.c ****     if (offset >= PK_LEN) return SS_ERR_LEN;
 358              		.loc 1 94 28 view .LVU83
 359 0004 0948     		ldr	r0, .L31
 360              	.LVL39:
  95:simpleserial-base.c ****     uint16_t to_copy = (offset + len > PK_LEN) ? PK_LEN - offset : len;
 361              		.loc 1 95 8 view .LVU84
 362 0006 AD00     		lsls	r5, r5, #2
  94:simpleserial-base.c ****     if (offset >= PK_LEN) return SS_ERR_LEN;
 363              		.loc 1 94 14 view .LVU85
 364 0008 0488     		ldrh	r4, [r0]
  95:simpleserial-base.c ****     uint16_t to_copy = (offset + len > PK_LEN) ? PK_LEN - offset : len;
 365              		.loc 1 95 34 discriminator 1 view .LVU86
 366 000a 0420     		movs	r0, #4
  94:simpleserial-base.c ****     if (offset >= PK_LEN) return SS_ERR_LEN;
 367              		.loc 1 94 14 view .LVU87
 368 000c 4C43     		muls	r4, r1
 369 000e A4B2     		uxth	r4, r4
 370              	.LVL40:
  95:simpleserial-base.c ****     uint16_t to_copy = (offset + len > PK_LEN) ? PK_LEN - offset : len;
 371              		.loc 1 95 5 is_stmt 1 view .LVU88
  95:simpleserial-base.c ****     uint16_t to_copy = (offset + len > PK_LEN) ? PK_LEN - offset : len;
 372              		.loc 1 95 8 is_stmt 0 view .LVU89
 373 0010 AC42     		cmp	r4, r5
 374 0012 0AD2     		bcs	.L27
  96:simpleserial-base.c ****     memcpy(pk + offset, buf, to_copy);
 375              		.loc 1 96 5 is_stmt 1 view .LVU90
  96:simpleserial-base.c ****     memcpy(pk + offset, buf, to_copy);
 376              		.loc 1 96 32 is_stmt 0 view .LVU91
 377 0014 A118     		adds	r1, r4, r2
 378              	.LVL41:
  96:simpleserial-base.c ****     memcpy(pk + offset, buf, to_copy);
 379              		.loc 1 96 14 view .LVU92
 380 0016 A942     		cmp	r1, r5
 381 0018 01DD     		ble	.L29
  96:simpleserial-base.c ****     memcpy(pk + offset, buf, to_copy);
 382              		.loc 1 96 14 discriminator 1 view .LVU93
 383 001a 2D1B     		subs	r5, r5, r4
 384 001c AAB2     		uxth	r2, r5
 385              	.LVL42:
 386              	.L29:
  97:simpleserial-base.c ****     return 0x00;
 387              		.loc 1 97 5 is_stmt 1 view .LVU94
 388 001e 0448     		ldr	r0, .L31+4
 389 0020 1900     		movs	r1, r3
 390 0022 2018     		adds	r0, r4, r0
 391 0024 FFF7FEFF 		bl	memcpy
 392              	.LVL43:
  98:simpleserial-base.c **** }
 393              		.loc 1 98 5 view .LVU95
  98:simpleserial-base.c **** }
 394              		.loc 1 98 12 is_stmt 0 view .LVU96
 395 0028 0020     		movs	r0, #0
 396              	.LVL44:
 397              	.L27:
  99:simpleserial-base.c **** 
 398              		.loc 1 99 1 view .LVU97
 399              		@ sp needed
 400              	.LVL45:
  99:simpleserial-base.c **** 
 401              		.loc 1 99 1 view .LVU98
 402 002a 70BD     		pop	{r4, r5, r6, pc}
 403              	.L32:
 404              		.align	2
 405              	.L31:
 406 002c 00000000 		.word	.LANCHOR0
 407 0030 20000000 		.word	pk
 408              		.cfi_endproc
 409              	.LFE5:
 411              		.section	.text.rx_ss,"ax",%progbits
 412              		.align	1
 413              		.global	rx_ss
 414              		.syntax unified
 415              		.code	16
 416              		.thumb_func
 418              	rx_ss:
 419              	.LVL46:
 420              	.LFB7:
 111:simpleserial-base.c ****     uint16_t offset = scmd * CHUNK_SZ;
 421              		.loc 1 111 1 is_stmt 1 view -0
 422              		.cfi_startproc
 423              		@ args = 0, pretend = 0, frame = 0
 424              		@ frame_needed = 0, uses_anonymous_args = 0
 112:simpleserial-base.c ****     if (offset >= SS_LEN) return SS_ERR_LEN;
 425              		.loc 1 112 5 view .LVU100
 112:simpleserial-base.c ****     if (offset >= SS_LEN) return SS_ERR_LEN;
 426              		.loc 1 112 28 is_stmt 0 view .LVU101
 427 0000 0A48     		ldr	r0, .L38
 428              	.LVL47:
 111:simpleserial-base.c ****     uint16_t offset = scmd * CHUNK_SZ;
 429              		.loc 1 111 1 view .LVU102
 430 0002 10B5     		push	{r4, lr}
 431              	.LCFI5:
 432              		.cfi_def_cfa_offset 8
 433              		.cfi_offset 4, -8
 434              		.cfi_offset 14, -4
 112:simpleserial-base.c ****     if (offset >= SS_LEN) return SS_ERR_LEN;
 435              		.loc 1 112 14 view .LVU103
 436 0004 0488     		ldrh	r4, [r0]
 113:simpleserial-base.c ****     uint16_t to_copy = (offset + len > SS_LEN) ? SS_LEN - offset : len;
 437              		.loc 1 113 34 discriminator 1 view .LVU104
 438 0006 0420     		movs	r0, #4
 112:simpleserial-base.c ****     if (offset >= SS_LEN) return SS_ERR_LEN;
 439              		.loc 1 112 14 view .LVU105
 440 0008 4C43     		muls	r4, r1
 441 000a A4B2     		uxth	r4, r4
 442              	.LVL48:
 113:simpleserial-base.c ****     uint16_t to_copy = (offset + len > SS_LEN) ? SS_LEN - offset : len;
 443              		.loc 1 113 5 is_stmt 1 view .LVU106
 113:simpleserial-base.c ****     uint16_t to_copy = (offset + len > SS_LEN) ? SS_LEN - offset : len;
 444              		.loc 1 113 8 is_stmt 0 view .LVU107
 445 000c 1F2C     		cmp	r4, #31
 446 000e 0BD8     		bhi	.L34
 114:simpleserial-base.c ****     memcpy(ss + offset, buf, to_copy);
 447              		.loc 1 114 5 is_stmt 1 view .LVU108
 114:simpleserial-base.c ****     memcpy(ss + offset, buf, to_copy);
 448              		.loc 1 114 32 is_stmt 0 view .LVU109
 449 0010 A118     		adds	r1, r4, r2
 450              	.LVL49:
 114:simpleserial-base.c ****     memcpy(ss + offset, buf, to_copy);
 451              		.loc 1 114 14 view .LVU110
 452 0012 2029     		cmp	r1, #32
 453 0014 02DD     		ble	.L36
 114:simpleserial-base.c ****     memcpy(ss + offset, buf, to_copy);
 454              		.loc 1 114 14 discriminator 1 view .LVU111
 455 0016 2022     		movs	r2, #32
 456              	.LVL50:
 114:simpleserial-base.c ****     memcpy(ss + offset, buf, to_copy);
 457              		.loc 1 114 14 discriminator 1 view .LVU112
 458 0018 121B     		subs	r2, r2, r4
 459 001a 92B2     		uxth	r2, r2
 460              	.L36:
 461              	.LVL51:
 115:simpleserial-base.c ****     return 0x00;
 462              		.loc 1 115 5 is_stmt 1 view .LVU113
 463 001c 0448     		ldr	r0, .L38+4
 464 001e 1900     		movs	r1, r3
 465 0020 0019     		adds	r0, r0, r4
 466 0022 FFF7FEFF 		bl	memcpy
 467              	.LVL52:
 116:simpleserial-base.c **** }
 468              		.loc 1 116 5 view .LVU114
 116:simpleserial-base.c **** }
 469              		.loc 1 116 12 is_stmt 0 view .LVU115
 470 0026 0020     		movs	r0, #0
 471              	.LVL53:
 472              	.L34:
 117:simpleserial-base.c **** 
 473              		.loc 1 117 1 view .LVU116
 474              		@ sp needed
 475              	.LVL54:
 117:simpleserial-base.c **** 
 476              		.loc 1 117 1 view .LVU117
 477 0028 10BD     		pop	{r4, pc}
 478              	.L39:
 479 002a C046     		.align	2
 480              	.L38:
 481 002c 00000000 		.word	.LANCHOR0
 482 0030 00000000 		.word	.LANCHOR1
 483              		.cfi_endproc
 484              	.LFE7:
 486              		.section	.text.set_chunk_size,"ax",%progbits
 487              		.align	1
 488              		.global	set_chunk_size
 489              		.syntax unified
 490              		.code	16
 491              		.thumb_func
 493              	set_chunk_size:
 494              	.LVL55:
 495              	.LFB9:
 127:simpleserial-base.c **** 
 128:simpleserial-base.c **** uint8_t set_chunk_size(uint8_t cmd, uint8_t scmd, uint8_t len, uint8_t *buf)
 129:simpleserial-base.c **** {
 496              		.loc 1 129 1 is_stmt 1 view -0
 497              		.cfi_startproc
 498              		@ args = 0, pretend = 0, frame = 0
 499              		@ frame_needed = 0, uses_anonymous_args = 0
 500              		@ link register save eliminated.
 130:simpleserial-base.c **** 	if (len != 2) return SS_ERR_LEN;  // Esperamos exactamente 2 bytes (uint16_t)
 501              		.loc 1 130 2 view .LVU119
 502              		.loc 1 130 23 is_stmt 0 discriminator 1 view .LVU120
 503 0000 0420     		movs	r0, #4
 504              	.LVL56:
 505              		.loc 1 130 5 view .LVU121
 506 0002 022A     		cmp	r2, #2
 507 0004 09D1     		bne	.L41
 508              	.LVL57:
 509              	.LBB6:
 510              	.LBI6:
 128:simpleserial-base.c **** {
 511              		.loc 1 128 9 is_stmt 1 view .LVU122
 512              	.LBB7:
 131:simpleserial-base.c **** 	uint16_t new_size = buf[0] | (buf[1] << 8);
 513              		.loc 1 131 2 view .LVU123
 514 0006 1A78     		ldrb	r2, [r3]
 515              	.LVL58:
 516              		.loc 1 131 2 is_stmt 0 view .LVU124
 517 0008 5B78     		ldrb	r3, [r3, #1]
 518              	.LVL59:
 519              		.loc 1 131 2 view .LVU125
 520 000a 1B02     		lsls	r3, r3, #8
 521 000c 1343     		orrs	r3, r2
 522              	.LVL60:
 132:simpleserial-base.c **** 	if (new_size < 1 || new_size > 249) return SS_ERR_LEN;  // Límite de SimpleSerial v2.1
 523              		.loc 1 132 2 is_stmt 1 view .LVU126
 524              		.loc 1 132 5 is_stmt 0 view .LVU127
 525 000e 5A1E     		subs	r2, r3, #1
 526 0010 F82A     		cmp	r2, #248
 527 0012 02D8     		bhi	.L41
 133:simpleserial-base.c **** 	CHUNK_SZ = new_size;
 528              		.loc 1 133 2 is_stmt 1 view .LVU128
 134:simpleserial-base.c **** 	return 0x00;
 529              		.loc 1 134 9 is_stmt 0 view .LVU129
 530 0014 0020     		movs	r0, #0
 133:simpleserial-base.c **** 	CHUNK_SZ = new_size;
 531              		.loc 1 133 11 view .LVU130
 532 0016 014A     		ldr	r2, .L44
 533 0018 1380     		strh	r3, [r2]
 534              		.loc 1 134 2 is_stmt 1 view .LVU131
 535              	.LVL61:
 536              	.L41:
 537              		.loc 1 134 2 is_stmt 0 view .LVU132
 538              	.LBE7:
 539              	.LBE6:
 135:simpleserial-base.c **** }
 540              		.loc 1 135 1 view .LVU133
 541              		@ sp needed
 542 001a 7047     		bx	lr
 543              	.L45:
 544              		.align	2
 545              	.L44:
 546 001c 00000000 		.word	.LANCHOR0
 547              		.cfi_endproc
 548              	.LFE9:
 550              		.section	.text.get_key,"ax",%progbits
 551              		.align	1
 552              		.global	get_key
 553              		.syntax unified
 554              		.code	16
 555              		.thumb_func
 557              	get_key:
 558              	.LVL62:
 559              	.LFB0:
  37:simpleserial-base.c **** 	// Load key here
 560              		.loc 1 37 1 is_stmt 1 view -0
 561              		.cfi_startproc
 562              		@ args = 0, pretend = 0, frame = 0
 563              		@ frame_needed = 0, uses_anonymous_args = 0
 564              		@ link register save eliminated.
  39:simpleserial-base.c **** }
 565              		.loc 1 39 2 view .LVU135
  40:simpleserial-base.c **** 
 566              		.loc 1 40 1 is_stmt 0 view .LVU136
 567 0000 0020     		movs	r0, #0
 568              	.LVL63:
  40:simpleserial-base.c **** 
 569              		.loc 1 40 1 view .LVU137
 570              		@ sp needed
 571 0002 7047     		bx	lr
 572              		.cfi_endproc
 573              	.LFE0:
 575              		.section	.text.get_pt,"ax",%progbits
 576              		.align	1
 577              		.global	get_pt
 578              		.syntax unified
 579              		.code	16
 580              		.thumb_func
 582              	get_pt:
 583              	.LVL64:
 584              	.LFB1:
  43:simpleserial-base.c **** 	/**********************************
 585              		.loc 1 43 1 is_stmt 1 view -0
 586              		.cfi_startproc
 587              		@ args = 0, pretend = 0, frame = 0
 588              		@ frame_needed = 0, uses_anonymous_args = 0
  46:simpleserial-base.c **** 
 589              		.loc 1 46 2 view .LVU139
  43:simpleserial-base.c **** 	/**********************************
 590              		.loc 1 43 1 is_stmt 0 view .LVU140
 591 0000 10B5     		push	{r4, lr}
 592              	.LCFI6:
 593              		.cfi_def_cfa_offset 8
 594              		.cfi_offset 4, -8
 595              		.cfi_offset 14, -4
  43:simpleserial-base.c **** 	/**********************************
 596              		.loc 1 43 1 view .LVU141
 597 0002 0400     		movs	r4, r0
  59:simpleserial-base.c **** 
 598              		.loc 1 59 1 view .LVU142
 599              		@ sp needed
  46:simpleserial-base.c **** 
 600              		.loc 1 46 2 view .LVU143
 601 0004 FFF7FEFF 		bl	trigger_high
 602              	.LVL65:
  54:simpleserial-base.c **** 	/* End user-specific code here. *
 603              		.loc 1 54 2 is_stmt 1 view .LVU144
 604 0008 FFF7FEFF 		bl	trigger_low
 605              	.LVL66:
  57:simpleserial-base.c **** 	return 0x00;
 606              		.loc 1 57 2 view .LVU145
 607 000c 2200     		movs	r2, r4
 608 000e 1021     		movs	r1, #16
 609 0010 7220     		movs	r0, #114
 610 0012 FFF7FEFF 		bl	simpleserial_put
 611              	.LVL67:
  58:simpleserial-base.c **** }
 612              		.loc 1 58 2 view .LVU146
  59:simpleserial-base.c **** 
 613              		.loc 1 59 1 is_stmt 0 view .LVU147
 614 0016 0020     		movs	r0, #0
 615              	.LVL68:
  59:simpleserial-base.c **** 
 616              		.loc 1 59 1 view .LVU148
 617 0018 10BD     		pop	{r4, pc}
 618              		.cfi_endproc
 619              	.LFE1:
 621              		.section	.text.aes,"ax",%progbits
 622              		.align	1
 623              		.global	aes
 624              		.syntax unified
 625              		.code	16
 626              		.thumb_func
 628              	aes:
 629              	.LVL69:
 630              	.LFB10:
 136:simpleserial-base.c **** 
 137:simpleserial-base.c **** #if SS_VER == SS_VER_2_1
 138:simpleserial-base.c **** uint8_t aes(uint8_t cmd, uint8_t scmd, uint8_t len, uint8_t *buf)
 139:simpleserial-base.c **** {
 631              		.loc 1 139 1 is_stmt 1 view -0
 632              		.cfi_startproc
 633              		@ args = 0, pretend = 0, frame = 0
 634              		@ frame_needed = 0, uses_anonymous_args = 0
 140:simpleserial-base.c ****     uint8_t req_len = 0;
 635              		.loc 1 140 5 view .LVU150
 141:simpleserial-base.c ****     uint8_t err = 0;
 636              		.loc 1 141 5 view .LVU151
 142:simpleserial-base.c **** 
 143:simpleserial-base.c ****     if (scmd & 0x02) {
 637              		.loc 1 143 5 view .LVU152
 139:simpleserial-base.c ****     uint8_t req_len = 0;
 638              		.loc 1 139 1 is_stmt 0 view .LVU153
 639 0000 70B5     		push	{r4, r5, r6, lr}
 640              	.LCFI7:
 641              		.cfi_def_cfa_offset 16
 642              		.cfi_offset 4, -16
 643              		.cfi_offset 5, -12
 644              		.cfi_offset 6, -8
 645              		.cfi_offset 14, -4
 139:simpleserial-base.c ****     uint8_t req_len = 0;
 646              		.loc 1 139 1 view .LVU154
 647 0002 1500     		movs	r5, r2
 648 0004 0C00     		movs	r4, r1
 649 0006 0222     		movs	r2, #2
 650              	.LVL70:
 139:simpleserial-base.c ****     uint8_t req_len = 0;
 651              		.loc 1 139 1 view .LVU155
 652 0008 1440     		ands	r4, r2
 653              		.loc 1 143 8 view .LVU156
 654 000a 1142     		tst	r1, r2
 655 000c 03D0     		beq	.L49
 144:simpleserial-base.c ****         req_len += 16;
 656              		.loc 1 144 9 is_stmt 1 view .LVU157
 657              	.LVL71:
 145:simpleserial-base.c ****         if (req_len > len) {
 658              		.loc 1 145 9 view .LVU158
 146:simpleserial-base.c ****             return SS_ERR_LEN;
 659              		.loc 1 146 20 is_stmt 0 view .LVU159
 660 000e 0420     		movs	r0, #4
 661              	.LVL72:
 145:simpleserial-base.c ****         if (req_len > len) {
 662              		.loc 1 145 12 view .LVU160
 663 0010 0F2D     		cmp	r5, #15
 664 0012 13D9     		bls	.L50
 144:simpleserial-base.c ****         req_len += 16;
 665              		.loc 1 144 17 view .LVU161
 666 0014 1024     		movs	r4, #16
 667              	.LVL73:
 668              	.L49:
 147:simpleserial-base.c ****         }
 148:simpleserial-base.c ****         err = get_key(buf + req_len - 16, 16);
 149:simpleserial-base.c ****         if (err)
 150:simpleserial-base.c ****             return err;
 151:simpleserial-base.c ****     }
 152:simpleserial-base.c ****     if (scmd & 0x01) {
 669              		.loc 1 152 5 is_stmt 1 view .LVU162
 670              		.loc 1 152 8 is_stmt 0 view .LVU163
 671 0016 C907     		lsls	r1, r1, #31
 672 0018 0CD5     		bpl	.L51
 673              	.LVL74:
 153:simpleserial-base.c ****         req_len += 16;
 674              		.loc 1 153 9 is_stmt 1 view .LVU164
 675              		.loc 1 153 17 is_stmt 0 view .LVU165
 676 001a 1034     		adds	r4, r4, #16
 677              	.LVL75:
 678              		.loc 1 153 17 view .LVU166
 679 001c E4B2     		uxtb	r4, r4
 680              	.LVL76:
 154:simpleserial-base.c ****         if (req_len > len) {
 681              		.loc 1 154 9 is_stmt 1 view .LVU167
 146:simpleserial-base.c ****         }
 682              		.loc 1 146 20 is_stmt 0 view .LVU168
 683 001e 0420     		movs	r0, #4
 684              		.loc 1 154 12 view .LVU169
 685 0020 A542     		cmp	r5, r4
 686 0022 0BD3     		bcc	.L50
 155:simpleserial-base.c ****             return SS_ERR_LEN;
 156:simpleserial-base.c ****         }
 157:simpleserial-base.c ****         err = get_pt(buf + req_len - 16, 16);
 687              		.loc 1 157 9 is_stmt 1 view .LVU170
 688              		.loc 1 157 36 is_stmt 0 view .LVU171
 689 0024 2000     		movs	r0, r4
 690 0026 1038     		subs	r0, r0, #16
 691              		.loc 1 157 15 view .LVU172
 692 0028 1021     		movs	r1, #16
 693 002a 1818     		adds	r0, r3, r0
 694 002c FFF7FEFF 		bl	get_pt
 695              	.LVL77:
 158:simpleserial-base.c ****         if (err)
 696              		.loc 1 158 9 is_stmt 1 view .LVU173
 697              		.loc 1 158 12 is_stmt 0 view .LVU174
 698 0030 0028     		cmp	r0, #0
 699 0032 03D1     		bne	.L50
 700              	.LVL78:
 701              	.L51:
 159:simpleserial-base.c ****             return err;
 160:simpleserial-base.c ****     }
 161:simpleserial-base.c **** 
 162:simpleserial-base.c ****     if (len != req_len) {
 702              		.loc 1 162 5 is_stmt 1 view .LVU175
 703              		.loc 1 162 8 is_stmt 0 view .LVU176
 704 0034 641B     		subs	r4, r4, r5
 705              	.LVL79:
 706              		.loc 1 162 8 view .LVU177
 707 0036 631E     		subs	r3, r4, #1
 708 0038 9C41     		sbcs	r4, r4, r3
 709 003a A000     		lsls	r0, r4, #2
 710              	.LVL80:
 711              	.L50:
 163:simpleserial-base.c ****         return SS_ERR_LEN;
 164:simpleserial-base.c ****     }
 165:simpleserial-base.c **** 
 166:simpleserial-base.c ****     return 0x00;
 167:simpleserial-base.c **** 
 168:simpleserial-base.c **** }
 712              		.loc 1 168 1 view .LVU178
 713              		@ sp needed
 714              	.LVL81:
 715              		.loc 1 168 1 view .LVU179
 716 003c 70BD     		pop	{r4, r5, r6, pc}
 717              		.cfi_endproc
 718              	.LFE10:
 720              		.section	.text.reset,"ax",%progbits
 721              		.align	1
 722              		.global	reset
 723              		.syntax unified
 724              		.code	16
 725              		.thumb_func
 727              	reset:
 728              	.LFB14:
 729              		.cfi_startproc
  61:simpleserial-base.c **** {
 730              		.loc 1 61 9 is_stmt 1 view -0
 731              		@ args = 0, pretend = 0, frame = 0
 732              		@ frame_needed = 0, uses_anonymous_args = 0
 733              		@ link register save eliminated.
 734 0000 0020     		movs	r0, #0
 735              		@ sp needed
 736 0002 7047     		bx	lr
 737              		.cfi_endproc
 738              	.LFE14:
 740              		.section	.text.startup.main,"ax",%progbits
 741              		.align	1
 742              		.global	main
 743              		.syntax unified
 744              		.code	16
 745              		.thumb_func
 747              	main:
 748              	.LFB11:
 169:simpleserial-base.c **** #endif
 170:simpleserial-base.c **** 
 171:simpleserial-base.c **** int main(void)
 172:simpleserial-base.c **** {
 749              		.loc 1 172 1 view -0
 750              		.cfi_startproc
 751              		@ Volatile: function does not return.
 752              		@ args = 0, pretend = 0, frame = 0
 753              		@ frame_needed = 0, uses_anonymous_args = 0
 173:simpleserial-base.c ****     platform_init();
 754              		.loc 1 173 5 view .LVU182
 172:simpleserial-base.c ****     platform_init();
 755              		.loc 1 172 1 is_stmt 0 view .LVU183
 756 0000 10B5     		push	{r4, lr}
 757              	.LCFI8:
 758              		.cfi_def_cfa_offset 8
 759              		.cfi_offset 4, -8
 760              		.cfi_offset 14, -4
 761              		.loc 1 173 5 view .LVU184
 762 0002 FFF7FEFF 		bl	platform_init
 763              	.LVL82:
 174:simpleserial-base.c **** 	init_uart();
 764              		.loc 1 174 2 is_stmt 1 view .LVU185
 765 0006 FFF7FEFF 		bl	init_uart
 766              	.LVL83:
 175:simpleserial-base.c **** 	trigger_setup();
 767              		.loc 1 175 2 view .LVU186
 768 000a FFF7FEFF 		bl	trigger_setup
 769              	.LVL84:
 176:simpleserial-base.c **** 
 177:simpleserial-base.c ****  	/* Uncomment this to get a HELLO message for debug */
 178:simpleserial-base.c **** 	/*
 179:simpleserial-base.c **** 	putch('h');
 180:simpleserial-base.c **** 	putch('e');
 181:simpleserial-base.c **** 	putch('l');
 182:simpleserial-base.c **** 	putch('l');
 183:simpleserial-base.c **** 	putch('o');
 184:simpleserial-base.c **** 	putch('\n');
 185:simpleserial-base.c **** 	*/
 186:simpleserial-base.c **** 
 187:simpleserial-base.c **** 	simpleserial_init();
 770              		.loc 1 187 2 view .LVU187
 771 000e FFF7FEFF 		bl	simpleserial_init
 772              	.LVL85:
 188:simpleserial-base.c **** #if SS_VER != SS_VER_2_1
 189:simpleserial-base.c **** 	simpleserial_addcmd('p', 16, get_pt);
 190:simpleserial-base.c **** 	simpleserial_addcmd('k', 16, get_key);
 191:simpleserial-base.c **** 	simpleserial_addcmd('x', 0, reset);
 192:simpleserial-base.c **** #else
 193:simpleserial-base.c ****     simpleserial_addcmd(0x01, 16, aes);
 773              		.loc 1 193 5 view .LVU188
 774 0012 1021     		movs	r1, #16
 775 0014 144A     		ldr	r2, .L64
 776 0016 0120     		movs	r0, #1
 777 0018 FFF7FEFF 		bl	simpleserial_addcmd
 778              	.LVL86:
 194:simpleserial-base.c ****     simpleserial_addcmd(0x02, 248, rx_key);   // SK: receive chunk
 779              		.loc 1 194 5 view .LVU189
 780 001c F821     		movs	r1, #248
 781 001e 134A     		ldr	r2, .L64+4
 782 0020 0220     		movs	r0, #2
 783 0022 FFF7FEFF 		bl	simpleserial_addcmd
 784              	.LVL87:
 195:simpleserial-base.c ****     simpleserial_addcmd(0x03, 0, tx_key);     // SK: send chunk
 785              		.loc 1 195 5 view .LVU190
 786 0026 0021     		movs	r1, #0
 787 0028 114A     		ldr	r2, .L64+8
 788 002a 0320     		movs	r0, #3
 789 002c FFF7FEFF 		bl	simpleserial_addcmd
 790              	.LVL88:
 196:simpleserial-base.c ****     simpleserial_addcmd(0x04, 2, set_chunk_size);  // set chunk size
 791              		.loc 1 196 5 view .LVU191
 792 0030 0221     		movs	r1, #2
 793 0032 104A     		ldr	r2, .L64+12
 794 0034 0420     		movs	r0, #4
 795 0036 FFF7FEFF 		bl	simpleserial_addcmd
 796              	.LVL89:
 197:simpleserial-base.c ****     simpleserial_addcmd(0x05, 248, rx_pk);    // PK: receive chunk
 797              		.loc 1 197 5 view .LVU192
 798 003a F821     		movs	r1, #248
 799 003c 0E4A     		ldr	r2, .L64+16
 800 003e 0520     		movs	r0, #5
 801 0040 FFF7FEFF 		bl	simpleserial_addcmd
 802              	.LVL90:
 198:simpleserial-base.c ****     simpleserial_addcmd(0x06, 0, tx_pk);      // PK: send chunk
 803              		.loc 1 198 5 view .LVU193
 804 0044 0021     		movs	r1, #0
 805 0046 0D4A     		ldr	r2, .L64+20
 806 0048 0620     		movs	r0, #6
 807 004a FFF7FEFF 		bl	simpleserial_addcmd
 808              	.LVL91:
 199:simpleserial-base.c ****     simpleserial_addcmd(0x07, 248, rx_ss);    // SS: receive chunk
 809              		.loc 1 199 5 view .LVU194
 810 004e F821     		movs	r1, #248
 811 0050 0B4A     		ldr	r2, .L64+24
 812 0052 0720     		movs	r0, #7
 813 0054 FFF7FEFF 		bl	simpleserial_addcmd
 814              	.LVL92:
 200:simpleserial-base.c ****     simpleserial_addcmd(0x08, 0, tx_ss);      // SS: send chunk
 815              		.loc 1 200 5 view .LVU195
 816 0058 0021     		movs	r1, #0
 817 005a 0820     		movs	r0, #8
 818 005c 094A     		ldr	r2, .L64+28
 819 005e FFF7FEFF 		bl	simpleserial_addcmd
 820              	.LVL93:
 821              	.L63:
 201:simpleserial-base.c **** 
 202:simpleserial-base.c **** #endif
 203:simpleserial-base.c **** 	while(1)
 822              		.loc 1 203 2 view .LVU196
 204:simpleserial-base.c **** 		simpleserial_get();
 823              		.loc 1 204 3 discriminator 1 view .LVU197
 824 0062 FFF7FEFF 		bl	simpleserial_get
 825              	.LVL94:
 203:simpleserial-base.c **** 		simpleserial_get();
 826              		.loc 1 203 7 view .LVU198
 827 0066 FCE7     		b	.L63
 828              	.L65:
 829              		.align	2
 830              	.L64:
 831 0068 00000000 		.word	aes
 832 006c 00000000 		.word	rx_key
 833 0070 00000000 		.word	tx_key
 834 0074 00000000 		.word	set_chunk_size
 835 0078 00000000 		.word	rx_pk
 836 007c 00000000 		.word	tx_pk
 837 0080 00000000 		.word	rx_ss
 838 0084 00000000 		.word	tx_ss
 839              		.cfi_endproc
 840              	.LFE11:
 842              		.global	CHUNK_SZ
 843              		.data
 844              		.align	1
 845              		.set	.LANCHOR0,. + 0
 848              	CHUNK_SZ:
 849 0000 F800     		.short	248
 850              		.bss
 851              		.set	.LANCHOR1,. + 0
 854              	ss:
 855 0000 00000000 		.space	32
 855      00000000 
 855      00000000 
 855      00000000 
 855      00000000 
 858              	pk:
 859 0020 00000000 		.space	800
 859      00000000 
 859      00000000 
 859      00000000 
 859      00000000 
 862              	sk:
 863 0340 00000000 		.space	1632
 863      00000000 
 863      00000000 
 863      00000000 
 863      00000000 
 864              		.text
 865              	.Letext0:
 866              		.file 2 "/usr/lib/gcc/arm-none-eabi/13.2.1/include/stdint.h"
 867              		.file 3 "/usr/lib/gcc/arm-none-eabi/13.2.1/include/stddef.h"
 868              		.file 4 ".././simpleserial/simpleserial.h"
 869              		.file 5 ".././hal/stm32f0/stm32f0_hal.h"
 870              		.file 6 ".././hal/hal.h"
 871              		.file 7 "/usr/include/newlib/string.h"
 872              		.file 8 "<built-in>"